build/BK3633_MOUSE.elf
SYMBOL TABLE:
00025b00 l    d  .vectors	00000000 .vectors
00025e00 l    d  FAST_CALL_SEG	00000000 FAST_CALL_SEG
00025e50 l    d  .text	00000000 .text
00037800 l    d  .rodata	00000000 .rodata
000399c8 l    d  .ARM.exidx	00000000 .ARM.exidx
00400f00 l    d  .data	00000000 .data
0040191c l    d  ke_heap	00000000 ke_heap
004027c4 l    d  .bss	00000000 .bss
00405640 l    d  .stack	00000000 .stack
00000000 l    d  .comment	00000000 .comment
00000000 l    d  .ARM.attributes	00000000 .ARM.attributes
00000000 l    d  .debug_frame	00000000 .debug_frame
00000000 l    d  .stab	00000000 .stab
00000000 l    d  .stabstr	00000000 .stabstr
00000000 l    df *ABS*	00000000 build/dd2/src/system/startup_boot.o
00025b20 l       .vectors	00000000 _reset_handler
00025d80 l       .vectors	00000000 _STACK_SIZE_UND
00025d7c l       .vectors	00000000 _STACK_ADDR_UND
00025d70 l       .vectors	00000000 _STACK_SIZE_IRQ
00025d6c l       .vectors	00000000 _STACK_ADDR_IRQ
00025d68 l       .vectors	00000000 _STACK_SIZE_FIQ
00025d64 l       .vectors	00000000 _STACK_ADDR_FIQ
00025d78 l       .vectors	00000000 _STACK_SIZE_SVC
00025d74 l       .vectors	00000000 _STACK_ADDR_SVC
00025cb8 l       .vectors	00000000 _data_init
00025cd8 l       .vectors	00000000 _zi_init
00000000 l    df *ABS*	00000000 
00027024 l     F .text	00000002 app_dis_init
00027024 l     F .text	00000002 uart_flow_on
00027026 l     F .text	00000004 rf_rpl_reg_rd
0002702a l     F .text	00000004 rf_rpl_reg_wr
0002702e l     F .text	00000004 rf_txpwr_dbm_get
00027034 l     F .text	00000010 rf_sleep
00027044 l     F .text	00000024 rf_force_agc_enable
00027068 l     F .text	0000000a rf_rssi_convert
00027074 l     F .text	00000034 rf_txpwr_cs_get
000270a8 l     F .text	00000034 prf_get_id_from_task
00402aa0 l     O .bss	000000f0 prf_env
000270dc l     F .text	00000034 prf_get_task_from_id
00027110 l     F .text	00000014 rwble_sleep_wakeup_end
00027124 l     F .text	00000004 app_sec_msg_dflt_handler
00027128 l     F .text	00000004 bass_batt_level_ntf_cfg_ind_handler
0002712c l     F .text	00000004 batt_level_upd_handler
00027130 l     F .text	00000004 bass_enable_rsp_handler
00027134 l     F .text	00000004 app_batt_msg_dflt_handler
00027138 l     F .text	00000004 app_hid_msg_dflt_handler
0002713c l     F .text	00000060 app_timer0_1_int_cb
0002719c l     F .text	000000e4 app_mouse_key_scan
00027280 l     F .text	0000005c key_wakeup_config
000272dc l     F .text	00000004 oads_enable_rsp_handler
000272e0 l     F .text	00000014 gapm_activity_created_ind_handler
000272f4 l     F .text	00000034 f24GetFreqConfigValue
00027328 l     F .text	00000040 application_mouse_led_start
00027368 l     F .text	00000058 application_mouse_led_process
000273c0 l     F .text	00000040 REC_OneByte
00027400 l     F .text	00000048 driver_rf_mode_single_wave
004027cc l     O .bss	00000080 XVR_ANALOG_REG_BAK
00027448 l     F .text	00000020 application_mouse_rf_synchronize
00027468 l     F .text	00000010 PowerUp_Rf
00027478 l     F .text	00000010 PowerDown_Rf
00027488 l     F .text	0000002c SwitchToRxMode
000274b4 l     F .text	00000030 SwitchToTxMode
000274e4 l     F .text	00000014 memcpy_2461
000274f8 l     F .text	00000140 Rf_Init
00027638 l     F .text	00000060 driver_rf_channel_switch
00027698 l     F .text	000000ac driver_rf_data_send_ACK
00027744 l     F .text	00000090 driver_rf_receive_package
000277d4 l     F .text	0000003c driver_rf_ouput_power_value_set
00027810 l     F .text	0000003c nvds_walk_tag
0002784c l     F .text	00000034 nvds_browse_tag
00027880 l     F .text	00000040 nvds_get
000278c0 l     F .text	0000003c nvds_del
000278fc l     F .text	00000024 nvds_init_memory
00027920 l     F .text	0000004c prf_itf_get
0002796c l     F .text	00000028 prf_create
00027994 l     F .text	0000002c prf_cleanup
000279c0 l     F .text	00000028 prf_env_get
000279e8 l     F .text	0000007c deep_sleep_wakeup_set
00027a64 l     F .text	00000020 cpu_reset
00027a84 l     F .text	00000034 uart_send
00027ab8 l     F .text	00000004 uart_flow_off
00027abc l     F .text	00000018 uart_read
00027ad4 l     F .text	00000018 uart_write
00027aec l     F .text	00000040 get_flash_ID
00027b2c l     F .text	000000ac flash_write_sr
00027bd8 l     F .text	00000058 flash_wp_256k
00027c30 l     F .text	00000054 flash_wp_ALL
00027c84 l     F .text	00000002 rf_reset
00027c88 l     F .text	0000001c wdt_disable
00027ca4 l     F .text	0000000a bass_create
00027cae l     F .text	0000000a bass_cleanup
00027cb8 l     F .text	00000002 diss_create
00027cba l     F .text	00000002 diss_cleanup
00027cbc l     F .text	00000034 diss_value_to_handle
00027cf0 l     F .text	00000014 fee0s_create
00027d04 l     F .text	00000014 fee0s_cleanup
00027d18 l     F .text	00000020 fee0s_get_att_idx
00027d38 l     F .text	0000000e fcc0s_create
00027d46 l     F .text	0000000e fcc0s_cleanup
00027d54 l     F .text	0000001e fcc0s_get_att_idx
00027d72 l     F .text	00000002 hogpd_create
00027d74 l     F .text	00000020 hogpd_cleanup
00027d94 l     F .text	00000104 hogpd_get_att_handle
00027e98 l     F .text	00000116 hogpd_get_att_idx
00027fae l     F .text	00000014 oads_create
00027fc2 l     F .text	00000014 oads_cleanup
00027fd6 l     F .text	00000076 bass_get_att_idx.constprop.0
0002804c l     F .text	00000024 set_flash_clk.constprop.0
00028070 l     F .text	00000040 SetDataRate.constprop.0
000280b0 l     F .text	00000044 Timer0_Start.constprop.0
000280f4 l     F .text	00000012 prf_dst_task_get.isra.0
00028106 l     F .text	00000012 prf_src_task_get.isra.0
00028118 l     F .text	00000060 driver_rf_data_send_noACK.isra.0
00028178 l     F .text	00000078 app_sensor_check.isra.0
000281f0 l     F .text	000000c4 flash_erase.constprop.0.isra.0
000282b4 l     F .text	00000008 nvds_erase
000282bc l     F .text	00000028 gapm_gen_rand_nb_ind_handler
000282e4 l     F .text	00000130 flash_write_data
00028414 l     F .text	000000b8 flash_read_data.part.0
000284cc l     F .text	00000040 flash_read.constprop.0.isra.0
0002850c l     F .text	00000008 nvds_read
00028514 l     F .text	00000024 oad_save_reciveData
004028c4 l     O .bss	000000c0 bsec
00028538 l     F .text	0000002c appm_disconnect
00028564 l     F .text	00000044 appm_update_param
000285a8 l     F .text	0000002c app_batt_add_bas
000285d4 l     F .text	00000054 diss_value_req_ind_handler
00028628 l     F .text	0000002c app_dis_add_dis
00028654 l     F .text	0000007c gapc_get_dev_info_req_ind_handler
000286d0 l     F .text	00000024 gapc_set_dev_info_req_ind_handler
000286f4 l     F .text	0000006e bass_notify_batt_lvl
00028764 l     F .text	00000054 gattc_att_info_req_ind_handler.lto_priv.0
000287b8 l     F .text	000000b4 gattc_write_req_ind_handler.lto_priv.0
0002886c l     F .text	000000d4 gattc_read_req_ind_handler.lto_priv.0
00028940 l     F .text	00000080 gattc_att_info_req_ind_handler.lto_priv.3
000289c0 l     F .text	0000004a oadImgBlockReq.constprop.0
00028a0c l     F .text	0000001c Timer0_Stop.constprop.0
00028a28 l     F .text	00000048 driver_timer0_reset
00028a70 l     F .text	000000c0 driver_rf_data_retrans
00028b30 l     F .text	00000158 nvds_put
00028c88 l     F .text	00000044 uart2_printf
00028ccc l     F .text	00000154 bdaddr_env_init
00028e20 l     F .text	0000001c platform_reset
00028e3c l     F .text	00000068 prf_init
00028ea4 l     F .text	000000ac prf_add_profile
00028f50 l     F .text	00000088 gapc_encrypt_req_ind_handler
00028fd8 l     F .text	00000014 gapc_encrypt_ind_handler
00028fec l     F .text	0000003c appm_add_svc
00029028 l     F .text	0000003c appm_change_device_mode
00029064 l     F .text	0000007c app_hid_add_hids
000290e0 l     F .text	00000060 hogpd_ctnl_pt_ind_handler
00029140 l     F .text	00000054 hogpd_ntf_cfg_ind_handler
00029194 l     F .text	00000120 hogpd_report_req_ind_handler
00038ea0 l     O .rodata	000000f8 gHIDReportDescriptor
000292b4 l     F .text	00000078 hogpd_proto_mode_req_ind_handler
0002932c l     F .text	00000040 hogpd_report_upd_handler
0002936c l     F .text	0000001c hogpd_enable_rsp_handler
00029388 l     F .text	00000044 app_oad_add_oads
000293cc l     F .text	0000002c app_oads_msg_dflt_handler
000293f8 l     F .text	00000018 app_ffc2_writer_req_handler
00029410 l     F .text	00000018 oads_ffc1_upd_rsp_handler
00029428 l     F .text	00000018 oads_ffc2_upd_rsp_handler
00029440 l     F .text	00000054 app_get_handler
00029494 l     F .text	00000074 appm_msg_handler
00029508 l     F .text	00000028 gapm_profile_added_ind_handler
00029530 l     F .text	000000b0 gapc_cmp_evt_handler
000295e0 l     F .text	0000003c gapc_param_updated_ind_handler
0002961c l     F .text	00000028 app_update_conn_param_req_ind_handler
00029644 l     F .text	00000018 app_ancs_req_handler
0002965c l     F .text	00000040 app_mtu_exchange_req_handler
0002969c l     F .text	00000044 application_page_key_check
000296e0 l     F .text	00000148 driver_rf_data_send
00029828 l     F .text	00000070 application_mouse_channel_search
00029898 l     F .text	00000094 application_mouse_rf_send_with_insistent_hop_16ch
0002992c l     F .text	000000a4 application_mouse_rf_send_start
000299d0 l     F .text	00000070 gattc_att_info_req_ind_handler.lto_priv.1
00029a40 l     F .text	0000013c gattc_write_req_ind_handler.lto_priv.1
00029b7c l     F .text	00000124 gattc_read_req_ind_handler.lto_priv.2
00029ca0 l     F .text	00000068 gattc_att_info_req_ind_handler.lto_priv.2
00029d08 l     F .text	000000d8 gattc_write_req_ind_handler.lto_priv.2
00029de0 l     F .text	000000d0 gattc_read_req_ind_handler.lto_priv.3
00029eb0 l     F .text	00000010 oads_ffc1_upd_req_handler
00029ec0 l     F .text	00000018 oads_ffc2_upd_req_handler
00029ed8 l     F .text	00000100 gattc_read_req_ind_handler.lto_priv.5
00029fd8 l     F .text	00000018 gattc_cmp_evt_handler.lto_priv.4
00029ff0 l     F .text	00000080 flash_write.constprop.0.isra.0
0002a070 l     F .text	00000008 nvds_write
0002a078 l     F .text	00000050 flash_write_some_data.constprop.0
0002a0c8 l     F .text	00000268 oadImgIdentifyWrite.constprop.0.isra.0
0002a330 l     F .text	00000020 app_ffc1_writer_req_handler
0002a350 l     F .text	000002dc gattc_write_req_ind_handler.lto_priv.4
0002a62c l     F .text	00000058 app_sec_send_security_req
0002a684 l     F .text	00000014 app_send_security_req_handler
0002a698 l     F .text	00000034 gattc_mtu_changed_ind_handler
0002a6cc l     F .text	000000e0 gapc_bond_req_ind_handler
0002a7ac l     F .text	000000e0 gapc_bond_ind_handler
0002a88c l     F .text	00000110 appm_init
0002a99c l     F .text	000000e0 gattc_read_req_ind_handler.lto_priv.1
0002aa7c l     F .text	0000007c diss_value_cfm_handler
0002aaf8 l     F .text	0000008c fee0s_fee4_val_upd_req_handler
0002ab84 l     F .text	0000009c fee0s_fee5_val_upd_req_handler
0002ac20 l     F .text	00000078 gattc_cmp_evt_handler.lto_priv.1
0002ac98 l     F .text	00000098 fcc0s_fcc2_val_upd_req_handler
0002ad30 l     F .text	0000005c gattc_cmp_evt_handler.lto_priv.2
0002ad8c l     F .text	000000d0 hogpd_report_cfm_handler
0002ae5c l     F .text	000000b4 hogpd_proto_mode_cfm_handler
0002af10 l     F .text	00000250 gattc_write_req_ind_handler.lto_priv.3
0002b160 l     F .text	0000017c gattc_read_req_ind_handler.lto_priv.4
0002b2dc l     F .text	0000004c gattc_cmp_evt_handler.lto_priv.3
0002b328 l     F .text	00000268 appm_adv_fsm_next
0002b590 l     F .text	0000001c gapm_activity_stopped_ind_handler
0002b5ac l     F .text	00000078 app_hid_mouse_timeout_timer_handler
0002b624 l     F .text	00000068 app_mouse_led_handler
0002b68c l     F .text	0000009c app_gpio_int_cb
0002b728 l     F .text	00000120 app_check_pair_and_mode_change
0002b848 l     F .text	0000007c appm_update_adv_state.constprop.0
0002b8c4 l     F .text	00000220 gapm_cmp_evt_handler
0002bae4 l     F .text	00000218 gapc_connection_req_ind_handler
0002bcfc l     F .text	00000058 gapc_param_update_req_ind_handler
0002bd54 l     F .text	00000070 gapc_disconnect_ind_handler
0002bdc4 l     F .text	00000098 app_period_timer_handler
0002be5c l     F .text	00000024 rwip_timer_10ms_handler
0002be80 l     F .text	00000024 rwip_crypt_evt_handler
0002bea4 l     F .text	00000198 rwip_driver_init
0002c03c l     F .text	00000094 rwip_reset
0002c0d0 l     F .text	0000001c bass_destroy
0002c0ec l     F .text	000000d4 bass_exe_operation
0002c1c0 l     F .text	00000064 bass_batt_level_upd_req_handler
0002c224 l     F .text	00000024 gattc_cmp_evt_handler.lto_priv.0
0002c248 l     F .text	0000001c fee0s_destroy
0002c264 l     F .text	0000001c fcc0s_destroy
0002c280 l     F .text	00000010 hogpd_destroy
0002c290 l     F .text	0000001c oads_destroy
0002c2ac l     F .text	00000160 bass_init
0002c40c l     F .text	00000080 bass_enable_req_handler
0002c48c l     F .text	00000074 hogpd_enable_req_handler
0002c500 l     F .text	00000170 hogpd_report_upd_req_handler
0002c670 l     F .text	00000088 oads_enable_req_handler
0002c6f8 l     F .text	000000b4 diss_init
00038c74 l     O .rodata	00000098 diss_att_db
0002c7ac l     F .text	00000108 fee0s_init
0002c8b4 l     F .text	00000022 diss_destroy
0002c8d8 l     F .text	000000b0 diss_set_value_req_handler
0002c988 l     F .text	000000dc fcc0s_init
00038d34 l     O .rodata	00000084 fcc0_att_db
0002ca64 l     F .text	0000040c hogpd_init
00038f98 l     O .rodata	000000b8 hids_att_db
0002ce70 l     F .text	000000d8 oads_init
00402bb8 l     O .bss	000002ec rwip_heap_env
00401bb8 l     O ke_heap	00000c0c rwip_heap_db
00402ea4 l     O .bss	00002604 rwip_heap_msg
0040191c l     O ke_heap	0000029c rwip_heap_non_ret
00405548 l     O .bss	00000080 uart_rx_buf
004027c4 l     O .bss	00000004 BLED_Timer
004027c8 l     O .bss	00000004 RF_flag
0040284c l     O .bss	00000004 XVR_REG24_BAK
00402850 l     O .bss	00000002 app_batt_env
00402852 l     O .bss	00000001 app_bt
00402853 l     O .bss	00000001 app_clear_bond_flag
00402854 l     O .bss	0000002e app_env
00402882 l     O .bss	00000008 app_hid_env
0040288a l     O .bss	00000001 app_oads_env
0040288b l     O .bss	00000005 app_sec_env
00402890 l     O .bss	00000014 app_val
004028a4 l     O .bss	00000001 appm_state
004028a5 l     O .bss	00000001 bLEDState
004028a8 l     O .bss	00000004 bk_timer0_T0_cnt
004028ac l     O .bss	00000004 bk_timer0_T1_cnt
004028b0 l     O .bss	00000004 bk_timer0_T2_cnt
004028b4 l     O .bss	00000004 bk_timer1_T0_cnt
004028b8 l     O .bss	00000004 bk_timer1_T1_cnt
004028bc l     O .bss	00000004 bk_timer1_T2_cnt
004028c0 l     O .bss	00000001 bk_timer_hit
00402984 l     O .bss	00000030 bt_tx_buff
004029b4 l     O .bss	00000001 channel_search
004029b5 l     O .bss	00000001 cmd_status.3
004029b6 l     O .bss	00000002 deltaX.2
004029b8 l     O .bss	00000002 deltaY.1
004029ba l     O .bss	00000001 flag_test
004029bb l     O .bss	00000001 flash_enable_erase_flag1
004029bc l     O .bss	00000001 flash_enable_erase_flag2
004029bd l     O .bss	00000001 flash_enable_write_flag1
004029be l     O .bss	00000001 flash_enable_write_flag2
004029bf l     O .bss	00000001 flash_enable_write_flag3
004029c0 l     O .bss	00000001 flash_enable_write_flag4
004029c4 l     O .bss	00000004 flash_mid
004029c8 l     O .bss	00000004 gpio_int_cb
004029cc l     O .bss	00000048 host_cmd_data
00402a14 l     O .bss	00000048 host_event_data
00402a5c l     O .bss	00000002 index.1
00402a5e l     O .bss	00000002 key_count_shake.4
00402a60 l     O .bss	00000002 key_free_dalay_cnt.5
00402a62 l     O .bss	00000001 key_press_timer_cnt.6
00402a63 l     O .bss	00000001 key_sleep_en
00402a64 l     O .bss	00000004 lbd_sleep_count
00402a68 l     O .bss	00000001 lbd_sleep_onetime
00402a6a l     O .bss	00000002 length.2
00402a6c l     O .bss	00000006 local_addr
00402a72 l     O .bss	0000000a mouse_val
00402a7c l     O .bss	00000018 nvds_env
00402a94 l     O .bss	00000002 oadBlkNum
00402a96 l     O .bss	00000001 oad_firmware_type
00402a97 l     O .bss	00000001 oad_uid_check_status
00402a98 l     O .bss	00000004 oad_uuid
00402a9c l     O .bss	00000001 old_key_shake.5
00402b90 l     O .bss	00000001 reduce_voltage_set
00402b91 l     O .bss	00000001 restart_adv_after_stop
00402b92 l     O .bss	00000020 rf_fifo_data
00402bb2 l     O .bss	00000001 rf_mode
00402bb4 l     O .bss	00000004 rwble_env
004054a8 l     O .bss	00000001 rx_cmd_count.4
004054a9 l     O .bss	00000001 send_chl
004054aa l     O .bss	00000001 sync_count
004054ac l     O .bss	00000004 sys_flag
004054b0 l     O .bss	00000001 system_clk
004054b4 l     O .bss	00000038 system_data
004054ec l     O .bss	00000001 system_mode
004054ed l     O .bss	00000001 temp_cnt.0
004054ee l     O .bss	00000001 tx_buff_count
004054ef l     O .bss	00000001 tx_buff_head
004054f0 l     O .bss	00000006 tx_buff_len
004054f6 l     O .bss	00000001 tx_buff_tail
004054f7 l     O .bss	00000001 uLedDutyCnt.7
004054f8 l     O .bss	00000001 uRF_TXTime
004054f9 l     O .bss	00000001 uRXDataLens
004054fa l     O .bss	00000001 uart2_rx_done
004054fc l     O .bss	00000004 uart2_rx_index
00405500 l     O .bss	00000020 uart_cmd.0
00405520 l     O .bss	00000028 uart_env
004055c8 l     O .bss	00000001 uart_rx_done
004055cc l     O .bss	00000004 uart_rx_index
004055d0 l     O .bss	00000002 validBlockCnt.0
004055d4 l     O .bss	00000004 wSysFlagfn24
004055d8 l     O .bss	00000001 wheel_old_cnt
00400f00 l     O .data	00000010 Cfg_0c_Val
00400f10 l     O .data	00000010 Cfg_0d_Val
00400f20 l     O .data	00000014 P0_Address
00400f34 l     O .data	00000014 P1_Address
00400f48 l     O .data	00000001 dcount.3
00400f4a l     O .data	00000002 oadBlkTot
00400f4c l     O .data	00000014 rf_address_tx_page
00400f60 l     O .data	00000014 rf_address_tx_pub
0003861c l     O .rodata	0000002c Bond_event_type_str
00038648 l     O .rodata	00000009 CSWTCH.1
00038654 l     O .rodata	00000024 CSWTCH.2
00038678 l     O .rodata	00000005 CSWTCH.29
0003867d l     O .rodata	00000010 RF_CHANNEL_TABLE
0003868d l     O .rodata	0000000f RF_RPL_TX_PW_CONV_TBL
0003869c l     O .rodata	00000003 RF_TEST_CHANNEL
000386a0 l     O .rodata	0000000c TASK_DESC_APP
00038b6c l     O .rodata	000000a0 appm_msg_handler_tab
000386ac l     O .rodata	00000010 USER_FCC0_SERV_UUID_128
000386bc l     O .rodata	0000001a __func__.0.lto_priv.0
000386d6 l     O .rodata	0000000d __func__.0.lto_priv.1
000386e3 l     O .rodata	00000019 __func__.0.lto_priv.2
000386fc l     O .rodata	0000001a __func__.0.lto_priv.3
00038716 l     O .rodata	0000001f __func__.0.lto_priv.4
00038735 l     O .rodata	0000000a __func__.0.lto_priv.5
0003873f l     O .rodata	00000016 __func__.0.lto_priv.6
00038755 l     O .rodata	0000001f __func__.0.lto_priv.7
00038774 l     O .rodata	0000001f __func__.0.lto_priv.8
00038793 l     O .rodata	00000018 __func__.0.lto_priv.9
000387ab l     O .rodata	0000001a __func__.1.lto_priv.0
000387c5 l     O .rodata	0000001c __func__.1.lto_priv.1
000387e1 l     O .rodata	00000015 __func__.1.lto_priv.2
000387f6 l     O .rodata	0000001f __func__.1.lto_priv.3
00038815 l     O .rodata	0000001f __func__.1.lto_priv.4
00038834 l     O .rodata	00000012 __func__.1.lto_priv.5
00038846 l     O .rodata	0000001a __func__.1.lto_priv.6
00038860 l     O .rodata	00000021 __func__.2.lto_priv.0
00038881 l     O .rodata	0000001a __func__.2.lto_priv.1
0003889b l     O .rodata	00000020 __func__.2.lto_priv.2
000388bb l     O .rodata	0000001c __func__.2.lto_priv.3
000388d7 l     O .rodata	0000001c __func__.2.lto_priv.4
000388f3 l     O .rodata	00000014 __func__.2.lto_priv.5
00038907 l     O .rodata	00000016 __func__.2.lto_priv.6
0003891d l     O .rodata	0000001a __func__.3.lto_priv.0
00038937 l     O .rodata	0000001c __func__.3.lto_priv.1
00038953 l     O .rodata	0000001f __func__.3.lto_priv.2
00038972 l     O .rodata	0000001b __func__.3.lto_priv.3
0003898d l     O .rodata	0000001b __func__.3.lto_priv.4
000389a8 l     O .rodata	00000020 __func__.3.lto_priv.5
000389c8 l     O .rodata	00000019 __func__.4.lto_priv.0
000389e1 l     O .rodata	0000001a __func__.4.lto_priv.1
000389fb l     O .rodata	0000001e __func__.4.lto_priv.2
00038a19 l     O .rodata	00000016 __func__.4.lto_priv.3
00038a2f l     O .rodata	00000016 __func__.4.lto_priv.4
00038a45 l     O .rodata	00000011 __func__.5
00038a56 l     O .rodata	0000001d __func__.6
00038a74 l     O .rodata	00000008 app_batt_handlers
00038a7c l     O .rodata	00000020 app_batt_msg_handler_list
00038a9c l     O .rodata	00000008 app_dis_handlers
00038aa4 l     O .rodata	00000008 app_dis_msg_handler_list
00038aac l     O .rodata	00000008 app_hid_handlers
00038ab4 l     O .rodata	00000040 app_hid_msg_handler_list
00038af4 l     O .rodata	00000008 app_oads_handler
00038afc l     O .rodata	00000030 app_oads_msg_handler_list
00038b2c l     O .rodata	00000008 app_sec_handlers
00038b34 l     O .rodata	00000028 app_sec_msg_handler_list
00038b5c l     O .rodata	00000010 appm_add_svc_func_list
00038c0c l     O .rodata	00000028 bas_att_db
00038c34 l     O .rodata	00000010 bass_itf
00038c44 l     O .rodata	00000030 bass_msg_handler_tab
00038d0c l     O .rodata	00000010 diss_itf
00038d1c l     O .rodata	00000018 diss_msg_handler_tab
00038db8 l     O .rodata	00000010 fcc0s_itf
00038dc8 l     O .rodata	00000028 fcc0s_msg_handler_tab
00038df0 l     O .rodata	00000070 fee0_att_db
00038e60 l     O .rodata	00000010 fee0s_itf
00038e70 l     O .rodata	00000030 fee0s_msg_handler_tab
00039050 l     O .rodata	00000010 hogpd_itf
00039060 l     O .rodata	00000040 hogpd_msg_handler_tab
000390a0 l     O .rodata	00000004 nvds_magic_number
000390a4 l     O .rodata	00000048 oads_att_db
000390ec l     O .rodata	00000010 oads_itf
000390fc l     O .rodata	00000030 oads_msg_handler_tab
0003912c l     O .rodata	00000010 uart_api
00000000 l    df *ABS*	00000000 _thumb1_case_uqi.o
00000000 l    df *ABS*	00000000 _thumb1_case_shi.o
00000000 l    df *ABS*	00000000 _thumb1_case_uhi.o
00000000 l    df *ABS*	00000000 _arm_muldf3.o
00000000 l    df *ABS*	00000000 _arm_addsubdf3.o
00000000 l    df *ABS*	00000000 _arm_muldivdf3.o
00000000 l    df *ABS*	00000000 _arm_cmpdf2.o
00000000 l    df *ABS*	00000000 _arm_unorddf2.o
00000000 l    df *ABS*	00000000 _arm_fixdfsi.o
00000000 l    df *ABS*	00000000 _aeabi_uldivmod.o
00000000 l    df *ABS*	00000000 libgcc2.c
00000000 l    df *ABS*	00000000 _dvmd_tls.o
00000000 l    df *ABS*	00000000 _clzdi2.o
00000000 l    df *ABS*	00000000 _clzsi2.o
00000000 l    df *ABS*	00000000 memcpy-stub.c
00000000 l    df *ABS*	00000000 memset.c
00000000 l    df *ABS*	00000000 vsprintf.c
00000000 l    df *ABS*	00000000 impure.c
00400f78 l     O .data	00000428 impure_data
00000000 l    df *ABS*	00000000 vfprintf.c
000392f0 l     O .rodata	00000010 blanks.1
00039300 l     O .rodata	00000010 zeroes.0
00000000 l    df *ABS*	00000000 dtoa.c
000317d4 l     F .text	0000014a quorem
00000000 l    df *ABS*	00000000 mallocr.c
00000000 l    df *ABS*	00000000 localeconv.c
00000000 l    df *ABS*	00000000 mallocr.c
00000000 l    df *ABS*	00000000 memchr-stub.c
00000000 l    df *ABS*	00000000 mlock.c
00000000 l    df *ABS*	00000000 mprec.c
00039550 l     O .rodata	0000000c p05.0
00000000 l    df *ABS*	00000000 s_frexp.c
00000000 l    df *ABS*	00000000 sbrkr.c
00000000 l    df *ABS*	00000000 strlen-stub.c
00000000 l    df *ABS*	00000000 strncpy.c
00000000 l    df *ABS*	00000000 vfprintf.c
000396c8 l     O .rodata	00000010 blanks.1
000396d8 l     O .rodata	00000010 zeroes.0
00000000 l    df *ABS*	00000000 assert.c
00000000 l    df *ABS*	00000000 mallocr.c
00000000 l    df *ABS*	00000000 fiprintf.c
00000000 l    df *ABS*	00000000 locale.c
00000000 l    df *ABS*	00000000 lock.c
00000000 l    df *ABS*	00000000 mbtowc_r.c
00000000 l    df *ABS*	00000000 memmove.c
00000000 l    df *ABS*	00000000 mallocr.c
00000000 l    df *ABS*	00000000 reent.c
00000000 l    df *ABS*	00000000 lib_a-strcmp.o
00000000 l    df *ABS*	00000000 vfprintf.c
000352c0 l     F .text	0000008a __sprint_r.part.0
00036154 l     F .text	00000090 __sbprintf
000398a4 l     O .rodata	00000010 blanks.1
000398b4 l     O .rodata	00000010 zeroes.0
00000000 l    df *ABS*	00000000 wctomb_r.c
00000000 l    df *ABS*	00000000 wsetup.c
00000000 l    df *ABS*	00000000 abort.c
00000000 l    df *ABS*	00000000 ctype_.c
00000000 l    df *ABS*	00000000 fflush.c
00000000 l    df *ABS*	00000000 findfp.c
00036580 l     F .text	0000001e __fp_lock
000365a0 l     F .text	0000001e __fp_unlock
00000000 l    df *ABS*	00000000 fputwc.c
00000000 l    df *ABS*	00000000 fvwrite.c
00000000 l    df *ABS*	00000000 fwalk.c
00000000 l    df *ABS*	00000000 makebuf.c
00000000 l    df *ABS*	00000000 signal.c
00000000 l    df *ABS*	00000000 signalr.c
00000000 l    df *ABS*	00000000 stdio.c
00000000 l    df *ABS*	00000000 wbuf.c
00000000 l    df *ABS*	00000000 wcrtomb.c
00000000 l    df *ABS*	00000000 writer.c
00000000 l    df *ABS*	00000000 closer.c
00000000 l    df *ABS*	00000000 fclose.c
00000000 l    df *ABS*	00000000 fstatr.c
00000000 l    df *ABS*	00000000 isattyr.c
00000000 l    df *ABS*	00000000 lseekr.c
00000000 l    df *ABS*	00000000 readr.c
00000000 l    df *ABS*	00000000 close.c
00000000 l    df *ABS*	00000000 fstat.c
00000000 l    df *ABS*	00000000 getpid.c
00000000 l    df *ABS*	00000000 isatty.c
00000000 l    df *ABS*	00000000 kill.c
00000000 l    df *ABS*	00000000 lseek.c
00000000 l    df *ABS*	00000000 read.c
00000000 l    df *ABS*	00000000 sbrk.c
0040563c l     O .bss	00000004 heap_end.0
00000000 l    df *ABS*	00000000 write.c
00000000 l    df *ABS*	00000000 _exit.c
00025dd0 l     F .vectors	0000000c __main_from_arm
00025e30 l     F FAST_CALL_SEG	0000000c __IRQ_Exception_from_arm
00025e3c l     F FAST_CALL_SEG	0000000c __FIQ_Exception_from_arm
00037728 l     F .text	00000008 ____aeabi_ui2d_from_thumb
00037730 l     F .text	0000000c ____aeabi_ldiv0_from_arm
0003773c l     F .text	00000008 ____aeabi_dmul_from_thumb
00037744 l     F .text	00000008 ____aeabi_idiv_from_thumb
0003774c l     F .text	00000008 ____clzdi2_from_thumb
00037754 l     F .text	00000008 ____enable_fiq_from_thumb
0003775c l     F .text	00000008 ____aeabi_dsub_from_thumb
00037764 l     F .text	00000008 ____aeabi_dadd_from_thumb
0003776c l     F .text	0000000c ____udivmoddi4_from_arm
00037778 l     F .text	00000008 ____aeabi_dcmple_from_thumb
00037780 l     F .text	00000008 ____aeabi_uidiv_from_thumb
00037788 l     F .text	00000008 ____disable_irq_from_thumb
00037790 l     F .text	00000008 ____aeabi_uldivmod_from_thumb
00037798 l     F .text	00000008 ____aeabi_dcmplt_from_thumb
000377a0 l     F .text	00000008 ____aeabi_i2d_from_thumb
000377a8 l     F .text	00000008 ____aeabi_d2iz_from_thumb
000377b0 l     F .text	00000008 ____aeabi_dcmpeq_from_thumb
000377b8 l     F .text	00000008 ____aeabi_idivmod_from_thumb
000377c0 l     F .text	00000008 ____aeabi_uidivmod_from_thumb
000377c8 l     F .text	00000008 ____aeabi_dcmpun_from_thumb
000377d0 l     F .text	00000008 ____enable_irq_from_thumb
000377d8 l     F .text	00000008 __strcmp_from_thumb
000377e0 l     F .text	00000008 ____aeabi_dcmpgt_from_thumb
000377e8 l     F .text	00000008 ____disable_fiq_from_thumb
000377f0 l     F .text	00000008 ____aeabi_ddiv_from_thumb
000200d4 g     F *ABS*	0000002c ke_state_get
0001f2fc g     F *ABS*	00000044 ke_mem_is_empty
00033c4c g     F .text	00000038 _mprec_log10
0001eb6c g     F *ABS*	00000030 co_list_extract
00026b20 g     F .text	00000038 .hidden __aeabi_dcmpun
00033cc8 g     F .text	00000054 __any_on
00037608 g     F .text	00000028 _isatty_r
00039528 g     O .rodata	00000028 __mprec_tinytens
00026ad8 g     F .text	00000018 .hidden __aeabi_dcmple
000351c0 g     F .text	00000052 cleanup_glue
00018408 g     F *ABS*	00000012 hci_cmd_get_max_param_size
000376a8 g     F .text	00000010 _getpid
000269ec g     F .text	00000088 .hidden __cmpdf2
00023d04 g     O *ABS*	00000030 hci_cmd_desc_root_tab
00037630 g     F .text	0000002c _lseek_r
00009cf8 g     F *ABS*	000000c4 attm_att_set_permission
0000a294 g     F *ABS*	000000dc attc_send_read_ind
00002646 g     F *ABS*	00000002 PrefetchAbort_Exception
000269ec g     F .text	00000088 .hidden __eqdf2
00002794 g     F *ABS*	00000010 gapc_set_operation_ptr
0001f340 g     F *ABS*	0000009c ke_check_malloc
000094e0 g     F *ABS*	0000007c l2cc_lecb_pdu_unpack
00400f00 g       .data	00000000 _data_addr_begin
00018274 g     F *ABS*	00000014 hci_fc_init
00008c30 g     F *ABS*	00000044 attmdb_uuid16_comp
000112b8 g     F *ABS*	00000314 lld_init
000264e0 g     F .text	00000060 .hidden __floatdidf
0001e9e8 g     F *ABS*	00000018 sch_plan_init
00037214 g     F .text	0000002c _kill_r
00025d20 g     F .vectors	00000000 __disable_irq
00008f14 g     F *ABS*	00000198 attm_get_value
0040561c g     O .bss	00000001 __lock___atexit_recursive_mutex
0002fbc4 g     F .text	0000003c vsprintf
000373f0 g     F .text	0000004a _wcrtomb_r
0040045c g     O *ABS*	00000001 gapc_state
00036f78 g     F .text	0000005c _signal_r
000372c0 g     F .text	00000030 __sseek
00036610 g     F .text	00000124 __sinit
004009a0 g     O *ABS*	00000001 latency_disable
00037300 g     F .text	000000d4 __swbuf_r
0000e7e0 g     F *ABS*	000000a8 l2cc_lecb_free
00008984 g     F *ABS*	00000052 attm_uuid_comp
0001f4bc g     F *ABS*	000000d8 ke_free
00034c04 g     F .text	00000048 _setlocale_r
000365c0 g     F .text	00000032 __sfmoreglue
0000cc84 g     F *ABS*	00000008 gattm_create
000331d0 g     F .text	00000014 __malloc_unlock
000182d8 g     F *ABS*	00000028 hci_fc_check_host_available_nb_acl_packets
0002018c g     F *ABS*	00000018 ke_timer_adjust_all
0000cd50 g     F *ABS*	00000068 gattc_send_complete_evt
000091f0 g     F *ABS*	00000018 gattc_get_operation
000183c8 g     F *ABS*	00000040 hci_init
00002930 g     F *ABS*	0000000c gapm_get_irk
00405614 g     O .bss	00000001 __lock___arc4random_mutex
0001feb8 g     F *ABS*	0000000e ke_msg_send_basic
00034d1c g     F .text	000000ba memmove
000233ac g     O *ABS*	00000068 atts_handlers
00009a84 g     F *ABS*	00000030 l2cc_pdu_alloc
000365f4 g     F .text	0000001c _cleanup
000331e4 g     F .text	00000052 _Balloc
0001ff94 g     F *ABS*	00000048 ke_init
00018364 g     F *ABS*	00000024 hci_look_for_evt_desc
0000e2d4 g     F *ABS*	00000008 l2cm_create
004004b0 g     O *ABS*	00000001 gapm_state
0002079c g     F *ABS*	00000030 rwip_prevent_sleep_set
00002958 g     F *ABS*	00000010 gapm_is_legacy_pairing_supp
000269dc g     F .text	00000098 .hidden __gtdf2
00034cac g     F .text	00000002 __retarget_lock_close
0001ebe2 g     F *ABS*	0000002c co_list_insert_before
00032ba8 g     F .text	00000004 __localeconv_l
000029d8 g     F *ABS*	00000020 gapm_dle_val_check
00002824 g     F *ABS*	0000001c gapc_enc_keysize_get
000375dc g     F .text	0000002c _fstat_r
0001842c g     F *ABS*	00000014 sch_arb_init
0000856c g     F *ABS*	00000038 gapm_get_task_from_id
0000264a g     F *ABS*	00000002 Reserved_Exception
00002b90 g     F *ABS*	0000002c gapc_update_state
00405638 g     O .bss	00000004 errno
00037278 g     F .text	00000004 __seofread
0001822c g     F *ABS*	00000034 hci_evt_mask_set
0001ec0e g     F *ABS*	0000002e co_list_insert_after
00024250 g     O *ABS*	00000030 hci_cmd_desc_tab_vs
00400564 g     O *ABS*	00000004 l2cc_env
0001f608 g     F *ABS*	00000008 ke_msg_free
00018260 g     F *ABS*	00000014 hci_fc_acl_buf_size_set
00026a90 g     F .text	00000018 .hidden __aeabi_cdcmple
00400640 g     O *ABS*	00000008 llc_env
00008a50 g     F *ABS*	0000003c attm_convert_to128_ti
00002840 g     F *ABS*	00000054 gapc_auth_set
0000f500 g     F *ABS*	0000003c l2cm_init
00020144 g     F *ABS*	00000024 ke_task_check
0000310c g     F *ABS*	00000088 gapc_process_op
0000aa18 g     F *ABS*	0000004c attc_l2cc_pdu_recv_handler
00008bbc g     F *ABS*	00000074 attmdb_get_next_att
0001ebb6 g     F *ABS*	00000012 co_list_find
000207cc g     F *ABS*	00000040 h4tl_write
00018f74 g     F *ABS*	00000050 hci_tl_send
00009394 g     F *ABS*	00000010 gattc_set_operation_ptr
00025d10 g     F .vectors	00000000 __enable_irq
0002fa6c g     F .text	000000a6 memcpy
00026a74 g     F .text	00000034 .hidden __aeabi_cdrcmple
00009a74 g     F *ABS*	00000010 l2cm_set_link_layer_buff_size
0001855c g     F *ABS*	00000078 hci_send_2_controller
000093d8 g     F *ABS*	00000010 l2cc_get_operation_ptr
00020168 g     F *ABS*	00000024 ke_timer_active
0001f19c g     F *ABS*	00000014 ke_event_init
0000a14c g     F *ABS*	0000003c l2cc_sig_pdu_recv_handler
0003656c g     F .text	00000014 _cleanup_r
0002fc2c g     F .text	00001ba8 _svfprintf_r
0002645c g     F .text	00000028 .hidden __floatsidf
00018388 g     F *ABS*	00000020 hci_look_for_le_evt_desc
00025d00 g       .vectors	00000000 _swi_handler
00009c1c g     F *ABS*	00000030 gattc_reschedule_operation
000269e4 g     F .text	00000090 .hidden __ltdf2
00020d3c g     F *ABS*	000000a4 sch_arb_event_start_isr
00012fe0 g     F *ABS*	00000604 llc_start
0000a0a6 g     F *ABS*	00000026 l2cc_lecb_send_disc_rsp
0000a0cc g     F *ABS*	00000026 l2cc_lecb_send_credit_add
00002e04 g     F *ABS*	00000038 gapc_init
0001ec50 g     F *ABS*	0000001a co_bdaddr_compare
00026bb4 g     F .text	00000000 .hidden __aeabi_uldivmod
000093e8 g     F *ABS*	00000010 l2cc_set_operation_ptr
0000f5c0 g     F *ABS*	0000002c hci_command_handler
00025cfc g       .vectors	00000000 _undefined_handler
000186c0 g     F *ABS*	00000064 lld_con_stop
00400625 g     O *ABS*	0000001a hci_env
00033be0 g     F .text	0000006c __ratio
00023b18 g     O *ABS*	00000014 rwip_priority
00400b18 g     O *ABS*	00000001 uart_rx_en
0001f264 g     F *ABS*	0000002c ke_event_schedule
00002524 g     F *ABS*	00000068 gapc_hci_handler
00022490 g     F *ABS*	00000012 __aeabi_memset
00036fd4 g     F .text	00000062 _raise_r
00037698 g     F .text	00000010 _fstat
00034b1c g     F .text	00000040 __assert_func
0001f610 g     F *ABS*	00000040 ke_flush
0000a3e0 g     F *ABS*	00000020 attm_init
00039460 g     O .rodata	000000c8 __mprec_tens
0001bd38 g     F *ABS*	00000040 sch_alarm_timer_isr
0001f144 g     F *ABS*	00000010 h4tl_start
000201e0 g     F *ABS*	00000030 rwip_time_get
004027c4 g       .bss	00000000 _bss_start
000085a4 g     F *ABS*	0000001c gapm_le_psm_cleanup
00022484 g     F *ABS*	0000000c __aeabi_memcpy
0040560c g     O .bss	00000004 __malloc_top_pad
0000b15e g     F *ABS*	0000013e attm_svc_create_db128
00037240 g     F .text	0000000c _getpid_r
0001f5bc g     F *ABS*	0000004c ecc_init
00026438 g     F .text	00000024 .hidden __aeabi_ui2d
00032bac g     F .text	00000008 _localeconv_r
00036a3c g     F .text	0000031c __sfvwrite_r
00033440 g     F .text	00000064 __i2b
00037038 g     F .text	00000068 __sigtramp_r
00002658 g     F *ABS*	00000024 gapc_get_conidx
00026bf0 g     F .text	0000019a .hidden __udivmoddi4
0002611c g     F .text	00000000 .hidden __aeabi_drsub
00033d84 g     F .text	00000028 _sbrk_r
00002cfc g     F *ABS*	00000024 gapc_send_disconect_ind
00020a98 g     F *ABS*	00000030 rwip_prevent_sleep_clear
0003765c g     F .text	0000002c _read_r
0001ea08 g     F *ABS*	00000030 sch_prog_init
00025d84 g       .vectors	00000000 boot_stack_base_FIQ
0000f0b0 g     F *ABS*	00000020 l2cm_tx_status
00025e50 g     F .text	00000012 .hidden __gnu_thumb1_case_uqi
0001f154 g     F *ABS*	0000001c h4tl_stop
00026ac0 g     F .text	00000018 .hidden __aeabi_dcmplt
0000294c g     F *ABS*	0000000c gapm_get_bdaddr
000374e0 g     F .text	000000e2 _fclose_r
000364f0 g     F .text	0000007c fflush
0001eb10 g     F *ABS*	00000024 co_list_pool_init
00405604 g     O .bss	00000004 __malloc_max_sbrked_mem
0001ff00 g     F *ABS*	00000040 ke_queue_extract
00026484 g     F .text	00000048 .hidden __extendsfdf2
000267d0 g     F .text	0000020c .hidden __aeabi_ddiv
0001f170 g     F *ABS*	00000010 ke_timer_init
00026128 g     F .text	00000310 .hidden __adddf3
00400534 g     O *ABS*	00000001 gattm_state
00033a38 g     F .text	000000cc __b2d
00405624 g     O .bss	00000001 __lock___env_recursive_mutex
00026540 g     F .text	00000290 .hidden __aeabi_dmul
00022484 g     F *ABS*	0000000c __aeabi_memcpy4
00022eac g     O *ABS*	00000018 gapc_sig_handlers
000376b8 g     F .text	00000010 _isatty
000181c4 g     F *ABS*	00000020 ble_addr_add1
000187d4 g     F *ABS*	0000005c hci_acl_tx_data_received
00008e58 g     F *ABS*	000000bc attmdb_get_uuid
00405630 g     O .bss	00000001 __lock___sinit_recursive_mutex
0003913c g     O .rodata	00000004 _global_impure_ptr
00034dd8 g     F .text	000003e6 _realloc_r
00002ab4 g     F *ABS*	00000010 gapm_is_pref_con_param_pres
000026a0 g     F *ABS*	00000020 gapc_get_conhdl
0003695c g     F .text	00000064 _fputwc_r
00039438 g     O .rodata	00000028 __mprec_bigtens
000332f8 g     F .text	000000b4 __s2b
00036304 g     F .text	0000000e abort
0001feee g     F *ABS*	00000006 ke_msg_src_id_get
00026438 g     F .text	00000024 .hidden __floatunsidf
000084d8 g     F *ABS*	0000003c gapm_con_cleanup
000376f8 g     F .text	0000001c _sbrk
00033828 g     F .text	00000038 __mcmp
00002d20 g     F *ABS*	00000060 gapc_send_complete_evt
000093c0 g     F *ABS*	00000018 l2cc_get_operation
00036860 g     F .text	00000024 __fp_lock_all
0001eb34 g     F *ABS*	00000016 co_list_push_back
0000a1d8 g     F *ABS*	00000024 attc_send_execute
0001f190 g     F *ABS*	0000000c ke_event_get_all
00008db4 g     F *ABS*	00000078 attmdb_get_max_len
000090ac g     F *ABS*	00000128 attmdb_att_get_permission
00003ed4 g     F *ABS*	00000020 gapm_send_error_evt
00023c88 g     O *ABS*	00000003 LLM_AA_CT1
00002a8c g     F *ABS*	00000028 gapm_lecb_unregister
0001f3dc g     F *ABS*	000000e0 ke_malloc
00405640 g       .bss	00000000 _bss_end
0001ebc8 g     F *ABS*	0000001a co_list_merge
0001841c g     F *ABS*	00000010 sch_alarm_init
0000a0f2 g     F *ABS*	0000005a l2cc_sig_send_cmd_reject
00025d88 g       .vectors	00000000 boot_stack_base_IRQ
0000a1fc g     F *ABS*	0000005c l2cc_lecb_send_con_req
0000a4a4 g     F *ABS*	000002c4 l2cc_pdu_header_check
00035214 g     F .text	000000aa _reclaim_reent
0000a400 g     F *ABS*	00000020 atts_clear_read_cache
000333ac g     F .text	00000036 __hi0bits
000089e8 g     F *ABS*	00000034 attm_is_bt16_uuid
0001f12c g     F *ABS*	00000018 ke_event_callback_set
00026b58 g     F .text	0000005c .hidden __fixdfsi
0000d688 g     F *ABS*	00000098 atts_l2cc_pdu_recv_handler
00405628 g     O .bss	00000001 __lock___malloc_recursive_mutex
00008b82 g     F *ABS*	00000038 attmdb_get_attribute
00008928 g     F *ABS*	00000010 gattc_get_operation_ptr
00022474 g     F *ABS*	0000000e __aeabi_memclr8
00025d04 g       .vectors	00000000 _pabort_handler
000182ac g     F *ABS*	00000014 hci_fc_acl_packet_sent
0001eb58 g     F *ABS*	00000014 co_list_pop_front
0000afd8 g     F *ABS*	00000038 gattm_init_attr
00008434 g     F *ABS*	00000034 gapm_init_attr
00002c80 g     F *ABS*	00000030 gapc_reschedule_operation
00009fb2 g     F *ABS*	00000026 atts_send_error
00018b6c g     F *ABS*	00000154 llm_init
000097e0 g     F *ABS*	00000288 l2cc_pdu_unpack
00026128 g     F .text	00000310 .hidden __aeabi_dadd
00400458 g     O *ABS*	00000004 gapc_env
000269e4 g     F .text	00000090 .hidden __ledf2
0000f328 g     F *ABS*	00000014 l2cm_cleanup
00020c38 g     F *ABS*	0000004c h4tl_init
00020020 g     F *ABS*	00000038 ke_task_delete
00003e68 g     F *ABS*	00000044 gapm_send_complete_evt
0003364c g     F .text	000000dc __pow5mult
000264cc g     F .text	00000074 .hidden __aeabi_ul2d
00020688 g     F *ABS*	000000a8 ke_timer_set
00405640 g       .bss	00000000 end
000022e4 g     F *ABS*	00000000 .hidden __aeabi_idiv
000028c8 g     F *ABS*	0000003c gapc_param_update_sanity
00018300 g     F *ABS*	00000064 hci_look_for_cmd_desc
00034cc8 g     F .text	00000002 __retarget_lock_release_recursive
000027c0 g     F *ABS*	00000044 gapc_is_sec_set
00002784 g     F *ABS*	00000010 gapc_get_operation_ptr
00025d44 g     F .vectors	00000000 __disable_fiq
00020058 g     F *ABS*	0000007c ke_state_set
00034cc0 g     F .text	00000004 __retarget_lock_try_acquire_recursive
00008afc g     F *ABS*	00000048 attmdb_get_service
004009a4 g     O *ABS*	0000001c rwip_env
0000aea4 g     F *ABS*	00000134 attm_svc_create_db
0000937c g     F *ABS*	00000018 gattc_get_op_seq_num
00026b08 g     F .text	00000018 .hidden __aeabi_dcmpgt
00026db8 g     F .text	00000048 .hidden __clzsi2
00036810 g     F .text	00000014 __sfp_lock_acquire
00033144 g     F .text	00000078 memchr
000329e0 g     F .text	000001c8 _free_r
00025e64 g     F .text	00000014 .hidden __gnu_thumb1_case_shi
00034c4c g     F .text	00000010 __locale_mb_cur_max
00026af0 g     F .text	00000018 .hidden __aeabi_dcmpge
00002e3c g     F *ABS*	00000010 gapc_con_cleanup
00026124 g     F .text	00000314 .hidden __aeabi_dsub
004017a8 g     O .data	00000004 __malloc_sbrk_base
00020a3c g     F *ABS*	0000005c aes_result_handler
00025b00 g       *ABS*	00000000 _vector_start
0000cc8c g     F *ABS*	000000c4 gattc_con_enable
00034cbc g     F .text	00000004 __retarget_lock_try_acquire
00008a1c g     F *ABS*	00000034 attm_is_bt32_uuid
000264cc g     F .text	00000074 .hidden __floatundidf
0002265c g     F *ABS*	00000038 rand
000376d8 g     F .text	00000010 _lseek
00033728 g     F .text	00000100 __lshift
00002994 g     F *ABS*	0000002c gapm_get_id_from_task
00020104 g     F *ABS*	00000040 ke_task_msg_flush
00037108 g     F .text	00000058 signal
00033e80 g     F .text	00000118 __ssprint_r
00023dd0 g     O *ABS*	0000045c hci_cmd_desc_tab_le
00025e20 g     F FAST_CALL_SEG	00000000 _irq_handler
000334a4 g     F .text	000001a8 __multiply
0001ff74 g     F *ABS*	00000020 ke_task_init
00020100 g     F *ABS*	00000004 ke_msg_save
00033e0c g     F .text	00000074 strncpy
004055dc g     O .bss	00000028 __malloc_current_mallinfo
00009f28 g     F *ABS*	00000034 l2cc_lecb_init_disconnect
00022474 g     F *ABS*	0000000e __aeabi_memclr
00033b04 g     F .text	000000dc __d2b
00020ac8 g     F *ABS*	00000150 sch_prog_fifo_isr
0001fee8 g     F *ABS*	00000006 ke_msg_dest_id_get
00010824 g     F *ABS*	00000128 ble_util_buf_init
0001fef4 g     F *ABS*	0000000c ke_msg_in_queue
0000a3b0 g     F *ABS*	00000030 attmdb_destroy
000237b4 g     O *ABS*	00000010 co_sca2ppm
00008c74 g     F *ABS*	000000c8 attm_att_set_value
0001ff40 g     F *ABS*	00000032 ke_queue_insert
00023b08 g     O *ABS*	00000010 one_bits
0000cc24 g     F *ABS*	00000060 gattc_create
000374b8 g     F .text	00000028 _close_r
00018288 g     F *ABS*	00000024 hci_fc_acl_en
0002f820 g     F .text	0000024c FIQ_Exception
0002645c g     F .text	00000028 .hidden __aeabi_i2d
0000946c g     F *ABS*	00000074 l2cc_lecb_pdu_pack
0000a064 g     F *ABS*	00000042 l2cc_lecb_send_con_rsp
00002644 g     F *ABS*	00000002 SoftwareInterrupt_Exception
00400b54 g     O *ABS*	00000030 ke_env
000224a4 g     F *ABS*	0000004a memcmp
004004f8 g     O *ABS*	00000001 gattc_state
00034cb0 g     F .text	00000002 __retarget_lock_close_recursive
0002379c g     O *ABS*	00000006 co_null_bdaddr
000182c0 g     F *ABS*	00000018 hci_fc_host_nb_acl_pkts_complete
0003621c g     F .text	000000e8 __swsetup_r
000093f8 g     F *ABS*	0000003e l2cc_lecb_h2l_err
00026d8c  w    F .text	00000002 .hidden __aeabi_ldiv0
000093a4 g     F *ABS*	0000001c gattc_get_requester
000267d0 g     F .text	0000020c .hidden __divdf3
00036734 g     F .text	000000dc __sfp
00033c84 g     F .text	00000042 __copybits
00024288 g     O *ABS*	00000048 hci_evt_desc_tab
004013a0 g     O .data	00000408 __malloc_av_
0003684c g     F .text	00000014 __sinit_lock_release
0000f53c g     F *ABS*	0000001c rwble_hl_init
00026540 g     F .text	00000290 .hidden __muldf3
00002ac4 g     F *ABS*	00000028 gapm_get_att_handle
0003724c g     F .text	0000002c __sread
00400568 g     O *ABS*	00000001 l2cc_state
000331bc g     F .text	00000014 __malloc_lock
0000a1b8 g     F *ABS*	00000020 attc_send_hdl_cfm
00036480 g     F .text	00000070 _fflush_r
00034b68 g     F .text	0000005e _calloc_r
0001fed6 g     F *ABS*	00000012 ke_msg_forward_new_id
00034cb8 g     F .text	00000002 __retarget_lock_acquire_recursive
000029cc g     F *ABS*	0000000c gapm_get_max_mps
0000d838 g     F *ABS*	0000003c gattc_init
000201a4 g     F *ABS*	0000003c rwip_sw_int_handler
0002fb14 g     F .text	000000ae memset
0002cf48 g     F .text	000026c0 main
0000f0d0 g     F *ABS*	00000258 l2cc_data_send
00004afc g     F *ABS*	00000138 gapc_con_create
00405608 g     O .bss	00000004 __malloc_max_total_mem
00025e00 g     F FAST_CALL_SEG	00000000 _fiq_handler
00034ca8 g     F .text	00000002 __retarget_lock_init_recursive
000373d4 g     F .text	0000001c __swbuf
00022648 g     F *ABS*	00000014 srand
000029c0 g     F *ABS*	0000000c gapm_get_max_mtu
000021c8 g     F *ABS*	00000000 .hidden __aeabi_uidiv
000372f0 g     F .text	00000010 __sclose
0000b010 g     F *ABS*	0000014e attm_svc_create_db_128
0001eb9c g     F *ABS*	0000001a co_list_extract_after
004027c4 g       .bss	00000000 _data_addr_end
000375c4 g     F .text	00000018 fclose
00020730 g     F *ABS*	0000006c ke_timer_clear
0001ea00 g     F *ABS*	00000008 co_list_init
00031920 g     F .text	0000101e _dtoa_r
00032bbc g     F .text	00000588 _malloc_r
00036200 g     F .text	0000001c __ascii_wctomb
000264e0 g     F .text	00000060 .hidden __aeabi_l2d
00025d90 g       .vectors	00000000 boot_stack_base_UNUSED
00034bc8 g     F .text	00000018 _fiprintf_r
00037160 g     F .text	00000040 _init_signal
00036d58 g     F .text	00000048 _fwalk
00009fd8 g     F *ABS*	00000028 atts_write_rsp_send
000089d6 g     F *ABS*	00000012 attm_uuid16_comp
0000a258 g     F *ABS*	0000003c l2cc_lecb_send_disc_req
00034ccc g     F .text	00000022 _mbtowc_r
000029f8 g     F *ABS*	00000010 gapm_is_sec_con_pairing_supp
00032940 g     F .text	000000a0 _malloc_trim_r
00025d0c g       .vectors	00000000 _reserved_handler
000236b0 g     O *ABS*	00000040 l2cc_sig_handlers
00026e00 g     F .text	00000224 strcmp
0000e304 g     F *ABS*	00000090 l2cc_process_op
00036138 g     F .text	0000001c vfiprintf
00034ca4 g     F .text	00000002 __retarget_lock_init
00002748 g     F *ABS*	00000024 gapc_get_bdaddr
00008a8c g     F *ABS*	00000050 attmdb_svc_check_hdl
00023d34 g     O *ABS*	0000006c hci_cmd_desc_tab_ctrl_bb
000269ec g     F .text	00000088 .hidden __nedf2
0000e2dc g     F *ABS*	00000028 l2cc_update_state
00011f40 g     F *ABS*	00000078 lld_adv_stop
00405610 g     O .bss	00000004 _PathLocale
0000264c g     F *ABS*	0000000c stack_main
00400624 g     O *ABS*	00000001 enable_phy_2m
00002968 g     F *ABS*	00000014 gapm_get_operation
0003748c g     F .text	0000002c _write_r
00009438 g     F *ABS*	00000034 l2cc_lecb_find
0002fc00 g     F .text	0000002c _vsprintf_r
00034c5c g     F .text	00000048 setlocale
004004b4 g     O *ABS*	0000000c l2cm_env
004004f4 g     O *ABS*	00000004 gattc_env
00023c8b g     O *ABS*	00000002 LLM_AA_CT2
00025d08 g       .vectors	00000000 _dabort_handler
0000a958 g     F *ABS*	00000064 atts_process_pdu
00400f74 g     O .data	00000004 _impure_ptr
0000aa64 g     F *ABS*	00000440 attmdb_add_service
0001ffdc g     F *ABS*	00000044 ke_task_create
00036314 g     F .text	0000016c __sflush_r
0001f1b0 g     F *ABS*	00000038 ke_event_set
000242d0 g     O *ABS*	000000c0 hci_evt_le_desc_tab
00033f98 g     F .text	00000b84 _svfiprintf_r
0001f290 g     F *ABS*	0000006c ke_mem_init
0000263c g     F *ABS*	00000002 uart_stack_register
00034cf0 g     F .text	0000002c __ascii_mbtowc
000339f0 g     F .text	00000048 __ulp
0002422c g     O *ABS*	00000018 hci_cmd_desc_tab_lk_ctrl
00036884 g     F .text	00000024 __fp_unlock_all
0000d874 g     F *ABS*	0000000a gattm_cleanup
00025d34 g     F .vectors	00000000 __enable_fiq
00400910 g     O *ABS*	00000034 rwip_rf
00002c20 g     F *ABS*	00000032 gapm_update_state
004004c0 g     O *ABS*	00000028 rom_env
0001f258 g     F *ABS*	0000000c ke_event_flush
00013948 g     F *ABS*	00000034 llc_stop
00010e64 g     F *ABS*	00000040 llc_init
00016168 g     F *ABS*	00000690 lld_adv_start
00002a58 g     F *ABS*	00000034 gapm_lecb_register
00009fa8 g     F *ABS*	0000000a l2cc_pdu_send
0001f73c g     F *ABS*	00000032 ke_msg_alloc
00032bb4 g     F .text	00000008 localeconv
00036edc g     F .text	00000064 __swhatbuf_r
0002332c g     O *ABS*	00000070 attc_handlers
000022c4 g     F *ABS*	00000020 .hidden __aeabi_uidivmod
00026aa8 g     F .text	00000018 .hidden __aeabi_dcmpeq
0000e298 g     F *ABS*	0000003c l2cc_create
00037714 g     F .text	00000010 _write
0002f608 g     F .text	00000218 IRQ_Exception
0000276c g     F *ABS*	00000018 gapc_get_operation
00009bf4 g     F *ABS*	00000028 gattc_send_error_evt
0001ec3c g     F *ABS*	00000014 co_list_size
000368a8 g     F .text	000000b4 __fputwc
00002648 g     F *ABS*	00000002 DataAbort_Exception
0001bc54 g     F *ABS*	00000058 hci_acl_tx_data_alloc
00405618 g     O .bss	00000001 __lock___at_quick_exit_mutex
00024244 g     O *ABS*	0000000c hci_cmd_desc_tab_stat_par
0000e270 g     F *ABS*	00000028 gattm_init
000399d0 g       .data	00000000 data_load_begin
0001f770 g     F *ABS*	00000038 ke_msg_send
0000293c g     F *ABS*	00000010 gapm_get_address_type
0000a188 g     F *ABS*	00000030 attc_send_att_req
00022474 g     F *ABS*	0000000e __aeabi_memclr4
0003727c g     F .text	00000044 __swrite
004017ac g     O .data	00000004 __malloc_trim_threshold
00008d3c g     F *ABS*	00000078 attm_att_update_perm
0001f728 g     F *ABS*	00000014 ke_is_free
00034be0 g     F .text	00000024 fiprintf
00035364 g     F .text	00000dd4 _vfiprintf_r
00036da0 g     F .text	00000050 _fwalk_reent
00033860 g     F .text	00000190 __mdiff
0000c5e0 g     F *ABS*	000000bc atts_send_event
00026b58 g     F .text	0000005c .hidden __aeabi_d2iz
000376c8 g     F .text	00000010 _kill
00008948 g     F *ABS*	0000003c attm_convert_to128
00023da0 g     O *ABS*	00000030 hci_cmd_desc_tab_info_par
0001bb10 g     F *ABS*	00000144 hci_cmd_received
00400460 g     O *ABS*	00000050 gapm_env
000026c0 g     F *ABS*	00000020 gapc_get_role
000399d0 g       *ABS*	00000000 _data_load_begin
00036824 g     F .text	00000014 __sfp_lock_release
00400020 g     O *ABS*	00000006 co_default_bdaddr
004004e8 g     O *ABS*	0000000c rwip_param
000398c4 g     O .rodata	00000101 _ctype_
00025d58 g     F .vectors	00000000 WFI
000376e8 g     F .text	00000010 _read
00026d8c  w    F .text	00000002 .hidden __aeabi_idiv0
00034cb4 g     F .text	00000002 __retarget_lock_acquire
00026b20 g     F .text	00000038 .hidden __unorddf2
00034cc4 g     F .text	00000002 __retarget_lock_release
00009b84 g     F *ABS*	00000070 gattc_set_mtu
00002804 g     F *ABS*	00000020 gapc_lk_sec_lvl_get
00037724 g     F .text	00000002 _exit
0000cbfc g     F *ABS*	00000028 gattc_update_state
0000d794 g     F *ABS*	000000a4 gattc_cleanup
00405620 g     O .bss	00000001 __lock___dd_hash_mutex
0000c5a4 g     F *ABS*	0000003c atts_write_signed_cfm
00036df0 g     F .text	000000ec __smakebuf_r
00405634 g     O .bss	00000001 __lock___tz_mutex
00033dac g     F .text	00000060 strlen
00036f40 g     F .text	00000036 _init_signal_r
0000a7bc g     F *ABS*	00000024 atts_clear_rsp_data
00026a90 g     F .text	00000018 .hidden __aeabi_cdcmpeq
0001eb4a g     F *ABS*	0000000e co_list_push_front
000269dc g     F .text	00000098 .hidden __gedf2
00002a08 g     F *ABS*	0000001c gapm_le_psm_find
0001fec6 g     F *ABS*	00000010 ke_msg_forward
00008938 g     F *ABS*	00000010 gattc_get_mtu
00002fe6 g     F *ABS*	00000022 gapc_send_error_evt
0000a798 g     F *ABS*	00000024 atts_clear_prep_data
0001f220 g     F *ABS*	00000038 ke_event_get
00002642 g     F *ABS*	00000002 Undefined_Exception
00002a24 g     F *ABS*	00000034 gapm_le_psm_get_info
00034b5c g     F .text	0000000a __assert
00008b44 g     F *ABS*	00000022 attm_svc_set_permission
00009a68 g     F *ABS*	0000000c l2cm_get_nb_buffer_available
0003534c g     F .text	00000018 __sprint_r
0000955c g     F *ABS*	00000284 l2cc_pdu_pack
00026484 g     F .text	00000048 .hidden __aeabi_f2d
000085c0 g     F *ABS*	000000b4 gapm_init
00018fc4 g     F *ABS*	00000148 hci_send_2_host
000361e4 g     F .text	0000001a _wctomb_r
00026d90 g     F .text	00000028 .hidden __clzdi2
00026124 g     F .text	00000314 .hidden __subdf3
00008b66 g     F *ABS*	0000001c attm_svc_get_permission
00025e78 g     F .text	00000014 .hidden __gnu_thumb1_case_uhi
0001de76 g     F *ABS*	00000004 ke_msg_discard
000333e4 g     F .text	0000005a __lo0bits
00002414 g     F *ABS*	00000020 .hidden __aeabi_idivmod
000371a0 g     F .text	00000072 __sigtramp
0003743c g     F .text	0000004e wcrtomb
00033d1c g     F .text	00000068 frexp
000027a4 g     F *ABS*	0000001c gapc_get_requester
000183a8 g     F *ABS*	00000020 hci_tl_init
0001f594 g     F *ABS*	00000028 aes_init
004017b0 g     O .data	0000016c __global_locale
00008adc g     F *ABS*	00000020 attm_reserve_handle_range
00002894 g     F *ABS*	00000034 gapc_auth_get
0000e888 g     F *ABS*	000000c4 l2cc_cleanup
0001eac4 g     F *ABS*	0000004c sch_slice_init
00008468 g     F *ABS*	0000004c gapm_con_create
0000297c g     F *ABS*	00000018 gapm_get_requester
0040562c g     O .bss	00000001 __lock___sfp_recursive_mutex
0001f1e8 g     F *ABS*	00000038 ke_event_clear
0001f180 g     F *ABS*	00000010 ke_sleep_check
000369c0 g     F .text	0000007c fputwc
00037688 g     F .text	00000010 _close
000370a0 g     F .text	00000066 raise
0000e94c g     F *ABS*	0000003c l2cc_init
00036838 g     F .text	00000014 __sinit_lock_acquire
0003324c g     F .text	000000ac __multadd
00002904 g     F *ABS*	0000002c gapc_sig_pdu_recv_handler
00033238 g     F .text	00000014 _Bfree
00025d8c g       .vectors	00000000 boot_stack_base_SVC
004004fc g     O *ABS*	00000038 gattm_env



Disassembly of section .vectors:

00025b00 <_reset_handler-0x20>:
   25b00:	ea000006 	b	25b20 <_reset_handler>
   25b04:	e59ff1f0 	ldr	pc, [pc, #496]	; 25cfc <_undefined_handler>
   25b08:	e59ff1f0 	ldr	pc, [pc, #496]	; 25d00 <_swi_handler>
   25b0c:	e59ff1f0 	ldr	pc, [pc, #496]	; 25d04 <_pabort_handler>
   25b10:	e59ff1f0 	ldr	pc, [pc, #496]	; 25d08 <_dabort_handler>
   25b14:	e59ff1f0 	ldr	pc, [pc, #496]	; 25d0c <_reserved_handler>
   25b18:	e59ff280 	ldr	pc, [pc, #640]	; 25da0 <boot_stack_base_UNUSED+0x10>
   25b1c:	e59ff280 	ldr	pc, [pc, #640]	; 25da4 <boot_stack_base_UNUSED+0x14>

00025b20 <_reset_handler>:
   25b20:	e10f0000 	mrs	r0, CPSR
   25b24:	e38000c0 	orr	r0, r0, #192	; 0xc0
   25b28:	e121f000 	msr	CPSR_c, r0
   25b2c:	e10f0000 	mrs	r0, CPSR
   25b30:	e3c0001f 	bic	r0, r0, #31
   25b34:	e380001f 	orr	r0, r0, #31
   25b38:	e121f000 	msr	CPSR_c, r0
   25b3c:	e59f023c 	ldr	r0, [pc, #572]	; 25d80 <_STACK_SIZE_UND>
   25b40:	e59f1234 	ldr	r1, [pc, #564]	; 25d7c <_STACK_ADDR_UND>
   25b44:	e59f225c 	ldr	r2, [pc, #604]	; 25da8 <boot_stack_base_UNUSED+0x18>
   25b48:	e1a0d001 	mov	sp, r1
   25b4c:	e0410000 	sub	r0, r1, r0
   25b50:	e1500001 	cmp	r0, r1
   25b54:	b5802000 	strlt	r2, [r0]
   25b58:	b2800004 	addlt	r0, r0, #4
   25b5c:	bafffffb 	blt	25b50 <_reset_handler+0x30>
   25b60:	e10f0000 	mrs	r0, CPSR
   25b64:	e3c0001f 	bic	r0, r0, #31
   25b68:	e3800017 	orr	r0, r0, #23
   25b6c:	e121f000 	msr	CPSR_c, r0
   25b70:	e59f0208 	ldr	r0, [pc, #520]	; 25d80 <_STACK_SIZE_UND>
   25b74:	e59f1200 	ldr	r1, [pc, #512]	; 25d7c <_STACK_ADDR_UND>
   25b78:	e59f2228 	ldr	r2, [pc, #552]	; 25da8 <boot_stack_base_UNUSED+0x18>
   25b7c:	e1a0d001 	mov	sp, r1
   25b80:	e0410000 	sub	r0, r1, r0
   25b84:	e1500001 	cmp	r0, r1
   25b88:	b5802000 	strlt	r2, [r0]
   25b8c:	b2800004 	addlt	r0, r0, #4
   25b90:	bafffffb 	blt	25b84 <_reset_handler+0x64>
   25b94:	e10f0000 	mrs	r0, CPSR
   25b98:	e3c0001f 	bic	r0, r0, #31
   25b9c:	e380001b 	orr	r0, r0, #27
   25ba0:	e121f000 	msr	CPSR_c, r0
   25ba4:	e59f01d4 	ldr	r0, [pc, #468]	; 25d80 <_STACK_SIZE_UND>
   25ba8:	e59f11cc 	ldr	r1, [pc, #460]	; 25d7c <_STACK_ADDR_UND>
   25bac:	e59f21f4 	ldr	r2, [pc, #500]	; 25da8 <boot_stack_base_UNUSED+0x18>
   25bb0:	e1a0d001 	mov	sp, r1
   25bb4:	e0410000 	sub	r0, r1, r0
   25bb8:	e1500001 	cmp	r0, r1
   25bbc:	b5802000 	strlt	r2, [r0]
   25bc0:	b2800004 	addlt	r0, r0, #4
   25bc4:	bafffffb 	blt	25bb8 <_reset_handler+0x98>
   25bc8:	e10f0000 	mrs	r0, CPSR
   25bcc:	e3c0001f 	bic	r0, r0, #31
   25bd0:	e3800012 	orr	r0, r0, #18
   25bd4:	e121f000 	msr	CPSR_c, r0
   25bd8:	e59f0190 	ldr	r0, [pc, #400]	; 25d70 <_STACK_SIZE_IRQ>
   25bdc:	e59f1188 	ldr	r1, [pc, #392]	; 25d6c <_STACK_ADDR_IRQ>
   25be0:	e59f21c4 	ldr	r2, [pc, #452]	; 25dac <boot_stack_base_UNUSED+0x1c>
   25be4:	e1a0d001 	mov	sp, r1
   25be8:	e0410000 	sub	r0, r1, r0
   25bec:	e1500001 	cmp	r0, r1
   25bf0:	b5802000 	strlt	r2, [r0]
   25bf4:	b2800004 	addlt	r0, r0, #4
   25bf8:	bafffffb 	blt	25bec <_reset_handler+0xcc>
   25bfc:	e10f0000 	mrs	r0, CPSR
   25c00:	e3c0001f 	bic	r0, r0, #31
   25c04:	e3800011 	orr	r0, r0, #17
   25c08:	e121f000 	msr	CPSR_c, r0
   25c0c:	e59f0154 	ldr	r0, [pc, #340]	; 25d68 <_STACK_SIZE_FIQ>
   25c10:	e59f114c 	ldr	r1, [pc, #332]	; 25d64 <_STACK_ADDR_FIQ>
   25c14:	e59f2194 	ldr	r2, [pc, #404]	; 25db0 <boot_stack_base_UNUSED+0x20>
   25c18:	e1a0d001 	mov	sp, r1
   25c1c:	e0410000 	sub	r0, r1, r0
   25c20:	e1500001 	cmp	r0, r1
   25c24:	b5802000 	strlt	r2, [r0]
   25c28:	b2800004 	addlt	r0, r0, #4
   25c2c:	bafffffb 	blt	25c20 <_reset_handler+0x100>
   25c30:	e3a08000 	mov	r8, #0
   25c34:	e3a09000 	mov	r9, #0
   25c38:	e3a0a000 	mov	sl, #0
   25c3c:	e3a0b000 	mov	fp, #0
   25c40:	e3a0c000 	mov	ip, #0
   25c44:	e10f0000 	mrs	r0, CPSR
   25c48:	e3c0001f 	bic	r0, r0, #31
   25c4c:	e3800013 	orr	r0, r0, #19
   25c50:	e121f000 	msr	CPSR_c, r0
   25c54:	e59f011c 	ldr	r0, [pc, #284]	; 25d78 <_STACK_SIZE_SVC>
   25c58:	e59f1114 	ldr	r1, [pc, #276]	; 25d74 <_STACK_ADDR_SVC>
   25c5c:	e59f2150 	ldr	r2, [pc, #336]	; 25db4 <boot_stack_base_UNUSED+0x24>
   25c60:	e1a0d001 	mov	sp, r1
   25c64:	e0410000 	sub	r0, r1, r0
   25c68:	e1500001 	cmp	r0, r1
   25c6c:	b5802000 	strlt	r2, [r0]
   25c70:	b2800004 	addlt	r0, r0, #4
   25c74:	bafffffb 	blt	25c68 <_reset_handler+0x148>
   25c78:	eb00000e 	bl	25cb8 <_data_init>
   25c7c:	eb000015 	bl	25cd8 <_zi_init>
   25c80:	e3a00000 	mov	r0, #0
   25c84:	e3a01000 	mov	r1, #0
   25c88:	e3a02000 	mov	r2, #0
   25c8c:	e3a03000 	mov	r3, #0
   25c90:	e3a04000 	mov	r4, #0
   25c94:	e3a05000 	mov	r5, #0
   25c98:	e3a06000 	mov	r6, #0
   25c9c:	e3a07000 	mov	r7, #0
   25ca0:	e3a08000 	mov	r8, #0
   25ca4:	e3a09000 	mov	r9, #0
   25ca8:	e3a0a000 	mov	sl, #0
   25cac:	e3a0b000 	mov	fp, #0
   25cb0:	e3a0c000 	mov	ip, #0
   25cb4:	ea000045 	b	25dd0 <__main_from_arm>

00025cb8 <_data_init>:
   25cb8:	e59f00f8 	ldr	r0, [pc, #248]	; 25db8 <boot_stack_base_UNUSED+0x28>
   25cbc:	e59f10f8 	ldr	r1, [pc, #248]	; 25dbc <boot_stack_base_UNUSED+0x2c>
   25cc0:	e59f20f8 	ldr	r2, [pc, #248]	; 25dc0 <boot_stack_base_UNUSED+0x30>
   25cc4:	e1510002 	cmp	r1, r2
   25cc8:	34904004 	ldrcc	r4, [r0], #4
   25ccc:	34814004 	strcc	r4, [r1], #4
   25cd0:	3afffffb 	bcc	25cc4 <_data_init+0xc>
   25cd4:	e12fff1e 	bx	lr

00025cd8 <_zi_init>:
   25cd8:	e59f00e4 	ldr	r0, [pc, #228]	; 25dc4 <boot_stack_base_UNUSED+0x34>
   25cdc:	e59f10e4 	ldr	r1, [pc, #228]	; 25dc8 <boot_stack_base_UNUSED+0x38>
   25ce0:	e1a03001 	mov	r3, r1
   25ce4:	e1a04000 	mov	r4, r0
   25ce8:	e3a02000 	mov	r2, #0
   25cec:	e1540003 	cmp	r4, r3
   25cf0:	34842004 	strcc	r2, [r4], #4
   25cf4:	3afffffc 	bcc	25cec <_zi_init+0x14>
   25cf8:	e12fff1e 	bx	lr

00025cfc <_undefined_handler>:
   25cfc:	00002643 	.word	0x00002643

00025d00 <_swi_handler>:
   25d00:	00002645 	.word	0x00002645

00025d04 <_pabort_handler>:
   25d04:	00002647 	.word	0x00002647

00025d08 <_dabort_handler>:
   25d08:	00002649 	.word	0x00002649

00025d0c <_reserved_handler>:
   25d0c:	0000264b 	.word	0x0000264b

00025d10 <__enable_irq>:
   25d10:	e10f0000 	mrs	r0, CPSR
   25d14:	e3c00080 	bic	r0, r0, #128	; 0x80
   25d18:	e121f000 	msr	CPSR_c, r0
   25d1c:	e12fff1e 	bx	lr

00025d20 <__disable_irq>:
   25d20:	e10f0000 	mrs	r0, CPSR
   25d24:	e3801080 	orr	r1, r0, #128	; 0x80
   25d28:	e121f001 	msr	CPSR_c, r1
   25d2c:	e2000080 	and	r0, r0, #128	; 0x80
   25d30:	e12fff1e 	bx	lr

00025d34 <__enable_fiq>:
   25d34:	e10f0000 	mrs	r0, CPSR
   25d38:	e3c00040 	bic	r0, r0, #64	; 0x40
   25d3c:	e121f000 	msr	CPSR_c, r0
   25d40:	e12fff1e 	bx	lr

00025d44 <__disable_fiq>:
   25d44:	e10f0000 	mrs	r0, CPSR
   25d48:	e3801040 	orr	r1, r0, #64	; 0x40
   25d4c:	e121f001 	msr	CPSR_c, r1
   25d50:	e2000040 	and	r0, r0, #64	; 0x40
   25d54:	e12fff1e 	bx	lr

00025d58 <WFI>:
   25d58:	e3a00000 	mov	r0, #0
   25d5c:	ee070f90 	mcr	15, 0, r0, cr7, cr0, {4}
   25d60:	e12fff1e 	bx	lr

00025d64 <_STACK_ADDR_FIQ>:
   25d64:	0040fffc 	.word	0x0040fffc

00025d68 <_STACK_SIZE_FIQ>:
   25d68:	000002f0 	.word	0x000002f0

00025d6c <_STACK_ADDR_IRQ>:
   25d6c:	0040fd0c 	.word	0x0040fd0c

00025d70 <_STACK_SIZE_IRQ>:
   25d70:	000003f0 	.word	0x000003f0

00025d74 <_STACK_ADDR_SVC>:
   25d74:	0040f91c 	.word	0x0040f91c

00025d78 <_STACK_SIZE_SVC>:
   25d78:	000006f0 	.word	0x000006f0

00025d7c <_STACK_ADDR_UND>:
   25d7c:	0040f22c 	.word	0x0040f22c

00025d80 <_STACK_SIZE_UND>:
   25d80:	00000100 	.word	0x00000100

00025d84 <boot_stack_base_FIQ>:
   25d84:	0040fd0c 	.word	0x0040fd0c

00025d88 <boot_stack_base_IRQ>:
   25d88:	0040f91c 	.word	0x0040f91c

00025d8c <boot_stack_base_SVC>:
   25d8c:	0040f22c 	.word	0x0040f22c

00025d90 <boot_stack_base_UNUSED>:
   25d90:	0040f12c 	.word	0x0040f12c
   25d94:	deadbeef 	.word	0xdeadbeef
   25d98:	deadbeef 	.word	0xdeadbeef
   25d9c:	deadbeef 	.word	0xdeadbeef
   25da0:	00025e20 	.word	0x00025e20
   25da4:	00025e00 	.word	0x00025e00
   25da8:	aaaaaaaa 	.word	0xaaaaaaaa
   25dac:	cccccccc 	.word	0xcccccccc
   25db0:	dddddddd 	.word	0xdddddddd
   25db4:	bbbbbbbb 	.word	0xbbbbbbbb
   25db8:	000399d0 	.word	0x000399d0
   25dbc:	00400f00 	.word	0x00400f00
   25dc0:	004027c4 	.word	0x004027c4
   25dc4:	004027c4 	.word	0x004027c4
   25dc8:	00405640 	.word	0x00405640
   25dcc:	00000000 	.word	0x00000000

00025dd0 <__main_from_arm>:
   25dd0:	e59fc000 	ldr	ip, [pc]	; 25dd8 <__main_from_arm+0x8>
   25dd4:	e12fff1c 	bx	ip
   25dd8:	0002cf49 	.word	0x0002cf49
   25ddc:	00000000 	.word	0x00000000

Disassembly of section FAST_CALL_SEG:

00025e00 <_fiq_handler>:
   25e00:	e92d500f 	push	{r0, r1, r2, r3, ip, lr}
   25e04:	eb00000c 	bl	25e3c <__FIQ_Exception_from_arm>
   25e08:	e8bd500f 	pop	{r0, r1, r2, r3, ip, lr}
   25e0c:	e12fff1e 	bx	lr
	...

00025e20 <_irq_handler>:
   25e20:	e92d500f 	push	{r0, r1, r2, r3, ip, lr}
   25e24:	eb000001 	bl	25e30 <__IRQ_Exception_from_arm>
   25e28:	e8bd500f 	pop	{r0, r1, r2, r3, ip, lr}
   25e2c:	e12fff1e 	bx	lr

00025e30 <__IRQ_Exception_from_arm>:
   25e30:	e59fc000 	ldr	ip, [pc]	; 25e38 <__IRQ_Exception_from_arm+0x8>
   25e34:	e12fff1c 	bx	ip
   25e38:	0002f609 	.word	0x0002f609

00025e3c <__FIQ_Exception_from_arm>:
   25e3c:	e59fc000 	ldr	ip, [pc]	; 25e44 <__FIQ_Exception_from_arm+0x8>
   25e40:	e12fff1c 	bx	ip
   25e44:	0002f821 	.word	0x0002f821
	...

Disassembly of section .text:

00025e50 <__gnu_thumb1_case_uqi>:
   25e50:	b402      	push	{r1}
   25e52:	4671      	mov	r1, lr
   25e54:	0849      	lsrs	r1, r1, #1
   25e56:	0049      	lsls	r1, r1, #1
   25e58:	5c09      	ldrb	r1, [r1, r0]
   25e5a:	0049      	lsls	r1, r1, #1
   25e5c:	448e      	add	lr, r1
   25e5e:	bc02      	pop	{r1}
   25e60:	4770      	bx	lr
   25e62:	46c0      	nop			; (mov r8, r8)

00025e64 <__gnu_thumb1_case_shi>:
   25e64:	b403      	push	{r0, r1}
   25e66:	4671      	mov	r1, lr
   25e68:	0849      	lsrs	r1, r1, #1
   25e6a:	0040      	lsls	r0, r0, #1
   25e6c:	0049      	lsls	r1, r1, #1
   25e6e:	5e09      	ldrsh	r1, [r1, r0]
   25e70:	0049      	lsls	r1, r1, #1
   25e72:	448e      	add	lr, r1
   25e74:	bc03      	pop	{r0, r1}
   25e76:	4770      	bx	lr

00025e78 <__gnu_thumb1_case_uhi>:
   25e78:	b403      	push	{r0, r1}
   25e7a:	4671      	mov	r1, lr
   25e7c:	0849      	lsrs	r1, r1, #1
   25e7e:	0040      	lsls	r0, r0, #1
   25e80:	0049      	lsls	r1, r1, #1
   25e82:	5a09      	ldrh	r1, [r1, r0]
   25e84:	0049      	lsls	r1, r1, #1
   25e86:	448e      	add	lr, r1
   25e88:	bc03      	pop	{r0, r1}
   25e8a:	4770      	bx	lr
   25e8c:	e92d4070 	push	{r4, r5, r6, lr}
   25e90:	e3a0c0ff 	mov	ip, #255	; 0xff
   25e94:	e38ccc07 	orr	ip, ip, #1792	; 0x700
   25e98:	e01c4a21 	ands	r4, ip, r1, lsr #20
   25e9c:	101c5a23 	andsne	r5, ip, r3, lsr #20
   25ea0:	1134000c 	teqne	r4, ip
   25ea4:	1135000c 	teqne	r5, ip
   25ea8:	0b000075 	bleq	26084 <__gnu_thumb1_case_uhi+0x20c>
   25eac:	e0844005 	add	r4, r4, r5
   25eb0:	e0216003 	eor	r6, r1, r3
   25eb4:	e1c11a8c 	bic	r1, r1, ip, lsl #21
   25eb8:	e1c33a8c 	bic	r3, r3, ip, lsl #21
   25ebc:	e1905601 	orrs	r5, r0, r1, lsl #12
   25ec0:	11925603 	orrsne	r5, r2, r3, lsl #12
   25ec4:	e3811601 	orr	r1, r1, #1048576	; 0x100000
   25ec8:	e3833601 	orr	r3, r3, #1048576	; 0x100000
   25ecc:	0a00001d 	beq	25f48 <__gnu_thumb1_case_uhi+0xd0>
   25ed0:	e08ec290 	umull	ip, lr, r0, r2
   25ed4:	e3a05000 	mov	r5, #0
   25ed8:	e0a5e291 	umlal	lr, r5, r1, r2
   25edc:	e2062102 	and	r2, r6, #-2147483648	; 0x80000000
   25ee0:	e0a5e390 	umlal	lr, r5, r0, r3
   25ee4:	e3a06000 	mov	r6, #0
   25ee8:	e0a65391 	umlal	r5, r6, r1, r3
   25eec:	e33c0000 	teq	ip, #0
   25ef0:	138ee001 	orrne	lr, lr, #1
   25ef4:	e24440ff 	sub	r4, r4, #255	; 0xff
   25ef8:	e3560c02 	cmp	r6, #512	; 0x200
   25efc:	e2c44c03 	sbc	r4, r4, #768	; 0x300
   25f00:	2a000002 	bcs	25f10 <__gnu_thumb1_case_uhi+0x98>
   25f04:	e1b0e08e 	lsls	lr, lr, #1
   25f08:	e0b55005 	adcs	r5, r5, r5
   25f0c:	e0a66006 	adc	r6, r6, r6
   25f10:	e1821586 	orr	r1, r2, r6, lsl #11
   25f14:	e1811aa5 	orr	r1, r1, r5, lsr #21
   25f18:	e1a00585 	lsl	r0, r5, #11
   25f1c:	e1800aae 	orr	r0, r0, lr, lsr #21
   25f20:	e1a0e58e 	lsl	lr, lr, #11
   25f24:	e254c0fd 	subs	ip, r4, #253	; 0xfd
   25f28:	835c0c07 	cmphi	ip, #1792	; 0x700
   25f2c:	8a000011 	bhi	25f78 <__gnu_thumb1_case_uhi+0x100>
   25f30:	e35e0102 	cmp	lr, #-2147483648	; 0x80000000
   25f34:	01b0e0a0 	lsrseq	lr, r0, #1
   25f38:	e2b00000 	adcs	r0, r0, #0
   25f3c:	e0a11a04 	adc	r1, r1, r4, lsl #20
   25f40:	e8bd4070 	pop	{r4, r5, r6, lr}
   25f44:	e12fff1e 	bx	lr
   25f48:	e2066102 	and	r6, r6, #-2147483648	; 0x80000000
   25f4c:	e1861001 	orr	r1, r6, r1
   25f50:	e1800002 	orr	r0, r0, r2
   25f54:	e0211003 	eor	r1, r1, r3
   25f58:	e05440ac 	subs	r4, r4, ip, lsr #1
   25f5c:	c074500c 	rsbsgt	r5, r4, ip
   25f60:	c1811a04 	orrgt	r1, r1, r4, lsl #20
   25f64:	c8bd4070 	popgt	{r4, r5, r6, lr}
   25f68:	c12fff1e 	bxgt	lr
   25f6c:	e3811601 	orr	r1, r1, #1048576	; 0x100000
   25f70:	e3a0e000 	mov	lr, #0
   25f74:	e2544001 	subs	r4, r4, #1
   25f78:	ca00005d 	bgt	260f4 <__gnu_thumb1_case_uhi+0x27c>
   25f7c:	e3740036 	cmn	r4, #54	; 0x36
   25f80:	d3a00000 	movle	r0, #0
   25f84:	d2011102 	andle	r1, r1, #-2147483648	; 0x80000000
   25f88:	d8bd4070 	pople	{r4, r5, r6, lr}
   25f8c:	d12fff1e 	bxle	lr
   25f90:	e2644000 	rsb	r4, r4, #0
   25f94:	e2544020 	subs	r4, r4, #32
   25f98:	aa00001a 	bge	26008 <__gnu_thumb1_case_uhi+0x190>
   25f9c:	e294400c 	adds	r4, r4, #12
   25fa0:	ca00000c 	bgt	25fd8 <__gnu_thumb1_case_uhi+0x160>
   25fa4:	e2844014 	add	r4, r4, #20
   25fa8:	e2645020 	rsb	r5, r4, #32
   25fac:	e1a03510 	lsl	r3, r0, r5
   25fb0:	e1a00430 	lsr	r0, r0, r4
   25fb4:	e1800511 	orr	r0, r0, r1, lsl r5
   25fb8:	e2012102 	and	r2, r1, #-2147483648	; 0x80000000
   25fbc:	e3c11102 	bic	r1, r1, #-2147483648	; 0x80000000
   25fc0:	e0900fa3 	adds	r0, r0, r3, lsr #31
   25fc4:	e0a21431 	adc	r1, r2, r1, lsr r4
   25fc8:	e19ee083 	orrs	lr, lr, r3, lsl #1
   25fcc:	01c00fa3 	biceq	r0, r0, r3, lsr #31
   25fd0:	e8bd4070 	pop	{r4, r5, r6, lr}
   25fd4:	e12fff1e 	bx	lr
   25fd8:	e264400c 	rsb	r4, r4, #12
   25fdc:	e2645020 	rsb	r5, r4, #32
   25fe0:	e1a03410 	lsl	r3, r0, r4
   25fe4:	e1a00530 	lsr	r0, r0, r5
   25fe8:	e1800411 	orr	r0, r0, r1, lsl r4
   25fec:	e2011102 	and	r1, r1, #-2147483648	; 0x80000000
   25ff0:	e0900fa3 	adds	r0, r0, r3, lsr #31
   25ff4:	e2a11000 	adc	r1, r1, #0
   25ff8:	e19ee083 	orrs	lr, lr, r3, lsl #1
   25ffc:	01c00fa3 	biceq	r0, r0, r3, lsr #31
   26000:	e8bd4070 	pop	{r4, r5, r6, lr}
   26004:	e12fff1e 	bx	lr
   26008:	e2645020 	rsb	r5, r4, #32
   2600c:	e18ee510 	orr	lr, lr, r0, lsl r5
   26010:	e1a03430 	lsr	r3, r0, r4
   26014:	e1833511 	orr	r3, r3, r1, lsl r5
   26018:	e1a00431 	lsr	r0, r1, r4
   2601c:	e2011102 	and	r1, r1, #-2147483648	; 0x80000000
   26020:	e1c00431 	bic	r0, r0, r1, lsr r4
   26024:	e0800fa3 	add	r0, r0, r3, lsr #31
   26028:	e19ee083 	orrs	lr, lr, r3, lsl #1
   2602c:	01c00fa3 	biceq	r0, r0, r3, lsr #31
   26030:	e8bd4070 	pop	{r4, r5, r6, lr}
   26034:	e12fff1e 	bx	lr
   26038:	e3340000 	teq	r4, #0
   2603c:	1a000008 	bne	26064 <__gnu_thumb1_case_uhi+0x1ec>
   26040:	e2016102 	and	r6, r1, #-2147483648	; 0x80000000
   26044:	e1b00080 	lsls	r0, r0, #1
   26048:	e0a11001 	adc	r1, r1, r1
   2604c:	e3110601 	tst	r1, #1048576	; 0x100000
   26050:	02444001 	subeq	r4, r4, #1
   26054:	0afffffa 	beq	26044 <__gnu_thumb1_case_uhi+0x1cc>
   26058:	e1811006 	orr	r1, r1, r6
   2605c:	e3350000 	teq	r5, #0
   26060:	112fff1e 	bxne	lr
   26064:	e2036102 	and	r6, r3, #-2147483648	; 0x80000000
   26068:	e1b02082 	lsls	r2, r2, #1
   2606c:	e0a33003 	adc	r3, r3, r3
   26070:	e3130601 	tst	r3, #1048576	; 0x100000
   26074:	02455001 	subeq	r5, r5, #1
   26078:	0afffffa 	beq	26068 <__gnu_thumb1_case_uhi+0x1f0>
   2607c:	e1833006 	orr	r3, r3, r6
   26080:	e12fff1e 	bx	lr
   26084:	e134000c 	teq	r4, ip
   26088:	e00c5a23 	and	r5, ip, r3, lsr #20
   2608c:	1135000c 	teqne	r5, ip
   26090:	0a000007 	beq	260b4 <__gnu_thumb1_case_uhi+0x23c>
   26094:	e1906081 	orrs	r6, r0, r1, lsl #1
   26098:	11926083 	orrsne	r6, r2, r3, lsl #1
   2609c:	1affffe5 	bne	26038 <__gnu_thumb1_case_uhi+0x1c0>
   260a0:	e0211003 	eor	r1, r1, r3
   260a4:	e2011102 	and	r1, r1, #-2147483648	; 0x80000000
   260a8:	e3a00000 	mov	r0, #0
   260ac:	e8bd4070 	pop	{r4, r5, r6, lr}
   260b0:	e12fff1e 	bx	lr
   260b4:	e1906081 	orrs	r6, r0, r1, lsl #1
   260b8:	01a00002 	moveq	r0, r2
   260bc:	01a01003 	moveq	r1, r3
   260c0:	11926083 	orrsne	r6, r2, r3, lsl #1
   260c4:	0a000010 	beq	2610c <__gnu_thumb1_case_uhi+0x294>
   260c8:	e134000c 	teq	r4, ip
   260cc:	1a000001 	bne	260d8 <__gnu_thumb1_case_uhi+0x260>
   260d0:	e1906601 	orrs	r6, r0, r1, lsl #12
   260d4:	1a00000c 	bne	2610c <__gnu_thumb1_case_uhi+0x294>
   260d8:	e135000c 	teq	r5, ip
   260dc:	1a000003 	bne	260f0 <__gnu_thumb1_case_uhi+0x278>
   260e0:	e1926603 	orrs	r6, r2, r3, lsl #12
   260e4:	11a00002 	movne	r0, r2
   260e8:	11a01003 	movne	r1, r3
   260ec:	1a000006 	bne	2610c <__gnu_thumb1_case_uhi+0x294>
   260f0:	e0211003 	eor	r1, r1, r3
   260f4:	e2011102 	and	r1, r1, #-2147483648	; 0x80000000
   260f8:	e381147f 	orr	r1, r1, #2130706432	; 0x7f000000
   260fc:	e381160f 	orr	r1, r1, #15728640	; 0xf00000
   26100:	e3a00000 	mov	r0, #0
   26104:	e8bd4070 	pop	{r4, r5, r6, lr}
   26108:	e12fff1e 	bx	lr
   2610c:	e381147f 	orr	r1, r1, #2130706432	; 0x7f000000
   26110:	e381173e 	orr	r1, r1, #16252928	; 0xf80000
   26114:	e8bd4070 	pop	{r4, r5, r6, lr}
   26118:	e12fff1e 	bx	lr

0002611c <__aeabi_drsub>:
   2611c:	e2211102 	eor	r1, r1, #-2147483648	; 0x80000000
   26120:	ea000000 	b	26128 <__adddf3>

00026124 <__aeabi_dsub>:
   26124:	e2233102 	eor	r3, r3, #-2147483648	; 0x80000000

00026128 <__adddf3>:
   26128:	e92d4030 	push	{r4, r5, lr}
   2612c:	e1a04081 	lsl	r4, r1, #1
   26130:	e1a05083 	lsl	r5, r3, #1
   26134:	e1340005 	teq	r4, r5
   26138:	01300002 	teqeq	r0, r2
   2613c:	1194c000 	orrsne	ip, r4, r0
   26140:	1195c002 	orrsne	ip, r5, r2
   26144:	11f0cac4 	mvnsne	ip, r4, asr #21
   26148:	11f0cac5 	mvnsne	ip, r5, asr #21
   2614c:	0a00008c 	beq	26384 <__adddf3+0x25c>
   26150:	e1a04aa4 	lsr	r4, r4, #21
   26154:	e0745aa5 	rsbs	r5, r4, r5, lsr #21
   26158:	b2655000 	rsblt	r5, r5, #0
   2615c:	da000006 	ble	2617c <__adddf3+0x54>
   26160:	e0844005 	add	r4, r4, r5
   26164:	e0202002 	eor	r2, r0, r2
   26168:	e0213003 	eor	r3, r1, r3
   2616c:	e0220000 	eor	r0, r2, r0
   26170:	e0231001 	eor	r1, r3, r1
   26174:	e0202002 	eor	r2, r0, r2
   26178:	e0213003 	eor	r3, r1, r3
   2617c:	e3550036 	cmp	r5, #54	; 0x36
   26180:	88bd4030 	pophi	{r4, r5, lr}
   26184:	812fff1e 	bxhi	lr
   26188:	e3110102 	tst	r1, #-2147483648	; 0x80000000
   2618c:	e1a01601 	lsl	r1, r1, #12
   26190:	e3a0c601 	mov	ip, #1048576	; 0x100000
   26194:	e18c1621 	orr	r1, ip, r1, lsr #12
   26198:	0a000001 	beq	261a4 <__adddf3+0x7c>
   2619c:	e2700000 	rsbs	r0, r0, #0
   261a0:	e2e11000 	rsc	r1, r1, #0
   261a4:	e3130102 	tst	r3, #-2147483648	; 0x80000000
   261a8:	e1a03603 	lsl	r3, r3, #12
   261ac:	e18c3623 	orr	r3, ip, r3, lsr #12
   261b0:	0a000001 	beq	261bc <__adddf3+0x94>
   261b4:	e2722000 	rsbs	r2, r2, #0
   261b8:	e2e33000 	rsc	r3, r3, #0
   261bc:	e1340005 	teq	r4, r5
   261c0:	0a000069 	beq	2636c <__adddf3+0x244>
   261c4:	e2444001 	sub	r4, r4, #1
   261c8:	e275e020 	rsbs	lr, r5, #32
   261cc:	ba000005 	blt	261e8 <__adddf3+0xc0>
   261d0:	e1a0ce12 	lsl	ip, r2, lr
   261d4:	e0900532 	adds	r0, r0, r2, lsr r5
   261d8:	e2a11000 	adc	r1, r1, #0
   261dc:	e0900e13 	adds	r0, r0, r3, lsl lr
   261e0:	e0b11553 	adcs	r1, r1, r3, asr r5
   261e4:	ea000006 	b	26204 <__adddf3+0xdc>
   261e8:	e2455020 	sub	r5, r5, #32
   261ec:	e28ee020 	add	lr, lr, #32
   261f0:	e3520001 	cmp	r2, #1
   261f4:	e1a0ce13 	lsl	ip, r3, lr
   261f8:	238cc002 	orrcs	ip, ip, #2
   261fc:	e0900553 	adds	r0, r0, r3, asr r5
   26200:	e0b11fc3 	adcs	r1, r1, r3, asr #31
   26204:	e2015102 	and	r5, r1, #-2147483648	; 0x80000000
   26208:	5a000002 	bpl	26218 <__adddf3+0xf0>
   2620c:	e27cc000 	rsbs	ip, ip, #0
   26210:	e2f00000 	rscs	r0, r0, #0
   26214:	e2e11000 	rsc	r1, r1, #0
   26218:	e3510601 	cmp	r1, #1048576	; 0x100000
   2621c:	3a00000f 	bcc	26260 <__adddf3+0x138>
   26220:	e3510602 	cmp	r1, #2097152	; 0x200000
   26224:	3a000006 	bcc	26244 <__adddf3+0x11c>
   26228:	e1b010a1 	lsrs	r1, r1, #1
   2622c:	e1b00060 	rrxs	r0, r0
   26230:	e1a0c06c 	rrx	ip, ip
   26234:	e2844001 	add	r4, r4, #1
   26238:	e1a02a84 	lsl	r2, r4, #21
   2623c:	e3720501 	cmn	r2, #4194304	; 0x400000
   26240:	2a00006b 	bcs	263f4 <__adddf3+0x2cc>
   26244:	e35c0102 	cmp	ip, #-2147483648	; 0x80000000
   26248:	01b0c0a0 	lsrseq	ip, r0, #1
   2624c:	e2b00000 	adcs	r0, r0, #0
   26250:	e0a11a04 	adc	r1, r1, r4, lsl #20
   26254:	e1811005 	orr	r1, r1, r5
   26258:	e8bd4030 	pop	{r4, r5, lr}
   2625c:	e12fff1e 	bx	lr
   26260:	e1b0c08c 	lsls	ip, ip, #1
   26264:	e0b00000 	adcs	r0, r0, r0
   26268:	e0a11001 	adc	r1, r1, r1
   2626c:	e2544001 	subs	r4, r4, #1
   26270:	23510601 	cmpcs	r1, #1048576	; 0x100000
   26274:	2afffff2 	bcs	26244 <__adddf3+0x11c>
   26278:	e3310000 	teq	r1, #0
   2627c:	13a03014 	movne	r3, #20
   26280:	03a03034 	moveq	r3, #52	; 0x34
   26284:	01a01000 	moveq	r1, r0
   26288:	03a00000 	moveq	r0, #0
   2628c:	e1a02001 	mov	r2, r1
   26290:	e3520801 	cmp	r2, #65536	; 0x10000
   26294:	21a02822 	lsrcs	r2, r2, #16
   26298:	22433010 	subcs	r3, r3, #16
   2629c:	e3520c01 	cmp	r2, #256	; 0x100
   262a0:	21a02422 	lsrcs	r2, r2, #8
   262a4:	22433008 	subcs	r3, r3, #8
   262a8:	e3520010 	cmp	r2, #16
   262ac:	21a02222 	lsrcs	r2, r2, #4
   262b0:	22433004 	subcs	r3, r3, #4
   262b4:	e3520004 	cmp	r2, #4
   262b8:	22433002 	subcs	r3, r3, #2
   262bc:	304330a2 	subcc	r3, r3, r2, lsr #1
   262c0:	e04331a2 	sub	r3, r3, r2, lsr #3
   262c4:	e2532020 	subs	r2, r3, #32
   262c8:	aa000007 	bge	262ec <__adddf3+0x1c4>
   262cc:	e292200c 	adds	r2, r2, #12
   262d0:	da000004 	ble	262e8 <__adddf3+0x1c0>
   262d4:	e282c014 	add	ip, r2, #20
   262d8:	e262200c 	rsb	r2, r2, #12
   262dc:	e1a00c11 	lsl	r0, r1, ip
   262e0:	e1a01231 	lsr	r1, r1, r2
   262e4:	ea000004 	b	262fc <__adddf3+0x1d4>
   262e8:	e2822014 	add	r2, r2, #20
   262ec:	d262c020 	rsble	ip, r2, #32
   262f0:	e1a01211 	lsl	r1, r1, r2
   262f4:	d1811c30 	orrle	r1, r1, r0, lsr ip
   262f8:	d1a00210 	lslle	r0, r0, r2
   262fc:	e0544003 	subs	r4, r4, r3
   26300:	a0811a04 	addge	r1, r1, r4, lsl #20
   26304:	a1811005 	orrge	r1, r1, r5
   26308:	a8bd4030 	popge	{r4, r5, lr}
   2630c:	a12fff1e 	bxge	lr
   26310:	e1e04004 	mvn	r4, r4
   26314:	e254401f 	subs	r4, r4, #31
   26318:	aa00000f 	bge	2635c <__adddf3+0x234>
   2631c:	e294400c 	adds	r4, r4, #12
   26320:	ca000006 	bgt	26340 <__adddf3+0x218>
   26324:	e2844014 	add	r4, r4, #20
   26328:	e2642020 	rsb	r2, r4, #32
   2632c:	e1a00430 	lsr	r0, r0, r4
   26330:	e1800211 	orr	r0, r0, r1, lsl r2
   26334:	e1851431 	orr	r1, r5, r1, lsr r4
   26338:	e8bd4030 	pop	{r4, r5, lr}
   2633c:	e12fff1e 	bx	lr
   26340:	e264400c 	rsb	r4, r4, #12
   26344:	e2642020 	rsb	r2, r4, #32
   26348:	e1a00230 	lsr	r0, r0, r2
   2634c:	e1800411 	orr	r0, r0, r1, lsl r4
   26350:	e1a01005 	mov	r1, r5
   26354:	e8bd4030 	pop	{r4, r5, lr}
   26358:	e12fff1e 	bx	lr
   2635c:	e1a00431 	lsr	r0, r1, r4
   26360:	e1a01005 	mov	r1, r5
   26364:	e8bd4030 	pop	{r4, r5, lr}
   26368:	e12fff1e 	bx	lr
   2636c:	e3340000 	teq	r4, #0
   26370:	e2233601 	eor	r3, r3, #1048576	; 0x100000
   26374:	02211601 	eoreq	r1, r1, #1048576	; 0x100000
   26378:	02844001 	addeq	r4, r4, #1
   2637c:	12455001 	subne	r5, r5, #1
   26380:	eaffff8f 	b	261c4 <__adddf3+0x9c>
   26384:	e1f0cac4 	mvns	ip, r4, asr #21
   26388:	11f0cac5 	mvnsne	ip, r5, asr #21
   2638c:	0a00001d 	beq	26408 <__adddf3+0x2e0>
   26390:	e1340005 	teq	r4, r5
   26394:	01300002 	teqeq	r0, r2
   26398:	0a000004 	beq	263b0 <__adddf3+0x288>
   2639c:	e194c000 	orrs	ip, r4, r0
   263a0:	01a01003 	moveq	r1, r3
   263a4:	01a00002 	moveq	r0, r2
   263a8:	e8bd4030 	pop	{r4, r5, lr}
   263ac:	e12fff1e 	bx	lr
   263b0:	e1310003 	teq	r1, r3
   263b4:	13a01000 	movne	r1, #0
   263b8:	13a00000 	movne	r0, #0
   263bc:	18bd4030 	popne	{r4, r5, lr}
   263c0:	112fff1e 	bxne	lr
   263c4:	e1b0caa4 	lsrs	ip, r4, #21
   263c8:	1a000004 	bne	263e0 <__adddf3+0x2b8>
   263cc:	e1b00080 	lsls	r0, r0, #1
   263d0:	e0b11001 	adcs	r1, r1, r1
   263d4:	23811102 	orrcs	r1, r1, #-2147483648	; 0x80000000
   263d8:	e8bd4030 	pop	{r4, r5, lr}
   263dc:	e12fff1e 	bx	lr
   263e0:	e2944501 	adds	r4, r4, #4194304	; 0x400000
   263e4:	32811601 	addcc	r1, r1, #1048576	; 0x100000
   263e8:	38bd4030 	popcc	{r4, r5, lr}
   263ec:	312fff1e 	bxcc	lr
   263f0:	e2015102 	and	r5, r1, #-2147483648	; 0x80000000
   263f4:	e385147f 	orr	r1, r5, #2130706432	; 0x7f000000
   263f8:	e381160f 	orr	r1, r1, #15728640	; 0xf00000
   263fc:	e3a00000 	mov	r0, #0
   26400:	e8bd4030 	pop	{r4, r5, lr}
   26404:	e12fff1e 	bx	lr
   26408:	e1f0cac4 	mvns	ip, r4, asr #21
   2640c:	11a01003 	movne	r1, r3
   26410:	11a00002 	movne	r0, r2
   26414:	01f0cac5 	mvnseq	ip, r5, asr #21
   26418:	11a03001 	movne	r3, r1
   2641c:	11a02000 	movne	r2, r0
   26420:	e1904601 	orrs	r4, r0, r1, lsl #12
   26424:	01925603 	orrseq	r5, r2, r3, lsl #12
   26428:	01310003 	teqeq	r1, r3
   2642c:	13811702 	orrne	r1, r1, #524288	; 0x80000
   26430:	e8bd4030 	pop	{r4, r5, lr}
   26434:	e12fff1e 	bx	lr

00026438 <__aeabi_ui2d>:
   26438:	e3300000 	teq	r0, #0
   2643c:	03a01000 	moveq	r1, #0
   26440:	012fff1e 	bxeq	lr
   26444:	e92d4030 	push	{r4, r5, lr}
   26448:	e3a04b01 	mov	r4, #1024	; 0x400
   2644c:	e2844032 	add	r4, r4, #50	; 0x32
   26450:	e3a05000 	mov	r5, #0
   26454:	e3a01000 	mov	r1, #0
   26458:	eaffff86 	b	26278 <__adddf3+0x150>

0002645c <__aeabi_i2d>:
   2645c:	e3300000 	teq	r0, #0
   26460:	03a01000 	moveq	r1, #0
   26464:	012fff1e 	bxeq	lr
   26468:	e92d4030 	push	{r4, r5, lr}
   2646c:	e3a04b01 	mov	r4, #1024	; 0x400
   26470:	e2844032 	add	r4, r4, #50	; 0x32
   26474:	e2105102 	ands	r5, r0, #-2147483648	; 0x80000000
   26478:	42600000 	rsbmi	r0, r0, #0
   2647c:	e3a01000 	mov	r1, #0
   26480:	eaffff7c 	b	26278 <__adddf3+0x150>

00026484 <__aeabi_f2d>:
   26484:	e1b02080 	lsls	r2, r0, #1
   26488:	e1a011c2 	asr	r1, r2, #3
   2648c:	e1a01061 	rrx	r1, r1
   26490:	e1a00e02 	lsl	r0, r2, #28
   26494:	121234ff 	andsne	r3, r2, #-16777216	; 0xff000000
   26498:	133304ff 	teqne	r3, #-16777216	; 0xff000000
   2649c:	1221130e 	eorne	r1, r1, #939524096	; 0x38000000
   264a0:	112fff1e 	bxne	lr
   264a4:	e3d224ff 	bics	r2, r2, #-16777216	; 0xff000000
   264a8:	012fff1e 	bxeq	lr
   264ac:	e33304ff 	teq	r3, #-16777216	; 0xff000000
   264b0:	03811702 	orreq	r1, r1, #524288	; 0x80000
   264b4:	012fff1e 	bxeq	lr
   264b8:	e92d4030 	push	{r4, r5, lr}
   264bc:	e3a04d0e 	mov	r4, #896	; 0x380
   264c0:	e2015102 	and	r5, r1, #-2147483648	; 0x80000000
   264c4:	e3c11102 	bic	r1, r1, #-2147483648	; 0x80000000
   264c8:	eaffff6a 	b	26278 <__adddf3+0x150>

000264cc <__aeabi_ul2d>:
   264cc:	e1902001 	orrs	r2, r0, r1
   264d0:	012fff1e 	bxeq	lr
   264d4:	e92d4030 	push	{r4, r5, lr}
   264d8:	e3a05000 	mov	r5, #0
   264dc:	ea000006 	b	264fc <__aeabi_l2d+0x1c>

000264e0 <__aeabi_l2d>:
   264e0:	e1902001 	orrs	r2, r0, r1
   264e4:	012fff1e 	bxeq	lr
   264e8:	e92d4030 	push	{r4, r5, lr}
   264ec:	e2115102 	ands	r5, r1, #-2147483648	; 0x80000000
   264f0:	5a000001 	bpl	264fc <__aeabi_l2d+0x1c>
   264f4:	e2700000 	rsbs	r0, r0, #0
   264f8:	e2e11000 	rsc	r1, r1, #0
   264fc:	e3a04b01 	mov	r4, #1024	; 0x400
   26500:	e2844032 	add	r4, r4, #50	; 0x32
   26504:	e1b0cb21 	lsrs	ip, r1, #22
   26508:	0affff42 	beq	26218 <__adddf3+0xf0>
   2650c:	e3a02003 	mov	r2, #3
   26510:	e1b0c1ac 	lsrs	ip, ip, #3
   26514:	12822003 	addne	r2, r2, #3
   26518:	e1b0c1ac 	lsrs	ip, ip, #3
   2651c:	12822003 	addne	r2, r2, #3
   26520:	e08221ac 	add	r2, r2, ip, lsr #3
   26524:	e2623020 	rsb	r3, r2, #32
   26528:	e1a0c310 	lsl	ip, r0, r3
   2652c:	e1a00230 	lsr	r0, r0, r2
   26530:	e1800311 	orr	r0, r0, r1, lsl r3
   26534:	e1a01231 	lsr	r1, r1, r2
   26538:	e0844002 	add	r4, r4, r2
   2653c:	eaffff35 	b	26218 <__adddf3+0xf0>

00026540 <__aeabi_dmul>:
   26540:	e92d4070 	push	{r4, r5, r6, lr}
   26544:	e3a0c0ff 	mov	ip, #255	; 0xff
   26548:	e38ccc07 	orr	ip, ip, #1792	; 0x700
   2654c:	e01c4a21 	ands	r4, ip, r1, lsr #20
   26550:	101c5a23 	andsne	r5, ip, r3, lsr #20
   26554:	1134000c 	teqne	r4, ip
   26558:	1135000c 	teqne	r5, ip
   2655c:	0b000075 	bleq	26738 <__aeabi_dmul+0x1f8>
   26560:	e0844005 	add	r4, r4, r5
   26564:	e0216003 	eor	r6, r1, r3
   26568:	e1c11a8c 	bic	r1, r1, ip, lsl #21
   2656c:	e1c33a8c 	bic	r3, r3, ip, lsl #21
   26570:	e1905601 	orrs	r5, r0, r1, lsl #12
   26574:	11925603 	orrsne	r5, r2, r3, lsl #12
   26578:	e3811601 	orr	r1, r1, #1048576	; 0x100000
   2657c:	e3833601 	orr	r3, r3, #1048576	; 0x100000
   26580:	0a00001d 	beq	265fc <__aeabi_dmul+0xbc>
   26584:	e08ec290 	umull	ip, lr, r0, r2
   26588:	e3a05000 	mov	r5, #0
   2658c:	e0a5e291 	umlal	lr, r5, r1, r2
   26590:	e2062102 	and	r2, r6, #-2147483648	; 0x80000000
   26594:	e0a5e390 	umlal	lr, r5, r0, r3
   26598:	e3a06000 	mov	r6, #0
   2659c:	e0a65391 	umlal	r5, r6, r1, r3
   265a0:	e33c0000 	teq	ip, #0
   265a4:	138ee001 	orrne	lr, lr, #1
   265a8:	e24440ff 	sub	r4, r4, #255	; 0xff
   265ac:	e3560c02 	cmp	r6, #512	; 0x200
   265b0:	e2c44c03 	sbc	r4, r4, #768	; 0x300
   265b4:	2a000002 	bcs	265c4 <__aeabi_dmul+0x84>
   265b8:	e1b0e08e 	lsls	lr, lr, #1
   265bc:	e0b55005 	adcs	r5, r5, r5
   265c0:	e0a66006 	adc	r6, r6, r6
   265c4:	e1821586 	orr	r1, r2, r6, lsl #11
   265c8:	e1811aa5 	orr	r1, r1, r5, lsr #21
   265cc:	e1a00585 	lsl	r0, r5, #11
   265d0:	e1800aae 	orr	r0, r0, lr, lsr #21
   265d4:	e1a0e58e 	lsl	lr, lr, #11
   265d8:	e254c0fd 	subs	ip, r4, #253	; 0xfd
   265dc:	835c0c07 	cmphi	ip, #1792	; 0x700
   265e0:	8a000011 	bhi	2662c <__aeabi_dmul+0xec>
   265e4:	e35e0102 	cmp	lr, #-2147483648	; 0x80000000
   265e8:	01b0e0a0 	lsrseq	lr, r0, #1
   265ec:	e2b00000 	adcs	r0, r0, #0
   265f0:	e0a11a04 	adc	r1, r1, r4, lsl #20
   265f4:	e8bd4070 	pop	{r4, r5, r6, lr}
   265f8:	e12fff1e 	bx	lr
   265fc:	e2066102 	and	r6, r6, #-2147483648	; 0x80000000
   26600:	e1861001 	orr	r1, r6, r1
   26604:	e1800002 	orr	r0, r0, r2
   26608:	e0211003 	eor	r1, r1, r3
   2660c:	e05440ac 	subs	r4, r4, ip, lsr #1
   26610:	c074500c 	rsbsgt	r5, r4, ip
   26614:	c1811a04 	orrgt	r1, r1, r4, lsl #20
   26618:	c8bd4070 	popgt	{r4, r5, r6, lr}
   2661c:	c12fff1e 	bxgt	lr
   26620:	e3811601 	orr	r1, r1, #1048576	; 0x100000
   26624:	e3a0e000 	mov	lr, #0
   26628:	e2544001 	subs	r4, r4, #1
   2662c:	ca00005d 	bgt	267a8 <__aeabi_dmul+0x268>
   26630:	e3740036 	cmn	r4, #54	; 0x36
   26634:	d3a00000 	movle	r0, #0
   26638:	d2011102 	andle	r1, r1, #-2147483648	; 0x80000000
   2663c:	d8bd4070 	pople	{r4, r5, r6, lr}
   26640:	d12fff1e 	bxle	lr
   26644:	e2644000 	rsb	r4, r4, #0
   26648:	e2544020 	subs	r4, r4, #32
   2664c:	aa00001a 	bge	266bc <__aeabi_dmul+0x17c>
   26650:	e294400c 	adds	r4, r4, #12
   26654:	ca00000c 	bgt	2668c <__aeabi_dmul+0x14c>
   26658:	e2844014 	add	r4, r4, #20
   2665c:	e2645020 	rsb	r5, r4, #32
   26660:	e1a03510 	lsl	r3, r0, r5
   26664:	e1a00430 	lsr	r0, r0, r4
   26668:	e1800511 	orr	r0, r0, r1, lsl r5
   2666c:	e2012102 	and	r2, r1, #-2147483648	; 0x80000000
   26670:	e3c11102 	bic	r1, r1, #-2147483648	; 0x80000000
   26674:	e0900fa3 	adds	r0, r0, r3, lsr #31
   26678:	e0a21431 	adc	r1, r2, r1, lsr r4
   2667c:	e19ee083 	orrs	lr, lr, r3, lsl #1
   26680:	01c00fa3 	biceq	r0, r0, r3, lsr #31
   26684:	e8bd4070 	pop	{r4, r5, r6, lr}
   26688:	e12fff1e 	bx	lr
   2668c:	e264400c 	rsb	r4, r4, #12
   26690:	e2645020 	rsb	r5, r4, #32
   26694:	e1a03410 	lsl	r3, r0, r4
   26698:	e1a00530 	lsr	r0, r0, r5
   2669c:	e1800411 	orr	r0, r0, r1, lsl r4
   266a0:	e2011102 	and	r1, r1, #-2147483648	; 0x80000000
   266a4:	e0900fa3 	adds	r0, r0, r3, lsr #31
   266a8:	e2a11000 	adc	r1, r1, #0
   266ac:	e19ee083 	orrs	lr, lr, r3, lsl #1
   266b0:	01c00fa3 	biceq	r0, r0, r3, lsr #31
   266b4:	e8bd4070 	pop	{r4, r5, r6, lr}
   266b8:	e12fff1e 	bx	lr
   266bc:	e2645020 	rsb	r5, r4, #32
   266c0:	e18ee510 	orr	lr, lr, r0, lsl r5
   266c4:	e1a03430 	lsr	r3, r0, r4
   266c8:	e1833511 	orr	r3, r3, r1, lsl r5
   266cc:	e1a00431 	lsr	r0, r1, r4
   266d0:	e2011102 	and	r1, r1, #-2147483648	; 0x80000000
   266d4:	e1c00431 	bic	r0, r0, r1, lsr r4
   266d8:	e0800fa3 	add	r0, r0, r3, lsr #31
   266dc:	e19ee083 	orrs	lr, lr, r3, lsl #1
   266e0:	01c00fa3 	biceq	r0, r0, r3, lsr #31
   266e4:	e8bd4070 	pop	{r4, r5, r6, lr}
   266e8:	e12fff1e 	bx	lr
   266ec:	e3340000 	teq	r4, #0
   266f0:	1a000008 	bne	26718 <__aeabi_dmul+0x1d8>
   266f4:	e2016102 	and	r6, r1, #-2147483648	; 0x80000000
   266f8:	e1b00080 	lsls	r0, r0, #1
   266fc:	e0a11001 	adc	r1, r1, r1
   26700:	e3110601 	tst	r1, #1048576	; 0x100000
   26704:	02444001 	subeq	r4, r4, #1
   26708:	0afffffa 	beq	266f8 <__aeabi_dmul+0x1b8>
   2670c:	e1811006 	orr	r1, r1, r6
   26710:	e3350000 	teq	r5, #0
   26714:	112fff1e 	bxne	lr
   26718:	e2036102 	and	r6, r3, #-2147483648	; 0x80000000
   2671c:	e1b02082 	lsls	r2, r2, #1
   26720:	e0a33003 	adc	r3, r3, r3
   26724:	e3130601 	tst	r3, #1048576	; 0x100000
   26728:	02455001 	subeq	r5, r5, #1
   2672c:	0afffffa 	beq	2671c <__aeabi_dmul+0x1dc>
   26730:	e1833006 	orr	r3, r3, r6
   26734:	e12fff1e 	bx	lr
   26738:	e134000c 	teq	r4, ip
   2673c:	e00c5a23 	and	r5, ip, r3, lsr #20
   26740:	1135000c 	teqne	r5, ip
   26744:	0a000007 	beq	26768 <__aeabi_dmul+0x228>
   26748:	e1906081 	orrs	r6, r0, r1, lsl #1
   2674c:	11926083 	orrsne	r6, r2, r3, lsl #1
   26750:	1affffe5 	bne	266ec <__aeabi_dmul+0x1ac>
   26754:	e0211003 	eor	r1, r1, r3
   26758:	e2011102 	and	r1, r1, #-2147483648	; 0x80000000
   2675c:	e3a00000 	mov	r0, #0
   26760:	e8bd4070 	pop	{r4, r5, r6, lr}
   26764:	e12fff1e 	bx	lr
   26768:	e1906081 	orrs	r6, r0, r1, lsl #1
   2676c:	01a00002 	moveq	r0, r2
   26770:	01a01003 	moveq	r1, r3
   26774:	11926083 	orrsne	r6, r2, r3, lsl #1
   26778:	0a000010 	beq	267c0 <__aeabi_dmul+0x280>
   2677c:	e134000c 	teq	r4, ip
   26780:	1a000001 	bne	2678c <__aeabi_dmul+0x24c>
   26784:	e1906601 	orrs	r6, r0, r1, lsl #12
   26788:	1a00000c 	bne	267c0 <__aeabi_dmul+0x280>
   2678c:	e135000c 	teq	r5, ip
   26790:	1a000003 	bne	267a4 <__aeabi_dmul+0x264>
   26794:	e1926603 	orrs	r6, r2, r3, lsl #12
   26798:	11a00002 	movne	r0, r2
   2679c:	11a01003 	movne	r1, r3
   267a0:	1a000006 	bne	267c0 <__aeabi_dmul+0x280>
   267a4:	e0211003 	eor	r1, r1, r3
   267a8:	e2011102 	and	r1, r1, #-2147483648	; 0x80000000
   267ac:	e381147f 	orr	r1, r1, #2130706432	; 0x7f000000
   267b0:	e381160f 	orr	r1, r1, #15728640	; 0xf00000
   267b4:	e3a00000 	mov	r0, #0
   267b8:	e8bd4070 	pop	{r4, r5, r6, lr}
   267bc:	e12fff1e 	bx	lr
   267c0:	e381147f 	orr	r1, r1, #2130706432	; 0x7f000000
   267c4:	e381173e 	orr	r1, r1, #16252928	; 0xf80000
   267c8:	e8bd4070 	pop	{r4, r5, r6, lr}
   267cc:	e12fff1e 	bx	lr

000267d0 <__aeabi_ddiv>:
   267d0:	e92d4070 	push	{r4, r5, r6, lr}
   267d4:	e3a0c0ff 	mov	ip, #255	; 0xff
   267d8:	e38ccc07 	orr	ip, ip, #1792	; 0x700
   267dc:	e01c4a21 	ands	r4, ip, r1, lsr #20
   267e0:	101c5a23 	andsne	r5, ip, r3, lsr #20
   267e4:	1134000c 	teqne	r4, ip
   267e8:	1135000c 	teqne	r5, ip
   267ec:	0b00005e 	bleq	2696c <__aeabi_ddiv+0x19c>
   267f0:	e0444005 	sub	r4, r4, r5
   267f4:	e021e003 	eor	lr, r1, r3
   267f8:	e1925603 	orrs	r5, r2, r3, lsl #12
   267fc:	e1a01601 	lsl	r1, r1, #12
   26800:	0a00004c 	beq	26938 <__aeabi_ddiv+0x168>
   26804:	e1a03603 	lsl	r3, r3, #12
   26808:	e3a05201 	mov	r5, #268435456	; 0x10000000
   2680c:	e1853223 	orr	r3, r5, r3, lsr #4
   26810:	e1833c22 	orr	r3, r3, r2, lsr #24
   26814:	e1a02402 	lsl	r2, r2, #8
   26818:	e1855221 	orr	r5, r5, r1, lsr #4
   2681c:	e1855c20 	orr	r5, r5, r0, lsr #24
   26820:	e1a06400 	lsl	r6, r0, #8
   26824:	e20e1102 	and	r1, lr, #-2147483648	; 0x80000000
   26828:	e1550003 	cmp	r5, r3
   2682c:	01560002 	cmpeq	r6, r2
   26830:	e2a440fd 	adc	r4, r4, #253	; 0xfd
   26834:	e2844c03 	add	r4, r4, #768	; 0x300
   26838:	2a000001 	bcs	26844 <__aeabi_ddiv+0x74>
   2683c:	e1b030a3 	lsrs	r3, r3, #1
   26840:	e1a02062 	rrx	r2, r2
   26844:	e0566002 	subs	r6, r6, r2
   26848:	e0c55003 	sbc	r5, r5, r3
   2684c:	e1b030a3 	lsrs	r3, r3, #1
   26850:	e1a02062 	rrx	r2, r2
   26854:	e3a00601 	mov	r0, #1048576	; 0x100000
   26858:	e3a0c702 	mov	ip, #524288	; 0x80000
   2685c:	e056e002 	subs	lr, r6, r2
   26860:	e0d5e003 	sbcs	lr, r5, r3
   26864:	20466002 	subcs	r6, r6, r2
   26868:	21a0500e 	movcs	r5, lr
   2686c:	2180000c 	orrcs	r0, r0, ip
   26870:	e1b030a3 	lsrs	r3, r3, #1
   26874:	e1a02062 	rrx	r2, r2
   26878:	e056e002 	subs	lr, r6, r2
   2687c:	e0d5e003 	sbcs	lr, r5, r3
   26880:	20466002 	subcs	r6, r6, r2
   26884:	21a0500e 	movcs	r5, lr
   26888:	218000ac 	orrcs	r0, r0, ip, lsr #1
   2688c:	e1b030a3 	lsrs	r3, r3, #1
   26890:	e1a02062 	rrx	r2, r2
   26894:	e056e002 	subs	lr, r6, r2
   26898:	e0d5e003 	sbcs	lr, r5, r3
   2689c:	20466002 	subcs	r6, r6, r2
   268a0:	21a0500e 	movcs	r5, lr
   268a4:	2180012c 	orrcs	r0, r0, ip, lsr #2
   268a8:	e1b030a3 	lsrs	r3, r3, #1
   268ac:	e1a02062 	rrx	r2, r2
   268b0:	e056e002 	subs	lr, r6, r2
   268b4:	e0d5e003 	sbcs	lr, r5, r3
   268b8:	20466002 	subcs	r6, r6, r2
   268bc:	21a0500e 	movcs	r5, lr
   268c0:	218001ac 	orrcs	r0, r0, ip, lsr #3
   268c4:	e195e006 	orrs	lr, r5, r6
   268c8:	0a00000d 	beq	26904 <__aeabi_ddiv+0x134>
   268cc:	e1a05205 	lsl	r5, r5, #4
   268d0:	e1855e26 	orr	r5, r5, r6, lsr #28
   268d4:	e1a06206 	lsl	r6, r6, #4
   268d8:	e1a03183 	lsl	r3, r3, #3
   268dc:	e1833ea2 	orr	r3, r3, r2, lsr #29
   268e0:	e1a02182 	lsl	r2, r2, #3
   268e4:	e1b0c22c 	lsrs	ip, ip, #4
   268e8:	1affffdb 	bne	2685c <__aeabi_ddiv+0x8c>
   268ec:	e3110601 	tst	r1, #1048576	; 0x100000
   268f0:	1a000006 	bne	26910 <__aeabi_ddiv+0x140>
   268f4:	e1811000 	orr	r1, r1, r0
   268f8:	e3a00000 	mov	r0, #0
   268fc:	e3a0c102 	mov	ip, #-2147483648	; 0x80000000
   26900:	eaffffd5 	b	2685c <__aeabi_ddiv+0x8c>
   26904:	e3110601 	tst	r1, #1048576	; 0x100000
   26908:	01811000 	orreq	r1, r1, r0
   2690c:	03a00000 	moveq	r0, #0
   26910:	e254c0fd 	subs	ip, r4, #253	; 0xfd
   26914:	835c0c07 	cmphi	ip, #1792	; 0x700
   26918:	8affff43 	bhi	2662c <__aeabi_dmul+0xec>
   2691c:	e055c003 	subs	ip, r5, r3
   26920:	0056c002 	subseq	ip, r6, r2
   26924:	01b0c0a0 	lsrseq	ip, r0, #1
   26928:	e2b00000 	adcs	r0, r0, #0
   2692c:	e0a11a04 	adc	r1, r1, r4, lsl #20
   26930:	e8bd4070 	pop	{r4, r5, r6, lr}
   26934:	e12fff1e 	bx	lr
   26938:	e20ee102 	and	lr, lr, #-2147483648	; 0x80000000
   2693c:	e18e1621 	orr	r1, lr, r1, lsr #12
   26940:	e09440ac 	adds	r4, r4, ip, lsr #1
   26944:	c074500c 	rsbsgt	r5, r4, ip
   26948:	c1811a04 	orrgt	r1, r1, r4, lsl #20
   2694c:	c8bd4070 	popgt	{r4, r5, r6, lr}
   26950:	c12fff1e 	bxgt	lr
   26954:	e3811601 	orr	r1, r1, #1048576	; 0x100000
   26958:	e3a0e000 	mov	lr, #0
   2695c:	e2544001 	subs	r4, r4, #1
   26960:	eaffff31 	b	2662c <__aeabi_dmul+0xec>
   26964:	e185e006 	orr	lr, r5, r6
   26968:	eaffff2f 	b	2662c <__aeabi_dmul+0xec>
   2696c:	e00c5a23 	and	r5, ip, r3, lsr #20
   26970:	e134000c 	teq	r4, ip
   26974:	0135000c 	teqeq	r5, ip
   26978:	0affff90 	beq	267c0 <__aeabi_dmul+0x280>
   2697c:	e134000c 	teq	r4, ip
   26980:	1a000006 	bne	269a0 <__aeabi_ddiv+0x1d0>
   26984:	e1904601 	orrs	r4, r0, r1, lsl #12
   26988:	1affff8c 	bne	267c0 <__aeabi_dmul+0x280>
   2698c:	e135000c 	teq	r5, ip
   26990:	1affff83 	bne	267a4 <__aeabi_dmul+0x264>
   26994:	e1a00002 	mov	r0, r2
   26998:	e1a01003 	mov	r1, r3
   2699c:	eaffff87 	b	267c0 <__aeabi_dmul+0x280>
   269a0:	e135000c 	teq	r5, ip
   269a4:	1a000004 	bne	269bc <__aeabi_ddiv+0x1ec>
   269a8:	e1925603 	orrs	r5, r2, r3, lsl #12
   269ac:	0affff68 	beq	26754 <__aeabi_dmul+0x214>
   269b0:	e1a00002 	mov	r0, r2
   269b4:	e1a01003 	mov	r1, r3
   269b8:	eaffff80 	b	267c0 <__aeabi_dmul+0x280>
   269bc:	e1906081 	orrs	r6, r0, r1, lsl #1
   269c0:	11926083 	orrsne	r6, r2, r3, lsl #1
   269c4:	1affff48 	bne	266ec <__aeabi_dmul+0x1ac>
   269c8:	e1904081 	orrs	r4, r0, r1, lsl #1
   269cc:	1affff74 	bne	267a4 <__aeabi_dmul+0x264>
   269d0:	e1925083 	orrs	r5, r2, r3, lsl #1
   269d4:	1affff5e 	bne	26754 <__aeabi_dmul+0x214>
   269d8:	eaffff78 	b	267c0 <__aeabi_dmul+0x280>

000269dc <__gedf2>:
   269dc:	e3e0c000 	mvn	ip, #0
   269e0:	ea000002 	b	269f0 <__cmpdf2+0x4>

000269e4 <__ledf2>:
   269e4:	e3a0c001 	mov	ip, #1
   269e8:	ea000000 	b	269f0 <__cmpdf2+0x4>

000269ec <__cmpdf2>:
   269ec:	e3a0c001 	mov	ip, #1
   269f0:	e52dc004 	push	{ip}		; (str ip, [sp, #-4]!)
   269f4:	e1a0c081 	lsl	ip, r1, #1
   269f8:	e1f0cacc 	mvns	ip, ip, asr #21
   269fc:	e1a0c083 	lsl	ip, r3, #1
   26a00:	11f0cacc 	mvnsne	ip, ip, asr #21
   26a04:	0a00000e 	beq	26a44 <__cmpdf2+0x58>
   26a08:	e28dd004 	add	sp, sp, #4
   26a0c:	e190c081 	orrs	ip, r0, r1, lsl #1
   26a10:	0192c083 	orrseq	ip, r2, r3, lsl #1
   26a14:	11310003 	teqne	r1, r3
   26a18:	01300002 	teqeq	r0, r2
   26a1c:	03a00000 	moveq	r0, #0
   26a20:	012fff1e 	bxeq	lr
   26a24:	e3700000 	cmn	r0, #0
   26a28:	e1310003 	teq	r1, r3
   26a2c:	51510003 	cmppl	r1, r3
   26a30:	01500002 	cmpeq	r0, r2
   26a34:	21a00fc3 	asrcs	r0, r3, #31
   26a38:	31e00fc3 	mvncc	r0, r3, asr #31
   26a3c:	e3800001 	orr	r0, r0, #1
   26a40:	e12fff1e 	bx	lr
   26a44:	e1a0c081 	lsl	ip, r1, #1
   26a48:	e1f0cacc 	mvns	ip, ip, asr #21
   26a4c:	1a000001 	bne	26a58 <__cmpdf2+0x6c>
   26a50:	e190c601 	orrs	ip, r0, r1, lsl #12
   26a54:	1a000004 	bne	26a6c <__cmpdf2+0x80>
   26a58:	e1a0c083 	lsl	ip, r3, #1
   26a5c:	e1f0cacc 	mvns	ip, ip, asr #21
   26a60:	1affffe8 	bne	26a08 <__cmpdf2+0x1c>
   26a64:	e192c603 	orrs	ip, r2, r3, lsl #12
   26a68:	0affffe6 	beq	26a08 <__cmpdf2+0x1c>
   26a6c:	e49d0004 	pop	{r0}		; (ldr r0, [sp], #4)
   26a70:	e12fff1e 	bx	lr

00026a74 <__aeabi_cdrcmple>:
   26a74:	e1a0c000 	mov	ip, r0
   26a78:	e1a00002 	mov	r0, r2
   26a7c:	e1a0200c 	mov	r2, ip
   26a80:	e1a0c001 	mov	ip, r1
   26a84:	e1a01003 	mov	r1, r3
   26a88:	e1a0300c 	mov	r3, ip
   26a8c:	eaffffff 	b	26a90 <__aeabi_cdcmpeq>

00026a90 <__aeabi_cdcmpeq>:
   26a90:	e92d4001 	push	{r0, lr}
   26a94:	ebffffd4 	bl	269ec <__cmpdf2>
   26a98:	e3500000 	cmp	r0, #0
   26a9c:	43700000 	cmnmi	r0, #0
   26aa0:	e8bd4001 	pop	{r0, lr}
   26aa4:	e12fff1e 	bx	lr

00026aa8 <__aeabi_dcmpeq>:
   26aa8:	e52de008 	str	lr, [sp, #-8]!
   26aac:	ebfffff7 	bl	26a90 <__aeabi_cdcmpeq>
   26ab0:	03a00001 	moveq	r0, #1
   26ab4:	13a00000 	movne	r0, #0
   26ab8:	e49de008 	ldr	lr, [sp], #8
   26abc:	e12fff1e 	bx	lr

00026ac0 <__aeabi_dcmplt>:
   26ac0:	e52de008 	str	lr, [sp, #-8]!
   26ac4:	ebfffff1 	bl	26a90 <__aeabi_cdcmpeq>
   26ac8:	33a00001 	movcc	r0, #1
   26acc:	23a00000 	movcs	r0, #0
   26ad0:	e49de008 	ldr	lr, [sp], #8
   26ad4:	e12fff1e 	bx	lr

00026ad8 <__aeabi_dcmple>:
   26ad8:	e52de008 	str	lr, [sp, #-8]!
   26adc:	ebffffeb 	bl	26a90 <__aeabi_cdcmpeq>
   26ae0:	93a00001 	movls	r0, #1
   26ae4:	83a00000 	movhi	r0, #0
   26ae8:	e49de008 	ldr	lr, [sp], #8
   26aec:	e12fff1e 	bx	lr

00026af0 <__aeabi_dcmpge>:
   26af0:	e52de008 	str	lr, [sp, #-8]!
   26af4:	ebffffde 	bl	26a74 <__aeabi_cdrcmple>
   26af8:	93a00001 	movls	r0, #1
   26afc:	83a00000 	movhi	r0, #0
   26b00:	e49de008 	ldr	lr, [sp], #8
   26b04:	e12fff1e 	bx	lr

00026b08 <__aeabi_dcmpgt>:
   26b08:	e52de008 	str	lr, [sp, #-8]!
   26b0c:	ebffffd8 	bl	26a74 <__aeabi_cdrcmple>
   26b10:	33a00001 	movcc	r0, #1
   26b14:	23a00000 	movcs	r0, #0
   26b18:	e49de008 	ldr	lr, [sp], #8
   26b1c:	e12fff1e 	bx	lr

00026b20 <__aeabi_dcmpun>:
   26b20:	e1a0c081 	lsl	ip, r1, #1
   26b24:	e1f0cacc 	mvns	ip, ip, asr #21
   26b28:	1a000001 	bne	26b34 <__aeabi_dcmpun+0x14>
   26b2c:	e190c601 	orrs	ip, r0, r1, lsl #12
   26b30:	1a000006 	bne	26b50 <__aeabi_dcmpun+0x30>
   26b34:	e1a0c083 	lsl	ip, r3, #1
   26b38:	e1f0cacc 	mvns	ip, ip, asr #21
   26b3c:	1a000001 	bne	26b48 <__aeabi_dcmpun+0x28>
   26b40:	e192c603 	orrs	ip, r2, r3, lsl #12
   26b44:	1a000001 	bne	26b50 <__aeabi_dcmpun+0x30>
   26b48:	e3a00000 	mov	r0, #0
   26b4c:	e12fff1e 	bx	lr
   26b50:	e3a00001 	mov	r0, #1
   26b54:	e12fff1e 	bx	lr

00026b58 <__aeabi_d2iz>:
   26b58:	e1a02081 	lsl	r2, r1, #1
   26b5c:	e2922602 	adds	r2, r2, #2097152	; 0x200000
   26b60:	2a00000c 	bcs	26b98 <__aeabi_d2iz+0x40>
   26b64:	5a000009 	bpl	26b90 <__aeabi_d2iz+0x38>
   26b68:	e3e03e3e 	mvn	r3, #992	; 0x3e0
   26b6c:	e0532ac2 	subs	r2, r3, r2, asr #21
   26b70:	9a00000a 	bls	26ba0 <__aeabi_d2iz+0x48>
   26b74:	e1a03581 	lsl	r3, r1, #11
   26b78:	e3833102 	orr	r3, r3, #-2147483648	; 0x80000000
   26b7c:	e1833aa0 	orr	r3, r3, r0, lsr #21
   26b80:	e3110102 	tst	r1, #-2147483648	; 0x80000000
   26b84:	e1a00233 	lsr	r0, r3, r2
   26b88:	12600000 	rsbne	r0, r0, #0
   26b8c:	e12fff1e 	bx	lr
   26b90:	e3a00000 	mov	r0, #0
   26b94:	e12fff1e 	bx	lr
   26b98:	e1900601 	orrs	r0, r0, r1, lsl #12
   26b9c:	1a000002 	bne	26bac <__aeabi_d2iz+0x54>
   26ba0:	e2110102 	ands	r0, r1, #-2147483648	; 0x80000000
   26ba4:	03e00102 	mvneq	r0, #-2147483648	; 0x80000000
   26ba8:	e12fff1e 	bx	lr
   26bac:	e3a00000 	mov	r0, #0
   26bb0:	e12fff1e 	bx	lr

00026bb4 <__aeabi_uldivmod>:
   26bb4:	e3530000 	cmp	r3, #0
   26bb8:	03520000 	cmpeq	r2, #0
   26bbc:	1a000004 	bne	26bd4 <__aeabi_uldivmod+0x20>
   26bc0:	e3510000 	cmp	r1, #0
   26bc4:	03500000 	cmpeq	r0, #0
   26bc8:	13e01000 	mvnne	r1, #0
   26bcc:	13e00000 	mvnne	r0, #0
   26bd0:	ea0042d6 	b	37730 <____aeabi_ldiv0_from_arm>
   26bd4:	e24dd008 	sub	sp, sp, #8
   26bd8:	e92d6000 	push	{sp, lr}
   26bdc:	eb0042e2 	bl	3776c <____udivmoddi4_from_arm>
   26be0:	e59de004 	ldr	lr, [sp, #4]
   26be4:	e28dd008 	add	sp, sp, #8
   26be8:	e8bd000c 	pop	{r2, r3}
   26bec:	e12fff1e 	bx	lr

00026bf0 <__udivmoddi4>:
   26bf0:	b5f0      	push	{r4, r5, r6, r7, lr}
   26bf2:	4657      	mov	r7, sl
   26bf4:	464e      	mov	r6, r9
   26bf6:	4645      	mov	r5, r8
   26bf8:	46de      	mov	lr, fp
   26bfa:	b5e0      	push	{r5, r6, r7, lr}
   26bfc:	0004      	movs	r4, r0
   26bfe:	000d      	movs	r5, r1
   26c00:	4692      	mov	sl, r2
   26c02:	4699      	mov	r9, r3
   26c04:	b083      	sub	sp, #12
   26c06:	428b      	cmp	r3, r1
   26c08:	d830      	bhi.n	26c6c <__udivmoddi4+0x7c>
   26c0a:	d02d      	beq.n	26c68 <__udivmoddi4+0x78>
   26c0c:	4649      	mov	r1, r9
   26c0e:	4650      	mov	r0, sl
   26c10:	f010 fd9c 	bl	3774c <____clzdi2_from_thumb>
   26c14:	0029      	movs	r1, r5
   26c16:	0006      	movs	r6, r0
   26c18:	0020      	movs	r0, r4
   26c1a:	f010 fd97 	bl	3774c <____clzdi2_from_thumb>
   26c1e:	1a33      	subs	r3, r6, r0
   26c20:	4698      	mov	r8, r3
   26c22:	3b20      	subs	r3, #32
   26c24:	469b      	mov	fp, r3
   26c26:	d435      	bmi.n	26c94 <__udivmoddi4+0xa4>
   26c28:	465a      	mov	r2, fp
   26c2a:	4653      	mov	r3, sl
   26c2c:	4093      	lsls	r3, r2
   26c2e:	4642      	mov	r2, r8
   26c30:	001f      	movs	r7, r3
   26c32:	4653      	mov	r3, sl
   26c34:	4093      	lsls	r3, r2
   26c36:	001e      	movs	r6, r3
   26c38:	42af      	cmp	r7, r5
   26c3a:	d83c      	bhi.n	26cb6 <__udivmoddi4+0xc6>
   26c3c:	42af      	cmp	r7, r5
   26c3e:	d100      	bne.n	26c42 <__udivmoddi4+0x52>
   26c40:	e07a      	b.n	26d38 <__udivmoddi4+0x148>
   26c42:	465b      	mov	r3, fp
   26c44:	1ba4      	subs	r4, r4, r6
   26c46:	41bd      	sbcs	r5, r7
   26c48:	2b00      	cmp	r3, #0
   26c4a:	da00      	bge.n	26c4e <__udivmoddi4+0x5e>
   26c4c:	e077      	b.n	26d3e <__udivmoddi4+0x14e>
   26c4e:	2200      	movs	r2, #0
   26c50:	2300      	movs	r3, #0
   26c52:	9200      	str	r2, [sp, #0]
   26c54:	9301      	str	r3, [sp, #4]
   26c56:	2301      	movs	r3, #1
   26c58:	465a      	mov	r2, fp
   26c5a:	4093      	lsls	r3, r2
   26c5c:	9301      	str	r3, [sp, #4]
   26c5e:	2301      	movs	r3, #1
   26c60:	4642      	mov	r2, r8
   26c62:	4093      	lsls	r3, r2
   26c64:	9300      	str	r3, [sp, #0]
   26c66:	e02a      	b.n	26cbe <__udivmoddi4+0xce>
   26c68:	4282      	cmp	r2, r0
   26c6a:	d9cf      	bls.n	26c0c <__udivmoddi4+0x1c>
   26c6c:	2200      	movs	r2, #0
   26c6e:	2300      	movs	r3, #0
   26c70:	9200      	str	r2, [sp, #0]
   26c72:	9301      	str	r3, [sp, #4]
   26c74:	9b0c      	ldr	r3, [sp, #48]	; 0x30
   26c76:	2b00      	cmp	r3, #0
   26c78:	d001      	beq.n	26c7e <__udivmoddi4+0x8e>
   26c7a:	601c      	str	r4, [r3, #0]
   26c7c:	605d      	str	r5, [r3, #4]
   26c7e:	9800      	ldr	r0, [sp, #0]
   26c80:	9901      	ldr	r1, [sp, #4]
   26c82:	b003      	add	sp, #12
   26c84:	bcf0      	pop	{r4, r5, r6, r7}
   26c86:	46bb      	mov	fp, r7
   26c88:	46b2      	mov	sl, r6
   26c8a:	46a9      	mov	r9, r5
   26c8c:	46a0      	mov	r8, r4
   26c8e:	bcf0      	pop	{r4, r5, r6, r7}
   26c90:	bc04      	pop	{r2}
   26c92:	4710      	bx	r2
   26c94:	4642      	mov	r2, r8
   26c96:	2320      	movs	r3, #32
   26c98:	1a9b      	subs	r3, r3, r2
   26c9a:	4652      	mov	r2, sl
   26c9c:	40da      	lsrs	r2, r3
   26c9e:	4641      	mov	r1, r8
   26ca0:	0013      	movs	r3, r2
   26ca2:	464a      	mov	r2, r9
   26ca4:	408a      	lsls	r2, r1
   26ca6:	0017      	movs	r7, r2
   26ca8:	4642      	mov	r2, r8
   26caa:	431f      	orrs	r7, r3
   26cac:	4653      	mov	r3, sl
   26cae:	4093      	lsls	r3, r2
   26cb0:	001e      	movs	r6, r3
   26cb2:	42af      	cmp	r7, r5
   26cb4:	d9c2      	bls.n	26c3c <__udivmoddi4+0x4c>
   26cb6:	2200      	movs	r2, #0
   26cb8:	2300      	movs	r3, #0
   26cba:	9200      	str	r2, [sp, #0]
   26cbc:	9301      	str	r3, [sp, #4]
   26cbe:	4643      	mov	r3, r8
   26cc0:	2b00      	cmp	r3, #0
   26cc2:	d0d7      	beq.n	26c74 <__udivmoddi4+0x84>
   26cc4:	07fb      	lsls	r3, r7, #31
   26cc6:	0872      	lsrs	r2, r6, #1
   26cc8:	431a      	orrs	r2, r3
   26cca:	4646      	mov	r6, r8
   26ccc:	087b      	lsrs	r3, r7, #1
   26cce:	e00e      	b.n	26cee <__udivmoddi4+0xfe>
   26cd0:	42ab      	cmp	r3, r5
   26cd2:	d101      	bne.n	26cd8 <__udivmoddi4+0xe8>
   26cd4:	42a2      	cmp	r2, r4
   26cd6:	d80c      	bhi.n	26cf2 <__udivmoddi4+0x102>
   26cd8:	1aa4      	subs	r4, r4, r2
   26cda:	419d      	sbcs	r5, r3
   26cdc:	2001      	movs	r0, #1
   26cde:	1924      	adds	r4, r4, r4
   26ce0:	416d      	adcs	r5, r5
   26ce2:	2100      	movs	r1, #0
   26ce4:	3e01      	subs	r6, #1
   26ce6:	1824      	adds	r4, r4, r0
   26ce8:	414d      	adcs	r5, r1
   26cea:	2e00      	cmp	r6, #0
   26cec:	d006      	beq.n	26cfc <__udivmoddi4+0x10c>
   26cee:	42ab      	cmp	r3, r5
   26cf0:	d9ee      	bls.n	26cd0 <__udivmoddi4+0xe0>
   26cf2:	3e01      	subs	r6, #1
   26cf4:	1924      	adds	r4, r4, r4
   26cf6:	416d      	adcs	r5, r5
   26cf8:	2e00      	cmp	r6, #0
   26cfa:	d1f8      	bne.n	26cee <__udivmoddi4+0xfe>
   26cfc:	465b      	mov	r3, fp
   26cfe:	9800      	ldr	r0, [sp, #0]
   26d00:	9901      	ldr	r1, [sp, #4]
   26d02:	1900      	adds	r0, r0, r4
   26d04:	4169      	adcs	r1, r5
   26d06:	2b00      	cmp	r3, #0
   26d08:	db24      	blt.n	26d54 <__udivmoddi4+0x164>
   26d0a:	002b      	movs	r3, r5
   26d0c:	465a      	mov	r2, fp
   26d0e:	4644      	mov	r4, r8
   26d10:	40d3      	lsrs	r3, r2
   26d12:	002a      	movs	r2, r5
   26d14:	40e2      	lsrs	r2, r4
   26d16:	001c      	movs	r4, r3
   26d18:	465b      	mov	r3, fp
   26d1a:	0015      	movs	r5, r2
   26d1c:	2b00      	cmp	r3, #0
   26d1e:	db2a      	blt.n	26d76 <__udivmoddi4+0x186>
   26d20:	0026      	movs	r6, r4
   26d22:	409e      	lsls	r6, r3
   26d24:	0033      	movs	r3, r6
   26d26:	0026      	movs	r6, r4
   26d28:	4647      	mov	r7, r8
   26d2a:	40be      	lsls	r6, r7
   26d2c:	0032      	movs	r2, r6
   26d2e:	1a80      	subs	r0, r0, r2
   26d30:	4199      	sbcs	r1, r3
   26d32:	9000      	str	r0, [sp, #0]
   26d34:	9101      	str	r1, [sp, #4]
   26d36:	e79d      	b.n	26c74 <__udivmoddi4+0x84>
   26d38:	42a3      	cmp	r3, r4
   26d3a:	d8bc      	bhi.n	26cb6 <__udivmoddi4+0xc6>
   26d3c:	e781      	b.n	26c42 <__udivmoddi4+0x52>
   26d3e:	4642      	mov	r2, r8
   26d40:	2320      	movs	r3, #32
   26d42:	2100      	movs	r1, #0
   26d44:	1a9b      	subs	r3, r3, r2
   26d46:	2200      	movs	r2, #0
   26d48:	9100      	str	r1, [sp, #0]
   26d4a:	9201      	str	r2, [sp, #4]
   26d4c:	2201      	movs	r2, #1
   26d4e:	40da      	lsrs	r2, r3
   26d50:	9201      	str	r2, [sp, #4]
   26d52:	e784      	b.n	26c5e <__udivmoddi4+0x6e>
   26d54:	4642      	mov	r2, r8
   26d56:	2320      	movs	r3, #32
   26d58:	1a9b      	subs	r3, r3, r2
   26d5a:	002a      	movs	r2, r5
   26d5c:	4646      	mov	r6, r8
   26d5e:	409a      	lsls	r2, r3
   26d60:	0023      	movs	r3, r4
   26d62:	40f3      	lsrs	r3, r6
   26d64:	4644      	mov	r4, r8
   26d66:	4313      	orrs	r3, r2
   26d68:	002a      	movs	r2, r5
   26d6a:	40e2      	lsrs	r2, r4
   26d6c:	001c      	movs	r4, r3
   26d6e:	465b      	mov	r3, fp
   26d70:	0015      	movs	r5, r2
   26d72:	2b00      	cmp	r3, #0
   26d74:	dad4      	bge.n	26d20 <__udivmoddi4+0x130>
   26d76:	4642      	mov	r2, r8
   26d78:	002f      	movs	r7, r5
   26d7a:	2320      	movs	r3, #32
   26d7c:	0026      	movs	r6, r4
   26d7e:	4097      	lsls	r7, r2
   26d80:	1a9b      	subs	r3, r3, r2
   26d82:	40de      	lsrs	r6, r3
   26d84:	003b      	movs	r3, r7
   26d86:	4333      	orrs	r3, r6
   26d88:	e7cd      	b.n	26d26 <__udivmoddi4+0x136>
   26d8a:	46c0      	nop			; (mov r8, r8)

00026d8c <__aeabi_idiv0>:
   26d8c:	4770      	bx	lr
   26d8e:	46c0      	nop			; (mov r8, r8)

00026d90 <__clzdi2>:
   26d90:	e92d4010 	push	{r4, lr}
   26d94:	e3510000 	cmp	r1, #0
   26d98:	1a000002 	bne	26da8 <__clzdi2+0x18>
   26d9c:	eb000005 	bl	26db8 <__clzsi2>
   26da0:	e2800020 	add	r0, r0, #32
   26da4:	ea000001 	b	26db0 <__clzdi2+0x20>
   26da8:	e1a00001 	mov	r0, r1
   26dac:	eb000001 	bl	26db8 <__clzsi2>
   26db0:	e8bd4010 	pop	{r4, lr}
   26db4:	e12fff1e 	bx	lr

00026db8 <__clzsi2>:
   26db8:	e3a0101c 	mov	r1, #28
   26dbc:	e3500801 	cmp	r0, #65536	; 0x10000
   26dc0:	21a00820 	lsrcs	r0, r0, #16
   26dc4:	22411010 	subcs	r1, r1, #16
   26dc8:	e3500c01 	cmp	r0, #256	; 0x100
   26dcc:	21a00420 	lsrcs	r0, r0, #8
   26dd0:	22411008 	subcs	r1, r1, #8
   26dd4:	e3500010 	cmp	r0, #16
   26dd8:	21a00220 	lsrcs	r0, r0, #4
   26ddc:	22411004 	subcs	r1, r1, #4
   26de0:	e28f2008 	add	r2, pc, #8
   26de4:	e7d20000 	ldrb	r0, [r2, r0]
   26de8:	e0800001 	add	r0, r0, r1
   26dec:	e12fff1e 	bx	lr
   26df0:	02020304 	.word	0x02020304
   26df4:	01010101 	.word	0x01010101
	...

00026e00 <strcmp>:
   26e00:	e020c001 	eor	ip, r0, r1
   26e04:	e31c0003 	tst	ip, #3
   26e08:	1a000021 	bne	26e94 <strcmp+0x94>
   26e0c:	e210c003 	ands	ip, r0, #3
   26e10:	e3c00003 	bic	r0, r0, #3
   26e14:	e3c11003 	bic	r1, r1, #3
   26e18:	e4902004 	ldr	r2, [r0], #4
   26e1c:	04913004 	ldreq	r3, [r1], #4
   26e20:	0a000006 	beq	26e40 <strcmp+0x40>
   26e24:	e22cc003 	eor	ip, ip, #3
   26e28:	e3e034ff 	mvn	r3, #-16777216	; 0xff000000
   26e2c:	e1a0c18c 	lsl	ip, ip, #3
   26e30:	e1a0cc33 	lsr	ip, r3, ip
   26e34:	e4913004 	ldr	r3, [r1], #4
   26e38:	e182200c 	orr	r2, r2, ip
   26e3c:	e183300c 	orr	r3, r3, ip
   26e40:	e52d4004 	push	{r4}		; (str r4, [sp, #-4]!)
   26e44:	e3a04001 	mov	r4, #1
   26e48:	e1844404 	orr	r4, r4, r4, lsl #8
   26e4c:	e1844804 	orr	r4, r4, r4, lsl #16
   26e50:	e042c004 	sub	ip, r2, r4
   26e54:	e1520003 	cmp	r2, r3
   26e58:	01ccc002 	biceq	ip, ip, r2
   26e5c:	011c0384 	tsteq	ip, r4, lsl #7
   26e60:	04902004 	ldreq	r2, [r0], #4
   26e64:	04913004 	ldreq	r3, [r1], #4
   26e68:	0afffff8 	beq	26e50 <strcmp+0x50>
   26e6c:	e1a00c02 	lsl	r0, r2, #24
   26e70:	e1a02422 	lsr	r2, r2, #8
   26e74:	e3500001 	cmp	r0, #1
   26e78:	21500c03 	cmpcs	r0, r3, lsl #24
   26e7c:	01a03423 	lsreq	r3, r3, #8
   26e80:	0afffff9 	beq	26e6c <strcmp+0x6c>
   26e84:	e20330ff 	and	r3, r3, #255	; 0xff
   26e88:	e0630c20 	rsb	r0, r3, r0, lsr #24
   26e8c:	e49d4004 	pop	{r4}		; (ldr r4, [sp], #4)
   26e90:	e12fff1e 	bx	lr
   26e94:	e3100003 	tst	r0, #3
   26e98:	0a000006 	beq	26eb8 <strcmp+0xb8>
   26e9c:	e4d02001 	ldrb	r2, [r0], #1
   26ea0:	e4d13001 	ldrb	r3, [r1], #1
   26ea4:	e3520001 	cmp	r2, #1
   26ea8:	21520003 	cmpcs	r2, r3
   26eac:	0afffff8 	beq	26e94 <strcmp+0x94>
   26eb0:	e0420003 	sub	r0, r2, r3
   26eb4:	e12fff1e 	bx	lr
   26eb8:	e92d0030 	push	{r4, r5}
   26ebc:	e3a04001 	mov	r4, #1
   26ec0:	e1844404 	orr	r4, r4, r4, lsl #8
   26ec4:	e1844804 	orr	r4, r4, r4, lsl #16
   26ec8:	e4902004 	ldr	r2, [r0], #4
   26ecc:	e2015003 	and	r5, r1, #3
   26ed0:	e3c11003 	bic	r1, r1, #3
   26ed4:	e4913004 	ldr	r3, [r1], #4
   26ed8:	e3550002 	cmp	r5, #2
   26edc:	0a000017 	beq	26f40 <strcmp+0x140>
   26ee0:	8a00002d 	bhi	26f9c <strcmp+0x19c>
   26ee4:	e3c254ff 	bic	r5, r2, #-16777216	; 0xff000000
   26ee8:	e1550423 	cmp	r5, r3, lsr #8
   26eec:	e042c004 	sub	ip, r2, r4
   26ef0:	e1ccc002 	bic	ip, ip, r2
   26ef4:	1a000007 	bne	26f18 <strcmp+0x118>
   26ef8:	e01cc384 	ands	ip, ip, r4, lsl #7
   26efc:	04913004 	ldreq	r3, [r1], #4
   26f00:	1a000006 	bne	26f20 <strcmp+0x120>
   26f04:	e0255002 	eor	r5, r5, r2
   26f08:	e1550c03 	cmp	r5, r3, lsl #24
   26f0c:	1a000008 	bne	26f34 <strcmp+0x134>
   26f10:	e4902004 	ldr	r2, [r0], #4
   26f14:	eafffff2 	b	26ee4 <strcmp+0xe4>
   26f18:	e1a03423 	lsr	r3, r3, #8
   26f1c:	ea000036 	b	26ffc <strcmp+0x1fc>
   26f20:	e3dcc4ff 	bics	ip, ip, #-16777216	; 0xff000000
   26f24:	1a000031 	bne	26ff0 <strcmp+0x1f0>
   26f28:	e5d13000 	ldrb	r3, [r1]
   26f2c:	e1a05c22 	lsr	r5, r2, #24
   26f30:	ea000031 	b	26ffc <strcmp+0x1fc>
   26f34:	e1a05c22 	lsr	r5, r2, #24
   26f38:	e20330ff 	and	r3, r3, #255	; 0xff
   26f3c:	ea00002e 	b	26ffc <strcmp+0x1fc>
   26f40:	e1a05802 	lsl	r5, r2, #16
   26f44:	e042c004 	sub	ip, r2, r4
   26f48:	e1a05825 	lsr	r5, r5, #16
   26f4c:	e1ccc002 	bic	ip, ip, r2
   26f50:	e1550823 	cmp	r5, r3, lsr #16
   26f54:	1a00000e 	bne	26f94 <strcmp+0x194>
   26f58:	e01cc384 	ands	ip, ip, r4, lsl #7
   26f5c:	04913004 	ldreq	r3, [r1], #4
   26f60:	1a000004 	bne	26f78 <strcmp+0x178>
   26f64:	e0255002 	eor	r5, r5, r2
   26f68:	e1550803 	cmp	r5, r3, lsl #16
   26f6c:	1a000006 	bne	26f8c <strcmp+0x18c>
   26f70:	e4902004 	ldr	r2, [r0], #4
   26f74:	eafffff1 	b	26f40 <strcmp+0x140>
   26f78:	e1b0c80c 	lsls	ip, ip, #16
   26f7c:	1a00001b 	bne	26ff0 <strcmp+0x1f0>
   26f80:	e1d130b0 	ldrh	r3, [r1]
   26f84:	e1a05822 	lsr	r5, r2, #16
   26f88:	ea00001b 	b	26ffc <strcmp+0x1fc>
   26f8c:	e1a03803 	lsl	r3, r3, #16
   26f90:	e1a05822 	lsr	r5, r2, #16
   26f94:	e1a03823 	lsr	r3, r3, #16
   26f98:	ea000017 	b	26ffc <strcmp+0x1fc>
   26f9c:	e20250ff 	and	r5, r2, #255	; 0xff
   26fa0:	e1550c23 	cmp	r5, r3, lsr #24
   26fa4:	e042c004 	sub	ip, r2, r4
   26fa8:	e1ccc002 	bic	ip, ip, r2
   26fac:	1a000007 	bne	26fd0 <strcmp+0x1d0>
   26fb0:	e01cc384 	ands	ip, ip, r4, lsl #7
   26fb4:	04913004 	ldreq	r3, [r1], #4
   26fb8:	1a000006 	bne	26fd8 <strcmp+0x1d8>
   26fbc:	e0255002 	eor	r5, r5, r2
   26fc0:	e1550403 	cmp	r5, r3, lsl #8
   26fc4:	1a000006 	bne	26fe4 <strcmp+0x1e4>
   26fc8:	e4902004 	ldr	r2, [r0], #4
   26fcc:	eafffff2 	b	26f9c <strcmp+0x19c>
   26fd0:	e1a03c23 	lsr	r3, r3, #24
   26fd4:	ea000008 	b	26ffc <strcmp+0x1fc>
   26fd8:	e31200ff 	tst	r2, #255	; 0xff
   26fdc:	0a000003 	beq	26ff0 <strcmp+0x1f0>
   26fe0:	e4913004 	ldr	r3, [r1], #4
   26fe4:	e1a05422 	lsr	r5, r2, #8
   26fe8:	e3c334ff 	bic	r3, r3, #-16777216	; 0xff000000
   26fec:	ea000002 	b	26ffc <strcmp+0x1fc>
   26ff0:	e3a00000 	mov	r0, #0
   26ff4:	e8bd0030 	pop	{r4, r5}
   26ff8:	e12fff1e 	bx	lr
   26ffc:	e20520ff 	and	r2, r5, #255	; 0xff
   27000:	e20300ff 	and	r0, r3, #255	; 0xff
   27004:	e3500001 	cmp	r0, #1
   27008:	21500002 	cmpcs	r0, r2
   2700c:	01a05425 	lsreq	r5, r5, #8
   27010:	01a03423 	lsreq	r3, r3, #8
   27014:	0afffff8 	beq	26ffc <strcmp+0x1fc>
   27018:	e0420000 	sub	r0, r2, r0
   2701c:	e8bd0030 	pop	{r4, r5}
   27020:	e12fff1e 	bx	lr

00027024 <app_dis_init>:
   27024:	4770      	bx	lr

00027026 <rf_rpl_reg_rd>:
   27026:	6800      	ldr	r0, [r0, #0]
   27028:	4770      	bx	lr

0002702a <rf_rpl_reg_wr>:
   2702a:	6001      	str	r1, [r0, #0]
   2702c:	4770      	bx	lr

0002702e <rf_txpwr_dbm_get>:
   2702e:	2000      	movs	r0, #0
   27030:	4770      	bx	lr
	...

00027034 <rf_sleep>:
   27034:	2307      	movs	r3, #7
   27036:	4a02      	ldr	r2, [pc, #8]	; (27040 <rf_sleep+0xc>)
   27038:	6811      	ldr	r1, [r2, #0]
   2703a:	430b      	orrs	r3, r1
   2703c:	6013      	str	r3, [r2, #0]
   2703e:	4770      	bx	lr
   27040:	00820030 	.word	0x00820030

00027044 <rf_force_agc_enable>:
   27044:	4906      	ldr	r1, [pc, #24]	; (27060 <rf_force_agc_enable+0x1c>)
   27046:	07c2      	lsls	r2, r0, #31
   27048:	680b      	ldr	r3, [r1, #0]
   2704a:	005b      	lsls	r3, r3, #1
   2704c:	085b      	lsrs	r3, r3, #1
   2704e:	4313      	orrs	r3, r2
   27050:	600b      	str	r3, [r1, #0]
   27052:	4904      	ldr	r1, [pc, #16]	; (27064 <rf_force_agc_enable+0x20>)
   27054:	680b      	ldr	r3, [r1, #0]
   27056:	005b      	lsls	r3, r3, #1
   27058:	0858      	lsrs	r0, r3, #1
   2705a:	4310      	orrs	r0, r2
   2705c:	6008      	str	r0, [r1, #0]
   2705e:	4770      	bx	lr
   27060:	00820074 	.word	0x00820074
   27064:	00820874 	.word	0x00820874

00027068 <rf_rssi_convert>:
   27068:	0840      	lsrs	r0, r0, #1
   2706a:	3876      	subs	r0, #118	; 0x76
   2706c:	0600      	lsls	r0, r0, #24
   2706e:	1600      	asrs	r0, r0, #24
   27070:	4770      	bx	lr
	...

00027074 <rf_txpwr_cs_get>:
   27074:	0002      	movs	r2, r0
   27076:	2301      	movs	r3, #1
   27078:	b530      	push	{r4, r5, lr}
   2707a:	4c0a      	ldr	r4, [pc, #40]	; (270a4 <rf_txpwr_cs_get+0x30>)
   2707c:	571d      	ldrsb	r5, [r3, r4]
   2707e:	0618      	lsls	r0, r3, #24
   27080:	0e00      	lsrs	r0, r0, #24
   27082:	4295      	cmp	r5, r2
   27084:	da03      	bge.n	2708e <rf_txpwr_cs_get+0x1a>
   27086:	3301      	adds	r3, #1
   27088:	2b0d      	cmp	r3, #13
   2708a:	d1f7      	bne.n	2707c <rf_txpwr_cs_get+0x8>
   2708c:	0018      	movs	r0, r3
   2708e:	5623      	ldrsb	r3, [r4, r0]
   27090:	4293      	cmp	r3, r2
   27092:	d006      	beq.n	270a2 <rf_txpwr_cs_get+0x2e>
   27094:	2900      	cmp	r1, #0
   27096:	d104      	bne.n	270a2 <rf_txpwr_cs_get+0x2e>
   27098:	2801      	cmp	r0, #1
   2709a:	d002      	beq.n	270a2 <rf_txpwr_cs_get+0x2e>
   2709c:	3801      	subs	r0, #1
   2709e:	0600      	lsls	r0, r0, #24
   270a0:	0e00      	lsrs	r0, r0, #24
   270a2:	bd30      	pop	{r4, r5, pc}
   270a4:	0003868d 	.word	0x0003868d

000270a8 <prf_get_id_from_task>:
   270a8:	490b      	ldr	r1, [pc, #44]	; (270d8 <prf_get_id_from_task+0x30>)
   270aa:	b530      	push	{r4, r5, lr}
   270ac:	2200      	movs	r2, #0
   270ae:	000c      	movs	r4, r1
   270b0:	0a03      	lsrs	r3, r0, #8
   270b2:	0600      	lsls	r0, r0, #24
   270b4:	0e00      	lsrs	r0, r0, #24
   270b6:	8a0d      	ldrh	r5, [r1, #16]
   270b8:	4285      	cmp	r5, r0
   270ba:	d106      	bne.n	270ca <prf_get_id_from_task+0x22>
   270bc:	2118      	movs	r1, #24
   270be:	434a      	muls	r2, r1
   270c0:	18a4      	adds	r4, r4, r2
   270c2:	8a62      	ldrh	r2, [r4, #18]
   270c4:	0218      	lsls	r0, r3, #8
   270c6:	4310      	orrs	r0, r2
   270c8:	bd30      	pop	{r4, r5, pc}
   270ca:	3201      	adds	r2, #1
   270cc:	3118      	adds	r1, #24
   270ce:	2a0a      	cmp	r2, #10
   270d0:	d1f1      	bne.n	270b6 <prf_get_id_from_task+0xe>
   270d2:	32f5      	adds	r2, #245	; 0xf5
   270d4:	e7f6      	b.n	270c4 <prf_get_id_from_task+0x1c>
   270d6:	46c0      	nop			; (mov r8, r8)
   270d8:	00402aa0 	.word	0x00402aa0

000270dc <prf_get_task_from_id>:
   270dc:	490b      	ldr	r1, [pc, #44]	; (2710c <prf_get_task_from_id+0x30>)
   270de:	b530      	push	{r4, r5, lr}
   270e0:	2200      	movs	r2, #0
   270e2:	000c      	movs	r4, r1
   270e4:	0a03      	lsrs	r3, r0, #8
   270e6:	0600      	lsls	r0, r0, #24
   270e8:	0e00      	lsrs	r0, r0, #24
   270ea:	8a4d      	ldrh	r5, [r1, #18]
   270ec:	4285      	cmp	r5, r0
   270ee:	d106      	bne.n	270fe <prf_get_task_from_id+0x22>
   270f0:	2118      	movs	r1, #24
   270f2:	434a      	muls	r2, r1
   270f4:	18a4      	adds	r4, r4, r2
   270f6:	8a22      	ldrh	r2, [r4, #16]
   270f8:	0218      	lsls	r0, r3, #8
   270fa:	4310      	orrs	r0, r2
   270fc:	bd30      	pop	{r4, r5, pc}
   270fe:	3201      	adds	r2, #1
   27100:	3118      	adds	r1, #24
   27102:	2a0a      	cmp	r2, #10
   27104:	d1f1      	bne.n	270ea <prf_get_task_from_id+0xe>
   27106:	32f5      	adds	r2, #245	; 0xf5
   27108:	e7f6      	b.n	270f8 <prf_get_task_from_id+0x1c>
   2710a:	46c0      	nop			; (mov r8, r8)
   2710c:	00402aa0 	.word	0x00402aa0

00027110 <rwble_sleep_wakeup_end>:
   27110:	4b02      	ldr	r3, [pc, #8]	; (2711c <rwble_sleep_wakeup_end+0xc>)
   27112:	681a      	ldr	r2, [r3, #0]
   27114:	4b02      	ldr	r3, [pc, #8]	; (27120 <rwble_sleep_wakeup_end+0x10>)
   27116:	601a      	str	r2, [r3, #0]
   27118:	4770      	bx	lr
   2711a:	46c0      	nop			; (mov r8, r8)
   2711c:	00402bb4 	.word	0x00402bb4
   27120:	0082080c 	.word	0x0082080c

00027124 <app_sec_msg_dflt_handler>:
   27124:	2000      	movs	r0, #0
   27126:	4770      	bx	lr

00027128 <bass_batt_level_ntf_cfg_ind_handler>:
   27128:	2000      	movs	r0, #0
   2712a:	4770      	bx	lr

0002712c <batt_level_upd_handler>:
   2712c:	2000      	movs	r0, #0
   2712e:	4770      	bx	lr

00027130 <bass_enable_rsp_handler>:
   27130:	2000      	movs	r0, #0
   27132:	4770      	bx	lr

00027134 <app_batt_msg_dflt_handler>:
   27134:	2000      	movs	r0, #0
   27136:	4770      	bx	lr

00027138 <app_hid_msg_dflt_handler>:
   27138:	2000      	movs	r0, #0
   2713a:	4770      	bx	lr

0002713c <app_timer0_1_int_cb>:
   2713c:	4a13      	ldr	r2, [pc, #76]	; (2718c <app_timer0_1_int_cb+0x50>)
   2713e:	7813      	ldrb	r3, [r2, #0]
   27140:	3301      	adds	r3, #1
   27142:	061b      	lsls	r3, r3, #24
   27144:	0e1b      	lsrs	r3, r3, #24
   27146:	7013      	strb	r3, [r2, #0]
   27148:	4a11      	ldr	r2, [pc, #68]	; (27190 <app_timer0_1_int_cb+0x54>)
   2714a:	7a13      	ldrb	r3, [r2, #8]
   2714c:	8991      	ldrh	r1, [r2, #12]
   2714e:	3301      	adds	r3, #1
   27150:	061b      	lsls	r3, r3, #24
   27152:	3101      	adds	r1, #1
   27154:	0e1b      	lsrs	r3, r3, #24
   27156:	8191      	strh	r1, [r2, #12]
   27158:	7213      	strb	r3, [r2, #8]
   2715a:	490e      	ldr	r1, [pc, #56]	; (27194 <app_timer0_1_int_cb+0x58>)
   2715c:	2b03      	cmp	r3, #3
   2715e:	d90f      	bls.n	27180 <app_timer0_1_int_cb+0x44>
   27160:	2300      	movs	r3, #0
   27162:	7213      	strb	r3, [r2, #8]
   27164:	6853      	ldr	r3, [r2, #4]
   27166:	3301      	adds	r3, #1
   27168:	6053      	str	r3, [r2, #4]
   2716a:	2b78      	cmp	r3, #120	; 0x78
   2716c:	d104      	bne.n	27178 <app_timer0_1_int_cb+0x3c>
   2716e:	4a0a      	ldr	r2, [pc, #40]	; (27198 <app_timer0_1_int_cb+0x5c>)
   27170:	3b76      	subs	r3, #118	; 0x76
   27172:	6810      	ldr	r0, [r2, #0]
   27174:	4303      	orrs	r3, r0
   27176:	6013      	str	r3, [r2, #0]
   27178:	2308      	movs	r3, #8
   2717a:	680a      	ldr	r2, [r1, #0]
   2717c:	4313      	orrs	r3, r2
   2717e:	600b      	str	r3, [r1, #0]
   27180:	2380      	movs	r3, #128	; 0x80
   27182:	680a      	ldr	r2, [r1, #0]
   27184:	01db      	lsls	r3, r3, #7
   27186:	4313      	orrs	r3, r2
   27188:	600b      	str	r3, [r1, #0]
   2718a:	4770      	bx	lr
   2718c:	004054f8 	.word	0x004054f8
   27190:	004054b4 	.word	0x004054b4
   27194:	004027c8 	.word	0x004027c8
   27198:	00800a34 	.word	0x00800a34

0002719c <app_mouse_key_scan>:
   2719c:	2200      	movs	r2, #0
   2719e:	b5f0      	push	{r4, r5, r6, r7, lr}
   271a0:	4b2e      	ldr	r3, [pc, #184]	; (2725c <app_mouse_key_scan+0xc0>)
   271a2:	751a      	strb	r2, [r3, #20]
   271a4:	4a2e      	ldr	r2, [pc, #184]	; (27260 <app_mouse_key_scan+0xc4>)
   271a6:	6811      	ldr	r1, [r2, #0]
   271a8:	2201      	movs	r2, #1
   271aa:	4211      	tst	r1, r2
   271ac:	d100      	bne.n	271b0 <app_mouse_key_scan+0x14>
   271ae:	751a      	strb	r2, [r3, #20]
   271b0:	492c      	ldr	r1, [pc, #176]	; (27264 <app_mouse_key_scan+0xc8>)
   271b2:	6809      	ldr	r1, [r1, #0]
   271b4:	4211      	tst	r1, r2
   271b6:	d103      	bne.n	271c0 <app_mouse_key_scan+0x24>
   271b8:	2202      	movs	r2, #2
   271ba:	7d19      	ldrb	r1, [r3, #20]
   271bc:	430a      	orrs	r2, r1
   271be:	751a      	strb	r2, [r3, #20]
   271c0:	4a29      	ldr	r2, [pc, #164]	; (27268 <app_mouse_key_scan+0xcc>)
   271c2:	6812      	ldr	r2, [r2, #0]
   271c4:	07d2      	lsls	r2, r2, #31
   271c6:	d403      	bmi.n	271d0 <app_mouse_key_scan+0x34>
   271c8:	2204      	movs	r2, #4
   271ca:	7d19      	ldrb	r1, [r3, #20]
   271cc:	430a      	orrs	r2, r1
   271ce:	751a      	strb	r2, [r3, #20]
   271d0:	4a26      	ldr	r2, [pc, #152]	; (2726c <app_mouse_key_scan+0xd0>)
   271d2:	7a12      	ldrb	r2, [r2, #8]
   271d4:	3a01      	subs	r2, #1
   271d6:	2a01      	cmp	r2, #1
   271d8:	d903      	bls.n	271e2 <app_mouse_key_scan+0x46>
   271da:	4a25      	ldr	r2, [pc, #148]	; (27270 <app_mouse_key_scan+0xd4>)
   271dc:	6812      	ldr	r2, [r2, #0]
   271de:	07d2      	lsls	r2, r2, #31
   271e0:	d401      	bmi.n	271e6 <app_mouse_key_scan+0x4a>
   271e2:	2200      	movs	r2, #0
   271e4:	751a      	strb	r2, [r3, #20]
   271e6:	2200      	movs	r2, #0
   271e8:	4c22      	ldr	r4, [pc, #136]	; (27274 <app_mouse_key_scan+0xd8>)
   271ea:	755a      	strb	r2, [r3, #21]
   271ec:	7d1d      	ldrb	r5, [r3, #20]
   271ee:	7822      	ldrb	r2, [r4, #0]
   271f0:	4295      	cmp	r5, r2
   271f2:	d014      	beq.n	2721e <app_mouse_key_scan+0x82>
   271f4:	2610      	movs	r6, #16
   271f6:	4820      	ldr	r0, [pc, #128]	; (27278 <app_mouse_key_scan+0xdc>)
   271f8:	6801      	ldr	r1, [r0, #0]
   271fa:	430e      	orrs	r6, r1
   271fc:	6006      	str	r6, [r0, #0]
   271fe:	4e1f      	ldr	r6, [pc, #124]	; (2727c <app_mouse_key_scan+0xe0>)
   27200:	2a00      	cmp	r2, #0
   27202:	d008      	beq.n	27216 <app_mouse_key_scan+0x7a>
   27204:	8837      	ldrh	r7, [r6, #0]
   27206:	2f01      	cmp	r7, #1
   27208:	d905      	bls.n	27216 <app_mouse_key_scan+0x7a>
   2720a:	27a0      	movs	r7, #160	; 0xa0
   2720c:	43b9      	bics	r1, r7
   2720e:	3f50      	subs	r7, #80	; 0x50
   27210:	4339      	orrs	r1, r7
   27212:	6001      	str	r1, [r0, #0]
   27214:	755a      	strb	r2, [r3, #21]
   27216:	2300      	movs	r3, #0
   27218:	7025      	strb	r5, [r4, #0]
   2721a:	8033      	strh	r3, [r6, #0]
   2721c:	bdf0      	pop	{r4, r5, r6, r7, pc}
   2721e:	2a00      	cmp	r2, #0
   27220:	d0fc      	beq.n	2721c <app_mouse_key_scan+0x80>
   27222:	2496      	movs	r4, #150	; 0x96
   27224:	4815      	ldr	r0, [pc, #84]	; (2727c <app_mouse_key_scan+0xe0>)
   27226:	0064      	lsls	r4, r4, #1
   27228:	8801      	ldrh	r1, [r0, #0]
   2722a:	42a1      	cmp	r1, r4
   2722c:	d801      	bhi.n	27232 <app_mouse_key_scan+0x96>
   2722e:	3101      	adds	r1, #1
   27230:	8001      	strh	r1, [r0, #0]
   27232:	8801      	ldrh	r1, [r0, #0]
   27234:	29f9      	cmp	r1, #249	; 0xf9
   27236:	d906      	bls.n	27246 <app_mouse_key_scan+0xaa>
   27238:	2180      	movs	r1, #128	; 0x80
   2723a:	480f      	ldr	r0, [pc, #60]	; (27278 <app_mouse_key_scan+0xdc>)
   2723c:	6804      	ldr	r4, [r0, #0]
   2723e:	4321      	orrs	r1, r4
   27240:	6001      	str	r1, [r0, #0]
   27242:	755a      	strb	r2, [r3, #21]
   27244:	e7ea      	b.n	2721c <app_mouse_key_scan+0x80>
   27246:	2902      	cmp	r1, #2
   27248:	d1e8      	bne.n	2721c <app_mouse_key_scan+0x80>
   2724a:	4c0b      	ldr	r4, [pc, #44]	; (27278 <app_mouse_key_scan+0xdc>)
   2724c:	310e      	adds	r1, #14
   2724e:	6820      	ldr	r0, [r4, #0]
   27250:	4388      	bics	r0, r1
   27252:	3110      	adds	r1, #16
   27254:	4301      	orrs	r1, r0
   27256:	6021      	str	r1, [r4, #0]
   27258:	e7f3      	b.n	27242 <app_mouse_key_scan+0xa6>
   2725a:	46c0      	nop			; (mov r8, r8)
   2725c:	004054b4 	.word	0x004054b4
   27260:	00800a6c 	.word	0x00800a6c
   27264:	00800a64 	.word	0x00800a64
   27268:	00800a68 	.word	0x00800a68
   2726c:	00402a72 	.word	0x00402a72
   27270:	00800a20 	.word	0x00800a20
   27274:	00402a9c 	.word	0x00402a9c
   27278:	004027c8 	.word	0x004027c8
   2727c:	00402a5e 	.word	0x00402a5e

00027280 <key_wakeup_config>:
   27280:	22cc      	movs	r2, #204	; 0xcc
   27282:	4b0d      	ldr	r3, [pc, #52]	; (272b8 <key_wakeup_config+0x38>)
   27284:	0392      	lsls	r2, r2, #14
   27286:	681b      	ldr	r3, [r3, #0]
   27288:	4b0c      	ldr	r3, [pc, #48]	; (272bc <key_wakeup_config+0x3c>)
   2728a:	681b      	ldr	r3, [r3, #0]
   2728c:	4b0c      	ldr	r3, [pc, #48]	; (272c0 <key_wakeup_config+0x40>)
   2728e:	601a      	str	r2, [r3, #0]
   27290:	2200      	movs	r2, #0
   27292:	4b0c      	ldr	r3, [pc, #48]	; (272c4 <key_wakeup_config+0x44>)
   27294:	601a      	str	r2, [r3, #0]
   27296:	4b0c      	ldr	r3, [pc, #48]	; (272c8 <key_wakeup_config+0x48>)
   27298:	4a0c      	ldr	r2, [pc, #48]	; (272cc <key_wakeup_config+0x4c>)
   2729a:	601a      	str	r2, [r3, #0]
   2729c:	681a      	ldr	r2, [r3, #0]
   2729e:	4b0c      	ldr	r3, [pc, #48]	; (272d0 <key_wakeup_config+0x50>)
   272a0:	601a      	str	r2, [r3, #0]
   272a2:	2201      	movs	r2, #1
   272a4:	4b0b      	ldr	r3, [pc, #44]	; (272d4 <key_wakeup_config+0x54>)
   272a6:	4252      	negs	r2, r2
   272a8:	601a      	str	r2, [r3, #0]
   272aa:	2380      	movs	r3, #128	; 0x80
   272ac:	4a0a      	ldr	r2, [pc, #40]	; (272d8 <key_wakeup_config+0x58>)
   272ae:	009b      	lsls	r3, r3, #2
   272b0:	6811      	ldr	r1, [r2, #0]
   272b2:	430b      	orrs	r3, r1
   272b4:	6013      	str	r3, [r2, #0]
   272b6:	4770      	bx	lr
   272b8:	00800a60 	.word	0x00800a60
   272bc:	00800a70 	.word	0x00800a70
   272c0:	00800ac0 	.word	0x00800ac0
   272c4:	00800ac4 	.word	0x00800ac4
   272c8:	00800acc 	.word	0x00800acc
   272cc:	1f000500 	.word	0x1f000500
   272d0:	0080080c 	.word	0x0080080c
   272d4:	00800ad4 	.word	0x00800ad4
   272d8:	00800040 	.word	0x00800040

000272dc <oads_enable_rsp_handler>:
   272dc:	2000      	movs	r0, #0
   272de:	4770      	bx	lr

000272e0 <gapm_activity_created_ind_handler>:
   272e0:	4b03      	ldr	r3, [pc, #12]	; (272f0 <gapm_activity_created_ind_handler+0x10>)
   272e2:	791a      	ldrb	r2, [r3, #4]
   272e4:	2a01      	cmp	r2, #1
   272e6:	d101      	bne.n	272ec <gapm_activity_created_ind_handler+0xc>
   272e8:	780a      	ldrb	r2, [r1, #0]
   272ea:	70da      	strb	r2, [r3, #3]
   272ec:	2000      	movs	r0, #0
   272ee:	4770      	bx	lr
   272f0:	00402854 	.word	0x00402854

000272f4 <f24GetFreqConfigValue>:
   272f4:	2100      	movs	r1, #0
   272f6:	b510      	push	{r4, lr}
   272f8:	4a09      	ldr	r2, [pc, #36]	; (27320 <f24GetFreqConfigValue+0x2c>)
   272fa:	480a      	ldr	r0, [pc, #40]	; (27324 <f24GetFreqConfigValue+0x30>)
   272fc:	1d93      	adds	r3, r2, #6
   272fe:	68c4      	ldr	r4, [r0, #12]
   27300:	77d9      	strb	r1, [r3, #31]
   27302:	6883      	ldr	r3, [r0, #8]
   27304:	6841      	ldr	r1, [r0, #4]
   27306:	0924      	lsrs	r4, r4, #4
   27308:	6900      	ldr	r0, [r0, #16]
   2730a:	08db      	lsrs	r3, r3, #3
   2730c:	191b      	adds	r3, r3, r4
   2730e:	185b      	adds	r3, r3, r1
   27310:	0980      	lsrs	r0, r0, #6
   27312:	181b      	adds	r3, r3, r0
   27314:	08c9      	lsrs	r1, r1, #3
   27316:	404b      	eors	r3, r1
   27318:	3207      	adds	r2, #7
   2731a:	77d3      	strb	r3, [r2, #31]
   2731c:	bd10      	pop	{r4, pc}
   2731e:	46c0      	nop			; (mov r8, r8)
   27320:	004054b4 	.word	0x004054b4
   27324:	00400f20 	.word	0x00400f20

00027328 <application_mouse_led_start>:
   27328:	4b0c      	ldr	r3, [pc, #48]	; (2735c <application_mouse_led_start+0x34>)
   2732a:	b530      	push	{r4, r5, lr}
   2732c:	001c      	movs	r4, r3
   2732e:	001a      	movs	r2, r3
   27330:	342d      	adds	r4, #45	; 0x2d
   27332:	7020      	strb	r0, [r4, #0]
   27334:	2000      	movs	r0, #0
   27336:	2502      	movs	r5, #2
   27338:	322c      	adds	r2, #44	; 0x2c
   2733a:	0049      	lsls	r1, r1, #1
   2733c:	7011      	strb	r1, [r2, #0]
   2733e:	4908      	ldr	r1, [pc, #32]	; (27360 <application_mouse_led_start+0x38>)
   27340:	7008      	strb	r0, [r1, #0]
   27342:	4808      	ldr	r0, [pc, #32]	; (27364 <application_mouse_led_start+0x3c>)
   27344:	6801      	ldr	r1, [r0, #0]
   27346:	43a9      	bics	r1, r5
   27348:	6001      	str	r1, [r0, #0]
   2734a:	7821      	ldrb	r1, [r4, #0]
   2734c:	6858      	ldr	r0, [r3, #4]
   2734e:	1809      	adds	r1, r1, r0
   27350:	6319      	str	r1, [r3, #48]	; 0x30
   27352:	7813      	ldrb	r3, [r2, #0]
   27354:	3b01      	subs	r3, #1
   27356:	7013      	strb	r3, [r2, #0]
   27358:	bd30      	pop	{r4, r5, pc}
   2735a:	46c0      	nop			; (mov r8, r8)
   2735c:	004054b4 	.word	0x004054b4
   27360:	004028a5 	.word	0x004028a5
   27364:	00800a34 	.word	0x00800a34

00027368 <application_mouse_led_process>:
   27368:	4b12      	ldr	r3, [pc, #72]	; (273b4 <application_mouse_led_process+0x4c>)
   2736a:	b530      	push	{r4, r5, lr}
   2736c:	001a      	movs	r2, r3
   2736e:	322c      	adds	r2, #44	; 0x2c
   27370:	7812      	ldrb	r2, [r2, #0]
   27372:	2a00      	cmp	r2, #0
   27374:	d01c      	beq.n	273b0 <application_mouse_led_process+0x48>
   27376:	6859      	ldr	r1, [r3, #4]
   27378:	6b1a      	ldr	r2, [r3, #48]	; 0x30
   2737a:	428a      	cmp	r2, r1
   2737c:	d818      	bhi.n	273b0 <application_mouse_led_process+0x48>
   2737e:	001a      	movs	r2, r3
   27380:	322d      	adds	r2, #45	; 0x2d
   27382:	7812      	ldrb	r2, [r2, #0]
   27384:	2502      	movs	r5, #2
   27386:	1852      	adds	r2, r2, r1
   27388:	490b      	ldr	r1, [pc, #44]	; (273b8 <application_mouse_led_process+0x50>)
   2738a:	631a      	str	r2, [r3, #48]	; 0x30
   2738c:	780a      	ldrb	r2, [r1, #0]
   2738e:	43d2      	mvns	r2, r2
   27390:	0612      	lsls	r2, r2, #24
   27392:	0e12      	lsrs	r2, r2, #24
   27394:	700a      	strb	r2, [r1, #0]
   27396:	4909      	ldr	r1, [pc, #36]	; (273bc <application_mouse_led_process+0x54>)
   27398:	680c      	ldr	r4, [r1, #0]
   2739a:	0020      	movs	r0, r4
   2739c:	43a8      	bics	r0, r5
   2739e:	07d2      	lsls	r2, r2, #31
   273a0:	d501      	bpl.n	273a6 <application_mouse_led_process+0x3e>
   273a2:	0028      	movs	r0, r5
   273a4:	4320      	orrs	r0, r4
   273a6:	6008      	str	r0, [r1, #0]
   273a8:	332c      	adds	r3, #44	; 0x2c
   273aa:	781a      	ldrb	r2, [r3, #0]
   273ac:	3a01      	subs	r2, #1
   273ae:	701a      	strb	r2, [r3, #0]
   273b0:	bd30      	pop	{r4, r5, pc}
   273b2:	46c0      	nop			; (mov r8, r8)
   273b4:	004054b4 	.word	0x004054b4
   273b8:	004028a5 	.word	0x004028a5
   273bc:	00800a34 	.word	0x00800a34

000273c0 <REC_OneByte>:
   273c0:	2301      	movs	r3, #1
   273c2:	b530      	push	{r4, r5, lr}
   273c4:	490c      	ldr	r1, [pc, #48]	; (273f8 <REC_OneByte+0x38>)
   273c6:	680a      	ldr	r2, [r1, #0]
   273c8:	0010      	movs	r0, r2
   273ca:	4018      	ands	r0, r3
   273cc:	421a      	tst	r2, r3
   273ce:	d1fa      	bne.n	273c6 <REC_OneByte+0x6>
   273d0:	2308      	movs	r3, #8
   273d2:	2201      	movs	r2, #1
   273d4:	4c09      	ldr	r4, [pc, #36]	; (273fc <REC_OneByte+0x3c>)
   273d6:	680d      	ldr	r5, [r1, #0]
   273d8:	4215      	tst	r5, r2
   273da:	d1fc      	bne.n	273d6 <REC_OneByte+0x16>
   273dc:	680d      	ldr	r5, [r1, #0]
   273de:	4215      	tst	r5, r2
   273e0:	d0fc      	beq.n	273dc <REC_OneByte+0x1c>
   273e2:	6825      	ldr	r5, [r4, #0]
   273e4:	0640      	lsls	r0, r0, #25
   273e6:	0e00      	lsrs	r0, r0, #24
   273e8:	4215      	tst	r5, r2
   273ea:	d000      	beq.n	273ee <REC_OneByte+0x2e>
   273ec:	4310      	orrs	r0, r2
   273ee:	3b01      	subs	r3, #1
   273f0:	061b      	lsls	r3, r3, #24
   273f2:	0e1b      	lsrs	r3, r3, #24
   273f4:	d1ef      	bne.n	273d6 <REC_OneByte+0x16>
   273f6:	bd30      	pop	{r4, r5, pc}
   273f8:	00800a10 	.word	0x00800a10
   273fc:	00800a68 	.word	0x00800a68

00027400 <driver_rf_mode_single_wave>:
   27400:	2180      	movs	r1, #128	; 0x80
   27402:	4a0c      	ldr	r2, [pc, #48]	; (27434 <driver_rf_mode_single_wave+0x34>)
   27404:	0589      	lsls	r1, r1, #22
   27406:	6913      	ldr	r3, [r2, #16]
   27408:	4319      	orrs	r1, r3
   2740a:	6111      	str	r1, [r2, #16]
   2740c:	6912      	ldr	r2, [r2, #16]
   2740e:	4b0a      	ldr	r3, [pc, #40]	; (27438 <driver_rf_mode_single_wave+0x38>)
   27410:	490a      	ldr	r1, [pc, #40]	; (2743c <driver_rf_mode_single_wave+0x3c>)
   27412:	601a      	str	r2, [r3, #0]
   27414:	4a0a      	ldr	r2, [pc, #40]	; (27440 <driver_rf_mode_single_wave+0x40>)
   27416:	6813      	ldr	r3, [r2, #0]
   27418:	600b      	str	r3, [r1, #0]
   2741a:	21f0      	movs	r1, #240	; 0xf0
   2741c:	00c9      	lsls	r1, r1, #3
   2741e:	400b      	ands	r3, r1
   27420:	4303      	orrs	r3, r0
   27422:	6013      	str	r3, [r2, #0]
   27424:	23c0      	movs	r3, #192	; 0xc0
   27426:	4a07      	ldr	r2, [pc, #28]	; (27444 <driver_rf_mode_single_wave+0x44>)
   27428:	019b      	lsls	r3, r3, #6
   2742a:	6811      	ldr	r1, [r2, #0]
   2742c:	430b      	orrs	r3, r1
   2742e:	6013      	str	r3, [r2, #0]
   27430:	4770      	bx	lr
   27432:	46c0      	nop			; (mov r8, r8)
   27434:	004027cc 	.word	0x004027cc
   27438:	00806e10 	.word	0x00806e10
   2743c:	0040284c 	.word	0x0040284c
   27440:	00806e90 	.word	0x00806e90
   27444:	00806e94 	.word	0x00806e94

00027448 <application_mouse_rf_synchronize>:
   27448:	4a05      	ldr	r2, [pc, #20]	; (27460 <application_mouse_rf_synchronize+0x18>)
   2744a:	3228      	adds	r2, #40	; 0x28
   2744c:	7813      	ldrb	r3, [r2, #0]
   2744e:	2b04      	cmp	r3, #4
   27450:	d005      	beq.n	2745e <application_mouse_rf_synchronize+0x16>
   27452:	2302      	movs	r3, #2
   27454:	7013      	strb	r3, [r2, #0]
   27456:	4a03      	ldr	r2, [pc, #12]	; (27464 <application_mouse_rf_synchronize+0x1c>)
   27458:	7811      	ldrb	r1, [r2, #0]
   2745a:	430b      	orrs	r3, r1
   2745c:	7013      	strb	r3, [r2, #0]
   2745e:	4770      	bx	lr
   27460:	004054b4 	.word	0x004054b4
   27464:	00402b92 	.word	0x00402b92

00027468 <PowerUp_Rf>:
   27468:	2302      	movs	r3, #2
   2746a:	4a02      	ldr	r2, [pc, #8]	; (27474 <PowerUp_Rf+0xc>)
   2746c:	6811      	ldr	r1, [r2, #0]
   2746e:	430b      	orrs	r3, r1
   27470:	6013      	str	r3, [r2, #0]
   27472:	4770      	bx	lr
   27474:	00805000 	.word	0x00805000

00027478 <PowerDown_Rf>:
   27478:	21fd      	movs	r1, #253	; 0xfd
   2747a:	4a02      	ldr	r2, [pc, #8]	; (27484 <PowerDown_Rf+0xc>)
   2747c:	6813      	ldr	r3, [r2, #0]
   2747e:	400b      	ands	r3, r1
   27480:	6013      	str	r3, [r2, #0]
   27482:	4770      	bx	lr
   27484:	00805000 	.word	0x00805000

00027488 <SwitchToRxMode>:
   27488:	b510      	push	{r4, lr}
   2748a:	f7ff ffed 	bl	27468 <PowerUp_Rf>
   2748e:	2280      	movs	r2, #128	; 0x80
   27490:	4b05      	ldr	r3, [pc, #20]	; (274a8 <SwitchToRxMode+0x20>)
   27492:	2101      	movs	r1, #1
   27494:	601a      	str	r2, [r3, #0]
   27496:	2300      	movs	r3, #0
   27498:	4a04      	ldr	r2, [pc, #16]	; (274ac <SwitchToRxMode+0x24>)
   2749a:	4805      	ldr	r0, [pc, #20]	; (274b0 <SwitchToRxMode+0x28>)
   2749c:	6013      	str	r3, [r2, #0]
   2749e:	6803      	ldr	r3, [r0, #0]
   274a0:	430b      	orrs	r3, r1
   274a2:	6003      	str	r3, [r0, #0]
   274a4:	6011      	str	r1, [r2, #0]
   274a6:	bd10      	pop	{r4, pc}
   274a8:	008050d8 	.word	0x008050d8
   274ac:	008050d4 	.word	0x008050d4
   274b0:	00805000 	.word	0x00805000

000274b4 <SwitchToTxMode>:
   274b4:	b510      	push	{r4, lr}
   274b6:	f7ff ffd7 	bl	27468 <PowerUp_Rf>
   274ba:	22a0      	movs	r2, #160	; 0xa0
   274bc:	4b06      	ldr	r3, [pc, #24]	; (274d8 <SwitchToTxMode+0x24>)
   274be:	20fe      	movs	r0, #254	; 0xfe
   274c0:	601a      	str	r2, [r3, #0]
   274c2:	2300      	movs	r3, #0
   274c4:	4a05      	ldr	r2, [pc, #20]	; (274dc <SwitchToTxMode+0x28>)
   274c6:	4906      	ldr	r1, [pc, #24]	; (274e0 <SwitchToTxMode+0x2c>)
   274c8:	6013      	str	r3, [r2, #0]
   274ca:	680b      	ldr	r3, [r1, #0]
   274cc:	4003      	ands	r3, r0
   274ce:	600b      	str	r3, [r1, #0]
   274d0:	2301      	movs	r3, #1
   274d2:	6013      	str	r3, [r2, #0]
   274d4:	bd10      	pop	{r4, pc}
   274d6:	46c0      	nop			; (mov r8, r8)
   274d8:	008050d8 	.word	0x008050d8
   274dc:	008050d4 	.word	0x008050d4
   274e0:	00805000 	.word	0x00805000

000274e4 <memcpy_2461>:
   274e4:	2300      	movs	r3, #0
   274e6:	b530      	push	{r4, r5, lr}
   274e8:	0092      	lsls	r2, r2, #2
   274ea:	58cd      	ldr	r5, [r1, r3]
   274ec:	18c4      	adds	r4, r0, r3
   274ee:	3304      	adds	r3, #4
   274f0:	6025      	str	r5, [r4, #0]
   274f2:	4293      	cmp	r3, r2
   274f4:	d1f9      	bne.n	274ea <memcpy_2461+0x6>
   274f6:	bd30      	pop	{r4, r5, pc}

000274f8 <Rf_Init>:
   274f8:	b570      	push	{r4, r5, r6, lr}
   274fa:	4a2d      	ldr	r2, [pc, #180]	; (275b0 <Rf_Init+0xb8>)
   274fc:	492d      	ldr	r1, [pc, #180]	; (275b4 <Rf_Init+0xbc>)
   274fe:	6813      	ldr	r3, [r2, #0]
   27500:	482d      	ldr	r0, [pc, #180]	; (275b8 <Rf_Init+0xc0>)
   27502:	400b      	ands	r3, r1
   27504:	6013      	str	r3, [r2, #0]
   27506:	492d      	ldr	r1, [pc, #180]	; (275bc <Rf_Init+0xc4>)
   27508:	2204      	movs	r2, #4
   2750a:	f7ff ffeb 	bl	274e4 <memcpy_2461>
   2750e:	2204      	movs	r2, #4
   27510:	492b      	ldr	r1, [pc, #172]	; (275c0 <Rf_Init+0xc8>)
   27512:	482c      	ldr	r0, [pc, #176]	; (275c4 <Rf_Init+0xcc>)
   27514:	f7ff ffe6 	bl	274e4 <memcpy_2461>
   27518:	220c      	movs	r2, #12
   2751a:	253f      	movs	r5, #63	; 0x3f
   2751c:	2405      	movs	r4, #5
   2751e:	4b2a      	ldr	r3, [pc, #168]	; (275c8 <Rf_Init+0xd0>)
   27520:	4e2a      	ldr	r6, [pc, #168]	; (275cc <Rf_Init+0xd4>)
   27522:	601a      	str	r2, [r3, #0]
   27524:	4b2a      	ldr	r3, [pc, #168]	; (275d0 <Rf_Init+0xd8>)
   27526:	3a09      	subs	r2, #9
   27528:	601d      	str	r5, [r3, #0]
   2752a:	4b2a      	ldr	r3, [pc, #168]	; (275d4 <Rf_Init+0xdc>)
   2752c:	0031      	movs	r1, r6
   2752e:	601d      	str	r5, [r3, #0]
   27530:	4b29      	ldr	r3, [pc, #164]	; (275d8 <Rf_Init+0xe0>)
   27532:	482a      	ldr	r0, [pc, #168]	; (275dc <Rf_Init+0xe4>)
   27534:	601a      	str	r2, [r3, #0]
   27536:	4b2a      	ldr	r3, [pc, #168]	; (275e0 <Rf_Init+0xe8>)
   27538:	3230      	adds	r2, #48	; 0x30
   2753a:	601a      	str	r2, [r3, #0]
   2753c:	4b29      	ldr	r3, [pc, #164]	; (275e4 <Rf_Init+0xec>)
   2753e:	3a24      	subs	r2, #36	; 0x24
   27540:	601c      	str	r4, [r3, #0]
   27542:	4b29      	ldr	r3, [pc, #164]	; (275e8 <Rf_Init+0xf0>)
   27544:	601a      	str	r2, [r3, #0]
   27546:	0022      	movs	r2, r4
   27548:	f7ff ffcc 	bl	274e4 <memcpy_2461>
   2754c:	0022      	movs	r2, r4
   2754e:	4927      	ldr	r1, [pc, #156]	; (275ec <Rf_Init+0xf4>)
   27550:	4827      	ldr	r0, [pc, #156]	; (275f0 <Rf_Init+0xf8>)
   27552:	f7ff ffc7 	bl	274e4 <memcpy_2461>
   27556:	2211      	movs	r2, #17
   27558:	4b26      	ldr	r3, [pc, #152]	; (275f4 <Rf_Init+0xfc>)
   2755a:	0031      	movs	r1, r6
   2755c:	601a      	str	r2, [r3, #0]
   2755e:	4b26      	ldr	r3, [pc, #152]	; (275f8 <Rf_Init+0x100>)
   27560:	3201      	adds	r2, #1
   27562:	601a      	str	r2, [r3, #0]
   27564:	4b25      	ldr	r3, [pc, #148]	; (275fc <Rf_Init+0x104>)
   27566:	3201      	adds	r2, #1
   27568:	601a      	str	r2, [r3, #0]
   2756a:	4b25      	ldr	r3, [pc, #148]	; (27600 <Rf_Init+0x108>)
   2756c:	3201      	adds	r2, #1
   2756e:	4825      	ldr	r0, [pc, #148]	; (27604 <Rf_Init+0x10c>)
   27570:	601a      	str	r2, [r3, #0]
   27572:	0022      	movs	r2, r4
   27574:	f7ff ffb6 	bl	274e4 <memcpy_2461>
   27578:	2320      	movs	r3, #32
   2757a:	4a23      	ldr	r2, [pc, #140]	; (27608 <Rf_Init+0x110>)
   2757c:	6013      	str	r3, [r2, #0]
   2757e:	4a23      	ldr	r2, [pc, #140]	; (2760c <Rf_Init+0x114>)
   27580:	6013      	str	r3, [r2, #0]
   27582:	4a23      	ldr	r2, [pc, #140]	; (27610 <Rf_Init+0x118>)
   27584:	6013      	str	r3, [r2, #0]
   27586:	4a23      	ldr	r2, [pc, #140]	; (27614 <Rf_Init+0x11c>)
   27588:	6013      	str	r3, [r2, #0]
   2758a:	4a23      	ldr	r2, [pc, #140]	; (27618 <Rf_Init+0x120>)
   2758c:	6013      	str	r3, [r2, #0]
   2758e:	4a23      	ldr	r2, [pc, #140]	; (2761c <Rf_Init+0x124>)
   27590:	6013      	str	r3, [r2, #0]
   27592:	2207      	movs	r2, #7
   27594:	4b22      	ldr	r3, [pc, #136]	; (27620 <Rf_Init+0x128>)
   27596:	601d      	str	r5, [r3, #0]
   27598:	4b22      	ldr	r3, [pc, #136]	; (27624 <Rf_Init+0x12c>)
   2759a:	601a      	str	r2, [r3, #0]
   2759c:	f7ff ff6c 	bl	27478 <PowerDown_Rf>
   275a0:	4b21      	ldr	r3, [pc, #132]	; (27628 <Rf_Init+0x130>)
   275a2:	4a22      	ldr	r2, [pc, #136]	; (2762c <Rf_Init+0x134>)
   275a4:	601a      	str	r2, [r3, #0]
   275a6:	4b22      	ldr	r3, [pc, #136]	; (27630 <Rf_Init+0x138>)
   275a8:	4a22      	ldr	r2, [pc, #136]	; (27634 <Rf_Init+0x13c>)
   275aa:	601a      	str	r2, [r3, #0]
   275ac:	bd70      	pop	{r4, r5, r6, pc}
   275ae:	46c0      	nop			; (mov r8, r8)
   275b0:	0080000c 	.word	0x0080000c
   275b4:	fffeffff 	.word	0xfffeffff
   275b8:	00805088 	.word	0x00805088
   275bc:	00400f00 	.word	0x00400f00
   275c0:	00400f10 	.word	0x00400f10
   275c4:	00805098 	.word	0x00805098
   275c8:	00805000 	.word	0x00805000
   275cc:	00400f20 	.word	0x00400f20
   275d0:	00805004 	.word	0x00805004
   275d4:	00805008 	.word	0x00805008
   275d8:	0080500c 	.word	0x0080500c
   275dc:	0080501c 	.word	0x0080501c
   275e0:	00805010 	.word	0x00805010
   275e4:	00805014 	.word	0x00805014
   275e8:	00805018 	.word	0x00805018
   275ec:	00400f34 	.word	0x00400f34
   275f0:	00805030 	.word	0x00805030
   275f4:	00805044 	.word	0x00805044
   275f8:	00805048 	.word	0x00805048
   275fc:	0080504c 	.word	0x0080504c
   27600:	00805050 	.word	0x00805050
   27604:	00805054 	.word	0x00805054
   27608:	00805068 	.word	0x00805068
   2760c:	0080506c 	.word	0x0080506c
   27610:	00805070 	.word	0x00805070
   27614:	00805074 	.word	0x00805074
   27618:	00805078 	.word	0x00805078
   2761c:	0080507c 	.word	0x0080507c
   27620:	00805080 	.word	0x00805080
   27624:	00805084 	.word	0x00805084
   27628:	00806e90 	.word	0x00806e90
   2762c:	000e0782 	.word	0x000e0782
   27630:	00806eec 	.word	0x00806eec
   27634:	36340048 	.word	0x36340048

00027638 <driver_rf_channel_switch>:
   27638:	4a13      	ldr	r2, [pc, #76]	; (27688 <driver_rf_channel_switch+0x50>)
   2763a:	1d91      	adds	r1, r2, #6
   2763c:	7fcb      	ldrb	r3, [r1, #31]
   2763e:	3301      	adds	r3, #1
   27640:	061b      	lsls	r3, r3, #24
   27642:	0e1b      	lsrs	r3, r3, #24
   27644:	2b03      	cmp	r3, #3
   27646:	d815      	bhi.n	27674 <driver_rf_channel_switch+0x3c>
   27648:	77cb      	strb	r3, [r1, #31]
   2764a:	1dd3      	adds	r3, r2, #7
   2764c:	3206      	adds	r2, #6
   2764e:	7fd2      	ldrb	r2, [r2, #31]
   27650:	7fdb      	ldrb	r3, [r3, #31]
   27652:	2a01      	cmp	r2, #1
   27654:	d110      	bne.n	27678 <driver_rf_channel_switch+0x40>
   27656:	089b      	lsrs	r3, r3, #2
   27658:	490c      	ldr	r1, [pc, #48]	; (2768c <driver_rf_channel_switch+0x54>)
   2765a:	7809      	ldrb	r1, [r1, #0]
   2765c:	2900      	cmp	r1, #0
   2765e:	d108      	bne.n	27672 <driver_rf_channel_switch+0x3a>
   27660:	3103      	adds	r1, #3
   27662:	400b      	ands	r3, r1
   27664:	490a      	ldr	r1, [pc, #40]	; (27690 <driver_rf_channel_switch+0x58>)
   27666:	0092      	lsls	r2, r2, #2
   27668:	188a      	adds	r2, r1, r2
   2766a:	5cd3      	ldrb	r3, [r2, r3]
   2766c:	4a09      	ldr	r2, [pc, #36]	; (27694 <driver_rf_channel_switch+0x5c>)
   2766e:	3380      	adds	r3, #128	; 0x80
   27670:	6013      	str	r3, [r2, #0]
   27672:	4770      	bx	lr
   27674:	2300      	movs	r3, #0
   27676:	e7e7      	b.n	27648 <driver_rf_channel_switch+0x10>
   27678:	2a02      	cmp	r2, #2
   2767a:	d101      	bne.n	27680 <driver_rf_channel_switch+0x48>
   2767c:	091b      	lsrs	r3, r3, #4
   2767e:	e7eb      	b.n	27658 <driver_rf_channel_switch+0x20>
   27680:	2a03      	cmp	r2, #3
   27682:	d1e9      	bne.n	27658 <driver_rf_channel_switch+0x20>
   27684:	099b      	lsrs	r3, r3, #6
   27686:	e7e7      	b.n	27658 <driver_rf_channel_switch+0x20>
   27688:	004054b4 	.word	0x004054b4
   2768c:	004029ba 	.word	0x004029ba
   27690:	0003867d 	.word	0x0003867d
   27694:	00805014 	.word	0x00805014

00027698 <driver_rf_data_send_ACK>:
   27698:	2280      	movs	r2, #128	; 0x80
   2769a:	b5f8      	push	{r3, r4, r5, r6, r7, lr}
   2769c:	4b23      	ldr	r3, [pc, #140]	; (2772c <driver_rf_data_send_ACK+0x94>)
   2769e:	4c24      	ldr	r4, [pc, #144]	; (27730 <driver_rf_data_send_ACK+0x98>)
   276a0:	601a      	str	r2, [r3, #0]
   276a2:	3220      	adds	r2, #32
   276a4:	601a      	str	r2, [r3, #0]
   276a6:	4e23      	ldr	r6, [pc, #140]	; (27734 <driver_rf_data_send_ACK+0x9c>)
   276a8:	3a22      	subs	r2, #34	; 0x22
   276aa:	6022      	str	r2, [r4, #0]
   276ac:	3a7d      	subs	r2, #125	; 0x7d
   276ae:	6032      	str	r2, [r6, #0]
   276b0:	325f      	adds	r2, #95	; 0x5f
   276b2:	601a      	str	r2, [r3, #0]
   276b4:	2200      	movs	r2, #0
   276b6:	4f20      	ldr	r7, [pc, #128]	; (27738 <driver_rf_data_send_ACK+0xa0>)
   276b8:	4d20      	ldr	r5, [pc, #128]	; (2773c <driver_rf_data_send_ACK+0xa4>)
   276ba:	5dd1      	ldrb	r1, [r2, r7]
   276bc:	3201      	adds	r2, #1
   276be:	6029      	str	r1, [r5, #0]
   276c0:	0611      	lsls	r1, r2, #24
   276c2:	0e09      	lsrs	r1, r1, #24
   276c4:	4281      	cmp	r1, r0
   276c6:	d3f8      	bcc.n	276ba <driver_rf_data_send_ACK+0x22>
   276c8:	2200      	movs	r2, #0
   276ca:	25ff      	movs	r5, #255	; 0xff
   276cc:	2030      	movs	r0, #48	; 0x30
   276ce:	491c      	ldr	r1, [pc, #112]	; (27740 <driver_rf_data_send_ACK+0xa8>)
   276d0:	601a      	str	r2, [r3, #0]
   276d2:	700a      	strb	r2, [r1, #0]
   276d4:	6822      	ldr	r2, [r4, #0]
   276d6:	780f      	ldrb	r7, [r1, #0]
   276d8:	402a      	ands	r2, r5
   276da:	2f05      	cmp	r7, #5
   276dc:	d823      	bhi.n	27726 <driver_rf_data_send_ACK+0x8e>
   276de:	4202      	tst	r2, r0
   276e0:	d0f8      	beq.n	276d4 <driver_rf_data_send_ACK+0x3c>
   276e2:	2100      	movs	r1, #0
   276e4:	2040      	movs	r0, #64	; 0x40
   276e6:	2500      	movs	r5, #0
   276e8:	4202      	tst	r2, r0
   276ea:	d003      	beq.n	276f4 <driver_rf_data_send_ACK+0x5c>
   276ec:	3580      	adds	r5, #128	; 0x80
   276ee:	601d      	str	r5, [r3, #0]
   276f0:	6020      	str	r0, [r4, #0]
   276f2:	3d7e      	subs	r5, #126	; 0x7e
   276f4:	2020      	movs	r0, #32
   276f6:	4202      	tst	r2, r0
   276f8:	d003      	beq.n	27702 <driver_rf_data_send_ACK+0x6a>
   276fa:	25a0      	movs	r5, #160	; 0xa0
   276fc:	601d      	str	r5, [r3, #0]
   276fe:	6020      	str	r0, [r4, #0]
   27700:	3d9f      	subs	r5, #159	; 0x9f
   27702:	06d2      	lsls	r2, r2, #27
   27704:	d401      	bmi.n	2770a <driver_rf_data_send_ACK+0x72>
   27706:	2900      	cmp	r1, #0
   27708:	d009      	beq.n	2771e <driver_rf_data_send_ACK+0x86>
   2770a:	2280      	movs	r2, #128	; 0x80
   2770c:	601a      	str	r2, [r3, #0]
   2770e:	3220      	adds	r2, #32
   27710:	601a      	str	r2, [r3, #0]
   27712:	f7ff feb1 	bl	27478 <PowerDown_Rf>
   27716:	f7ff fea7 	bl	27468 <PowerUp_Rf>
   2771a:	2310      	movs	r3, #16
   2771c:	6023      	str	r3, [r4, #0]
   2771e:	2300      	movs	r3, #0
   27720:	0028      	movs	r0, r5
   27722:	6033      	str	r3, [r6, #0]
   27724:	bdf8      	pop	{r3, r4, r5, r6, r7, pc}
   27726:	2101      	movs	r1, #1
   27728:	e7dc      	b.n	276e4 <driver_rf_data_send_ACK+0x4c>
   2772a:	46c0      	nop			; (mov r8, r8)
   2772c:	008050d8 	.word	0x008050d8
   27730:	00805100 	.word	0x00805100
   27734:	008050d4 	.word	0x008050d4
   27738:	00402b92 	.word	0x00402b92
   2773c:	008050dc 	.word	0x008050dc
   27740:	004054f8 	.word	0x004054f8

00027744 <driver_rf_receive_package>:
   27744:	2040      	movs	r0, #64	; 0x40
   27746:	b5f0      	push	{r4, r5, r6, r7, lr}
   27748:	491b      	ldr	r1, [pc, #108]	; (277b8 <driver_rf_receive_package+0x74>)
   2774a:	2200      	movs	r2, #0
   2774c:	680b      	ldr	r3, [r1, #0]
   2774e:	4203      	tst	r3, r0
   27750:	d031      	beq.n	277b6 <driver_rf_receive_package+0x72>
   27752:	2480      	movs	r4, #128	; 0x80
   27754:	02a4      	lsls	r4, r4, #10
   27756:	4b19      	ldr	r3, [pc, #100]	; (277bc <driver_rf_receive_package+0x78>)
   27758:	4d19      	ldr	r5, [pc, #100]	; (277c0 <driver_rf_receive_package+0x7c>)
   2775a:	681b      	ldr	r3, [r3, #0]
   2775c:	061b      	lsls	r3, r3, #24
   2775e:	0e1b      	lsrs	r3, r3, #24
   27760:	2b20      	cmp	r3, #32
   27762:	d825      	bhi.n	277b0 <driver_rf_receive_package+0x6c>
   27764:	4e17      	ldr	r6, [pc, #92]	; (277c4 <driver_rf_receive_package+0x80>)
   27766:	2200      	movs	r2, #0
   27768:	46b4      	mov	ip, r6
   2776a:	6028      	str	r0, [r5, #0]
   2776c:	0616      	lsls	r6, r2, #24
   2776e:	0e36      	lsrs	r6, r6, #24
   27770:	42b3      	cmp	r3, r6
   27772:	d817      	bhi.n	277a4 <driver_rf_receive_package+0x60>
   27774:	2200      	movs	r2, #0
   27776:	602a      	str	r2, [r5, #0]
   27778:	4d13      	ldr	r5, [pc, #76]	; (277c8 <driver_rf_receive_package+0x84>)
   2777a:	682a      	ldr	r2, [r5, #0]
   2777c:	4222      	tst	r2, r4
   2777e:	d109      	bne.n	27794 <driver_rf_receive_package+0x50>
   27780:	4e10      	ldr	r6, [pc, #64]	; (277c4 <driver_rf_receive_package+0x80>)
   27782:	7836      	ldrb	r6, [r6, #0]
   27784:	2ea5      	cmp	r6, #165	; 0xa5
   27786:	d001      	beq.n	2778c <driver_rf_receive_package+0x48>
   27788:	2e34      	cmp	r6, #52	; 0x34
   2778a:	d103      	bne.n	27794 <driver_rf_receive_package+0x50>
   2778c:	4322      	orrs	r2, r4
   2778e:	602a      	str	r2, [r5, #0]
   27790:	4a0e      	ldr	r2, [pc, #56]	; (277cc <driver_rf_receive_package+0x88>)
   27792:	7013      	strb	r3, [r2, #0]
   27794:	250e      	movs	r5, #14
   27796:	680b      	ldr	r3, [r1, #0]
   27798:	061a      	lsls	r2, r3, #24
   2779a:	0e12      	lsrs	r2, r2, #24
   2779c:	402b      	ands	r3, r5
   2779e:	42ab      	cmp	r3, r5
   277a0:	d1d9      	bne.n	27756 <driver_rf_receive_package+0x12>
   277a2:	e007      	b.n	277b4 <driver_rf_receive_package+0x70>
   277a4:	4667      	mov	r7, ip
   277a6:	4e0a      	ldr	r6, [pc, #40]	; (277d0 <driver_rf_receive_package+0x8c>)
   277a8:	6836      	ldr	r6, [r6, #0]
   277aa:	55d6      	strb	r6, [r2, r7]
   277ac:	3201      	adds	r2, #1
   277ae:	e7dd      	b.n	2776c <driver_rf_receive_package+0x28>
   277b0:	2380      	movs	r3, #128	; 0x80
   277b2:	602b      	str	r3, [r5, #0]
   277b4:	600a      	str	r2, [r1, #0]
   277b6:	bdf0      	pop	{r4, r5, r6, r7, pc}
   277b8:	00805100 	.word	0x00805100
   277bc:	00805110 	.word	0x00805110
   277c0:	008050d8 	.word	0x008050d8
   277c4:	00402b92 	.word	0x00402b92
   277c8:	004027c8 	.word	0x004027c8
   277cc:	004054f9 	.word	0x004054f9
   277d0:	008050dc 	.word	0x008050dc

000277d4 <driver_rf_ouput_power_value_set>:
   277d4:	2280      	movs	r2, #128	; 0x80
   277d6:	4b09      	ldr	r3, [pc, #36]	; (277fc <driver_rf_ouput_power_value_set+0x28>)
   277d8:	0592      	lsls	r2, r2, #22
   277da:	6919      	ldr	r1, [r3, #16]
   277dc:	01c0      	lsls	r0, r0, #7
   277de:	430a      	orrs	r2, r1
   277e0:	611a      	str	r2, [r3, #16]
   277e2:	691a      	ldr	r2, [r3, #16]
   277e4:	4b06      	ldr	r3, [pc, #24]	; (27800 <driver_rf_ouput_power_value_set+0x2c>)
   277e6:	4907      	ldr	r1, [pc, #28]	; (27804 <driver_rf_ouput_power_value_set+0x30>)
   277e8:	601a      	str	r2, [r3, #0]
   277ea:	4b07      	ldr	r3, [pc, #28]	; (27808 <driver_rf_ouput_power_value_set+0x34>)
   277ec:	681a      	ldr	r2, [r3, #0]
   277ee:	400a      	ands	r2, r1
   277f0:	4310      	orrs	r0, r2
   277f2:	6018      	str	r0, [r3, #0]
   277f4:	681a      	ldr	r2, [r3, #0]
   277f6:	4b05      	ldr	r3, [pc, #20]	; (2780c <driver_rf_ouput_power_value_set+0x38>)
   277f8:	601a      	str	r2, [r3, #0]
   277fa:	4770      	bx	lr
   277fc:	004027cc 	.word	0x004027cc
   27800:	00806e10 	.word	0x00806e10
   27804:	fffff87f 	.word	0xfffff87f
   27808:	00806e90 	.word	0x00806e90
   2780c:	0040284c 	.word	0x0040284c

00027810 <nvds_walk_tag>:
   27810:	b5f8      	push	{r3, r4, r5, r6, r7, lr}
   27812:	000f      	movs	r7, r1
   27814:	4c0b      	ldr	r4, [pc, #44]	; (27844 <nvds_walk_tag+0x34>)
   27816:	0015      	movs	r5, r2
   27818:	6823      	ldr	r3, [r4, #0]
   2781a:	000a      	movs	r2, r1
   2781c:	2103      	movs	r1, #3
   2781e:	0006      	movs	r6, r0
   27820:	4798      	blx	r3
   27822:	783b      	ldrb	r3, [r7, #0]
   27824:	2002      	movs	r0, #2
   27826:	2bff      	cmp	r3, #255	; 0xff
   27828:	d00b      	beq.n	27842 <nvds_walk_tag+0x32>
   2782a:	78b8      	ldrb	r0, [r7, #2]
   2782c:	6922      	ldr	r2, [r4, #16]
   2782e:	1980      	adds	r0, r0, r6
   27830:	1cc3      	adds	r3, r0, #3
   27832:	602b      	str	r3, [r5, #0]
   27834:	4b04      	ldr	r3, [pc, #16]	; (27848 <nvds_walk_tag+0x38>)
   27836:	3a01      	subs	r2, #1
   27838:	18c3      	adds	r3, r0, r3
   2783a:	2000      	movs	r0, #0
   2783c:	4293      	cmp	r3, r2
   2783e:	d900      	bls.n	27842 <nvds_walk_tag+0x32>
   27840:	3006      	adds	r0, #6
   27842:	bdf8      	pop	{r3, r4, r5, r6, r7, pc}
   27844:	00402a7c 	.word	0x00402a7c
   27848:	fff81003 	.word	0xfff81003

0002784c <nvds_browse_tag>:
   2784c:	b5f7      	push	{r0, r1, r2, r4, r5, r6, r7, lr}
   2784e:	0006      	movs	r6, r0
   27850:	000c      	movs	r4, r1
   27852:	0015      	movs	r5, r2
   27854:	4b09      	ldr	r3, [pc, #36]	; (2787c <nvds_browse_tag+0x30>)
   27856:	9301      	str	r3, [sp, #4]
   27858:	9f01      	ldr	r7, [sp, #4]
   2785a:	0021      	movs	r1, r4
   2785c:	0038      	movs	r0, r7
   2785e:	aa01      	add	r2, sp, #4
   27860:	f7ff ffd6 	bl	27810 <nvds_walk_tag>
   27864:	2800      	cmp	r0, #0
   27866:	d107      	bne.n	27878 <nvds_browse_tag+0x2c>
   27868:	7823      	ldrb	r3, [r4, #0]
   2786a:	42b3      	cmp	r3, r6
   2786c:	d1f4      	bne.n	27858 <nvds_browse_tag+0xc>
   2786e:	2205      	movs	r2, #5
   27870:	7863      	ldrb	r3, [r4, #1]
   27872:	4013      	ands	r3, r2
   27874:	2b04      	cmp	r3, #4
   27876:	d1ef      	bne.n	27858 <nvds_browse_tag+0xc>
   27878:	602f      	str	r7, [r5, #0]
   2787a:	bdfe      	pop	{r1, r2, r3, r4, r5, r6, r7, pc}
   2787c:	0007f004 	.word	0x0007f004

00027880 <nvds_get>:
   27880:	b573      	push	{r0, r1, r4, r5, r6, lr}
   27882:	000d      	movs	r5, r1
   27884:	0016      	movs	r6, r2
   27886:	4669      	mov	r1, sp
   27888:	aa01      	add	r2, sp, #4
   2788a:	f7ff ffdf 	bl	2784c <nvds_browse_tag>
   2788e:	1e04      	subs	r4, r0, #0
   27890:	d10f      	bne.n	278b2 <nvds_get+0x32>
   27892:	466b      	mov	r3, sp
   27894:	7899      	ldrb	r1, [r3, #2]
   27896:	782b      	ldrb	r3, [r5, #0]
   27898:	428b      	cmp	r3, r1
   2789a:	d30c      	bcc.n	278b6 <nvds_get+0x36>
   2789c:	9b01      	ldr	r3, [sp, #4]
   2789e:	0032      	movs	r2, r6
   278a0:	1cd8      	adds	r0, r3, #3
   278a2:	4b06      	ldr	r3, [pc, #24]	; (278bc <nvds_get+0x3c>)
   278a4:	681b      	ldr	r3, [r3, #0]
   278a6:	4798      	blx	r3
   278a8:	466b      	mov	r3, sp
   278aa:	789b      	ldrb	r3, [r3, #2]
   278ac:	702b      	strb	r3, [r5, #0]
   278ae:	0020      	movs	r0, r4
   278b0:	bd76      	pop	{r1, r2, r4, r5, r6, pc}
   278b2:	2300      	movs	r3, #0
   278b4:	e7fa      	b.n	278ac <nvds_get+0x2c>
   278b6:	2404      	movs	r4, #4
   278b8:	e7f9      	b.n	278ae <nvds_get+0x2e>
   278ba:	46c0      	nop			; (mov r8, r8)
   278bc:	00402a7c 	.word	0x00402a7c

000278c0 <nvds_del>:
   278c0:	b530      	push	{r4, r5, lr}
   278c2:	b085      	sub	sp, #20
   278c4:	ad02      	add	r5, sp, #8
   278c6:	0029      	movs	r1, r5
   278c8:	aa03      	add	r2, sp, #12
   278ca:	f7ff ffbf 	bl	2784c <nvds_browse_tag>
   278ce:	1e04      	subs	r4, r0, #0
   278d0:	d10d      	bne.n	278ee <nvds_del+0x2e>
   278d2:	786b      	ldrb	r3, [r5, #1]
   278d4:	079a      	lsls	r2, r3, #30
   278d6:	d50d      	bpl.n	278f4 <nvds_del+0x34>
   278d8:	466a      	mov	r2, sp
   278da:	2104      	movs	r1, #4
   278dc:	3207      	adds	r2, #7
   278de:	438b      	bics	r3, r1
   278e0:	7013      	strb	r3, [r2, #0]
   278e2:	9b03      	ldr	r3, [sp, #12]
   278e4:	3903      	subs	r1, #3
   278e6:	1c58      	adds	r0, r3, #1
   278e8:	4b03      	ldr	r3, [pc, #12]	; (278f8 <nvds_del+0x38>)
   278ea:	685b      	ldr	r3, [r3, #4]
   278ec:	4798      	blx	r3
   278ee:	0020      	movs	r0, r4
   278f0:	b005      	add	sp, #20
   278f2:	bd30      	pop	{r4, r5, pc}
   278f4:	2405      	movs	r4, #5
   278f6:	e7fa      	b.n	278ee <nvds_del+0x2e>
   278f8:	00402a7c 	.word	0x00402a7c

000278fc <nvds_init_memory>:
   278fc:	b570      	push	{r4, r5, r6, lr}
   278fe:	25fe      	movs	r5, #254	; 0xfe
   27900:	4c05      	ldr	r4, [pc, #20]	; (27918 <nvds_init_memory+0x1c>)
   27902:	02ed      	lsls	r5, r5, #11
   27904:	0028      	movs	r0, r5
   27906:	6921      	ldr	r1, [r4, #16]
   27908:	68a3      	ldr	r3, [r4, #8]
   2790a:	4798      	blx	r3
   2790c:	0028      	movs	r0, r5
   2790e:	2104      	movs	r1, #4
   27910:	6863      	ldr	r3, [r4, #4]
   27912:	4a02      	ldr	r2, [pc, #8]	; (2791c <nvds_init_memory+0x20>)
   27914:	4798      	blx	r3
   27916:	bd70      	pop	{r4, r5, r6, pc}
   27918:	00402a7c 	.word	0x00402a7c
   2791c:	000390a0 	.word	0x000390a0

00027920 <prf_itf_get>:
   27920:	0603      	lsls	r3, r0, #24
   27922:	0e1b      	lsrs	r3, r3, #24
   27924:	480b      	ldr	r0, [pc, #44]	; (27954 <prf_itf_get+0x34>)
   27926:	2b47      	cmp	r3, #71	; 0x47
   27928:	d00a      	beq.n	27940 <prf_itf_get+0x20>
   2792a:	d80a      	bhi.n	27942 <prf_itf_get+0x22>
   2792c:	480a      	ldr	r0, [pc, #40]	; (27958 <prf_itf_get+0x38>)
   2792e:	2b24      	cmp	r3, #36	; 0x24
   27930:	d006      	beq.n	27940 <prf_itf_get+0x20>
   27932:	480a      	ldr	r0, [pc, #40]	; (2795c <prf_itf_get+0x3c>)
   27934:	2b26      	cmp	r3, #38	; 0x26
   27936:	d003      	beq.n	27940 <prf_itf_get+0x20>
   27938:	2000      	movs	r0, #0
   2793a:	2b14      	cmp	r3, #20
   2793c:	d100      	bne.n	27940 <prf_itf_get+0x20>
   2793e:	4808      	ldr	r0, [pc, #32]	; (27960 <prf_itf_get+0x40>)
   27940:	4770      	bx	lr
   27942:	4808      	ldr	r0, [pc, #32]	; (27964 <prf_itf_get+0x44>)
   27944:	2b48      	cmp	r3, #72	; 0x48
   27946:	d0fb      	beq.n	27940 <prf_itf_get+0x20>
   27948:	2000      	movs	r0, #0
   2794a:	2b49      	cmp	r3, #73	; 0x49
   2794c:	d1f8      	bne.n	27940 <prf_itf_get+0x20>
   2794e:	4806      	ldr	r0, [pc, #24]	; (27968 <prf_itf_get+0x48>)
   27950:	e7f6      	b.n	27940 <prf_itf_get+0x20>
   27952:	46c0      	nop			; (mov r8, r8)
   27954:	00038e60 	.word	0x00038e60
   27958:	00038c34 	.word	0x00038c34
   2795c:	00039050 	.word	0x00039050
   27960:	00038d0c 	.word	0x00038d0c
   27964:	00038db8 	.word	0x00038db8
   27968:	000390ec 	.word	0x000390ec

0002796c <prf_create>:
   2796c:	b570      	push	{r4, r5, r6, lr}
   2796e:	4c08      	ldr	r4, [pc, #32]	; (27990 <prf_create+0x24>)
   27970:	0005      	movs	r5, r0
   27972:	0026      	movs	r6, r4
   27974:	36f0      	adds	r6, #240	; 0xf0
   27976:	8a60      	ldrh	r0, [r4, #18]
   27978:	f7ff ffd2 	bl	27920 <prf_itf_get>
   2797c:	2800      	cmp	r0, #0
   2797e:	d003      	beq.n	27988 <prf_create+0x1c>
   27980:	6883      	ldr	r3, [r0, #8]
   27982:	0029      	movs	r1, r5
   27984:	0020      	movs	r0, r4
   27986:	4798      	blx	r3
   27988:	3418      	adds	r4, #24
   2798a:	42b4      	cmp	r4, r6
   2798c:	d1f3      	bne.n	27976 <prf_create+0xa>
   2798e:	bd70      	pop	{r4, r5, r6, pc}
   27990:	00402aa0 	.word	0x00402aa0

00027994 <prf_cleanup>:
   27994:	b5f8      	push	{r3, r4, r5, r6, r7, lr}
   27996:	4c09      	ldr	r4, [pc, #36]	; (279bc <prf_cleanup+0x28>)
   27998:	0005      	movs	r5, r0
   2799a:	0027      	movs	r7, r4
   2799c:	000e      	movs	r6, r1
   2799e:	37f0      	adds	r7, #240	; 0xf0
   279a0:	8a60      	ldrh	r0, [r4, #18]
   279a2:	f7ff ffbd 	bl	27920 <prf_itf_get>
   279a6:	2800      	cmp	r0, #0
   279a8:	d004      	beq.n	279b4 <prf_cleanup+0x20>
   279aa:	68c3      	ldr	r3, [r0, #12]
   279ac:	0032      	movs	r2, r6
   279ae:	0029      	movs	r1, r5
   279b0:	0020      	movs	r0, r4
   279b2:	4798      	blx	r3
   279b4:	3418      	adds	r4, #24
   279b6:	42bc      	cmp	r4, r7
   279b8:	d1f2      	bne.n	279a0 <prf_cleanup+0xc>
   279ba:	bdf8      	pop	{r3, r4, r5, r6, r7, pc}
   279bc:	00402aa0 	.word	0x00402aa0

000279c0 <prf_env_get>:
   279c0:	4a08      	ldr	r2, [pc, #32]	; (279e4 <prf_env_get+0x24>)
   279c2:	2300      	movs	r3, #0
   279c4:	0011      	movs	r1, r2
   279c6:	b510      	push	{r4, lr}
   279c8:	8a54      	ldrh	r4, [r2, #18]
   279ca:	4284      	cmp	r4, r0
   279cc:	d104      	bne.n	279d8 <prf_env_get+0x18>
   279ce:	2218      	movs	r2, #24
   279d0:	4353      	muls	r3, r2
   279d2:	18c9      	adds	r1, r1, r3
   279d4:	68c8      	ldr	r0, [r1, #12]
   279d6:	bd10      	pop	{r4, pc}
   279d8:	3301      	adds	r3, #1
   279da:	3218      	adds	r2, #24
   279dc:	2b0a      	cmp	r3, #10
   279de:	d1f3      	bne.n	279c8 <prf_env_get+0x8>
   279e0:	2000      	movs	r0, #0
   279e2:	e7f8      	b.n	279d6 <prf_env_get+0x16>
   279e4:	00402aa0 	.word	0x00402aa0

000279e8 <deep_sleep_wakeup_set>:
   279e8:	0003      	movs	r3, r0
   279ea:	220f      	movs	r2, #15
   279ec:	0900      	lsrs	r0, r0, #4
   279ee:	4013      	ands	r3, r2
   279f0:	00c0      	lsls	r0, r0, #3
   279f2:	18c0      	adds	r0, r0, r3
   279f4:	4b15      	ldr	r3, [pc, #84]	; (27a4c <deep_sleep_wakeup_set+0x64>)
   279f6:	322d      	adds	r2, #45	; 0x2d
   279f8:	18c3      	adds	r3, r0, r3
   279fa:	009b      	lsls	r3, r3, #2
   279fc:	b510      	push	{r4, lr}
   279fe:	601a      	str	r2, [r3, #0]
   27a00:	2301      	movs	r3, #1
   27a02:	4083      	lsls	r3, r0
   27a04:	4a12      	ldr	r2, [pc, #72]	; (27a50 <deep_sleep_wakeup_set+0x68>)
   27a06:	6811      	ldr	r1, [r2, #0]
   27a08:	430b      	orrs	r3, r1
   27a0a:	6013      	str	r3, [r2, #0]
   27a0c:	280f      	cmp	r0, #15
   27a0e:	dc13      	bgt.n	27a38 <deep_sleep_wakeup_set+0x50>
   27a10:	2303      	movs	r3, #3
   27a12:	0044      	lsls	r4, r0, #1
   27a14:	40a3      	lsls	r3, r4
   27a16:	4a0f      	ldr	r2, [pc, #60]	; (27a54 <deep_sleep_wakeup_set+0x6c>)
   27a18:	6811      	ldr	r1, [r2, #0]
   27a1a:	430b      	orrs	r3, r1
   27a1c:	6013      	str	r3, [r2, #0]
   27a1e:	490e      	ldr	r1, [pc, #56]	; (27a58 <deep_sleep_wakeup_set+0x70>)
   27a20:	2202      	movs	r2, #2
   27a22:	680b      	ldr	r3, [r1, #0]
   27a24:	280f      	cmp	r0, #15
   27a26:	dd00      	ble.n	27a2a <deep_sleep_wakeup_set+0x42>
   27a28:	3a01      	subs	r2, #1
   27a2a:	4313      	orrs	r3, r2
   27a2c:	600b      	str	r3, [r1, #0]
   27a2e:	490b      	ldr	r1, [pc, #44]	; (27a5c <deep_sleep_wakeup_set+0x74>)
   27a30:	680b      	ldr	r3, [r1, #0]
   27a32:	4313      	orrs	r3, r2
   27a34:	600b      	str	r3, [r1, #0]
   27a36:	bd10      	pop	{r4, pc}
   27a38:	0002      	movs	r2, r0
   27a3a:	2303      	movs	r3, #3
   27a3c:	3a10      	subs	r2, #16
   27a3e:	0052      	lsls	r2, r2, #1
   27a40:	4093      	lsls	r3, r2
   27a42:	4907      	ldr	r1, [pc, #28]	; (27a60 <deep_sleep_wakeup_set+0x78>)
   27a44:	680c      	ldr	r4, [r1, #0]
   27a46:	4323      	orrs	r3, r4
   27a48:	600b      	str	r3, [r1, #0]
   27a4a:	e7e8      	b.n	27a1e <deep_sleep_wakeup_set+0x36>
   27a4c:	00200280 	.word	0x00200280
   27a50:	0080080c 	.word	0x0080080c
   27a54:	00800ac0 	.word	0x00800ac0
   27a58:	00800acc 	.word	0x00800acc
   27a5c:	00800ad4 	.word	0x00800ad4
   27a60:	00800ac4 	.word	0x00800ac4

00027a64 <cpu_reset>:
   27a64:	2380      	movs	r3, #128	; 0x80
   27a66:	4a05      	ldr	r2, [pc, #20]	; (27a7c <cpu_reset+0x18>)
   27a68:	021b      	lsls	r3, r3, #8
   27a6a:	6811      	ldr	r1, [r2, #0]
   27a6c:	430b      	orrs	r3, r1
   27a6e:	6013      	str	r3, [r2, #0]
   27a70:	2301      	movs	r3, #1
   27a72:	4a03      	ldr	r2, [pc, #12]	; (27a80 <cpu_reset+0x1c>)
   27a74:	6811      	ldr	r1, [r2, #0]
   27a76:	430b      	orrs	r3, r1
   27a78:	6013      	str	r3, [r2, #0]
   27a7a:	4770      	bx	lr
   27a7c:	00800804 	.word	0x00800804
   27a80:	00800800 	.word	0x00800800

00027a84 <uart_send>:
   27a84:	b5f0      	push	{r4, r5, r6, r7, lr}
   27a86:	2480      	movs	r4, #128	; 0x80
   27a88:	4b08      	ldr	r3, [pc, #32]	; (27aac <uart_send+0x28>)
   27a8a:	4a09      	ldr	r2, [pc, #36]	; (27ab0 <uart_send+0x2c>)
   27a8c:	4d09      	ldr	r5, [pc, #36]	; (27ab4 <uart_send+0x30>)
   27a8e:	0364      	lsls	r4, r4, #13
   27a90:	3901      	subs	r1, #1
   27a92:	0409      	lsls	r1, r1, #16
   27a94:	0c09      	lsrs	r1, r1, #16
   27a96:	4299      	cmp	r1, r3
   27a98:	d100      	bne.n	27a9c <uart_send+0x18>
   27a9a:	bdf0      	pop	{r4, r5, r6, r7, pc}
   27a9c:	7806      	ldrb	r6, [r0, #0]
   27a9e:	6817      	ldr	r7, [r2, #0]
   27aa0:	4227      	tst	r7, r4
   27aa2:	d0fc      	beq.n	27a9e <uart_send+0x1a>
   27aa4:	602e      	str	r6, [r5, #0]
   27aa6:	3001      	adds	r0, #1
   27aa8:	e7f2      	b.n	27a90 <uart_send+0xc>
   27aaa:	46c0      	nop			; (mov r8, r8)
   27aac:	0000ffff 	.word	0x0000ffff
   27ab0:	00806308 	.word	0x00806308
   27ab4:	0080630c 	.word	0x0080630c

00027ab8 <uart_flow_off>:
   27ab8:	2001      	movs	r0, #1
   27aba:	4770      	bx	lr

00027abc <uart_read>:
   27abc:	b510      	push	{r4, lr}
   27abe:	4c04      	ldr	r4, [pc, #16]	; (27ad0 <uart_read+0x14>)
   27ac0:	60a2      	str	r2, [r4, #8]
   27ac2:	60e3      	str	r3, [r4, #12]
   27ac4:	2301      	movs	r3, #1
   27ac6:	61a0      	str	r0, [r4, #24]
   27ac8:	6221      	str	r1, [r4, #32]
   27aca:	3406      	adds	r4, #6
   27acc:	77e3      	strb	r3, [r4, #31]
   27ace:	bd10      	pop	{r4, pc}
   27ad0:	00405520 	.word	0x00405520

00027ad4 <uart_write>:
   27ad4:	b510      	push	{r4, lr}
   27ad6:	4c04      	ldr	r4, [pc, #16]	; (27ae8 <uart_write+0x14>)
   27ad8:	6022      	str	r2, [r4, #0]
   27ada:	6063      	str	r3, [r4, #4]
   27adc:	2301      	movs	r3, #1
   27ade:	6160      	str	r0, [r4, #20]
   27ae0:	61e1      	str	r1, [r4, #28]
   27ae2:	3405      	adds	r4, #5
   27ae4:	77e3      	strb	r3, [r4, #31]
   27ae6:	bd10      	pop	{r4, pc}
   27ae8:	00405520 	.word	0x00405520

00027aec <get_flash_ID>:
   27aec:	4b0b      	ldr	r3, [pc, #44]	; (27b1c <get_flash_ID+0x30>)
   27aee:	681a      	ldr	r2, [r3, #0]
   27af0:	2a00      	cmp	r2, #0
   27af2:	dbfc      	blt.n	27aee <get_flash_ID+0x2>
   27af4:	4a0a      	ldr	r2, [pc, #40]	; (27b20 <get_flash_ID+0x34>)
   27af6:	601a      	str	r2, [r3, #0]
   27af8:	681a      	ldr	r2, [r3, #0]
   27afa:	2a00      	cmp	r2, #0
   27afc:	dbfc      	blt.n	27af8 <get_flash_ID+0xc>
   27afe:	2201      	movs	r2, #1
   27b00:	4b08      	ldr	r3, [pc, #32]	; (27b24 <get_flash_ID+0x38>)
   27b02:	4252      	negs	r2, r2
   27b04:	601a      	str	r2, [r3, #0]
   27b06:	601a      	str	r2, [r3, #0]
   27b08:	601a      	str	r2, [r3, #0]
   27b0a:	601a      	str	r2, [r3, #0]
   27b0c:	601a      	str	r2, [r3, #0]
   27b0e:	601a      	str	r2, [r3, #0]
   27b10:	601a      	str	r2, [r3, #0]
   27b12:	601a      	str	r2, [r3, #0]
   27b14:	4b04      	ldr	r3, [pc, #16]	; (27b28 <get_flash_ID+0x3c>)
   27b16:	6818      	ldr	r0, [r3, #0]
   27b18:	4770      	bx	lr
   27b1a:	46c0      	nop			; (mov r8, r8)
   27b1c:	00802000 	.word	0x00802000
   27b20:	3407d000 	.word	0x3407d000
   27b24:	00802004 	.word	0x00802004
   27b28:	00802010 	.word	0x00802010

00027b2c <flash_write_sr>:
   27b2c:	b570      	push	{r4, r5, r6, lr}
   27b2e:	0005      	movs	r5, r0
   27b30:	000c      	movs	r4, r1
   27b32:	f7ff ffdb 	bl	27aec <get_flash_ID>
   27b36:	4e1d      	ldr	r6, [pc, #116]	; (27bac <flash_write_sr+0x80>)
   27b38:	6833      	ldr	r3, [r6, #0]
   27b3a:	4298      	cmp	r0, r3
   27b3c:	d133      	bne.n	27ba6 <flash_write_sr+0x7a>
   27b3e:	4a1c      	ldr	r2, [pc, #112]	; (27bb0 <flash_write_sr+0x84>)
   27b40:	4b1c      	ldr	r3, [pc, #112]	; (27bb4 <flash_write_sr+0x88>)
   27b42:	4290      	cmp	r0, r2
   27b44:	d00b      	beq.n	27b5e <flash_write_sr+0x32>
   27b46:	d806      	bhi.n	27b56 <flash_write_sr+0x2a>
   27b48:	4a1b      	ldr	r2, [pc, #108]	; (27bb8 <flash_write_sr+0x8c>)
   27b4a:	1880      	adds	r0, r0, r2
   27b4c:	2801      	cmp	r0, #1
   27b4e:	d909      	bls.n	27b64 <flash_write_sr+0x38>
   27b50:	681a      	ldr	r2, [r3, #0]
   27b52:	491a      	ldr	r1, [pc, #104]	; (27bbc <flash_write_sr+0x90>)
   27b54:	e008      	b.n	27b68 <flash_write_sr+0x3c>
   27b56:	4a1a      	ldr	r2, [pc, #104]	; (27bc0 <flash_write_sr+0x94>)
   27b58:	1880      	adds	r0, r0, r2
   27b5a:	2801      	cmp	r0, #1
   27b5c:	d8f8      	bhi.n	27b50 <flash_write_sr+0x24>
   27b5e:	681a      	ldr	r2, [r3, #0]
   27b60:	4918      	ldr	r1, [pc, #96]	; (27bc4 <flash_write_sr+0x98>)
   27b62:	e001      	b.n	27b68 <flash_write_sr+0x3c>
   27b64:	681a      	ldr	r2, [r3, #0]
   27b66:	4918      	ldr	r1, [pc, #96]	; (27bc8 <flash_write_sr+0x9c>)
   27b68:	400a      	ands	r2, r1
   27b6a:	601a      	str	r2, [r3, #0]
   27b6c:	6819      	ldr	r1, [r3, #0]
   27b6e:	02a4      	lsls	r4, r4, #10
   27b70:	430c      	orrs	r4, r1
   27b72:	2180      	movs	r1, #128	; 0x80
   27b74:	0089      	lsls	r1, r1, #2
   27b76:	430c      	orrs	r4, r1
   27b78:	601c      	str	r4, [r3, #0]
   27b7a:	4c14      	ldr	r4, [pc, #80]	; (27bcc <flash_write_sr+0xa0>)
   27b7c:	6823      	ldr	r3, [r4, #0]
   27b7e:	2b00      	cmp	r3, #0
   27b80:	dbfc      	blt.n	27b7c <flash_write_sr+0x50>
   27b82:	f7ff ffb3 	bl	27aec <get_flash_ID>
   27b86:	6833      	ldr	r3, [r6, #0]
   27b88:	4298      	cmp	r0, r3
   27b8a:	d10c      	bne.n	27ba6 <flash_write_sr+0x7a>
   27b8c:	2d01      	cmp	r5, #1
   27b8e:	d10b      	bne.n	27ba8 <flash_write_sr+0x7c>
   27b90:	4b0f      	ldr	r3, [pc, #60]	; (27bd0 <flash_write_sr+0xa4>)
   27b92:	6023      	str	r3, [r4, #0]
   27b94:	6823      	ldr	r3, [r4, #0]
   27b96:	2b00      	cmp	r3, #0
   27b98:	dbfc      	blt.n	27b94 <flash_write_sr+0x68>
   27b9a:	23fa      	movs	r3, #250	; 0xfa
   27b9c:	02db      	lsls	r3, r3, #11
   27b9e:	6023      	str	r3, [r4, #0]
   27ba0:	6823      	ldr	r3, [r4, #0]
   27ba2:	2b00      	cmp	r3, #0
   27ba4:	dbfc      	blt.n	27ba0 <flash_write_sr+0x74>
   27ba6:	bd70      	pop	{r4, r5, r6, pc}
   27ba8:	4b0a      	ldr	r3, [pc, #40]	; (27bd4 <flash_write_sr+0xa8>)
   27baa:	e7f2      	b.n	27b92 <flash_write_sr+0x66>
   27bac:	004029c4 	.word	0x004029c4
   27bb0:	00c84013 	.word	0x00c84013
   27bb4:	0080201c 	.word	0x0080201c
   27bb8:	ff3ddced 	.word	0xff3ddced
   27bbc:	ffff0fff 	.word	0xffff0fff
   27bc0:	ff1fbfed 	.word	0xff1fbfed
   27bc4:	fefe0fff 	.word	0xfefe0fff
   27bc8:	ffdf0fff 	.word	0xffdf0fff
   27bcc:	00802000 	.word	0x00802000
   27bd0:	6407d000 	.word	0x6407d000
   27bd4:	6707d000 	.word	0x6707d000

00027bd8 <flash_wp_256k>:
   27bd8:	b510      	push	{r4, lr}
   27bda:	4b0e      	ldr	r3, [pc, #56]	; (27c14 <flash_wp_256k+0x3c>)
   27bdc:	4a0e      	ldr	r2, [pc, #56]	; (27c18 <flash_wp_256k+0x40>)
   27bde:	681b      	ldr	r3, [r3, #0]
   27be0:	4293      	cmp	r3, r2
   27be2:	d809      	bhi.n	27bf8 <flash_wp_256k+0x20>
   27be4:	4a0d      	ldr	r2, [pc, #52]	; (27c1c <flash_wp_256k+0x44>)
   27be6:	4293      	cmp	r3, r2
   27be8:	d80f      	bhi.n	27c0a <flash_wp_256k+0x32>
   27bea:	4a0d      	ldr	r2, [pc, #52]	; (27c20 <flash_wp_256k+0x48>)
   27bec:	21ac      	movs	r1, #172	; 0xac
   27bee:	4293      	cmp	r3, r2
   27bf0:	d000      	beq.n	27bf4 <flash_wp_256k+0x1c>
   27bf2:	2198      	movs	r1, #152	; 0x98
   27bf4:	2001      	movs	r0, #1
   27bf6:	e00a      	b.n	27c0e <flash_wp_256k+0x36>
   27bf8:	4a0a      	ldr	r2, [pc, #40]	; (27c24 <flash_wp_256k+0x4c>)
   27bfa:	4293      	cmp	r3, r2
   27bfc:	d003      	beq.n	27c06 <flash_wp_256k+0x2e>
   27bfe:	4a0a      	ldr	r2, [pc, #40]	; (27c28 <flash_wp_256k+0x50>)
   27c00:	189b      	adds	r3, r3, r2
   27c02:	2b01      	cmp	r3, #1
   27c04:	d8f5      	bhi.n	27bf2 <flash_wp_256k+0x1a>
   27c06:	21ac      	movs	r1, #172	; 0xac
   27c08:	e000      	b.n	27c0c <flash_wp_256k+0x34>
   27c0a:	4908      	ldr	r1, [pc, #32]	; (27c2c <flash_wp_256k+0x54>)
   27c0c:	2002      	movs	r0, #2
   27c0e:	f7ff ff8d 	bl	27b2c <flash_write_sr>
   27c12:	bd10      	pop	{r4, pc}
   27c14:	004029c4 	.word	0x004029c4
   27c18:	00c22314 	.word	0x00c22314
   27c1c:	00c22312 	.word	0x00c22312
   27c20:	001c3113 	.word	0x001c3113
   27c24:	00c84013 	.word	0x00c84013
   27c28:	ff1fbfed 	.word	0xff1fbfed
   27c2c:	0000088c 	.word	0x0000088c

00027c30 <flash_wp_ALL>:
   27c30:	b510      	push	{r4, lr}
   27c32:	4b0e      	ldr	r3, [pc, #56]	; (27c6c <flash_wp_ALL+0x3c>)
   27c34:	4a0e      	ldr	r2, [pc, #56]	; (27c70 <flash_wp_ALL+0x40>)
   27c36:	681b      	ldr	r3, [r3, #0]
   27c38:	4293      	cmp	r3, r2
   27c3a:	d809      	bhi.n	27c50 <flash_wp_ALL+0x20>
   27c3c:	4a0d      	ldr	r2, [pc, #52]	; (27c74 <flash_wp_ALL+0x44>)
   27c3e:	4293      	cmp	r3, r2
   27c40:	d80f      	bhi.n	27c62 <flash_wp_ALL+0x32>
   27c42:	4a0d      	ldr	r2, [pc, #52]	; (27c78 <flash_wp_ALL+0x48>)
   27c44:	21bc      	movs	r1, #188	; 0xbc
   27c46:	4293      	cmp	r3, r2
   27c48:	d000      	beq.n	27c4c <flash_wp_ALL+0x1c>
   27c4a:	219c      	movs	r1, #156	; 0x9c
   27c4c:	2001      	movs	r0, #1
   27c4e:	e00a      	b.n	27c66 <flash_wp_ALL+0x36>
   27c50:	4a0a      	ldr	r2, [pc, #40]	; (27c7c <flash_wp_ALL+0x4c>)
   27c52:	4293      	cmp	r3, r2
   27c54:	d003      	beq.n	27c5e <flash_wp_ALL+0x2e>
   27c56:	4a0a      	ldr	r2, [pc, #40]	; (27c80 <flash_wp_ALL+0x50>)
   27c58:	189b      	adds	r3, r3, r2
   27c5a:	2b01      	cmp	r3, #1
   27c5c:	d8f5      	bhi.n	27c4a <flash_wp_ALL+0x1a>
   27c5e:	2194      	movs	r1, #148	; 0x94
   27c60:	e000      	b.n	27c64 <flash_wp_ALL+0x34>
   27c62:	21bc      	movs	r1, #188	; 0xbc
   27c64:	2002      	movs	r0, #2
   27c66:	f7ff ff61 	bl	27b2c <flash_write_sr>
   27c6a:	bd10      	pop	{r4, pc}
   27c6c:	004029c4 	.word	0x004029c4
   27c70:	00c22314 	.word	0x00c22314
   27c74:	00c22312 	.word	0x00c22312
   27c78:	001c3113 	.word	0x001c3113
   27c7c:	00c84013 	.word	0x00c84013
   27c80:	ff1fbfed 	.word	0xff1fbfed

00027c84 <rf_reset>:
   27c84:	4770      	bx	lr
	...

00027c88 <wdt_disable>:
   27c88:	2200      	movs	r2, #0
   27c8a:	4b04      	ldr	r3, [pc, #16]	; (27c9c <wdt_disable+0x14>)
   27c8c:	601a      	str	r2, [r3, #0]
   27c8e:	4b04      	ldr	r3, [pc, #16]	; (27ca0 <wdt_disable+0x18>)
   27c90:	325a      	adds	r2, #90	; 0x5a
   27c92:	601a      	str	r2, [r3, #0]
   27c94:	324b      	adds	r2, #75	; 0x4b
   27c96:	601a      	str	r2, [r3, #0]
   27c98:	4770      	bx	lr
   27c9a:	46c0      	nop			; (mov r8, r8)
   27c9c:	00800c08 	.word	0x00800c08
   27ca0:	00800c04 	.word	0x00800c04

00027ca4 <bass_create>:
   27ca4:	2200      	movs	r2, #0
   27ca6:	68c3      	ldr	r3, [r0, #12]
   27ca8:	185b      	adds	r3, r3, r1
   27caa:	775a      	strb	r2, [r3, #29]
   27cac:	4770      	bx	lr

00027cae <bass_cleanup>:
   27cae:	2200      	movs	r2, #0
   27cb0:	68c3      	ldr	r3, [r0, #12]
   27cb2:	185b      	adds	r3, r3, r1
   27cb4:	775a      	strb	r2, [r3, #29]
   27cb6:	4770      	bx	lr

00027cb8 <diss_create>:
   27cb8:	4770      	bx	lr

00027cba <diss_cleanup>:
   27cba:	4770      	bx	lr

00027cbc <diss_value_to_handle>:
   27cbc:	b530      	push	{r4, r5, lr}
   27cbe:	2200      	movs	r2, #0
   27cc0:	2401      	movs	r4, #1
   27cc2:	8983      	ldrh	r3, [r0, #12]
   27cc4:	89c0      	ldrh	r0, [r0, #14]
   27cc6:	3301      	adds	r3, #1
   27cc8:	041b      	lsls	r3, r3, #16
   27cca:	0c1b      	lsrs	r3, r3, #16
   27ccc:	0005      	movs	r5, r0
   27cce:	4115      	asrs	r5, r2
   27cd0:	4225      	tst	r5, r4
   27cd2:	d008      	beq.n	27ce6 <diss_value_to_handle+0x2a>
   27cd4:	428a      	cmp	r2, r1
   27cd6:	d103      	bne.n	27ce0 <diss_value_to_handle+0x24>
   27cd8:	3301      	adds	r3, #1
   27cda:	0418      	lsls	r0, r3, #16
   27cdc:	0c00      	lsrs	r0, r0, #16
   27cde:	bd30      	pop	{r4, r5, pc}
   27ce0:	3302      	adds	r3, #2
   27ce2:	041b      	lsls	r3, r3, #16
   27ce4:	0c1b      	lsrs	r3, r3, #16
   27ce6:	3201      	adds	r2, #1
   27ce8:	2a09      	cmp	r2, #9
   27cea:	d1ef      	bne.n	27ccc <diss_value_to_handle+0x10>
   27cec:	2000      	movs	r0, #0
   27cee:	e7f6      	b.n	27cde <diss_value_to_handle+0x22>

00027cf0 <fee0s_create>:
   27cf0:	4a03      	ldr	r2, [pc, #12]	; (27d00 <fee0s_create+0x10>)
   27cf2:	68c3      	ldr	r3, [r0, #12]
   27cf4:	1889      	adds	r1, r1, r2
   27cf6:	0049      	lsls	r1, r1, #1
   27cf8:	1859      	adds	r1, r3, r1
   27cfa:	2300      	movs	r3, #0
   27cfc:	808b      	strh	r3, [r1, #4]
   27cfe:	4770      	bx	lr
   27d00:	00000764 	.word	0x00000764

00027d04 <fee0s_cleanup>:
   27d04:	4a03      	ldr	r2, [pc, #12]	; (27d14 <fee0s_cleanup+0x10>)
   27d06:	68c3      	ldr	r3, [r0, #12]
   27d08:	1889      	adds	r1, r1, r2
   27d0a:	0049      	lsls	r1, r1, #1
   27d0c:	1859      	adds	r1, r3, r1
   27d0e:	2300      	movs	r3, #0
   27d10:	808b      	strh	r3, [r1, #4]
   27d12:	4770      	bx	lr
   27d14:	00000764 	.word	0x00000764

00027d18 <fee0s_get_att_idx>:
   27d18:	b570      	push	{r4, r5, r6, lr}
   27d1a:	0004      	movs	r4, r0
   27d1c:	2047      	movs	r0, #71	; 0x47
   27d1e:	000d      	movs	r5, r1
   27d20:	f7ff fe4e 	bl	279c0 <prf_env_get>
   27d24:	8a03      	ldrh	r3, [r0, #16]
   27d26:	2080      	movs	r0, #128	; 0x80
   27d28:	001a      	movs	r2, r3
   27d2a:	320d      	adds	r2, #13
   27d2c:	4294      	cmp	r4, r2
   27d2e:	dc02      	bgt.n	27d36 <fee0s_get_att_idx+0x1e>
   27d30:	2000      	movs	r0, #0
   27d32:	1ae4      	subs	r4, r4, r3
   27d34:	702c      	strb	r4, [r5, #0]
   27d36:	bd70      	pop	{r4, r5, r6, pc}

00027d38 <fcc0s_create>:
   27d38:	68c3      	ldr	r3, [r0, #12]
   27d3a:	3188      	adds	r1, #136	; 0x88
   27d3c:	0049      	lsls	r1, r1, #1
   27d3e:	1859      	adds	r1, r3, r1
   27d40:	2300      	movs	r3, #0
   27d42:	808b      	strh	r3, [r1, #4]
   27d44:	4770      	bx	lr

00027d46 <fcc0s_cleanup>:
   27d46:	68c3      	ldr	r3, [r0, #12]
   27d48:	3188      	adds	r1, #136	; 0x88
   27d4a:	0049      	lsls	r1, r1, #1
   27d4c:	1859      	adds	r1, r3, r1
   27d4e:	2300      	movs	r3, #0
   27d50:	808b      	strh	r3, [r1, #4]
   27d52:	4770      	bx	lr

00027d54 <fcc0s_get_att_idx>:
   27d54:	b570      	push	{r4, r5, r6, lr}
   27d56:	0004      	movs	r4, r0
   27d58:	2048      	movs	r0, #72	; 0x48
   27d5a:	000d      	movs	r5, r1
   27d5c:	f7ff fe30 	bl	279c0 <prf_env_get>
   27d60:	8a03      	ldrh	r3, [r0, #16]
   27d62:	2080      	movs	r0, #128	; 0x80
   27d64:	1d5a      	adds	r2, r3, #5
   27d66:	4294      	cmp	r4, r2
   27d68:	dc02      	bgt.n	27d70 <fcc0s_get_att_idx+0x1c>
   27d6a:	2000      	movs	r0, #0
   27d6c:	1ae4      	subs	r4, r4, r3
   27d6e:	702c      	strb	r4, [r5, #0]
   27d70:	bd70      	pop	{r4, r5, r6, pc}

00027d72 <hogpd_create>:
   27d72:	4770      	bx	lr

00027d74 <hogpd_cleanup>:
   27d74:	b510      	push	{r4, lr}
   27d76:	68c3      	ldr	r3, [r0, #12]
   27d78:	7edc      	ldrb	r4, [r3, #27]
   27d7a:	2c00      	cmp	r4, #0
   27d7c:	d009      	beq.n	27d92 <hogpd_cleanup+0x1e>
   27d7e:	2000      	movs	r0, #0
   27d80:	004a      	lsls	r2, r1, #1
   27d82:	189a      	adds	r2, r3, r2
   27d84:	80d0      	strh	r0, [r2, #6]
   27d86:	2c01      	cmp	r4, #1
   27d88:	d003      	beq.n	27d92 <hogpd_cleanup+0x1e>
   27d8a:	3104      	adds	r1, #4
   27d8c:	0049      	lsls	r1, r1, #1
   27d8e:	1859      	adds	r1, r3, r1
   27d90:	80c8      	strh	r0, [r1, #6]
   27d92:	bd10      	pop	{r4, pc}

00027d94 <hogpd_get_att_handle>:
   27d94:	b5f0      	push	{r4, r5, r6, r7, lr}
   27d96:	7ec4      	ldrb	r4, [r0, #27]
   27d98:	0006      	movs	r6, r0
   27d9a:	2000      	movs	r0, #0
   27d9c:	428c      	cmp	r4, r1
   27d9e:	d958      	bls.n	27e52 <hogpd_get_att_handle+0xbe>
   27da0:	2a17      	cmp	r2, #23
   27da2:	d056      	beq.n	27e52 <hogpd_get_att_handle+0xbe>
   27da4:	00cd      	lsls	r5, r1, #3
   27da6:	2a12      	cmp	r2, #18
   27da8:	d903      	bls.n	27db2 <hogpd_get_att_handle+0x1e>
   27daa:	1974      	adds	r4, r6, r5
   27dac:	7a64      	ldrb	r4, [r4, #9]
   27dae:	429c      	cmp	r4, r3
   27db0:	d94f      	bls.n	27e52 <hogpd_get_att_handle+0xbe>
   27db2:	8ab4      	ldrh	r4, [r6, #20]
   27db4:	2900      	cmp	r1, #0
   27db6:	d009      	beq.n	27dcc <hogpd_get_att_handle+0x38>
   27db8:	7a30      	ldrb	r0, [r6, #8]
   27dba:	1824      	adds	r4, r4, r0
   27dbc:	0424      	lsls	r4, r4, #16
   27dbe:	0c24      	lsrs	r4, r4, #16
   27dc0:	2901      	cmp	r1, #1
   27dc2:	d003      	beq.n	27dcc <hogpd_get_att_handle+0x38>
   27dc4:	7c30      	ldrb	r0, [r6, #16]
   27dc6:	1824      	adds	r4, r4, r0
   27dc8:	0424      	lsls	r4, r4, #16
   27dca:	0c24      	lsrs	r4, r4, #16
   27dcc:	2a12      	cmp	r2, #18
   27dce:	d841      	bhi.n	27e54 <hogpd_get_att_handle+0xc0>
   27dd0:	1975      	adds	r5, r6, r5
   27dd2:	88ab      	ldrh	r3, [r5, #4]
   27dd4:	18a4      	adds	r4, r4, r2
   27dd6:	0420      	lsls	r0, r4, #16
   27dd8:	2101      	movs	r1, #1
   27dda:	001c      	movs	r4, r3
   27ddc:	0c00      	lsrs	r0, r0, #16
   27dde:	400c      	ands	r4, r1
   27de0:	420b      	tst	r3, r1
   27de2:	d104      	bne.n	27dee <hogpd_get_att_handle+0x5a>
   27de4:	2a0f      	cmp	r2, #15
   27de6:	d921      	bls.n	27e2c <hogpd_get_att_handle+0x98>
   27de8:	3805      	subs	r0, #5
   27dea:	0400      	lsls	r0, r0, #16
   27dec:	0c00      	lsrs	r0, r0, #16
   27dee:	2102      	movs	r1, #2
   27df0:	001c      	movs	r4, r3
   27df2:	400c      	ands	r4, r1
   27df4:	420b      	tst	r3, r1
   27df6:	d104      	bne.n	27e02 <hogpd_get_att_handle+0x6e>
   27df8:	0011      	movs	r1, r2
   27dfa:	3910      	subs	r1, #16
   27dfc:	2902      	cmp	r1, #2
   27dfe:	d800      	bhi.n	27e02 <hogpd_get_att_handle+0x6e>
   27e00:	0020      	movs	r0, r4
   27e02:	2104      	movs	r1, #4
   27e04:	001c      	movs	r4, r3
   27e06:	400c      	ands	r4, r1
   27e08:	420b      	tst	r3, r1
   27e0a:	d104      	bne.n	27e16 <hogpd_get_att_handle+0x82>
   27e0c:	2a0a      	cmp	r2, #10
   27e0e:	d913      	bls.n	27e38 <hogpd_get_att_handle+0xa4>
   27e10:	3802      	subs	r0, #2
   27e12:	0400      	lsls	r0, r0, #16
   27e14:	0c00      	lsrs	r0, r0, #16
   27e16:	2108      	movs	r1, #8
   27e18:	001c      	movs	r4, r3
   27e1a:	400c      	ands	r4, r1
   27e1c:	420b      	tst	r3, r1
   27e1e:	d118      	bne.n	27e52 <hogpd_get_att_handle+0xbe>
   27e20:	428a      	cmp	r2, r1
   27e22:	d90f      	bls.n	27e44 <hogpd_get_att_handle+0xb0>
   27e24:	3802      	subs	r0, #2
   27e26:	0400      	lsls	r0, r0, #16
   27e28:	0c00      	lsrs	r0, r0, #16
   27e2a:	e012      	b.n	27e52 <hogpd_get_att_handle+0xbe>
   27e2c:	0011      	movs	r1, r2
   27e2e:	390b      	subs	r1, #11
   27e30:	2904      	cmp	r1, #4
   27e32:	d8dc      	bhi.n	27dee <hogpd_get_att_handle+0x5a>
   27e34:	0020      	movs	r0, r4
   27e36:	e7da      	b.n	27dee <hogpd_get_att_handle+0x5a>
   27e38:	0011      	movs	r1, r2
   27e3a:	3909      	subs	r1, #9
   27e3c:	2901      	cmp	r1, #1
   27e3e:	d8ea      	bhi.n	27e16 <hogpd_get_att_handle+0x82>
   27e40:	0020      	movs	r0, r4
   27e42:	e7e8      	b.n	27e16 <hogpd_get_att_handle+0x82>
   27e44:	2a01      	cmp	r2, #1
   27e46:	d901      	bls.n	27e4c <hogpd_get_att_handle+0xb8>
   27e48:	3801      	subs	r0, #1
   27e4a:	e7ec      	b.n	27e26 <hogpd_get_att_handle+0x92>
   27e4c:	2a01      	cmp	r2, #1
   27e4e:	d100      	bne.n	27e52 <hogpd_get_att_handle+0xbe>
   27e50:	0020      	movs	r0, r4
   27e52:	bdf0      	pop	{r4, r5, r6, r7, pc}
   27e54:	1975      	adds	r5, r6, r5
   27e56:	2100      	movs	r1, #0
   27e58:	2640      	movs	r6, #64	; 0x40
   27e5a:	7aa8      	ldrb	r0, [r5, #10]
   27e5c:	1824      	adds	r4, r4, r0
   27e5e:	0424      	lsls	r4, r4, #16
   27e60:	0c24      	lsrs	r4, r4, #16
   27e62:	0608      	lsls	r0, r1, #24
   27e64:	0e00      	lsrs	r0, r0, #24
   27e66:	4283      	cmp	r3, r0
   27e68:	d80a      	bhi.n	27e80 <hogpd_get_att_handle+0xec>
   27e6a:	2a16      	cmp	r2, #22
   27e6c:	d105      	bne.n	27e7a <hogpd_get_att_handle+0xe6>
   27e6e:	2140      	movs	r1, #64	; 0x40
   27e70:	4099      	lsls	r1, r3
   27e72:	88ad      	ldrh	r5, [r5, #4]
   27e74:	2000      	movs	r0, #0
   27e76:	4229      	tst	r1, r5
   27e78:	d1eb      	bne.n	27e52 <hogpd_get_att_handle+0xbe>
   27e7a:	3a13      	subs	r2, #19
   27e7c:	18a0      	adds	r0, r4, r2
   27e7e:	e7d2      	b.n	27e26 <hogpd_get_att_handle+0x92>
   27e80:	0037      	movs	r7, r6
   27e82:	408f      	lsls	r7, r1
   27e84:	88a8      	ldrh	r0, [r5, #4]
   27e86:	4207      	tst	r7, r0
   27e88:	d104      	bne.n	27e94 <hogpd_get_att_handle+0x100>
   27e8a:	3403      	adds	r4, #3
   27e8c:	0424      	lsls	r4, r4, #16
   27e8e:	0c24      	lsrs	r4, r4, #16
   27e90:	3101      	adds	r1, #1
   27e92:	e7e6      	b.n	27e62 <hogpd_get_att_handle+0xce>
   27e94:	3404      	adds	r4, #4
   27e96:	e7f9      	b.n	27e8c <hogpd_get_att_handle+0xf8>

00027e98 <hogpd_get_att_idx>:
   27e98:	b5f7      	push	{r0, r1, r2, r4, r5, r6, r7, lr}
   27e9a:	2517      	movs	r5, #23
   27e9c:	8a84      	ldrh	r4, [r0, #20]
   27e9e:	701d      	strb	r5, [r3, #0]
   27ea0:	2500      	movs	r5, #0
   27ea2:	7015      	strb	r5, [r2, #0]
   27ea4:	7815      	ldrb	r5, [r2, #0]
   27ea6:	7ec7      	ldrb	r7, [r0, #27]
   27ea8:	42af      	cmp	r7, r5
   27eaa:	d901      	bls.n	27eb0 <hogpd_get_att_idx+0x18>
   27eac:	428c      	cmp	r4, r1
   27eae:	d901      	bls.n	27eb4 <hogpd_get_att_idx+0x1c>
   27eb0:	2080      	movs	r0, #128	; 0x80
   27eb2:	e017      	b.n	27ee4 <hogpd_get_att_idx+0x4c>
   27eb4:	00ef      	lsls	r7, r5, #3
   27eb6:	19c7      	adds	r7, r0, r7
   27eb8:	7a3f      	ldrb	r7, [r7, #8]
   27eba:	193f      	adds	r7, r7, r4
   27ebc:	42b9      	cmp	r1, r7
   27ebe:	db03      	blt.n	27ec8 <hogpd_get_att_idx+0x30>
   27ec0:	043c      	lsls	r4, r7, #16
   27ec2:	0c24      	lsrs	r4, r4, #16
   27ec4:	3501      	adds	r5, #1
   27ec6:	e7ec      	b.n	27ea2 <hogpd_get_att_idx+0xa>
   27ec8:	2700      	movs	r7, #0
   27eca:	9d08      	ldr	r5, [sp, #32]
   27ecc:	702f      	strb	r7, [r5, #0]
   27ece:	7815      	ldrb	r5, [r2, #0]
   27ed0:	00ed      	lsls	r5, r5, #3
   27ed2:	1945      	adds	r5, r0, r5
   27ed4:	7aae      	ldrb	r6, [r5, #10]
   27ed6:	1936      	adds	r6, r6, r4
   27ed8:	42b1      	cmp	r1, r6
   27eda:	da3e      	bge.n	27f5a <hogpd_get_att_idx+0xc2>
   27edc:	428c      	cmp	r4, r1
   27ede:	d102      	bne.n	27ee6 <hogpd_get_att_idx+0x4e>
   27ee0:	701f      	strb	r7, [r3, #0]
   27ee2:	2000      	movs	r0, #0
   27ee4:	bdfe      	pop	{r1, r2, r3, r4, r5, r6, r7, pc}
   27ee6:	88ad      	ldrh	r5, [r5, #4]
   27ee8:	2208      	movs	r2, #8
   27eea:	002e      	movs	r6, r5
   27eec:	4016      	ands	r6, r2
   27eee:	4215      	tst	r5, r2
   27ef0:	d005      	beq.n	27efe <hogpd_get_att_idx+0x66>
   27ef2:	3401      	adds	r4, #1
   27ef4:	0424      	lsls	r4, r4, #16
   27ef6:	0c24      	lsrs	r4, r4, #16
   27ef8:	3a07      	subs	r2, #7
   27efa:	42a1      	cmp	r1, r4
   27efc:	d010      	beq.n	27f20 <hogpd_get_att_idx+0x88>
   27efe:	1de2      	adds	r2, r4, #7
   27f00:	0412      	lsls	r2, r2, #16
   27f02:	0c12      	lsrs	r2, r2, #16
   27f04:	4291      	cmp	r1, r2
   27f06:	d802      	bhi.n	27f0e <hogpd_get_att_idx+0x76>
   27f08:	3108      	adds	r1, #8
   27f0a:	1a8a      	subs	r2, r1, r2
   27f0c:	e008      	b.n	27f20 <hogpd_get_att_idx+0x88>
   27f0e:	2e00      	cmp	r6, #0
   27f10:	d008      	beq.n	27f24 <hogpd_get_att_idx+0x8c>
   27f12:	0022      	movs	r2, r4
   27f14:	3208      	adds	r2, #8
   27f16:	0412      	lsls	r2, r2, #16
   27f18:	0c12      	lsrs	r2, r2, #16
   27f1a:	4291      	cmp	r1, r2
   27f1c:	d102      	bne.n	27f24 <hogpd_get_att_idx+0x8c>
   27f1e:	2208      	movs	r2, #8
   27f20:	701a      	strb	r2, [r3, #0]
   27f22:	e7de      	b.n	27ee2 <hogpd_get_att_idx+0x4a>
   27f24:	0768      	lsls	r0, r5, #29
   27f26:	d506      	bpl.n	27f36 <hogpd_get_att_idx+0x9e>
   27f28:	3202      	adds	r2, #2
   27f2a:	0412      	lsls	r2, r2, #16
   27f2c:	0c12      	lsrs	r2, r2, #16
   27f2e:	4291      	cmp	r1, r2
   27f30:	d801      	bhi.n	27f36 <hogpd_get_att_idx+0x9e>
   27f32:	310b      	adds	r1, #11
   27f34:	e7e9      	b.n	27f0a <hogpd_get_att_idx+0x72>
   27f36:	07e8      	lsls	r0, r5, #31
   27f38:	d506      	bpl.n	27f48 <hogpd_get_att_idx+0xb0>
   27f3a:	3205      	adds	r2, #5
   27f3c:	0412      	lsls	r2, r2, #16
   27f3e:	0c12      	lsrs	r2, r2, #16
   27f40:	4291      	cmp	r1, r2
   27f42:	d801      	bhi.n	27f48 <hogpd_get_att_idx+0xb0>
   27f44:	3110      	adds	r1, #16
   27f46:	e7e0      	b.n	27f0a <hogpd_get_att_idx+0x72>
   27f48:	07a8      	lsls	r0, r5, #30
   27f4a:	d5ca      	bpl.n	27ee2 <hogpd_get_att_idx+0x4a>
   27f4c:	3203      	adds	r2, #3
   27f4e:	0412      	lsls	r2, r2, #16
   27f50:	0c12      	lsrs	r2, r2, #16
   27f52:	4291      	cmp	r1, r2
   27f54:	d8c5      	bhi.n	27ee2 <hogpd_get_att_idx+0x4a>
   27f56:	3113      	adds	r1, #19
   27f58:	e7d7      	b.n	27f0a <hogpd_get_att_idx+0x72>
   27f5a:	0435      	lsls	r5, r6, #16
   27f5c:	0c2d      	lsrs	r5, r5, #16
   27f5e:	9c08      	ldr	r4, [sp, #32]
   27f60:	7817      	ldrb	r7, [r2, #0]
   27f62:	7824      	ldrb	r4, [r4, #0]
   27f64:	00ff      	lsls	r7, r7, #3
   27f66:	9400      	str	r4, [sp, #0]
   27f68:	19c7      	adds	r7, r0, r7
   27f6a:	7a7c      	ldrb	r4, [r7, #9]
   27f6c:	9e00      	ldr	r6, [sp, #0]
   27f6e:	42b4      	cmp	r4, r6
   27f70:	d9b7      	bls.n	27ee2 <hogpd_get_att_idx+0x4a>
   27f72:	1cec      	adds	r4, r5, #3
   27f74:	0424      	lsls	r4, r4, #16
   27f76:	0c24      	lsrs	r4, r4, #16
   27f78:	42a1      	cmp	r1, r4
   27f7a:	d803      	bhi.n	27f84 <hogpd_get_att_idx+0xec>
   27f7c:	3116      	adds	r1, #22
   27f7e:	1b0c      	subs	r4, r1, r4
   27f80:	701c      	strb	r4, [r3, #0]
   27f82:	e7ae      	b.n	27ee2 <hogpd_get_att_idx+0x4a>
   27f84:	88be      	ldrh	r6, [r7, #4]
   27f86:	2740      	movs	r7, #64	; 0x40
   27f88:	9601      	str	r6, [sp, #4]
   27f8a:	9e00      	ldr	r6, [sp, #0]
   27f8c:	40b7      	lsls	r7, r6
   27f8e:	9e01      	ldr	r6, [sp, #4]
   27f90:	4237      	tst	r7, r6
   27f92:	d006      	beq.n	27fa2 <hogpd_get_att_idx+0x10a>
   27f94:	1d2c      	adds	r4, r5, #4
   27f96:	0424      	lsls	r4, r4, #16
   27f98:	0c24      	lsrs	r4, r4, #16
   27f9a:	42a1      	cmp	r1, r4
   27f9c:	d101      	bne.n	27fa2 <hogpd_get_att_idx+0x10a>
   27f9e:	2216      	movs	r2, #22
   27fa0:	e7be      	b.n	27f20 <hogpd_get_att_idx+0x88>
   27fa2:	9e00      	ldr	r6, [sp, #0]
   27fa4:	9d08      	ldr	r5, [sp, #32]
   27fa6:	3601      	adds	r6, #1
   27fa8:	702e      	strb	r6, [r5, #0]
   27faa:	0025      	movs	r5, r4
   27fac:	e7d7      	b.n	27f5e <hogpd_get_att_idx+0xc6>

00027fae <oads_create>:
   27fae:	68c3      	ldr	r3, [r0, #12]
   27fb0:	2000      	movs	r0, #0
   27fb2:	185a      	adds	r2, r3, r1
   27fb4:	311c      	adds	r1, #28
   27fb6:	0049      	lsls	r1, r1, #1
   27fb8:	323d      	adds	r2, #61	; 0x3d
   27fba:	1859      	adds	r1, r3, r1
   27fbc:	7010      	strb	r0, [r2, #0]
   27fbe:	80c8      	strh	r0, [r1, #6]
   27fc0:	4770      	bx	lr

00027fc2 <oads_cleanup>:
   27fc2:	68c3      	ldr	r3, [r0, #12]
   27fc4:	2000      	movs	r0, #0
   27fc6:	185a      	adds	r2, r3, r1
   27fc8:	311c      	adds	r1, #28
   27fca:	0049      	lsls	r1, r1, #1
   27fcc:	323d      	adds	r2, #61	; 0x3d
   27fce:	1859      	adds	r1, r3, r1
   27fd0:	7010      	strb	r0, [r2, #0]
   27fd2:	80c8      	strh	r0, [r1, #6]
   27fd4:	4770      	bx	lr

00027fd6 <bass_get_att_idx.constprop.0>:
   27fd6:	b5f7      	push	{r0, r1, r2, r4, r5, r6, r7, lr}
   27fd8:	0004      	movs	r4, r0
   27fda:	2024      	movs	r0, #36	; 0x24
   27fdc:	000d      	movs	r5, r1
   27fde:	0016      	movs	r6, r2
   27fe0:	f7ff fcee 	bl	279c0 <prf_env_get>
   27fe4:	2300      	movs	r3, #0
   27fe6:	8b02      	ldrh	r2, [r0, #24]
   27fe8:	702b      	strb	r3, [r5, #0]
   27fea:	7fc3      	ldrb	r3, [r0, #31]
   27fec:	7829      	ldrb	r1, [r5, #0]
   27fee:	469c      	mov	ip, r3
   27ff0:	4299      	cmp	r1, r3
   27ff2:	d201      	bcs.n	27ff8 <bass_get_att_idx.constprop.0+0x22>
   27ff4:	4294      	cmp	r4, r2
   27ff6:	d201      	bcs.n	27ffc <bass_get_att_idx.constprop.0+0x26>
   27ff8:	2080      	movs	r0, #128	; 0x80
   27ffa:	e006      	b.n	2800a <bass_get_att_idx.constprop.0+0x34>
   27ffc:	1c93      	adds	r3, r2, #2
   27ffe:	9301      	str	r3, [sp, #4]
   28000:	429c      	cmp	r4, r3
   28002:	dc03      	bgt.n	2800c <bass_get_att_idx.constprop.0+0x36>
   28004:	1aa2      	subs	r2, r4, r2
   28006:	7032      	strb	r2, [r6, #0]
   28008:	2000      	movs	r0, #0
   2800a:	bdfe      	pop	{r1, r2, r3, r4, r5, r6, r7, pc}
   2800c:	7f87      	ldrb	r7, [r0, #30]
   2800e:	2301      	movs	r3, #1
   28010:	410f      	asrs	r7, r1
   28012:	421f      	tst	r7, r3
   28014:	d007      	beq.n	28026 <bass_get_att_idx.constprop.0+0x50>
   28016:	3203      	adds	r2, #3
   28018:	0412      	lsls	r2, r2, #16
   2801a:	0c12      	lsrs	r2, r2, #16
   2801c:	4294      	cmp	r4, r2
   2801e:	d105      	bne.n	2802c <bass_get_att_idx.constprop.0+0x56>
   28020:	3302      	adds	r3, #2
   28022:	7033      	strb	r3, [r6, #0]
   28024:	e7f0      	b.n	28008 <bass_get_att_idx.constprop.0+0x32>
   28026:	9b01      	ldr	r3, [sp, #4]
   28028:	041a      	lsls	r2, r3, #16
   2802a:	0c12      	lsrs	r2, r2, #16
   2802c:	4663      	mov	r3, ip
   2802e:	2b01      	cmp	r3, #1
   28030:	d906      	bls.n	28040 <bass_get_att_idx.constprop.0+0x6a>
   28032:	3201      	adds	r2, #1
   28034:	0412      	lsls	r2, r2, #16
   28036:	0c12      	lsrs	r2, r2, #16
   28038:	4294      	cmp	r4, r2
   2803a:	d101      	bne.n	28040 <bass_get_att_idx.constprop.0+0x6a>
   2803c:	2304      	movs	r3, #4
   2803e:	e7f0      	b.n	28022 <bass_get_att_idx.constprop.0+0x4c>
   28040:	3201      	adds	r2, #1
   28042:	0412      	lsls	r2, r2, #16
   28044:	3101      	adds	r1, #1
   28046:	0c12      	lsrs	r2, r2, #16
   28048:	7029      	strb	r1, [r5, #0]
   2804a:	e7ce      	b.n	27fea <bass_get_att_idx.constprop.0+0x14>

0002804c <set_flash_clk.constprop.0>:
   2804c:	4905      	ldr	r1, [pc, #20]	; (28064 <set_flash_clk.constprop.0+0x18>)
   2804e:	4a06      	ldr	r2, [pc, #24]	; (28068 <set_flash_clk.constprop.0+0x1c>)
   28050:	680b      	ldr	r3, [r1, #0]
   28052:	401a      	ands	r2, r3
   28054:	2308      	movs	r3, #8
   28056:	4313      	orrs	r3, r2
   28058:	4a04      	ldr	r2, [pc, #16]	; (2806c <set_flash_clk.constprop.0+0x20>)
   2805a:	600b      	str	r3, [r1, #0]
   2805c:	6813      	ldr	r3, [r2, #0]
   2805e:	2b00      	cmp	r3, #0
   28060:	dbfc      	blt.n	2805c <set_flash_clk.constprop.0+0x10>
   28062:	4770      	bx	lr
   28064:	0080201c 	.word	0x0080201c
   28068:	07fffff0 	.word	0x07fffff0
   2806c:	00802000 	.word	0x00802000

00028070 <SetDataRate.constprop.0>:
   28070:	4a0b      	ldr	r2, [pc, #44]	; (280a0 <SetDataRate.constprop.0+0x30>)
   28072:	6813      	ldr	r3, [r2, #0]
   28074:	0a5b      	lsrs	r3, r3, #9
   28076:	025b      	lsls	r3, r3, #9
   28078:	6013      	str	r3, [r2, #0]
   2807a:	2380      	movs	r3, #128	; 0x80
   2807c:	6811      	ldr	r1, [r2, #0]
   2807e:	005b      	lsls	r3, r3, #1
   28080:	430b      	orrs	r3, r1
   28082:	6013      	str	r3, [r2, #0]
   28084:	4b07      	ldr	r3, [pc, #28]	; (280a4 <SetDataRate.constprop.0+0x34>)
   28086:	4908      	ldr	r1, [pc, #32]	; (280a8 <SetDataRate.constprop.0+0x38>)
   28088:	681a      	ldr	r2, [r3, #0]
   2808a:	400a      	ands	r2, r1
   2808c:	601a      	str	r2, [r3, #0]
   2808e:	2281      	movs	r2, #129	; 0x81
   28090:	6819      	ldr	r1, [r3, #0]
   28092:	0552      	lsls	r2, r2, #21
   28094:	430a      	orrs	r2, r1
   28096:	601a      	str	r2, [r3, #0]
   28098:	2207      	movs	r2, #7
   2809a:	4b04      	ldr	r3, [pc, #16]	; (280ac <SetDataRate.constprop.0+0x3c>)
   2809c:	601a      	str	r2, [r3, #0]
   2809e:	4770      	bx	lr
   280a0:	00806eb8 	.word	0x00806eb8
   280a4:	00806e98 	.word	0x00806e98
   280a8:	e000ffff 	.word	0xe000ffff
   280ac:	00805018 	.word	0x00805018

000280b0 <Timer0_Start.constprop.0>:
   280b0:	21fa      	movs	r1, #250	; 0xfa
   280b2:	b510      	push	{r4, lr}
   280b4:	0089      	lsls	r1, r1, #2
   280b6:	f00f fb63 	bl	37780 <____aeabi_uidiv_from_thumb>
   280ba:	2302      	movs	r3, #2
   280bc:	4908      	ldr	r1, [pc, #32]	; (280e0 <Timer0_Start.constprop.0+0x30>)
   280be:	780a      	ldrb	r2, [r1, #0]
   280c0:	439a      	bics	r2, r3
   280c2:	700a      	strb	r2, [r1, #0]
   280c4:	4a07      	ldr	r2, [pc, #28]	; (280e4 <Timer0_Start.constprop.0+0x34>)
   280c6:	6010      	str	r0, [r2, #0]
   280c8:	4a07      	ldr	r2, [pc, #28]	; (280e8 <Timer0_Start.constprop.0+0x38>)
   280ca:	6010      	str	r0, [r2, #0]
   280cc:	4a07      	ldr	r2, [pc, #28]	; (280ec <Timer0_Start.constprop.0+0x3c>)
   280ce:	6811      	ldr	r1, [r2, #0]
   280d0:	430b      	orrs	r3, r1
   280d2:	6013      	str	r3, [r2, #0]
   280d4:	2304      	movs	r3, #4
   280d6:	4a06      	ldr	r2, [pc, #24]	; (280f0 <Timer0_Start.constprop.0+0x40>)
   280d8:	6811      	ldr	r1, [r2, #0]
   280da:	430b      	orrs	r3, r1
   280dc:	6013      	str	r3, [r2, #0]
   280de:	bd10      	pop	{r4, pc}
   280e0:	004028c0 	.word	0x004028c0
   280e4:	00806504 	.word	0x00806504
   280e8:	004028ac 	.word	0x004028ac
   280ec:	0080650c 	.word	0x0080650c
   280f0:	00800040 	.word	0x00800040

000280f4 <prf_dst_task_get.isra.0>:
   280f4:	0003      	movs	r3, r0
   280f6:	0440      	lsls	r0, r0, #17
   280f8:	041b      	lsls	r3, r3, #16
   280fa:	0c40      	lsrs	r0, r0, #17
   280fc:	141b      	asrs	r3, r3, #16
   280fe:	d501      	bpl.n	28104 <prf_dst_task_get.isra.0+0x10>
   28100:	0209      	lsls	r1, r1, #8
   28102:	4308      	orrs	r0, r1
   28104:	4770      	bx	lr

00028106 <prf_src_task_get.isra.0>:
   28106:	0003      	movs	r3, r0
   28108:	0440      	lsls	r0, r0, #17
   2810a:	041b      	lsls	r3, r3, #16
   2810c:	0c40      	lsrs	r0, r0, #17
   2810e:	141b      	asrs	r3, r3, #16
   28110:	d501      	bpl.n	28116 <prf_src_task_get.isra.0+0x10>
   28112:	0209      	lsls	r1, r1, #8
   28114:	4308      	orrs	r0, r1
   28116:	4770      	bx	lr

00028118 <driver_rf_data_send_noACK.isra.0>:
   28118:	2280      	movs	r2, #128	; 0x80
   2811a:	4b12      	ldr	r3, [pc, #72]	; (28164 <driver_rf_data_send_noACK.isra.0+0x4c>)
   2811c:	b570      	push	{r4, r5, r6, lr}
   2811e:	601a      	str	r2, [r3, #0]
   28120:	4c11      	ldr	r4, [pc, #68]	; (28168 <driver_rf_data_send_noACK.isra.0+0x50>)
   28122:	3220      	adds	r2, #32
   28124:	601a      	str	r2, [r3, #0]
   28126:	3a9f      	subs	r2, #159	; 0x9f
   28128:	6022      	str	r2, [r4, #0]
   2812a:	3267      	adds	r2, #103	; 0x67
   2812c:	601a      	str	r2, [r3, #0]
   2812e:	2200      	movs	r2, #0
   28130:	4e0e      	ldr	r6, [pc, #56]	; (2816c <driver_rf_data_send_noACK.isra.0+0x54>)
   28132:	4d0f      	ldr	r5, [pc, #60]	; (28170 <driver_rf_data_send_noACK.isra.0+0x58>)
   28134:	5d91      	ldrb	r1, [r2, r6]
   28136:	3201      	adds	r2, #1
   28138:	6029      	str	r1, [r5, #0]
   2813a:	0611      	lsls	r1, r2, #24
   2813c:	0e09      	lsrs	r1, r1, #24
   2813e:	4288      	cmp	r0, r1
   28140:	d8f8      	bhi.n	28134 <driver_rf_data_send_noACK.isra.0+0x1c>
   28142:	2200      	movs	r2, #0
   28144:	20ff      	movs	r0, #255	; 0xff
   28146:	2130      	movs	r1, #48	; 0x30
   28148:	601a      	str	r2, [r3, #0]
   2814a:	4a0a      	ldr	r2, [pc, #40]	; (28174 <driver_rf_data_send_noACK.isra.0+0x5c>)
   2814c:	6813      	ldr	r3, [r2, #0]
   2814e:	4003      	ands	r3, r0
   28150:	420b      	tst	r3, r1
   28152:	d0fb      	beq.n	2814c <driver_rf_data_send_noACK.isra.0+0x34>
   28154:	2120      	movs	r1, #32
   28156:	420b      	tst	r3, r1
   28158:	d000      	beq.n	2815c <driver_rf_data_send_noACK.isra.0+0x44>
   2815a:	6011      	str	r1, [r2, #0]
   2815c:	2300      	movs	r3, #0
   2815e:	6023      	str	r3, [r4, #0]
   28160:	bd70      	pop	{r4, r5, r6, pc}
   28162:	46c0      	nop			; (mov r8, r8)
   28164:	008050d8 	.word	0x008050d8
   28168:	008050d4 	.word	0x008050d4
   2816c:	00402b92 	.word	0x00402b92
   28170:	008050dc 	.word	0x008050dc
   28174:	00805100 	.word	0x00805100

00028178 <app_sensor_check.isra.0>:
   28178:	b510      	push	{r4, lr}
   2817a:	4819      	ldr	r0, [pc, #100]	; (281e0 <app_sensor_check.isra.0+0x68>)
   2817c:	4919      	ldr	r1, [pc, #100]	; (281e4 <app_sensor_check.isra.0+0x6c>)
   2817e:	7802      	ldrb	r2, [r0, #0]
   28180:	4b19      	ldr	r3, [pc, #100]	; (281e8 <app_sensor_check.isra.0+0x70>)
   28182:	3201      	adds	r2, #1
   28184:	0612      	lsls	r2, r2, #24
   28186:	0e12      	lsrs	r2, r2, #24
   28188:	7002      	strb	r2, [r0, #0]
   2818a:	2a63      	cmp	r2, #99	; 0x63
   2818c:	d90d      	bls.n	281aa <app_sensor_check.isra.0+0x32>
   2818e:	2400      	movs	r4, #0
   28190:	5f0a      	ldrsh	r2, [r1, r4]
   28192:	2400      	movs	r4, #0
   28194:	7004      	strb	r4, [r0, #0]
   28196:	42a2      	cmp	r2, r4
   28198:	d10d      	bne.n	281b6 <app_sensor_check.isra.0+0x3e>
   2819a:	2400      	movs	r4, #0
   2819c:	5f18      	ldrsh	r0, [r3, r4]
   2819e:	1d04      	adds	r4, r0, #4
   281a0:	d012      	beq.n	281c8 <app_sensor_check.isra.0+0x50>
   281a2:	2204      	movs	r2, #4
   281a4:	800a      	strh	r2, [r1, #0]
   281a6:	2200      	movs	r2, #0
   281a8:	801a      	strh	r2, [r3, #0]
   281aa:	4a10      	ldr	r2, [pc, #64]	; (281ec <app_sensor_check.isra.0+0x74>)
   281ac:	8809      	ldrh	r1, [r1, #0]
   281ae:	881b      	ldrh	r3, [r3, #0]
   281b0:	8391      	strh	r1, [r2, #28]
   281b2:	83d3      	strh	r3, [r2, #30]
   281b4:	bd10      	pop	{r4, pc}
   281b6:	2a04      	cmp	r2, #4
   281b8:	d108      	bne.n	281cc <app_sensor_check.isra.0+0x54>
   281ba:	2000      	movs	r0, #0
   281bc:	5e1a      	ldrsh	r2, [r3, r0]
   281be:	2a00      	cmp	r2, #0
   281c0:	d1ef      	bne.n	281a2 <app_sensor_check.isra.0+0x2a>
   281c2:	800a      	strh	r2, [r1, #0]
   281c4:	3a04      	subs	r2, #4
   281c6:	e7ef      	b.n	281a8 <app_sensor_check.isra.0+0x30>
   281c8:	8008      	strh	r0, [r1, #0]
   281ca:	e7ed      	b.n	281a8 <app_sensor_check.isra.0+0x30>
   281cc:	3204      	adds	r2, #4
   281ce:	d1e8      	bne.n	281a2 <app_sensor_check.isra.0+0x2a>
   281d0:	2000      	movs	r0, #0
   281d2:	5e1a      	ldrsh	r2, [r3, r0]
   281d4:	2a00      	cmp	r2, #0
   281d6:	d1e4      	bne.n	281a2 <app_sensor_check.isra.0+0x2a>
   281d8:	800a      	strh	r2, [r1, #0]
   281da:	3204      	adds	r2, #4
   281dc:	e7e4      	b.n	281a8 <app_sensor_check.isra.0+0x30>
   281de:	46c0      	nop			; (mov r8, r8)
   281e0:	00400f48 	.word	0x00400f48
   281e4:	004029b6 	.word	0x004029b6
   281e8:	004029b8 	.word	0x004029b8
   281ec:	004054b4 	.word	0x004054b4

000281f0 <flash_erase.constprop.0.isra.0>:
   281f0:	23ab      	movs	r3, #171	; 0xab
   281f2:	b5f0      	push	{r4, r5, r6, r7, lr}
   281f4:	4e29      	ldr	r6, [pc, #164]	; (2829c <flash_erase.constprop.0.isra.0+0xac>)
   281f6:	b085      	sub	sp, #20
   281f8:	7033      	strb	r3, [r6, #0]
   281fa:	0005      	movs	r5, r0
   281fc:	000c      	movs	r4, r1
   281fe:	f7ff fc75 	bl	27aec <get_flash_ID>
   28202:	4b27      	ldr	r3, [pc, #156]	; (282a0 <flash_erase.constprop.0.isra.0+0xb0>)
   28204:	681b      	ldr	r3, [r3, #0]
   28206:	4298      	cmp	r0, r3
   28208:	d11d      	bne.n	28246 <flash_erase.constprop.0.isra.0+0x56>
   2820a:	0b2d      	lsrs	r5, r5, #12
   2820c:	032b      	lsls	r3, r5, #12
   2820e:	9301      	str	r3, [sp, #4]
   28210:	4b24      	ldr	r3, [pc, #144]	; (282a4 <flash_erase.constprop.0.isra.0+0xb4>)
   28212:	4023      	ands	r3, r4
   28214:	d503      	bpl.n	2821e <flash_erase.constprop.0.isra.0+0x2e>
   28216:	4a24      	ldr	r2, [pc, #144]	; (282a8 <flash_erase.constprop.0.isra.0+0xb8>)
   28218:	3b01      	subs	r3, #1
   2821a:	4313      	orrs	r3, r2
   2821c:	3301      	adds	r3, #1
   2821e:	17e1      	asrs	r1, r4, #31
   28220:	0509      	lsls	r1, r1, #20
   28222:	17da      	asrs	r2, r3, #31
   28224:	0d09      	lsrs	r1, r1, #20
   28226:	1ad3      	subs	r3, r2, r3
   28228:	190c      	adds	r4, r1, r4
   2822a:	1324      	asrs	r4, r4, #12
   2822c:	0fdb      	lsrs	r3, r3, #31
   2822e:	191b      	adds	r3, r3, r4
   28230:	9302      	str	r3, [sp, #8]
   28232:	23bc      	movs	r3, #188	; 0xbc
   28234:	2400      	movs	r4, #0
   28236:	4d1d      	ldr	r5, [pc, #116]	; (282ac <flash_erase.constprop.0.isra.0+0xbc>)
   28238:	702b      	strb	r3, [r5, #0]
   2823a:	9b02      	ldr	r3, [sp, #8]
   2823c:	42a3      	cmp	r3, r4
   2823e:	dc04      	bgt.n	2824a <flash_erase.constprop.0.isra.0+0x5a>
   28240:	2300      	movs	r3, #0
   28242:	7033      	strb	r3, [r6, #0]
   28244:	702b      	strb	r3, [r5, #0]
   28246:	b005      	add	sp, #20
   28248:	bdf0      	pop	{r4, r5, r6, r7, pc}
   2824a:	f00f facd 	bl	377e8 <____disable_fiq_from_thumb>
   2824e:	0007      	movs	r7, r0
   28250:	f00f fa9a 	bl	37788 <____disable_irq_from_thumb>
   28254:	7833      	ldrb	r3, [r6, #0]
   28256:	9003      	str	r0, [sp, #12]
   28258:	2bab      	cmp	r3, #171	; 0xab
   2825a:	d114      	bne.n	28286 <flash_erase.constprop.0.isra.0+0x96>
   2825c:	782b      	ldrb	r3, [r5, #0]
   2825e:	2bbc      	cmp	r3, #188	; 0xbc
   28260:	d111      	bne.n	28286 <flash_erase.constprop.0.isra.0+0x96>
   28262:	f7ff fcb9 	bl	27bd8 <flash_wp_256k>
   28266:	4a12      	ldr	r2, [pc, #72]	; (282b0 <flash_erase.constprop.0.isra.0+0xc0>)
   28268:	6813      	ldr	r3, [r2, #0]
   2826a:	2b00      	cmp	r3, #0
   2826c:	dbfc      	blt.n	28268 <flash_erase.constprop.0.isra.0+0x78>
   2826e:	9901      	ldr	r1, [sp, #4]
   28270:	0323      	lsls	r3, r4, #12
   28272:	185b      	adds	r3, r3, r1
   28274:	21b4      	movs	r1, #180	; 0xb4
   28276:	0589      	lsls	r1, r1, #22
   28278:	430b      	orrs	r3, r1
   2827a:	6013      	str	r3, [r2, #0]
   2827c:	6813      	ldr	r3, [r2, #0]
   2827e:	2b00      	cmp	r3, #0
   28280:	dbfc      	blt.n	2827c <flash_erase.constprop.0.isra.0+0x8c>
   28282:	f7ff fcd5 	bl	27c30 <flash_wp_ALL>
   28286:	2f00      	cmp	r7, #0
   28288:	d101      	bne.n	2828e <flash_erase.constprop.0.isra.0+0x9e>
   2828a:	f00f fa63 	bl	37754 <____enable_fiq_from_thumb>
   2828e:	9b03      	ldr	r3, [sp, #12]
   28290:	2b00      	cmp	r3, #0
   28292:	d101      	bne.n	28298 <flash_erase.constprop.0.isra.0+0xa8>
   28294:	f00f fa9c 	bl	377d0 <____enable_irq_from_thumb>
   28298:	3401      	adds	r4, #1
   2829a:	e7ce      	b.n	2823a <flash_erase.constprop.0.isra.0+0x4a>
   2829c:	004029bb 	.word	0x004029bb
   282a0:	004029c4 	.word	0x004029c4
   282a4:	80000fff 	.word	0x80000fff
   282a8:	fffff000 	.word	0xfffff000
   282ac:	004029bc 	.word	0x004029bc
   282b0:	00802000 	.word	0x00802000

000282b4 <nvds_erase>:
   282b4:	b510      	push	{r4, lr}
   282b6:	f7ff ff9b 	bl	281f0 <flash_erase.constprop.0.isra.0>
   282ba:	bd10      	pop	{r4, pc}

000282bc <gapm_gen_rand_nb_ind_handler>:
   282bc:	4808      	ldr	r0, [pc, #32]	; (282e0 <gapm_gen_rand_nb_ind_handler+0x24>)
   282be:	b510      	push	{r4, lr}
   282c0:	0003      	movs	r3, r0
   282c2:	332d      	adds	r3, #45	; 0x2d
   282c4:	781b      	ldrb	r3, [r3, #0]
   282c6:	2b01      	cmp	r3, #1
   282c8:	d105      	bne.n	282d6 <gapm_gen_rand_nb_ind_handler+0x1a>
   282ca:	301c      	adds	r0, #28
   282cc:	2208      	movs	r2, #8
   282ce:	f007 fbcd 	bl	2fa6c <memcpy>
   282d2:	2000      	movs	r0, #0
   282d4:	bd10      	pop	{r4, pc}
   282d6:	2b02      	cmp	r3, #2
   282d8:	d1fb      	bne.n	282d2 <gapm_gen_rand_nb_ind_handler+0x16>
   282da:	3024      	adds	r0, #36	; 0x24
   282dc:	e7f6      	b.n	282cc <gapm_gen_rand_nb_ind_handler+0x10>
   282de:	46c0      	nop			; (mov r8, r8)
   282e0:	00402854 	.word	0x00402854

000282e4 <flash_write_data>:
   282e4:	b5f0      	push	{r4, r5, r6, r7, lr}
   282e6:	b091      	sub	sp, #68	; 0x44
   282e8:	9007      	str	r0, [sp, #28]
   282ea:	9103      	str	r1, [sp, #12]
   282ec:	9202      	str	r2, [sp, #8]
   282ee:	2a00      	cmp	r2, #0
   282f0:	d05d      	beq.n	283ae <flash_write_data+0xca>
   282f2:	2380      	movs	r3, #128	; 0x80
   282f4:	02db      	lsls	r3, r3, #11
   282f6:	4299      	cmp	r1, r3
   282f8:	d359      	bcc.n	283ae <flash_write_data+0xca>
   282fa:	f00f fa75 	bl	377e8 <____disable_fiq_from_thumb>
   282fe:	9004      	str	r0, [sp, #16]
   28300:	f00f fa42 	bl	37788 <____disable_irq_from_thumb>
   28304:	4c3d      	ldr	r4, [pc, #244]	; (283fc <flash_write_data+0x118>)
   28306:	9005      	str	r0, [sp, #20]
   28308:	6823      	ldr	r3, [r4, #0]
   2830a:	2b00      	cmp	r3, #0
   2830c:	dbfc      	blt.n	28308 <flash_write_data+0x24>
   2830e:	22c2      	movs	r2, #194	; 0xc2
   28310:	4b3b      	ldr	r3, [pc, #236]	; (28400 <flash_write_data+0x11c>)
   28312:	701a      	strb	r2, [r3, #0]
   28314:	f7ff fc60 	bl	27bd8 <flash_wp_256k>
   28318:	9b02      	ldr	r3, [sp, #8]
   2831a:	9d03      	ldr	r5, [sp, #12]
   2831c:	3b01      	subs	r3, #1
   2831e:	095b      	lsrs	r3, r3, #5
   28320:	3301      	adds	r3, #1
   28322:	9306      	str	r3, [sp, #24]
   28324:	2300      	movs	r3, #0
   28326:	9301      	str	r3, [sp, #4]
   28328:	9b07      	ldr	r3, [sp, #28]
   2832a:	9a03      	ldr	r2, [sp, #12]
   2832c:	9e01      	ldr	r6, [sp, #4]
   2832e:	1a9f      	subs	r7, r3, r2
   28330:	0033      	movs	r3, r6
   28332:	9a02      	ldr	r2, [sp, #8]
   28334:	3301      	adds	r3, #1
   28336:	9301      	str	r3, [sp, #4]
   28338:	197f      	adds	r7, r7, r5
   2833a:	015b      	lsls	r3, r3, #5
   2833c:	429a      	cmp	r2, r3
   2833e:	d938      	bls.n	283b2 <flash_write_data+0xce>
   28340:	2220      	movs	r2, #32
   28342:	0039      	movs	r1, r7
   28344:	a808      	add	r0, sp, #32
   28346:	f007 fb91 	bl	2fa6c <memcpy>
   2834a:	22d1      	movs	r2, #209	; 0xd1
   2834c:	4b2d      	ldr	r3, [pc, #180]	; (28404 <flash_write_data+0x120>)
   2834e:	4e2e      	ldr	r6, [pc, #184]	; (28408 <flash_write_data+0x124>)
   28350:	701a      	strb	r2, [r3, #0]
   28352:	2300      	movs	r3, #0
   28354:	009a      	lsls	r2, r3, #2
   28356:	a908      	add	r1, sp, #32
   28358:	5852      	ldr	r2, [r2, r1]
   2835a:	3301      	adds	r3, #1
   2835c:	6032      	str	r2, [r6, #0]
   2835e:	2b08      	cmp	r3, #8
   28360:	d1f8      	bne.n	28354 <flash_write_data+0x70>
   28362:	4b2a      	ldr	r3, [pc, #168]	; (2840c <flash_write_data+0x128>)
   28364:	781b      	ldrb	r3, [r3, #0]
   28366:	2ba6      	cmp	r3, #166	; 0xa6
   28368:	d02c      	beq.n	283c4 <flash_write_data+0xe0>
   2836a:	9b06      	ldr	r3, [sp, #24]
   2836c:	9a01      	ldr	r2, [sp, #4]
   2836e:	3520      	adds	r5, #32
   28370:	4293      	cmp	r3, r2
   28372:	d8d9      	bhi.n	28328 <flash_write_data+0x44>
   28374:	f7ff fc5c 	bl	27c30 <flash_wp_ALL>
   28378:	23fa      	movs	r3, #250	; 0xfa
   2837a:	02db      	lsls	r3, r3, #11
   2837c:	6023      	str	r3, [r4, #0]
   2837e:	2300      	movs	r3, #0
   28380:	4a1f      	ldr	r2, [pc, #124]	; (28400 <flash_write_data+0x11c>)
   28382:	7013      	strb	r3, [r2, #0]
   28384:	4a1f      	ldr	r2, [pc, #124]	; (28404 <flash_write_data+0x120>)
   28386:	7013      	strb	r3, [r2, #0]
   28388:	3b01      	subs	r3, #1
   2838a:	6033      	str	r3, [r6, #0]
   2838c:	6033      	str	r3, [r6, #0]
   2838e:	6033      	str	r3, [r6, #0]
   28390:	6033      	str	r3, [r6, #0]
   28392:	6033      	str	r3, [r6, #0]
   28394:	6033      	str	r3, [r6, #0]
   28396:	6033      	str	r3, [r6, #0]
   28398:	6033      	str	r3, [r6, #0]
   2839a:	9b04      	ldr	r3, [sp, #16]
   2839c:	2b00      	cmp	r3, #0
   2839e:	d101      	bne.n	283a4 <flash_write_data+0xc0>
   283a0:	f00f f9d8 	bl	37754 <____enable_fiq_from_thumb>
   283a4:	9b05      	ldr	r3, [sp, #20]
   283a6:	2b00      	cmp	r3, #0
   283a8:	d101      	bne.n	283ae <flash_write_data+0xca>
   283aa:	f00f fa11 	bl	377d0 <____enable_irq_from_thumb>
   283ae:	b011      	add	sp, #68	; 0x44
   283b0:	bdf0      	pop	{r4, r5, r6, r7, pc}
   283b2:	2220      	movs	r2, #32
   283b4:	21ff      	movs	r1, #255	; 0xff
   283b6:	a808      	add	r0, sp, #32
   283b8:	f007 fbac 	bl	2fb14 <memset>
   283bc:	9b02      	ldr	r3, [sp, #8]
   283be:	0172      	lsls	r2, r6, #5
   283c0:	1a9a      	subs	r2, r3, r2
   283c2:	e7be      	b.n	28342 <flash_write_data+0x5e>
   283c4:	4b12      	ldr	r3, [pc, #72]	; (28410 <flash_write_data+0x12c>)
   283c6:	781b      	ldrb	r3, [r3, #0]
   283c8:	2bb3      	cmp	r3, #179	; 0xb3
   283ca:	d1ce      	bne.n	2836a <flash_write_data+0x86>
   283cc:	6823      	ldr	r3, [r4, #0]
   283ce:	2b00      	cmp	r3, #0
   283d0:	dbfc      	blt.n	283cc <flash_write_data+0xe8>
   283d2:	4b0b      	ldr	r3, [pc, #44]	; (28400 <flash_write_data+0x11c>)
   283d4:	781b      	ldrb	r3, [r3, #0]
   283d6:	2bc2      	cmp	r3, #194	; 0xc2
   283d8:	d10b      	bne.n	283f2 <flash_write_data+0x10e>
   283da:	4b0a      	ldr	r3, [pc, #40]	; (28404 <flash_write_data+0x120>)
   283dc:	781b      	ldrb	r3, [r3, #0]
   283de:	2bd1      	cmp	r3, #209	; 0xd1
   283e0:	d107      	bne.n	283f2 <flash_write_data+0x10e>
   283e2:	2380      	movs	r3, #128	; 0x80
   283e4:	02db      	lsls	r3, r3, #11
   283e6:	429d      	cmp	r5, r3
   283e8:	d3e1      	bcc.n	283ae <flash_write_data+0xca>
   283ea:	23b0      	movs	r3, #176	; 0xb0
   283ec:	059b      	lsls	r3, r3, #22
   283ee:	432b      	orrs	r3, r5
   283f0:	6023      	str	r3, [r4, #0]
   283f2:	6823      	ldr	r3, [r4, #0]
   283f4:	2b00      	cmp	r3, #0
   283f6:	dbfc      	blt.n	283f2 <flash_write_data+0x10e>
   283f8:	e7b7      	b.n	2836a <flash_write_data+0x86>
   283fa:	46c0      	nop			; (mov r8, r8)
   283fc:	00802000 	.word	0x00802000
   28400:	004029bf 	.word	0x004029bf
   28404:	004029c0 	.word	0x004029c0
   28408:	00802004 	.word	0x00802004
   2840c:	004029bd 	.word	0x004029bd
   28410:	004029be 	.word	0x004029be

00028414 <flash_read_data.part.0>:
   28414:	b5f0      	push	{r4, r5, r6, r7, lr}
   28416:	b08f      	sub	sp, #60	; 0x3c
   28418:	0014      	movs	r4, r2
   2841a:	9105      	str	r1, [sp, #20]
   2841c:	9004      	str	r0, [sp, #16]
   2841e:	f00f f9e3 	bl	377e8 <____disable_fiq_from_thumb>
   28422:	9001      	str	r0, [sp, #4]
   28424:	f00f f9b0 	bl	37788 <____disable_irq_from_thumb>
   28428:	4d25      	ldr	r5, [pc, #148]	; (284c0 <flash_read_data.part.0+0xac>)
   2842a:	9002      	str	r0, [sp, #8]
   2842c:	682b      	ldr	r3, [r5, #0]
   2842e:	2b00      	cmp	r3, #0
   28430:	dbfc      	blt.n	2842c <flash_read_data.part.0+0x18>
   28432:	2200      	movs	r2, #0
   28434:	1e63      	subs	r3, r4, #1
   28436:	095b      	lsrs	r3, r3, #5
   28438:	3301      	adds	r3, #1
   2843a:	9303      	str	r3, [sp, #12]
   2843c:	2094      	movs	r0, #148	; 0x94
   2843e:	9905      	ldr	r1, [sp, #20]
   28440:	0153      	lsls	r3, r2, #5
   28442:	18c9      	adds	r1, r1, r3
   28444:	0580      	lsls	r0, r0, #22
   28446:	4301      	orrs	r1, r0
   28448:	6029      	str	r1, [r5, #0]
   2844a:	6829      	ldr	r1, [r5, #0]
   2844c:	2900      	cmp	r1, #0
   2844e:	dbfc      	blt.n	2844a <flash_read_data.part.0+0x36>
   28450:	481c      	ldr	r0, [pc, #112]	; (284c4 <flash_read_data.part.0+0xb0>)
   28452:	2100      	movs	r1, #0
   28454:	4684      	mov	ip, r0
   28456:	4660      	mov	r0, ip
   28458:	6806      	ldr	r6, [r0, #0]
   2845a:	af06      	add	r7, sp, #24
   2845c:	0088      	lsls	r0, r1, #2
   2845e:	3101      	adds	r1, #1
   28460:	51c6      	str	r6, [r0, r7]
   28462:	2908      	cmp	r1, #8
   28464:	d1f7      	bne.n	28456 <flash_read_data.part.0+0x42>
   28466:	9904      	ldr	r1, [sp, #16]
   28468:	1c56      	adds	r6, r2, #1
   2846a:	18c8      	adds	r0, r1, r3
   2846c:	3320      	adds	r3, #32
   2846e:	429c      	cmp	r4, r3
   28470:	d922      	bls.n	284b8 <flash_read_data.part.0+0xa4>
   28472:	2220      	movs	r2, #32
   28474:	0039      	movs	r1, r7
   28476:	f007 faf9 	bl	2fa6c <memcpy>
   2847a:	9b03      	ldr	r3, [sp, #12]
   2847c:	42b3      	cmp	r3, r6
   2847e:	d819      	bhi.n	284b4 <flash_read_data.part.0+0xa0>
   28480:	23fa      	movs	r3, #250	; 0xfa
   28482:	2201      	movs	r2, #1
   28484:	02db      	lsls	r3, r3, #11
   28486:	602b      	str	r3, [r5, #0]
   28488:	4b0f      	ldr	r3, [pc, #60]	; (284c8 <flash_read_data.part.0+0xb4>)
   2848a:	4252      	negs	r2, r2
   2848c:	601a      	str	r2, [r3, #0]
   2848e:	601a      	str	r2, [r3, #0]
   28490:	601a      	str	r2, [r3, #0]
   28492:	601a      	str	r2, [r3, #0]
   28494:	601a      	str	r2, [r3, #0]
   28496:	601a      	str	r2, [r3, #0]
   28498:	601a      	str	r2, [r3, #0]
   2849a:	601a      	str	r2, [r3, #0]
   2849c:	9b01      	ldr	r3, [sp, #4]
   2849e:	2b00      	cmp	r3, #0
   284a0:	d101      	bne.n	284a6 <flash_read_data.part.0+0x92>
   284a2:	f00f f957 	bl	37754 <____enable_fiq_from_thumb>
   284a6:	9b02      	ldr	r3, [sp, #8]
   284a8:	2b00      	cmp	r3, #0
   284aa:	d101      	bne.n	284b0 <flash_read_data.part.0+0x9c>
   284ac:	f00f f990 	bl	377d0 <____enable_irq_from_thumb>
   284b0:	b00f      	add	sp, #60	; 0x3c
   284b2:	bdf0      	pop	{r4, r5, r6, r7, pc}
   284b4:	0032      	movs	r2, r6
   284b6:	e7c1      	b.n	2843c <flash_read_data.part.0+0x28>
   284b8:	0152      	lsls	r2, r2, #5
   284ba:	1aa2      	subs	r2, r4, r2
   284bc:	a906      	add	r1, sp, #24
   284be:	e7da      	b.n	28476 <flash_read_data.part.0+0x62>
   284c0:	00802000 	.word	0x00802000
   284c4:	00802008 	.word	0x00802008
   284c8:	00802004 	.word	0x00802004

000284cc <flash_read.constprop.0.isra.0>:
   284cc:	b5f8      	push	{r3, r4, r5, r6, r7, lr}
   284ce:	1847      	adds	r7, r0, r1
   284d0:	23ff      	movs	r3, #255	; 0xff
   284d2:	0015      	movs	r5, r2
   284d4:	003c      	movs	r4, r7
   284d6:	0002      	movs	r2, r0
   284d8:	439c      	bics	r4, r3
   284da:	439a      	bics	r2, r3
   284dc:	42a2      	cmp	r2, r4
   284de:	d00f      	beq.n	28500 <flash_read.constprop.0.isra.0+0x34>
   284e0:	1a26      	subs	r6, r4, r0
   284e2:	4284      	cmp	r4, r0
   284e4:	d004      	beq.n	284f0 <flash_read.constprop.0.isra.0+0x24>
   284e6:	0001      	movs	r1, r0
   284e8:	0032      	movs	r2, r6
   284ea:	0028      	movs	r0, r5
   284ec:	f7ff ff92 	bl	28414 <flash_read_data.part.0>
   284f0:	1b3a      	subs	r2, r7, r4
   284f2:	42a7      	cmp	r7, r4
   284f4:	d003      	beq.n	284fe <flash_read.constprop.0.isra.0+0x32>
   284f6:	0021      	movs	r1, r4
   284f8:	19a8      	adds	r0, r5, r6
   284fa:	f7ff ff8b 	bl	28414 <flash_read_data.part.0>
   284fe:	bdf8      	pop	{r3, r4, r5, r6, r7, pc}
   28500:	2900      	cmp	r1, #0
   28502:	d0fc      	beq.n	284fe <flash_read.constprop.0.isra.0+0x32>
   28504:	000a      	movs	r2, r1
   28506:	0001      	movs	r1, r0
   28508:	0028      	movs	r0, r5
   2850a:	e7f6      	b.n	284fa <flash_read.constprop.0.isra.0+0x2e>

0002850c <nvds_read>:
   2850c:	b510      	push	{r4, lr}
   2850e:	f7ff ffdd 	bl	284cc <flash_read.constprop.0.isra.0>
   28512:	bd10      	pop	{r4, pc}

00028514 <oad_save_reciveData>:
   28514:	b510      	push	{r4, lr}
   28516:	4c07      	ldr	r4, [pc, #28]	; (28534 <oad_save_reciveData+0x20>)
   28518:	1c81      	adds	r1, r0, #2
   2851a:	69a3      	ldr	r3, [r4, #24]
   2851c:	1c5a      	adds	r2, r3, #1
   2851e:	011b      	lsls	r3, r3, #4
   28520:	331e      	adds	r3, #30
   28522:	191b      	adds	r3, r3, r4
   28524:	61a2      	str	r2, [r4, #24]
   28526:	0018      	movs	r0, r3
   28528:	2210      	movs	r2, #16
   2852a:	f007 fa9f 	bl	2fa6c <memcpy>
   2852e:	2301      	movs	r3, #1
   28530:	7723      	strb	r3, [r4, #28]
   28532:	bd10      	pop	{r4, pc}
   28534:	004028c4 	.word	0x004028c4

00028538 <appm_disconnect>:
   28538:	2108      	movs	r1, #8
   2853a:	b510      	push	{r4, lr}
   2853c:	4b07      	ldr	r3, [pc, #28]	; (2855c <appm_disconnect+0x24>)
   2853e:	2203      	movs	r2, #3
   28540:	789b      	ldrb	r3, [r3, #2]
   28542:	4807      	ldr	r0, [pc, #28]	; (28560 <appm_disconnect+0x28>)
   28544:	021b      	lsls	r3, r3, #8
   28546:	4319      	orrs	r1, r3
   28548:	2302      	movs	r3, #2
   2854a:	f7f7 f8f7 	bl	1f73c <ke_msg_alloc>
   2854e:	2301      	movs	r3, #1
   28550:	7003      	strb	r3, [r0, #0]
   28552:	3312      	adds	r3, #18
   28554:	7043      	strb	r3, [r0, #1]
   28556:	f7f7 f90b 	bl	1f770 <ke_msg_send>
   2855a:	bd10      	pop	{r4, pc}
   2855c:	00402854 	.word	0x00402854
   28560:	00000e04 	.word	0x00000e04

00028564 <appm_update_param>:
   28564:	2108      	movs	r1, #8
   28566:	b510      	push	{r4, lr}
   28568:	4b0d      	ldr	r3, [pc, #52]	; (285a0 <appm_update_param+0x3c>)
   2856a:	0004      	movs	r4, r0
   2856c:	789b      	ldrb	r3, [r3, #2]
   2856e:	2203      	movs	r2, #3
   28570:	021b      	lsls	r3, r3, #8
   28572:	4319      	orrs	r1, r3
   28574:	480b      	ldr	r0, [pc, #44]	; (285a4 <appm_update_param+0x40>)
   28576:	230e      	movs	r3, #14
   28578:	f7f7 f8e0 	bl	1f73c <ke_msg_alloc>
   2857c:	2309      	movs	r3, #9
   2857e:	7003      	strb	r3, [r0, #0]
   28580:	8823      	ldrh	r3, [r4, #0]
   28582:	8043      	strh	r3, [r0, #2]
   28584:	8863      	ldrh	r3, [r4, #2]
   28586:	8083      	strh	r3, [r0, #4]
   28588:	88a3      	ldrh	r3, [r4, #4]
   2858a:	80c3      	strh	r3, [r0, #6]
   2858c:	88e3      	ldrh	r3, [r4, #6]
   2858e:	8103      	strh	r3, [r0, #8]
   28590:	2301      	movs	r3, #1
   28592:	425b      	negs	r3, r3
   28594:	8143      	strh	r3, [r0, #10]
   28596:	8183      	strh	r3, [r0, #12]
   28598:	f7f7 f8ea 	bl	1f770 <ke_msg_send>
   2859c:	bd10      	pop	{r4, pc}
   2859e:	46c0      	nop			; (mov r8, r8)
   285a0:	00402854 	.word	0x00402854
   285a4:	00000e0e 	.word	0x00000e0e

000285a8 <app_batt_add_bas>:
   285a8:	b510      	push	{r4, lr}
   285aa:	2320      	movs	r3, #32
   285ac:	2203      	movs	r2, #3
   285ae:	2107      	movs	r1, #7
   285b0:	4806      	ldr	r0, [pc, #24]	; (285cc <app_batt_add_bas+0x24>)
   285b2:	f7f7 f8c3 	bl	1f73c <ke_msg_alloc>
   285b6:	4b06      	ldr	r3, [pc, #24]	; (285d0 <app_batt_add_bas+0x28>)
   285b8:	6003      	str	r3, [r0, #0]
   285ba:	2303      	movs	r3, #3
   285bc:	6043      	str	r3, [r0, #4]
   285be:	2302      	movs	r3, #2
   285c0:	33ff      	adds	r3, #255	; 0xff
   285c2:	8183      	strh	r3, [r0, #12]
   285c4:	f7f7 f8d4 	bl	1f770 <ke_msg_send>
   285c8:	bd10      	pop	{r4, pc}
   285ca:	46c0      	nop			; (mov r8, r8)
   285cc:	00000d1b 	.word	0x00000d1b
   285d0:	0024001b 	.word	0x0024001b

000285d4 <diss_value_req_ind_handler>:
   285d4:	b5f8      	push	{r3, r4, r5, r6, r7, lr}
   285d6:	000e      	movs	r6, r1
   285d8:	2700      	movs	r7, #0
   285da:	7830      	ldrb	r0, [r6, #0]
   285dc:	0019      	movs	r1, r3
   285de:	003d      	movs	r5, r7
   285e0:	2808      	cmp	r0, #8
   285e2:	d804      	bhi.n	285ee <diss_value_req_ind_handler+0x1a>
   285e4:	4b0d      	ldr	r3, [pc, #52]	; (2861c <diss_value_req_ind_handler+0x48>)
   285e6:	5c1d      	ldrb	r5, [r3, r0]
   285e8:	4b0d      	ldr	r3, [pc, #52]	; (28620 <diss_value_req_ind_handler+0x4c>)
   285ea:	0080      	lsls	r0, r0, #2
   285ec:	58c7      	ldr	r7, [r0, r3]
   285ee:	1cab      	adds	r3, r5, #2
   285f0:	061b      	lsls	r3, r3, #24
   285f2:	0e1b      	lsrs	r3, r3, #24
   285f4:	480b      	ldr	r0, [pc, #44]	; (28624 <diss_value_req_ind_handler+0x50>)
   285f6:	f7f7 f8a1 	bl	1f73c <ke_msg_alloc>
   285fa:	7833      	ldrb	r3, [r6, #0]
   285fc:	0004      	movs	r4, r0
   285fe:	7003      	strb	r3, [r0, #0]
   28600:	7045      	strb	r5, [r0, #1]
   28602:	2d00      	cmp	r5, #0
   28604:	d004      	beq.n	28610 <diss_value_req_ind_handler+0x3c>
   28606:	002a      	movs	r2, r5
   28608:	0039      	movs	r1, r7
   2860a:	3002      	adds	r0, #2
   2860c:	f007 fa2e 	bl	2fa6c <memcpy>
   28610:	0020      	movs	r0, r4
   28612:	f7f7 f8ad 	bl	1f770 <ke_msg_send>
   28616:	2000      	movs	r0, #0
   28618:	bdf8      	pop	{r3, r4, r5, r6, r7, pc}
   2861a:	46c0      	nop			; (mov r8, r8)
   2861c:	00038648 	.word	0x00038648
   28620:	00038654 	.word	0x00038654
   28624:	00001403 	.word	0x00001403

00028628 <app_dis_add_dis>:
   28628:	b510      	push	{r4, lr}
   2862a:	230e      	movs	r3, #14
   2862c:	2203      	movs	r2, #3
   2862e:	2107      	movs	r1, #7
   28630:	4806      	ldr	r0, [pc, #24]	; (2864c <app_dis_add_dis+0x24>)
   28632:	f7f7 f883 	bl	1f73c <ke_msg_alloc>
   28636:	4b06      	ldr	r3, [pc, #24]	; (28650 <app_dis_add_dis+0x28>)
   28638:	6003      	str	r3, [r0, #0]
   2863a:	2303      	movs	r3, #3
   2863c:	6043      	str	r3, [r0, #4]
   2863e:	2344      	movs	r3, #68	; 0x44
   28640:	33ff      	adds	r3, #255	; 0xff
   28642:	8183      	strh	r3, [r0, #12]
   28644:	f7f7 f894 	bl	1f770 <ke_msg_send>
   28648:	bd10      	pop	{r4, pc}
   2864a:	46c0      	nop			; (mov r8, r8)
   2864c:	00000d1b 	.word	0x00000d1b
   28650:	0014001b 	.word	0x0014001b

00028654 <gapc_get_dev_info_req_ind_handler>:
   28654:	b570      	push	{r4, r5, r6, lr}
   28656:	000c      	movs	r4, r1
   28658:	0019      	movs	r1, r3
   2865a:	7823      	ldrb	r3, [r4, #0]
   2865c:	2b01      	cmp	r3, #1
   2865e:	d018      	beq.n	28692 <gapc_get_dev_info_req_ind_handler+0x3e>
   28660:	2b02      	cmp	r3, #2
   28662:	d01f      	beq.n	286a4 <gapc_get_dev_info_req_ind_handler+0x50>
   28664:	2b00      	cmp	r3, #0
   28666:	d112      	bne.n	2868e <gapc_get_dev_info_req_ind_handler+0x3a>
   28668:	331c      	adds	r3, #28
   2866a:	4816      	ldr	r0, [pc, #88]	; (286c4 <gapc_get_dev_info_req_ind_handler+0x70>)
   2866c:	f7f7 f866 	bl	1f73c <ke_msg_alloc>
   28670:	7823      	ldrb	r3, [r4, #0]
   28672:	4c15      	ldr	r4, [pc, #84]	; (286c8 <gapc_get_dev_info_req_ind_handler+0x74>)
   28674:	0005      	movs	r5, r0
   28676:	0021      	movs	r1, r4
   28678:	7003      	strb	r3, [r0, #0]
   2867a:	7a62      	ldrb	r2, [r4, #9]
   2867c:	3004      	adds	r0, #4
   2867e:	310a      	adds	r1, #10
   28680:	f007 f9f4 	bl	2fa6c <memcpy>
   28684:	0028      	movs	r0, r5
   28686:	7a63      	ldrb	r3, [r4, #9]
   28688:	806b      	strh	r3, [r5, #2]
   2868a:	f7f7 f871 	bl	1f770 <ke_msg_send>
   2868e:	2000      	movs	r0, #0
   28690:	bd70      	pop	{r4, r5, r6, pc}
   28692:	230a      	movs	r3, #10
   28694:	480b      	ldr	r0, [pc, #44]	; (286c4 <gapc_get_dev_info_req_ind_handler+0x70>)
   28696:	f7f7 f851 	bl	1f73c <ke_msg_alloc>
   2869a:	7823      	ldrb	r3, [r4, #0]
   2869c:	7003      	strb	r3, [r0, #0]
   2869e:	4b0b      	ldr	r3, [pc, #44]	; (286cc <gapc_get_dev_info_req_ind_handler+0x78>)
   286a0:	8043      	strh	r3, [r0, #2]
   286a2:	e7f2      	b.n	2868a <gapc_get_dev_info_req_ind_handler+0x36>
   286a4:	230a      	movs	r3, #10
   286a6:	4807      	ldr	r0, [pc, #28]	; (286c4 <gapc_get_dev_info_req_ind_handler+0x70>)
   286a8:	f7f7 f848 	bl	1f73c <ke_msg_alloc>
   286ac:	7823      	ldrb	r3, [r4, #0]
   286ae:	7003      	strb	r3, [r0, #0]
   286b0:	2309      	movs	r3, #9
   286b2:	8043      	strh	r3, [r0, #2]
   286b4:	8083      	strh	r3, [r0, #4]
   286b6:	2300      	movs	r3, #0
   286b8:	80c3      	strh	r3, [r0, #6]
   286ba:	2396      	movs	r3, #150	; 0x96
   286bc:	009b      	lsls	r3, r3, #2
   286be:	8103      	strh	r3, [r0, #8]
   286c0:	e7e3      	b.n	2868a <gapc_get_dev_info_req_ind_handler+0x36>
   286c2:	46c0      	nop			; (mov r8, r8)
   286c4:	00000e0b 	.word	0x00000e0b
   286c8:	00402854 	.word	0x00402854
   286cc:	000003c2 	.word	0x000003c2

000286d0 <gapc_set_dev_info_req_ind_handler>:
   286d0:	b510      	push	{r4, lr}
   286d2:	4807      	ldr	r0, [pc, #28]	; (286f0 <gapc_set_dev_info_req_ind_handler+0x20>)
   286d4:	000c      	movs	r4, r1
   286d6:	0019      	movs	r1, r3
   286d8:	2302      	movs	r3, #2
   286da:	f7f7 f82f 	bl	1f73c <ke_msg_alloc>
   286de:	2348      	movs	r3, #72	; 0x48
   286e0:	7043      	strb	r3, [r0, #1]
   286e2:	7823      	ldrb	r3, [r4, #0]
   286e4:	7003      	strb	r3, [r0, #0]
   286e6:	f7f7 f843 	bl	1f770 <ke_msg_send>
   286ea:	2000      	movs	r0, #0
   286ec:	bd10      	pop	{r4, pc}
   286ee:	46c0      	nop			; (mov r8, r8)
   286f0:	00000e0d 	.word	0x00000e0d

000286f4 <bass_notify_batt_lvl>:
   286f4:	b5f8      	push	{r3, r4, r5, r6, r7, lr}
   286f6:	000c      	movs	r4, r1
   286f8:	0005      	movs	r5, r0
   286fa:	2100      	movs	r1, #0
   286fc:	8840      	ldrh	r0, [r0, #2]
   286fe:	0016      	movs	r6, r2
   28700:	f7ff fd01 	bl	28106 <prf_src_task_get.isra.0>
   28704:	2106      	movs	r1, #6
   28706:	0002      	movs	r2, r0
   28708:	20c1      	movs	r0, #193	; 0xc1
   2870a:	0224      	lsls	r4, r4, #8
   2870c:	4321      	orrs	r1, r4
   2870e:	2309      	movs	r3, #9
   28710:	0100      	lsls	r0, r0, #4
   28712:	f7f7 f813 	bl	1f73c <ke_msg_alloc>
   28716:	2312      	movs	r3, #18
   28718:	0004      	movs	r4, r0
   2871a:	7003      	strb	r3, [r0, #0]
   2871c:	2024      	movs	r0, #36	; 0x24
   2871e:	f7ff f94f 	bl	279c0 <prf_env_get>
   28722:	7fc2      	ldrb	r2, [r0, #31]
   28724:	2300      	movs	r3, #0
   28726:	42b2      	cmp	r2, r6
   28728:	d908      	bls.n	2873c <bass_notify_batt_lvl+0x48>
   2872a:	2701      	movs	r7, #1
   2872c:	8b01      	ldrh	r1, [r0, #24]
   2872e:	061a      	lsls	r2, r3, #24
   28730:	0e12      	lsrs	r2, r2, #24
   28732:	4296      	cmp	r6, r2
   28734:	d80c      	bhi.n	28750 <bass_notify_batt_lvl+0x5c>
   28736:	3102      	adds	r1, #2
   28738:	040b      	lsls	r3, r1, #16
   2873a:	0c1b      	lsrs	r3, r3, #16
   2873c:	80a3      	strh	r3, [r4, #4]
   2873e:	2301      	movs	r3, #1
   28740:	19ad      	adds	r5, r5, r6
   28742:	80e3      	strh	r3, [r4, #6]
   28744:	7eab      	ldrb	r3, [r5, #26]
   28746:	0020      	movs	r0, r4
   28748:	7223      	strb	r3, [r4, #8]
   2874a:	f7f7 f811 	bl	1f770 <ke_msg_send>
   2874e:	bdf8      	pop	{r3, r4, r5, r6, r7, pc}
   28750:	7f82      	ldrb	r2, [r0, #30]
   28752:	411a      	asrs	r2, r3
   28754:	403a      	ands	r2, r7
   28756:	3204      	adds	r2, #4
   28758:	1889      	adds	r1, r1, r2
   2875a:	0409      	lsls	r1, r1, #16
   2875c:	0c09      	lsrs	r1, r1, #16
   2875e:	3301      	adds	r3, #1
   28760:	e7e5      	b.n	2872e <bass_notify_batt_lvl+0x3a>
	...

00028764 <gattc_att_info_req_ind_handler.lto_priv.0>:
   28764:	b5f7      	push	{r0, r1, r2, r4, r5, r6, r7, lr}
   28766:	001e      	movs	r6, r3
   28768:	466b      	mov	r3, sp
   2876a:	000d      	movs	r5, r1
   2876c:	0017      	movs	r7, r2
   2876e:	1dd9      	adds	r1, r3, #7
   28770:	466a      	mov	r2, sp
   28772:	2300      	movs	r3, #0
   28774:	3206      	adds	r2, #6
   28776:	8828      	ldrh	r0, [r5, #0]
   28778:	7013      	strb	r3, [r2, #0]
   2877a:	700b      	strb	r3, [r1, #0]
   2877c:	f7ff fc2b 	bl	27fd6 <bass_get_att_idx.constprop.0>
   28780:	2306      	movs	r3, #6
   28782:	0004      	movs	r4, r0
   28784:	003a      	movs	r2, r7
   28786:	0031      	movs	r1, r6
   28788:	480a      	ldr	r0, [pc, #40]	; (287b4 <gattc_att_info_req_ind_handler.lto_priv.0+0x50>)
   2878a:	f7f6 ffd7 	bl	1f73c <ke_msg_alloc>
   2878e:	882b      	ldrh	r3, [r5, #0]
   28790:	8003      	strh	r3, [r0, #0]
   28792:	2c00      	cmp	r4, #0
   28794:	d105      	bne.n	287a2 <gattc_att_info_req_ind_handler.lto_priv.0+0x3e>
   28796:	466b      	mov	r3, sp
   28798:	799b      	ldrb	r3, [r3, #6]
   2879a:	2b03      	cmp	r3, #3
   2879c:	d106      	bne.n	287ac <gattc_att_info_req_ind_handler.lto_priv.0+0x48>
   2879e:	3b01      	subs	r3, #1
   287a0:	8043      	strh	r3, [r0, #2]
   287a2:	7104      	strb	r4, [r0, #4]
   287a4:	f7f6 ffe4 	bl	1f770 <ke_msg_send>
   287a8:	2000      	movs	r0, #0
   287aa:	bdfe      	pop	{r1, r2, r3, r4, r5, r6, r7, pc}
   287ac:	8044      	strh	r4, [r0, #2]
   287ae:	2403      	movs	r4, #3
   287b0:	e7f7      	b.n	287a2 <gattc_att_info_req_ind_handler.lto_priv.0+0x3e>
   287b2:	46c0      	nop			; (mov r8, r8)
   287b4:	00000c18 	.word	0x00000c18

000287b8 <gattc_write_req_ind_handler.lto_priv.0>:
   287b8:	b5f0      	push	{r4, r5, r6, r7, lr}
   287ba:	b087      	sub	sp, #28
   287bc:	9303      	str	r3, [sp, #12]
   287be:	2300      	movs	r3, #0
   287c0:	0017      	movs	r7, r2
   287c2:	aa04      	add	r2, sp, #16
   287c4:	71d3      	strb	r3, [r2, #7]
   287c6:	7193      	strb	r3, [r2, #6]
   287c8:	0013      	movs	r3, r2
   287ca:	8808      	ldrh	r0, [r1, #0]
   287cc:	000d      	movs	r5, r1
   287ce:	3206      	adds	r2, #6
   287d0:	1dd9      	adds	r1, r3, #7
   287d2:	f7ff fc00 	bl	27fd6 <bass_get_att_idx.constprop.0>
   287d6:	1e04      	subs	r4, r0, #0
   287d8:	d131      	bne.n	2883e <gattc_write_req_ind_handler.lto_priv.0+0x86>
   287da:	ab04      	add	r3, sp, #16
   287dc:	799b      	ldrb	r3, [r3, #6]
   287de:	2b03      	cmp	r3, #3
   287e0:	d13e      	bne.n	28860 <gattc_write_req_ind_handler.lto_priv.0+0xa8>
   287e2:	79ee      	ldrb	r6, [r5, #7]
   287e4:	79ab      	ldrb	r3, [r5, #6]
   287e6:	0236      	lsls	r6, r6, #8
   287e8:	431e      	orrs	r6, r3
   287ea:	2e01      	cmp	r6, #1
   287ec:	d838      	bhi.n	28860 <gattc_write_req_ind_handler.lto_priv.0+0xa8>
   287ee:	9b03      	ldr	r3, [sp, #12]
   287f0:	2024      	movs	r0, #36	; 0x24
   287f2:	0a1b      	lsrs	r3, r3, #8
   287f4:	9302      	str	r3, [sp, #8]
   287f6:	f7ff f8e3 	bl	279c0 <prf_env_get>
   287fa:	9a02      	ldr	r2, [sp, #8]
   287fc:	ab04      	add	r3, sp, #16
   287fe:	1881      	adds	r1, r0, r2
   28800:	2280      	movs	r2, #128	; 0x80
   28802:	79db      	ldrb	r3, [r3, #7]
   28804:	0452      	lsls	r2, r2, #17
   28806:	9001      	str	r0, [sp, #4]
   28808:	409a      	lsls	r2, r3
   2880a:	201d      	movs	r0, #29
   2880c:	1613      	asrs	r3, r2, #24
   2880e:	5608      	ldrsb	r0, [r1, r0]
   28810:	2e01      	cmp	r6, #1
   28812:	d122      	bne.n	2885a <gattc_write_req_ind_handler.lto_priv.0+0xa2>
   28814:	4303      	orrs	r3, r0
   28816:	774b      	strb	r3, [r1, #29]
   28818:	9e02      	ldr	r6, [sp, #8]
   2881a:	9b01      	ldr	r3, [sp, #4]
   2881c:	0031      	movs	r1, r6
   2881e:	8818      	ldrh	r0, [r3, #0]
   28820:	f7ff fc68 	bl	280f4 <prf_dst_task_get.isra.0>
   28824:	2302      	movs	r3, #2
   28826:	0001      	movs	r1, r0
   28828:	003a      	movs	r2, r7
   2882a:	480e      	ldr	r0, [pc, #56]	; (28864 <gattc_write_req_ind_handler.lto_priv.0+0xac>)
   2882c:	f7f6 ff86 	bl	1f73c <ke_msg_alloc>
   28830:	9b01      	ldr	r3, [sp, #4]
   28832:	7006      	strb	r6, [r0, #0]
   28834:	199e      	adds	r6, r3, r6
   28836:	7f73      	ldrb	r3, [r6, #29]
   28838:	7043      	strb	r3, [r0, #1]
   2883a:	f7f6 ff99 	bl	1f770 <ke_msg_send>
   2883e:	003a      	movs	r2, r7
   28840:	9903      	ldr	r1, [sp, #12]
   28842:	2304      	movs	r3, #4
   28844:	4808      	ldr	r0, [pc, #32]	; (28868 <gattc_write_req_ind_handler.lto_priv.0+0xb0>)
   28846:	f7f6 ff79 	bl	1f73c <ke_msg_alloc>
   2884a:	882b      	ldrh	r3, [r5, #0]
   2884c:	7084      	strb	r4, [r0, #2]
   2884e:	8003      	strh	r3, [r0, #0]
   28850:	f7f6 ff8e 	bl	1f770 <ke_msg_send>
   28854:	2000      	movs	r0, #0
   28856:	b007      	add	sp, #28
   28858:	bdf0      	pop	{r4, r5, r6, r7, pc}
   2885a:	4398      	bics	r0, r3
   2885c:	7748      	strb	r0, [r1, #29]
   2885e:	e7db      	b.n	28818 <gattc_write_req_ind_handler.lto_priv.0+0x60>
   28860:	2480      	movs	r4, #128	; 0x80
   28862:	e7ec      	b.n	2883e <gattc_write_req_ind_handler.lto_priv.0+0x86>
   28864:	00002404 	.word	0x00002404
   28868:	00000c16 	.word	0x00000c16

0002886c <gattc_read_req_ind_handler.lto_priv.0>:
   2886c:	b5f0      	push	{r4, r5, r6, r7, lr}
   2886e:	2500      	movs	r5, #0
   28870:	b085      	sub	sp, #20
   28872:	001f      	movs	r7, r3
   28874:	ab02      	add	r3, sp, #8
   28876:	71dd      	strb	r5, [r3, #7]
   28878:	719d      	strb	r5, [r3, #6]
   2887a:	ab02      	add	r3, sp, #8
   2887c:	8808      	ldrh	r0, [r1, #0]
   2887e:	9100      	str	r1, [sp, #0]
   28880:	9201      	str	r2, [sp, #4]
   28882:	1dd9      	adds	r1, r3, #7
   28884:	1d9a      	adds	r2, r3, #6
   28886:	f7ff fba6 	bl	27fd6 <bass_get_att_idx.constprop.0>
   2888a:	0006      	movs	r6, r0
   2888c:	2024      	movs	r0, #36	; 0x24
   2888e:	f7ff f897 	bl	279c0 <prf_env_get>
   28892:	0004      	movs	r4, r0
   28894:	42ae      	cmp	r6, r5
   28896:	d108      	bne.n	288aa <gattc_read_req_ind_handler.lto_priv.0+0x3e>
   28898:	ab02      	add	r3, sp, #8
   2889a:	799b      	ldrb	r3, [r3, #6]
   2889c:	2b02      	cmp	r3, #2
   2889e:	d024      	beq.n	288ea <gattc_read_req_ind_handler.lto_priv.0+0x7e>
   288a0:	2b03      	cmp	r3, #3
   288a2:	d024      	beq.n	288ee <gattc_read_req_ind_handler.lto_priv.0+0x82>
   288a4:	2b04      	cmp	r3, #4
   288a6:	d024      	beq.n	288f2 <gattc_read_req_ind_handler.lto_priv.0+0x86>
   288a8:	2680      	movs	r6, #128	; 0x80
   288aa:	1dab      	adds	r3, r5, #6
   288ac:	0039      	movs	r1, r7
   288ae:	9a01      	ldr	r2, [sp, #4]
   288b0:	4822      	ldr	r0, [pc, #136]	; (2893c <gattc_read_req_ind_handler.lto_priv.0+0xd0>)
   288b2:	f7f6 ff43 	bl	1f73c <ke_msg_alloc>
   288b6:	9b00      	ldr	r3, [sp, #0]
   288b8:	881b      	ldrh	r3, [r3, #0]
   288ba:	7106      	strb	r6, [r0, #4]
   288bc:	8003      	strh	r3, [r0, #0]
   288be:	8045      	strh	r5, [r0, #2]
   288c0:	2e00      	cmp	r6, #0
   288c2:	d10d      	bne.n	288e0 <gattc_read_req_ind_handler.lto_priv.0+0x74>
   288c4:	ab02      	add	r3, sp, #8
   288c6:	3306      	adds	r3, #6
   288c8:	781b      	ldrb	r3, [r3, #0]
   288ca:	2b02      	cmp	r3, #2
   288cc:	d113      	bne.n	288f6 <gattc_read_req_ind_handler.lto_priv.0+0x8a>
   288ce:	ab02      	add	r3, sp, #8
   288d0:	3307      	adds	r3, #7
   288d2:	781b      	ldrb	r3, [r3, #0]
   288d4:	18e4      	adds	r4, r4, r3
   288d6:	7ea3      	ldrb	r3, [r4, #26]
   288d8:	7143      	strb	r3, [r0, #5]
   288da:	7ea3      	ldrb	r3, [r4, #26]
   288dc:	3301      	adds	r3, #1
   288de:	76a3      	strb	r3, [r4, #26]
   288e0:	f7f6 ff46 	bl	1f770 <ke_msg_send>
   288e4:	2000      	movs	r0, #0
   288e6:	b005      	add	sp, #20
   288e8:	bdf0      	pop	{r4, r5, r6, r7, pc}
   288ea:	2501      	movs	r5, #1
   288ec:	e7dd      	b.n	288aa <gattc_read_req_ind_handler.lto_priv.0+0x3e>
   288ee:	2502      	movs	r5, #2
   288f0:	e7db      	b.n	288aa <gattc_read_req_ind_handler.lto_priv.0+0x3e>
   288f2:	2507      	movs	r5, #7
   288f4:	e7d9      	b.n	288aa <gattc_read_req_ind_handler.lto_priv.0+0x3e>
   288f6:	2b03      	cmp	r3, #3
   288f8:	d10b      	bne.n	28912 <gattc_read_req_ind_handler.lto_priv.0+0xa6>
   288fa:	0a3b      	lsrs	r3, r7, #8
   288fc:	aa02      	add	r2, sp, #8
   288fe:	18e4      	adds	r4, r4, r3
   28900:	3207      	adds	r2, #7
   28902:	7f63      	ldrb	r3, [r4, #29]
   28904:	7812      	ldrb	r2, [r2, #0]
   28906:	7186      	strb	r6, [r0, #6]
   28908:	4113      	asrs	r3, r2
   2890a:	2201      	movs	r2, #1
   2890c:	4013      	ands	r3, r2
   2890e:	7143      	strb	r3, [r0, #5]
   28910:	e7e6      	b.n	288e0 <gattc_read_req_ind_handler.lto_priv.0+0x74>
   28912:	2b04      	cmp	r3, #4
   28914:	d1e4      	bne.n	288e0 <gattc_read_req_ind_handler.lto_priv.0+0x74>
   28916:	ab02      	add	r3, sp, #8
   28918:	79db      	ldrb	r3, [r3, #7]
   2891a:	00db      	lsls	r3, r3, #3
   2891c:	18e4      	adds	r4, r4, r3
   2891e:	7a23      	ldrb	r3, [r4, #8]
   28920:	7143      	strb	r3, [r0, #5]
   28922:	7a63      	ldrb	r3, [r4, #9]
   28924:	7183      	strb	r3, [r0, #6]
   28926:	88a3      	ldrh	r3, [r4, #4]
   28928:	71c3      	strb	r3, [r0, #7]
   2892a:	0a1b      	lsrs	r3, r3, #8
   2892c:	7203      	strb	r3, [r0, #8]
   2892e:	7aa3      	ldrb	r3, [r4, #10]
   28930:	7243      	strb	r3, [r0, #9]
   28932:	88e3      	ldrh	r3, [r4, #6]
   28934:	7283      	strb	r3, [r0, #10]
   28936:	0a1b      	lsrs	r3, r3, #8
   28938:	72c3      	strb	r3, [r0, #11]
   2893a:	e7d1      	b.n	288e0 <gattc_read_req_ind_handler.lto_priv.0+0x74>
   2893c:	00000c14 	.word	0x00000c14

00028940 <gattc_att_info_req_ind_handler.lto_priv.3>:
   28940:	b5f0      	push	{r4, r5, r6, r7, lr}
   28942:	270e      	movs	r7, #14
   28944:	b087      	sub	sp, #28
   28946:	2026      	movs	r0, #38	; 0x26
   28948:	000d      	movs	r5, r1
   2894a:	0016      	movs	r6, r2
   2894c:	9303      	str	r3, [sp, #12]
   2894e:	f7ff f837 	bl	279c0 <prf_env_get>
   28952:	ab02      	add	r3, sp, #8
   28954:	18ff      	adds	r7, r7, r3
   28956:	230d      	movs	r3, #13
   28958:	aa02      	add	r2, sp, #8
   2895a:	189b      	adds	r3, r3, r2
   2895c:	220f      	movs	r2, #15
   2895e:	ac02      	add	r4, sp, #8
   28960:	1912      	adds	r2, r2, r4
   28962:	8829      	ldrh	r1, [r5, #0]
   28964:	9300      	str	r3, [sp, #0]
   28966:	003b      	movs	r3, r7
   28968:	f7ff fa96 	bl	27e98 <hogpd_get_att_idx>
   2896c:	2306      	movs	r3, #6
   2896e:	0032      	movs	r2, r6
   28970:	0004      	movs	r4, r0
   28972:	9903      	ldr	r1, [sp, #12]
   28974:	4811      	ldr	r0, [pc, #68]	; (289bc <gattc_att_info_req_ind_handler.lto_priv.3+0x7c>)
   28976:	f7f6 fee1 	bl	1f73c <ke_msg_alloc>
   2897a:	882a      	ldrh	r2, [r5, #0]
   2897c:	0003      	movs	r3, r0
   2897e:	8002      	strh	r2, [r0, #0]
   28980:	2c00      	cmp	r4, #0
   28982:	d10d      	bne.n	289a0 <gattc_att_info_req_ind_handler.lto_priv.3+0x60>
   28984:	7838      	ldrb	r0, [r7, #0]
   28986:	380c      	subs	r0, #12
   28988:	280a      	cmp	r0, #10
   2898a:	d812      	bhi.n	289b2 <gattc_att_info_req_ind_handler.lto_priv.3+0x72>
   2898c:	f7fd fa60 	bl	25e50 <__gnu_thumb1_case_uqi>
   28990:	06110f06 	.word	0x06110f06
   28994:	110f0611 	.word	0x110f0611
   28998:	1106      	.short	0x1106
   2899a:	0f          	.byte	0x0f
   2899b:	00          	.byte	0x00
   2899c:	2200      	movs	r2, #0
   2899e:	805a      	strh	r2, [r3, #2]
   289a0:	0018      	movs	r0, r3
   289a2:	711c      	strb	r4, [r3, #4]
   289a4:	f7f6 fee4 	bl	1f770 <ke_msg_send>
   289a8:	2000      	movs	r0, #0
   289aa:	b007      	add	sp, #28
   289ac:	bdf0      	pop	{r4, r5, r6, r7, pc}
   289ae:	2202      	movs	r2, #2
   289b0:	e7f5      	b.n	2899e <gattc_att_info_req_ind_handler.lto_priv.3+0x5e>
   289b2:	2200      	movs	r2, #0
   289b4:	2403      	movs	r4, #3
   289b6:	805a      	strh	r2, [r3, #2]
   289b8:	e7f2      	b.n	289a0 <gattc_att_info_req_ind_handler.lto_priv.3+0x60>
   289ba:	46c0      	nop			; (mov r8, r8)
   289bc:	00000c18 	.word	0x00000c18

000289c0 <oadImgBlockReq.constprop.0>:
   289c0:	b537      	push	{r0, r1, r2, r4, r5, lr}
   289c2:	0004      	movs	r4, r0
   289c4:	2049      	movs	r0, #73	; 0x49
   289c6:	f7fe fffb 	bl	279c0 <prf_env_get>
   289ca:	466b      	mov	r3, sp
   289cc:	711c      	strb	r4, [r3, #4]
   289ce:	0a24      	lsrs	r4, r4, #8
   289d0:	0005      	movs	r5, r0
   289d2:	715c      	strb	r4, [r3, #5]
   289d4:	2100      	movs	r1, #0
   289d6:	8840      	ldrh	r0, [r0, #2]
   289d8:	f7ff fb95 	bl	28106 <prf_src_task_get.isra.0>
   289dc:	0002      	movs	r2, r0
   289de:	20c1      	movs	r0, #193	; 0xc1
   289e0:	230a      	movs	r3, #10
   289e2:	2106      	movs	r1, #6
   289e4:	0100      	lsls	r0, r0, #4
   289e6:	f7f6 fea9 	bl	1f73c <ke_msg_alloc>
   289ea:	2312      	movs	r3, #18
   289ec:	2202      	movs	r2, #2
   289ee:	0004      	movs	r4, r0
   289f0:	7003      	strb	r3, [r0, #0]
   289f2:	892b      	ldrh	r3, [r5, #8]
   289f4:	a901      	add	r1, sp, #4
   289f6:	3306      	adds	r3, #6
   289f8:	8083      	strh	r3, [r0, #4]
   289fa:	80c2      	strh	r2, [r0, #6]
   289fc:	3008      	adds	r0, #8
   289fe:	f007 f835 	bl	2fa6c <memcpy>
   28a02:	0020      	movs	r0, r4
   28a04:	f7f6 feb4 	bl	1f770 <ke_msg_send>
   28a08:	bd37      	pop	{r0, r1, r2, r4, r5, pc}
	...

00028a0c <Timer0_Stop.constprop.0>:
   28a0c:	2102      	movs	r1, #2
   28a0e:	4a04      	ldr	r2, [pc, #16]	; (28a20 <Timer0_Stop.constprop.0+0x14>)
   28a10:	6813      	ldr	r3, [r2, #0]
   28a12:	438b      	bics	r3, r1
   28a14:	6013      	str	r3, [r2, #0]
   28a16:	4a03      	ldr	r2, [pc, #12]	; (28a24 <Timer0_Stop.constprop.0+0x18>)
   28a18:	7813      	ldrb	r3, [r2, #0]
   28a1a:	438b      	bics	r3, r1
   28a1c:	7013      	strb	r3, [r2, #0]
   28a1e:	4770      	bx	lr
   28a20:	0080650c 	.word	0x0080650c
   28a24:	004028c0 	.word	0x004028c0

00028a28 <driver_timer0_reset>:
   28a28:	b510      	push	{r4, lr}
   28a2a:	f7ff ffef 	bl	28a0c <Timer0_Stop.constprop.0>
   28a2e:	2302      	movs	r3, #2
   28a30:	4909      	ldr	r1, [pc, #36]	; (28a58 <driver_timer0_reset+0x30>)
   28a32:	780a      	ldrb	r2, [r1, #0]
   28a34:	439a      	bics	r2, r3
   28a36:	700a      	strb	r2, [r1, #0]
   28a38:	4a08      	ldr	r2, [pc, #32]	; (28a5c <driver_timer0_reset+0x34>)
   28a3a:	4909      	ldr	r1, [pc, #36]	; (28a60 <driver_timer0_reset+0x38>)
   28a3c:	6011      	str	r1, [r2, #0]
   28a3e:	4a09      	ldr	r2, [pc, #36]	; (28a64 <driver_timer0_reset+0x3c>)
   28a40:	6811      	ldr	r1, [r2, #0]
   28a42:	430b      	orrs	r3, r1
   28a44:	6013      	str	r3, [r2, #0]
   28a46:	2200      	movs	r2, #0
   28a48:	4b07      	ldr	r3, [pc, #28]	; (28a68 <driver_timer0_reset+0x40>)
   28a4a:	721a      	strb	r2, [r3, #8]
   28a4c:	2308      	movs	r3, #8
   28a4e:	4a07      	ldr	r2, [pc, #28]	; (28a6c <driver_timer0_reset+0x44>)
   28a50:	6811      	ldr	r1, [r2, #0]
   28a52:	4399      	bics	r1, r3
   28a54:	6011      	str	r1, [r2, #0]
   28a56:	bd10      	pop	{r4, pc}
   28a58:	004028c0 	.word	0x004028c0
   28a5c:	00806504 	.word	0x00806504
   28a60:	000005dc 	.word	0x000005dc
   28a64:	0080650c 	.word	0x0080650c
   28a68:	004054b4 	.word	0x004054b4
   28a6c:	004027c8 	.word	0x004027c8

00028a70 <driver_rf_data_retrans>:
   28a70:	b5f8      	push	{r3, r4, r5, r6, r7, lr}
   28a72:	2310      	movs	r3, #16
   28a74:	4d26      	ldr	r5, [pc, #152]	; (28b10 <driver_rf_data_retrans+0xa0>)
   28a76:	2130      	movs	r1, #48	; 0x30
   28a78:	602b      	str	r3, [r5, #0]
   28a7a:	2300      	movs	r3, #0
   28a7c:	4a25      	ldr	r2, [pc, #148]	; (28b14 <driver_rf_data_retrans+0xa4>)
   28a7e:	7013      	strb	r3, [r2, #0]
   28a80:	682b      	ldr	r3, [r5, #0]
   28a82:	7810      	ldrb	r0, [r2, #0]
   28a84:	2805      	cmp	r0, #5
   28a86:	d83d      	bhi.n	28b04 <driver_rf_data_retrans+0x94>
   28a88:	420b      	tst	r3, r1
   28a8a:	d0f9      	beq.n	28a80 <driver_rf_data_retrans+0x10>
   28a8c:	2700      	movs	r7, #0
   28a8e:	061e      	lsls	r6, r3, #24
   28a90:	4c21      	ldr	r4, [pc, #132]	; (28b18 <driver_rf_data_retrans+0xa8>)
   28a92:	0e36      	lsrs	r6, r6, #24
   28a94:	069b      	lsls	r3, r3, #26
   28a96:	d519      	bpl.n	28acc <driver_rf_data_retrans+0x5c>
   28a98:	2380      	movs	r3, #128	; 0x80
   28a9a:	6822      	ldr	r2, [r4, #0]
   28a9c:	011b      	lsls	r3, r3, #4
   28a9e:	4313      	orrs	r3, r2
   28aa0:	6023      	str	r3, [r4, #0]
   28aa2:	4b1e      	ldr	r3, [pc, #120]	; (28b1c <driver_rf_data_retrans+0xac>)
   28aa4:	001a      	movs	r2, r3
   28aa6:	0018      	movs	r0, r3
   28aa8:	3228      	adds	r2, #40	; 0x28
   28aaa:	7812      	ldrb	r2, [r2, #0]
   28aac:	3008      	adds	r0, #8
   28aae:	2a08      	cmp	r2, #8
   28ab0:	d02a      	beq.n	28b08 <driver_rf_data_retrans+0x98>
   28ab2:	2100      	movs	r1, #0
   28ab4:	3305      	adds	r3, #5
   28ab6:	77c1      	strb	r1, [r0, #31]
   28ab8:	77d9      	strb	r1, [r3, #31]
   28aba:	2a02      	cmp	r2, #2
   28abc:	d124      	bne.n	28b08 <driver_rf_data_retrans+0x98>
   28abe:	f7ff ffb3 	bl	28a28 <driver_timer0_reset>
   28ac2:	22a0      	movs	r2, #160	; 0xa0
   28ac4:	4b16      	ldr	r3, [pc, #88]	; (28b20 <driver_rf_data_retrans+0xb0>)
   28ac6:	601a      	str	r2, [r3, #0]
   28ac8:	2320      	movs	r3, #32
   28aca:	602b      	str	r3, [r5, #0]
   28acc:	06f3      	lsls	r3, r6, #27
   28ace:	d503      	bpl.n	28ad8 <driver_rf_data_retrans+0x68>
   28ad0:	6822      	ldr	r2, [r4, #0]
   28ad2:	4b14      	ldr	r3, [pc, #80]	; (28b24 <driver_rf_data_retrans+0xb4>)
   28ad4:	4013      	ands	r3, r2
   28ad6:	6023      	str	r3, [r4, #0]
   28ad8:	2f00      	cmp	r7, #0
   28ada:	d00e      	beq.n	28afa <driver_rf_data_retrans+0x8a>
   28adc:	2280      	movs	r2, #128	; 0x80
   28ade:	4b10      	ldr	r3, [pc, #64]	; (28b20 <driver_rf_data_retrans+0xb0>)
   28ae0:	601a      	str	r2, [r3, #0]
   28ae2:	3220      	adds	r2, #32
   28ae4:	601a      	str	r2, [r3, #0]
   28ae6:	f7fe fcc7 	bl	27478 <PowerDown_Rf>
   28aea:	f7fe fcbd 	bl	27468 <PowerUp_Rf>
   28aee:	2310      	movs	r3, #16
   28af0:	602b      	str	r3, [r5, #0]
   28af2:	6822      	ldr	r2, [r4, #0]
   28af4:	4b0c      	ldr	r3, [pc, #48]	; (28b28 <driver_rf_data_retrans+0xb8>)
   28af6:	4013      	ands	r3, r2
   28af8:	6023      	str	r3, [r4, #0]
   28afa:	2380      	movs	r3, #128	; 0x80
   28afc:	6820      	ldr	r0, [r4, #0]
   28afe:	011b      	lsls	r3, r3, #4
   28b00:	4018      	ands	r0, r3
   28b02:	bdf8      	pop	{r3, r4, r5, r6, r7, pc}
   28b04:	2701      	movs	r7, #1
   28b06:	e7c2      	b.n	28a8e <driver_rf_data_retrans+0x1e>
   28b08:	4b08      	ldr	r3, [pc, #32]	; (28b2c <driver_rf_data_retrans+0xbc>)
   28b0a:	681b      	ldr	r3, [r3, #0]
   28b0c:	e7d9      	b.n	28ac2 <driver_rf_data_retrans+0x52>
   28b0e:	46c0      	nop			; (mov r8, r8)
   28b10:	00805100 	.word	0x00805100
   28b14:	004054f8 	.word	0x004054f8
   28b18:	004027c8 	.word	0x004027c8
   28b1c:	004054b4 	.word	0x004054b4
   28b20:	008050d8 	.word	0x008050d8
   28b24:	fffff7ff 	.word	0xfffff7ff
   28b28:	ffffd7ff 	.word	0xffffd7ff
   28b2c:	00805104 	.word	0x00805104

00028b30 <nvds_put>:
   28b30:	b5f0      	push	{r4, r5, r6, r7, lr}
   28b32:	4c50      	ldr	r4, [pc, #320]	; (28c74 <nvds_put+0x144>)
   28b34:	4b50      	ldr	r3, [pc, #320]	; (28c78 <nvds_put+0x148>)
   28b36:	44a5      	add	sp, r4
   28b38:	9308      	str	r3, [sp, #32]
   28b3a:	2300      	movs	r3, #0
   28b3c:	9002      	str	r0, [sp, #8]
   28b3e:	9100      	str	r1, [sp, #0]
   28b40:	9203      	str	r2, [sp, #12]
   28b42:	9301      	str	r3, [sp, #4]
   28b44:	9c08      	ldr	r4, [sp, #32]
   28b46:	ae06      	add	r6, sp, #24
   28b48:	0031      	movs	r1, r6
   28b4a:	0020      	movs	r0, r4
   28b4c:	aa08      	add	r2, sp, #32
   28b4e:	f7fe fe5f 	bl	27810 <nvds_walk_tag>
   28b52:	1e05      	subs	r5, r0, #0
   28b54:	d15e      	bne.n	28c14 <nvds_put+0xe4>
   28b56:	2205      	movs	r2, #5
   28b58:	7873      	ldrb	r3, [r6, #1]
   28b5a:	401a      	ands	r2, r3
   28b5c:	2a04      	cmp	r2, #4
   28b5e:	d1f1      	bne.n	28b44 <nvds_put+0x14>
   28b60:	7832      	ldrb	r2, [r6, #0]
   28b62:	9902      	ldr	r1, [sp, #8]
   28b64:	428a      	cmp	r2, r1
   28b66:	d11e      	bne.n	28ba6 <nvds_put+0x76>
   28b68:	2202      	movs	r2, #2
   28b6a:	4213      	tst	r3, r2
   28b6c:	d020      	beq.n	28bb0 <nvds_put+0x80>
   28b6e:	4f43      	ldr	r7, [pc, #268]	; (28c7c <nvds_put+0x14c>)
   28b70:	aa0a      	add	r2, sp, #40	; 0x28
   28b72:	683b      	ldr	r3, [r7, #0]
   28b74:	78b1      	ldrb	r1, [r6, #2]
   28b76:	1ce0      	adds	r0, r4, #3
   28b78:	4798      	blx	r3
   28b7a:	78b3      	ldrb	r3, [r6, #2]
   28b7c:	9a00      	ldr	r2, [sp, #0]
   28b7e:	4293      	cmp	r3, r2
   28b80:	d105      	bne.n	28b8e <nvds_put+0x5e>
   28b82:	9803      	ldr	r0, [sp, #12]
   28b84:	a90a      	add	r1, sp, #40	; 0x28
