build/BK3633_CONTROLLER.elf
SYMBOL TABLE:
00000000 l    d  .vectors	00000000 .vectors
00000100 l    d  .section_bk	00000000 .section_bk
00000300 l    d  FAST_CALL_SEG	00000000 FAST_CALL_SEG
00000140 l    d  .text	00000000 .text
000244e0 l    d  .rodata	00000000 .rodata
000268f0 l    d  .ARM.exidx	00000000 .ARM.exidx
00400000 l    d  .data	00000000 .data
004009b4 l    d  ke_heap	00000000 ke_heap
00400c50 l    d  .bss	00000000 .bss
0040366c l    d  .stack	00000000 .stack
00000000 l    d  .comment	00000000 .comment
00000000 l    d  .ARM.attributes	00000000 .ARM.attributes
00000000 l    d  .debug_frame	00000000 .debug_frame
00000000 l    d  .stab	00000000 .stab
00000000 l    d  .stabstr	00000000 .stabstr
00000000 l    df *ABS*	00000000 build/app/src/startup_bim.o
00000000 l       .vectors	00000000 _vector_start
00000020 l       .vectors	00000000 _undefined_handler
00000024 l       .vectors	00000000 _swi_handler
00000028 l       .vectors	00000000 _pabort_handler
0000002c l       .vectors	00000000 _dabort_handler
00000030 l       .vectors	00000000 _reserved_handler
00000034 l       .vectors	00000000 _irq_handler
00000038 l       .vectors	00000000 _fiq_handler
00000000 l    df *ABS*	00000000 
00025d64 l     O .rodata	000002e0 llm_hci_command_handler_tab
00018e50 l     F .text	00000084 hci_le_set_dft_phy_cmd_handler
00018ed4 l     F .text	0000006c hci_le_set_dft_per_adv_sync_transf_param_cmd_handler
00018f40 l     F .text	0000003c hci_pack_bytes
00018f7c l     F .text	0000009e hci_host_nb_cmp_pkts_cmd_pkupk
0001901a l     F .text	000000f6 hci_le_set_ext_scan_param_cmd_upk
00019110 l     F .text	000001ac hci_le_ext_create_con_cmd_upk
000192bc l     F .text	000000d8 hci_le_set_ext_adv_en_cmd_upk
00019af0 l     F .text	000002a8 hci_le_create_con_cmd_handler
00019d98 l     F .text	000002fc hci_le_ext_create_con_cmd_handler
0001a094 l     F .text	0000009c hci_le_create_con_cancel_cmd_handler
0001a130 l     F .text	00000368 ecc_generate_key256.constprop.0
0001a498 l     F .text	000001a8 hci_le_rd_local_p256_public_key_cmd_handler
0001a640 l     F .text	0000003c hci_le_gen_dhkey_v1_cmd_handler
0001a67c l     F .text	00000050 hci_le_gen_dhkey_v2_cmd_handler
00025740 l     O .rodata	00000084 ecc_Jacobian_InfinityPoint256
00403604 l     O .bss	00000001 reduce_voltage_set
000256aa l     O .rodata	00000020 BasePoint_x_256
000256ca l     O .rodata	00000020 BasePoint_y_256
000256ea l     O .rodata	00000020 DebugE256SecretKey
0002570c l     O .rodata	0000002c coef_B
00025738 l     O .rodata	00000008 connect_req_dur_tab
000257c4 l     O .rodata	00000030 hci_cmd_desc_root_tab
00025d10 l     O .rodata	00000018 hci_cmd_desc_tab_lk_ctrl
000257f4 l     O .rodata	0000006c hci_cmd_desc_tab_ctrl_bb
00025860 l     O .rodata	00000030 hci_cmd_desc_tab_info_par
00025d28 l     O .rodata	0000000c hci_cmd_desc_tab_stat_par
00025890 l     O .rodata	00000480 hci_cmd_desc_tab_le
00025d34 l     O .rodata	00000030 hci_cmd_desc_tab_vs
00026044 l     O .rodata	00000020 maxSecretKey_256
00000100 l     O .section_bk	00000040 BK36
00000000 l    df *ABS*	00000000 
00001878 l     F .text	00000004 rwip_param_dummy_get
0000187c l     F .text	00000004 rwip_param_dummy_set
00001880 l     F .text	00000004 rwip_param_dummy_del
00001884 l     F .text	00000004 rf_rpl_reg_rd
00001888 l     F .text	00000004 rf_rpl_reg_wr
0000188c l     F .text	00000004 rf_txpwr_dbm_get
00001890 l     F .text	00000010 rf_sleep
000018a0 l     F .text	00000024 rf_force_agc_enable
000018c4 l     F .text	0000000a rf_rssi_convert
000018d0 l     F .text	00000034 rf_txpwr_cs_get
00001904 l     F .text	0000000c rwble_sleep_wakeup_end
00001910 l     F .text	00000034 uart_send
00001944 l     F .text	00000002 uart_flow_on
00001946 l     F .text	00000004 uart_flow_off
0000194c l     F .text	00000018 uart_read
00001964 l     F .text	00000018 uart_write
0000197c l     F .text	00000040 get_flash_ID
000019bc l     F .text	000000ac flash_write_sr
00001a68 l     F .text	00000002 rf_reset
00001a6c l     F .text	00000194 rwip_driver_init
00002154 l     F .text	0000006c rwip_crypt_evt_handler
00001c00 l     F .text	0000002c hci_command_handler
00024768 l     O .rodata	000000b0 llc_hci_command_handler_tab
00001c2c l     F .text	000001ec lld_adv_sync_info_set
00001e18 l     F .text	0000016c ble_util_buf_init
00001f84 l     F .text	00000034 ble_util_buf_rx_alloc
00001fb8 l     F .text	00000044 uart2_printf
00002018 l     F .text	00000024 rwip_timer_10ms_handler
0000203c l     F .text	00000058 rwip_timer_hs_handler
00002094 l     F .text	000000c0 rwip_timer_hus_handler
000021c0 l     F .text	0000004c llc_auth_payl_nearly_to_handler
000024d0 l     F .text	0000001c llc_le_ping_proc_err_cb
0000220c l     F .text	000000cc hci_rd_tx_pwr_lvl_cmd_handler
000022d8 l     F .text	00000098 hci_rd_rssi_cmd_handler
00002370 l     F .text	00000050 hci_rd_auth_payl_to_cmd_handler
000023c0 l     F .text	0000002c llc_hci_le_phy_upd_cmp_evt_send
000023ec l     F .text	0000004c hci_le_rd_phy_cmd_handler
00002438 l     F .text	00000034 llc_hci_version_info_send
0000246c l     F .text	0000000c lld_acl_tx_cfm_handler
00002478 l     F .text	00000058 lld_rpa_renew_instant_cbk
000024ec l     F .text	00000010 llc_rem_llcp_rsp_to_handler
000024fc l     F .text	00000010 llc_loc_llcp_rsp_to_handler
0000250c l     F .text	000000c0 llc_dl_chg_check
000025cc l     F .text	000003f8 lld_adv_ext_pkt_prepare
000029c4 l     F .text	0000001c lld_rpa_renew_evt_canceled_cbk
000029e0 l     F .text	00000094 lld_adv_aux_evt_canceled_cbk
00002a74 l     F .text	000000b4 lld_adv_end
00002b28 l     F .text	0000008a lld_adv_evt_canceled_cbk
00002bb4 l     F .text	00000168 lld_adv_evt_start_cbk
00008540 l     F .text	000000d8 lld_adv_frm_cbk
00002d1c l     F .text	000000dc lld_adv_aux_evt_start_cbk
00403534 l     O .bss	00000080 uart_rx_buf
00400c50 l     O .bss	00000080 XVR_ANALOG_REG_BAK
0000368c l     F .text	0000001a ll_ping_rsp_handler
000036a8 l     F .text	00000048 llc_op_le_ping_ind_handler
0000372c l     F .text	00000020 ll_reject_ind_handler
0000374c l     F .text	00000020 ll_reject_ext_ind_handler
0000376c l     F .text	00000010 ll_unknown_rsp_handler
000038c0 l     F .text	000000d8 hci_le_set_data_len_cmd_handler
00003998 l     F .text	00000070 hci_vs_set_pref_slave_latency_cmd_handler
00003a08 l     F .text	00000090 hci_vs_set_pref_slave_evt_dur_cmd_handler
00003a98 l     F .text	00000080 hci_le_per_adv_sync_transf_cmd_handler
00003b18 l     F .text	000000bc hci_le_per_adv_set_info_transf_cmd_handler
00003bd4 l     F .text	00000074 hci_le_set_per_adv_sync_transf_param_cmd_handler
00003c68 l     F .text	00000124 hci_le_set_phy_cmd_handler
00003d8c l     F .text	00000070 hci_rd_rem_ver_info_cmd_handler
0000564c l     F .text	0000000e llc_ver_proc_err_cb
00003e34 l     F .text	00000054 lld_acl_rx_ind_handler
00003e88 l     F .text	0000004c llc_auth_payl_real_to_handler
00003f2c l     F .text	00000054 hci_wr_auth_payl_to_cmd_handler
00004068 l     F .text	00000190 hci_acl_data_handler
000041f8 l     F .text	0000018c llc_llcp_tx_check
00024908 l     O .rodata	000001a4 llcp_pdu_handler
0000444c l     F .text	0000016c llc_loc_dl_upd_proc_continue
00004614 l     F .text	00000074 ll_length_rsp_handler
00004688 l     F .text	00000064 llc_op_dl_upd_ind_handler
000046ec l     F .text	0000014c ll_length_req_handler
00004838 l     F .text	00000012 ll_ping_req_handler
0000488c l     F .text	00000124 lld_llcp_rx_ind_handler
000049b0 l     F .text	0000046c llc_op_past_ind_handler
00004e1c l     F .text	00000324 llc_loc_phy_upd_proc_continue
000051a0 l     F .text	00000078 ll_phy_rsp_handler
00005218 l     F .text	00000074 llc_op_phy_upd_ind_handler
0000528c l     F .text	000001a4 llc_rem_phy_upd_proc_continue
00005430 l     F .text	0000000e llc_rem_phy_upd_proc_err_cb
00005440 l     F .text	0000009c ll_phy_req_handler
000054dc l     F .text	00000090 ll_phy_update_ind_handler
0000556c l     F .text	00000036 lld_phy_upd_cfm_handler
000055a4 l     F .text	00000020 llc_llcp_version_ind_pdu_send
000055c4 l     F .text	00000088 llc_ver_exch_loc_proc_continue
0000565c l     F .text	00000068 llc_op_ver_exch_ind_handler
000056c4 l     F .text	00000054 ll_version_ind_handler
00005718 l     F .text	00000044 lld_llcp_tx_cfm_handler
0000575c l     F .text	000003b0 llc_past_rx
00005b0c l     F .text	0000005c llc_past_rpa_res_cb
00005b68 l     F .text	000001c0 ll_per_sync_ind_handler
00005d28 l     F .text	000000e0 lld_rpa_renew_evt_start_cbk
00006078 l     F .text	00000420 lld_init
00401268 l     O .bss	00000430 rwip_heap_env
00401698 l     O .bss	00001c6c rwip_heap_msg
004009b4 l     O ke_heap	0000029c rwip_heap_non_ret
00007720 l     F .text	00000530 lld_adv_ext_chain_construct
00007c50 l     F .text	000000a8 lld_adv_adv_data_set
00007cf8 l     F .text	000000dc lld_adv_scan_rsp_data_set
00007dd4 l     F .text	0000076c lld_adv_frm_isr
00400cd0 l     O .bss	00000003 aa_gen
00400d98 l     O .bss	00000001 cmd_status.3
00400da4 l     O .bss	00000004 flash_mid
00400dc8 l     O .bss	00000048 host_cmd_data
00400e10 l     O .bss	00000048 host_event_data
00400e58 l     O .bss	00000002 index.1
00400eb8 l     O .bss	00000002 length.2
00400ec4 l     O .bss	00000002 llc_state
00401238 l     O .bss	00000010 rom_env
00401248 l     O .bss	00000004 rtc_cnt
00403344 l     O .bss	00000001 rx_cmd_count.4
004034d8 l     O .bss	0000000c spi_param
004034e4 l     O .bss	00000001 system_clk
004034e6 l     O .bss	00000001 uart2_rx_done
004034e8 l     O .bss	00000004 uart2_rx_index
004034ec l     O .bss	00000020 uart_cmd.0
0040350c l     O .bss	00000028 uart_env
004035b4 l     O .bss	00000001 uart_rx_done
004035b8 l     O .bss	00000004 uart_rx_index
000246fd l     O .rodata	00000003 LLM_AA_CT1
00024700 l     O .rodata	00000002 LLM_AA_CT2
00024702 l     O .rodata	0000000f RF_RPL_TX_PW_CONV_TBL
00024714 l     O .rodata	0000000c TASK_DESC_LLC
00024818 l     O .rodata	000000f0 llc_msg_handler_tab
00024720 l     O .rodata	0000000a __func__.0
00024740 l     O .rodata	00000005 co_phy_mask_to_rate
00024745 l     O .rodata	00000005 co_phy_mask_to_value
0002474a l     O .rodata	00000004 co_phy_to_rate
0002474e l     O .rodata	00000004 co_phy_value_to_mask
00024752 l     O .rodata	00000004 co_rate_to_phy_mask
00024aac l     O .rodata	00000003 lld_aux_phy_to_rate
00024ad4 l     O .rodata	00000010 uart_api
00000000 l    df *ABS*	00000000 
00008e04 l     F .text	00000028 lld_init_compute_winoffset
00008e2c l     F .text	0000004a lld_init_connect_req_pack
00008e78 l     F .text	00000024 llm_ral_is_empty
00008e9c l     F .text	00000024 llm_activity_syncing_get
00008ec0 l     F .text	00000044 lld_adv_sync_info_update
00008f04 l     F .text	00000012 lld_test_evt_canceled_cbk
00008f18 l     F .text	000000d8 lld_init_evt_start_cbk
0000cb30 l     F .text	000000ac lld_init_frm_cbk
00008ff0 l     F .text	00000078 lld_scan_evt_start_cbk
0000ad3c l     F .text	000000d4 lld_scan_frm_cbk
00009068 l     F .text	00000054 lld_sync_evt_start_cbk
0000e178 l     F .text	00000090 lld_sync_frm_cbk
000090bc l     F .text	00000044 lld_test_evt_start_cbk
0000b2a0 l     F .text	0000005c lld_test_frm_cbk
00009100 l     F .text	0000025c lld_test_rx_isr.part.0
0000935c l     F .text	000001a4 lld_per_adv_evt_start_cbk
0000d294 l     F .text	00000078 lld_per_adv_frm_cbk
00009500 l     F .text	0000003c lld_scan_trunc_ind
00009568 l     F .text	000001e8 lld_init_sched
00009750 l     F .text	0000004e lld_init_evt_canceled_cbk
000097a0 l     F .text	000000c0 lld_scan_end
00009860 l     F .text	00000038 lld_scan_stop
00009898 l     F .text	00000324 lld_scan_sched
00009bbc l     F .text	00000066 lld_scan_evt_canceled_cbk
00009c24 l     F .text	000000e4 lld_scan_sync_accept
00009d08 l     F .text	00000400 lld_init_process_pkt_rx
0000a108 l     F .text	00000b74 lld_scan_process_pkt_rx
0000ac7c l     F .text	000000c0 lld_scan_frm_eof_isr
0000ae10 l     F .text	00000070 llm_adv_set_dft_params
0000ae80 l     F .text	00000420 lld_scan_start.part.0
0000b3e8 l     F .text	00000050 lld_scan_req_ind_handler
0000b438 l     F .text	00000100 llm_adv_set_release
0000b698 l     F .text	00000088 lld_instant_proc_end
0000bfd4 l     F .text	00000498 lld_con_frm_cbk
0000c860 l     F .text	000002d0 lld_init_frm_eof_isr
0000d27c l     F .text	00000016 lld_per_adv_evt_canceled_cbk
0000d584 l     F .text	000002c8 lld_per_adv_start
0000d884 l     F .text	0000005c lld_sync_stop
0000e208 l     F .text	00000038 lld_sync_evt_canceled_cbk
0000e904 l     F .text	00000034 lld_per_adv_end_ind_handler
0000ed78 l     F .text	000004ec lld_adv_end_ind_handler
004035d6 l     O .bss	00000001 llm_state
00024ae4 l     O .rodata	00000007 CSWTCH.74
00024aec l     O .rodata	0000000c TASK_DESC_LLM
00024b38 l     O .rodata	00000090 llm_msg_handler_tab
00024af8 l     O .rodata	00000005 adv_evt_type2prop
00024b16 l     O .rodata	00000008 lld_init_max_aux_dur_tab
00024b1e l     O .rodata	00000007 lld_scan_map_legacy_pdu_to_evt_type
00024b26 l     O .rodata	00000008 lld_scan_max_aux_dur_tab
00024b2e l     O .rodata	00000008 lld_sync_max_aux_dur_tab
00000000 l    df *ABS*	00000000 
0001168c l     F .text	00000028 llm_no_activity
000116b4 l     F .text	000000bc sch_arb_conflict_check
00011770 l     F .text	00000032 co_util_read_array_size
000117a2 l     F .text	0000005e AddBigHex256
00011800 l     F .text	00000054 Add2SelfBigHex256
00011854 l     F .text	00000066 SubtractBigHex256
000118ba l     F .text	0000005c SubtractFromSelfBigHex256
00011918 l     F .text	0000001c h4tl_read_next_out_of_sync
00017a6c l     F .text	000000d0 h4tl_rx_done
00011934 l     F .text	0000000a cmp_dest_id
0001193e l     F .text	0000001c cmp_timer_id
0001195c l     F .text	00000044 llm_is_wl_accessible
000119a0 l     F .text	00000034 llm_is_non_con_act_ongoing_check
000119d4 l     F .text	00000030 hci_evt_mask_set.part.0
00011a04 l     F .text	0000002c AddP256
00011a30 l     F .text	0000012c AddPdiv2_256
00011b5c l     F .text	000000a8 SubtractFromSelfBigHexSign256
00011c04 l     F .text	00000068 rwip_timer_10ms_set
00011f44 l     F .text	000000c8 specialModP256
000123a8 l     F .text	00000030 llc_ch_map_up_proc_err_cb
00012460 l     F .text	00000058 llc_clk_acc_proc_err_cb
00012580 l     F .text	00000038 llc_ll_feature_rsp_pdu_send
000138e0 l     F .text	0000005c hci_acl_tx_data_received
00024c38 l     O .rodata	000007bc ECC_4Win_Look_up_table
00016a7c l     F .text	0000006c llc_loc_con_upd_proc_err_cb
00018312 l     F .text	0000000e llc_disconnect_proc_err_cb
00014370 l     F .text	00000032 llc_aes_res_cb
00018638 l     F .text	00000048 llc_loc_encrypt_proc_err_cb
000172c4 l     F .text	00000058 llc_feats_exch_proc_err_cb
000144f8 l     F .text	00000028 llm_aes_res_cb
0001478c l     F .text	000002bc sch_plan_offset_req
00014c00 l     F .text	000001c4 llc_pref_param_compute
00014dc4 l     F .text	0000002e ke_time
000150b8 l     F .text	00000268 hci_tx_start
000177ec l     F .text	000000bc hci_tx_done
00017b98 l     F .text	00000014 h4tl_tx_done
000254e4 l     O .rodata	000000c0 hci_evt_le_desc_tab
000164e0 l     F .text	000000d8 hci_cmd_reject
000165b8 l     F .text	00000138 hci_cmd_received
0001674c l     F .text	00000128 llc_hci_con_upd_info_send
00016874 l     F .text	00000208 llc_loc_con_upd_proc_continue
00016b74 l     F .text	000001bc llc_rem_con_upd_proc_continue
00016d30 l     F .text	0000002c llc_rem_con_upd_proc_err_cb
000171bc l     F .text	0000003c llc_hci_enc_evt_send
000171f8 l     F .text	00000034 llc_hci_feats_info_send
0001722c l     F .text	00000098 llc_loc_feats_exch_proc_continue
00017928 l     F .text	0000003c h4tl_out_of_sync
00017d5c l     F .text	00000046 aes_encrypt.part.0
00017dbc l     F .text	0000002c llc_iv_skd_rand_gen
00018294 l     F .text	00000074 llc_disconnect_proc_continue
00018308 l     F .text	0000000a llc_ll_terminate_ind_ack
000183c0 l     F .text	0000025c llc_loc_encrypt_proc_continue
0001861c l     F .text	0000001a llc_ll_pause_enc_rsp_ack_handler
000186dc l     F .text	00000288 llc_rem_encrypt_proc_continue
0001897e l     F .text	0000001a llc_ll_reject_ind_ack_handler
00018964 l     F .text	0000001a llc_ll_start_enc_rsp_ack_handler
00018998 l     F .text	00000030 llc_rem_encrypt_proc_err_cb
004035d7 l     O .bss	00000001 FCC_flag
004035d8 l     O .bss	00000004 conflict_elt
004035dc l     O .bss	00000008 hci_fc_env
004035e4 l     O .bss	00000020 hci_tl_env
000253f4 l     O .rodata	00000050 RF_CHANNEL_TABLE
00025444 l     O .rodata	0000001c adv_evt_prop2type
00025460 l     O .rodata	0000002c bigHexP256
0002548c l     O .rodata	00000005 h4tl_msgtype2hdrlen
00025491 l     O .rodata	00000008 hci_def_evt_msk
0002549c l     O .rodata	00000048 hci_evt_desc_tab
000255a4 l     O .rodata	00000008 hci_le_def_dev_msk
000255ac l     O .rodata	00000008 hci_rsvd_evt_msk
000255c4 l     O .rodata	00000008 llm_local_le_states
000255cc l     O .rodata	00000050 veryBigHexP256
00000000 l    df *ABS*	00000000 build/app/src/handler_bim.o
000002d8 l       .text	00000000 _data_init
000002f8 l       .text	00000000 _zi_init
00000000 l    df *ABS*	00000000 rand.c
00000000 l    df *ABS*	00000000 impure.c
00400010 l     O .data	00000428 impure_data
00000000 l    df *ABS*	00000000 memcmp.c
00000000 l    df *ABS*	00000000 memcpy-stub.c
00000000 l    df *ABS*	00000000 memmove.c
00000000 l    df *ABS*	00000000 memset.c
00000000 l    df *ABS*	00000000 vsprintf.c
00000000 l    df *ABS*	00000000 vfprintf.c
00026218 l     O .rodata	00000010 blanks.1
00026228 l     O .rodata	00000010 zeroes.0
00000000 l    df *ABS*	00000000 dtoa.c
0001e528 l     F .text	0000014a quorem
00000000 l    df *ABS*	00000000 mallocr.c
00000000 l    df *ABS*	00000000 localeconv.c
00000000 l    df *ABS*	00000000 mallocr.c
00000000 l    df *ABS*	00000000 memchr-stub.c
00000000 l    df *ABS*	00000000 mlock.c
00000000 l    df *ABS*	00000000 mprec.c
00026478 l     O .rodata	0000000c p05.0
00000000 l    df *ABS*	00000000 s_frexp.c
00000000 l    df *ABS*	00000000 sbrkr.c
00000000 l    df *ABS*	00000000 strlen-stub.c
00000000 l    df *ABS*	00000000 strncpy.c
00000000 l    df *ABS*	00000000 vfprintf.c
000265f0 l     O .rodata	00000010 blanks.1
00026600 l     O .rodata	00000010 zeroes.0
00000000 l    df *ABS*	00000000 assert.c
00000000 l    df *ABS*	00000000 mallocr.c
00000000 l    df *ABS*	00000000 fiprintf.c
00000000 l    df *ABS*	00000000 locale.c
00000000 l    df *ABS*	00000000 lock.c
00000000 l    df *ABS*	00000000 mbtowc_r.c
00000000 l    df *ABS*	00000000 mallocr.c
00000000 l    df *ABS*	00000000 reent.c
00000000 l    df *ABS*	00000000 lib_a-strcmp.o
00000000 l    df *ABS*	00000000 vfprintf.c
00021f58 l     F .text	0000008a __sprint_r.part.0
00022dec l     F .text	00000090 __sbprintf
000267cc l     O .rodata	00000010 blanks.1
000267dc l     O .rodata	00000010 zeroes.0
00000000 l    df *ABS*	00000000 wctomb_r.c
00000000 l    df *ABS*	00000000 wsetup.c
00000000 l    df *ABS*	00000000 abort.c
00000000 l    df *ABS*	00000000 ctype_.c
00000000 l    df *ABS*	00000000 fflush.c
00000000 l    df *ABS*	00000000 findfp.c
00023218 l     F .text	0000001e __fp_lock
00023238 l     F .text	0000001e __fp_unlock
00000000 l    df *ABS*	00000000 fputwc.c
00000000 l    df *ABS*	00000000 fvwrite.c
00000000 l    df *ABS*	00000000 fwalk.c
00000000 l    df *ABS*	00000000 makebuf.c
00000000 l    df *ABS*	00000000 signal.c
00000000 l    df *ABS*	00000000 signalr.c
00000000 l    df *ABS*	00000000 stdio.c
00000000 l    df *ABS*	00000000 wbuf.c
00000000 l    df *ABS*	00000000 wcrtomb.c
00000000 l    df *ABS*	00000000 writer.c
00000000 l    df *ABS*	00000000 closer.c
00000000 l    df *ABS*	00000000 fclose.c
00000000 l    df *ABS*	00000000 fstatr.c
00000000 l    df *ABS*	00000000 isattyr.c
00000000 l    df *ABS*	00000000 lseekr.c
00000000 l    df *ABS*	00000000 readr.c
00000000 l    df *ABS*	00000000 libgcc2.c
00000000 l    df *ABS*	00000000 _thumb1_case_uqi.o
00000000 l    df *ABS*	00000000 _thumb1_case_shi.o
00000000 l    df *ABS*	00000000 _thumb1_case_uhi.o
00000000 l    df *ABS*	00000000 _arm_muldf3.o
00000000 l    df *ABS*	00000000 _udivsi3.o
00000928 l       .text	00000000 .udivsi3_skip_div0_test
00000000 l    df *ABS*	00000000 _divsi3.o
00000a4c l       .text	00000000 .divsi3_skip_div0_test
00000000 l    df *ABS*	00000000 _dvmd_tls.o
00000000 l    df *ABS*	00000000 _arm_addsubdf3.o
00000000 l    df *ABS*	00000000 _arm_muldivdf3.o
00000000 l    df *ABS*	00000000 _arm_cmpdf2.o
00000000 l    df *ABS*	00000000 _arm_unorddf2.o
00000000 l    df *ABS*	00000000 _arm_fixdfsi.o
00000000 l    df *ABS*	00000000 _clzsi2.o
00000000 l    df *ABS*	00000000 _aeabi_uldivmod.o
00000000 l    df *ABS*	00000000 libgcc2.c
00000000 l    df *ABS*	00000000 _clzdi2.o
00000000 l    df *ABS*	00000000 close.c
00000000 l    df *ABS*	00000000 fstat.c
00000000 l    df *ABS*	00000000 getpid.c
00000000 l    df *ABS*	00000000 isatty.c
00000000 l    df *ABS*	00000000 kill.c
00000000 l    df *ABS*	00000000 lseek.c
00000000 l    df *ABS*	00000000 read.c
00000000 l    df *ABS*	00000000 sbrk.c
00403668 l     O .bss	00000004 heap_end.0
00000000 l    df *ABS*	00000000 write.c
00000000 l    df *ABS*	00000000 _exit.c
000243c0 l     F .text	00000008 ____aeabi_uidiv_from_thumb
000243c8 l     F .text	0000000c __SYSirq_IRQ_Handler_from_arm
000243d4 l     F .text	00000008 ____clzsi2_from_thumb
000243dc l     F .text	00000008 ____aeabi_idivmod_from_thumb
000243e4 l     F .text	00000008 ____aeabi_i2d_from_thumb
000243ec l     F .text	00000008 ____aeabi_dcmpgt_from_thumb
000243f4 l     F .text	00000008 ____aeabi_ui2d_from_thumb
000243fc l     F .text	00000008 ____aeabi_dmul_from_thumb
00024404 l     F .text	00000008 ____disable_irq_from_thumb
0002440c l     F .text	00000008 ____clzdi2_from_thumb
00024414 l     F .text	0000000c __SYSirq_FIQ_Handler_from_arm
00024420 l     F .text	0000000c ____aeabi_idiv0_from_arm
0002442c l     F .text	00000008 ____aeabi_uidivmod_from_thumb
00024434 l     F .text	00000008 ____aeabi_dcmple_from_thumb
0002443c l     F .text	0000000c ____aeabi_ldiv0_from_arm
00024448 l     F .text	00000008 ____aeabi_ddiv_from_thumb
00024450 l     F .text	00000008 ____aeabi_dcmpun_from_thumb
00024458 l     F .text	0000000c ____udivmoddi4_from_arm
00024464 l     F .text	00000008 ____enable_fiq_from_thumb
0002446c l     F .text	00000008 ____aeabi_dsub_from_thumb
00024474 l     F .text	0000000c __main_from_arm
00024480 l     F .text	00000008 ____aeabi_dadd_from_thumb
00024488 l     F .text	00000008 ____enable_irq_from_thumb
00024490 l     F .text	00000008 __strcmp_from_thumb
00024498 l     F .text	00000008 ____aeabi_idiv_from_thumb
000244a0 l     F .text	00000008 ____aeabi_dcmplt_from_thumb
000244a8 l     F .text	00000008 ____aeabi_uldivmod_from_thumb
000244b0 l     F .text	00000008 ____disable_fiq_from_thumb
000244b8 l     F .text	00000008 ____aeabi_dcmpeq_from_thumb
000244c0 l     F .text	00000008 ____aeabi_d2iz_from_thumb
00014608 g     F .text	00000020 .hidden ke_state_get
000209a0 g     F .text	00000038 _mprec_log10
00012be6 g     F .text	00000030 .hidden co_list_extract
0000159c g     F .text	00000038 .hidden __aeabi_dcmpun
000076f8 g     F .text	00000028 .hidden lld_ch_idx_get
00020a1c g     F .text	00000054 __any_on
000242a0 g     F .text	00000028 _isatty_r
00026450 g     O .rodata	00000028 __mprec_tinytens
00001554 g     F .text	00000018 .hidden __aeabi_dcmple
00021e58 g     F .text	00000052 cleanup_glue
0000c778 g     F .text	00000028 .hidden lld_con_peer_sca_set
00024340 g     F .text	00000010 _getpid
00400fdc g     O .bss	00000004 .hidden lld_rpa_renew_env.lto_priv.0
00001468 g     F .text	00000088 .hidden __cmpdf2
00012ba4 g     F .text	00000018 .hidden sch_slice_bg_remove
000242c8 g     F .text	0000002c _lseek_r
0000c5ec g     F .text	00000038 .hidden lld_con_event_counter_get
00002dfc g     F .text	00000002 PrefetchAbort_Exception
00001468 g     F .text	00000088 .hidden __eqdf2
00012120 g     F .text	00000014 .hidden hci_set_evt_mask_cmd_handler.lto_priv.0
00400ed8 g     O .bss	000000f0 .hidden lld_env
000121ee g     F .text	00000048 .hidden hci_le_rx_test_v2_cmd_handler
00400000 g       .data	00000000 _data_addr_begin
00000f5c g     F .text	00000060 .hidden __floatdidf
00005efc g     F .text	000000b4 .hidden lld_per_adv_list_add
00023eac g     F .text	0000002c _kill_r
0000035c g     F .text	00000000 __disable_irq
00403648 g     O .bss	00000001 __lock___atexit_recursive_mutex
0001c918 g     F .text	0000003c vsprintf
0001aaa0 g     F .text	00000304 .hidden lld_per_adv_ext_pkt_prepare.constprop.0
00024088 g     F .text	0000004a _wcrtomb_r
0001aa18 g     F .text	0000004c .hidden aes_rpa_gen.constprop.0
0000fd68 g     F .text	00000048 .hidden llm_adv_hdl_to_id
00023c10 g     F .text	0000005c _signal_r
00016ae8 g     F .text	0000008c .hidden ll_connection_param_rsp_handler
0000d84c g     F .text	00000038 .hidden lld_sync_cleanup.lto_priv.0
0001b8d8 g     F .text	00000148 .hidden lld_per_adv_frm_isr.constprop.0
00023f58 g     F .text	00000030 __sseek
000232a8 g     F .text	00000124 __sinit
0001393c g     F .text	00000710 .hidden ecc_multiplication_event_handler.lto_priv.0
00024b14 g     O .rodata	00000001 .hidden latency_disable
00023f98 g     F .text	000000d4 __swbuf_r
00013634 g     F .text	000000d8 .hidden ke_free
0001404c g     F .text	00000074 .hidden ll_min_used_channels_ind_handler
00021958 g     F .text	00000048 _setlocale_r
00400d9c g     O .bss	00000008 .hidden ecc_env
00023258 g     F .text	00000032 __sfmoreglue
0001446c g     F .text	0000008c .hidden hci_le_rd_rem_feats_cmd_handler
0001bae8 g     F .text	0000007c .hidden lld_scan_restart.isra.0
0001ff24 g     F .text	00000014 __malloc_unlock
00400d99 g     O .bss	00000001 .hidden dut_rx_test_state
00015b4c g     F .text	00000478 .hidden lld_per_adv_rep_ind_handler
00012a9c g     F .text	0000005c .hidden hci_init
0000cbdc g     F .text	0000062c .hidden lld_init_start
000003a0 g       .text	00000000 boot_stack_len_IRQ
00403640 g     O .bss	00000001 __lock___arc4random_mutex
00014520 g     F .text	0000000e .hidden ke_msg_send_basic
0001701c g     F .text	0000005c .hidden lld_con_param_upd_cfm_handler
0001c7ac g     F .text	000000ba memmove
00012af8 g     F .text	00000020 .hidden sch_prog_rx_isr
0002328c g     F .text	0000001c _cleanup
0001ff38 g     F .text	00000052 _Balloc
0000358c g     F .text	00000028 .hidden ble_util_buf_acl_tx_free
0001bbbc g     F .text	00000048 .hidden lld_con_tx_len_update_for_intv.isra.0
00015088 g     F .text	00000030 .hidden rwip_prevent_sleep_set
00010eac g     F .text	000000f0 .hidden hci_le_set_per_adv_param_cmd_handler
0001112c g     F .text	000002e4 .hidden hci_le_set_per_adv_en_cmd_handler
00012154 g     F .text	0000000a .hidden llm_ch_map_to_handler.lto_priv.0
00001458 g     F .text	00000098 .hidden __gtdf2
00021a00 g     F .text	00000002 __retarget_lock_close
0001f8fc g     F .text	00000004 __localeconv_l
000131e8 g     F .text	000000c8 .hidden SubtractBigHexMod256
000173d8 g     F .text	00000030 .hidden hci_rd_local_ver_info_cmd_handler.lto_priv.0
0000d208 g     F .text	0000001c .hidden lld_per_adv_cleanup.lto_priv.0
00011c6c g     F .text	00000054 .hidden hci_le_set_per_adv_rec_en_cmd_handler
00024274 g     F .text	0000002c _fstat_r
00002e00 g     F .text	00000002 Reserved_Exception
00403664 g     O .bss	00000004 errno
00017724 g     F .text	00000060 .hidden hci_le_wr_rf_path_comp_cmd_handler.lto_priv.0
00023f10 g     F .text	00000004 __seofread
00017de8 g     F .text	00000060 .hidden aes_rpa_gen_continue.lto_priv.0
000255b4 g     O .rodata	00000008 .hidden llm_local_le_feats.lto_priv.0
000178d8 g     F .text	00000020 .hidden h4tl_read_start.lto_priv.0
0001265c g     F .text	000001c0 .hidden hci_le_add_dev_to_rslv_list_cmd_handler.lto_priv.0
00024730 g     O .rodata	00000010 .hidden co_null_key
00012c16 g     F .text	0000002e .hidden co_list_insert_after
0000150c g     F .text	00000018 .hidden __aeabi_cdcmple
00018e20 g     F .text	00000030 .hidden llm_hci_command_handler
0000b2fc g     F .text	00000050 .hidden hci_le_rd_adv_ch_tx_pw_cmd_handler
00400ebc g     O .bss	00000008 .hidden llc_env
0001341c g     F .text	00000056 .hidden MultiplyBigHexByUint32_256
0001b770 g     F .text	00000084 .hidden lld_test_frm_isr.constprop.0
0000405c g     F .text	0000000c .hidden lld_read_clock
0001bb64 g     F .text	00000058 .hidden lld_con_tx_len_update_for_rate.isra.0
000143a4 g     F .text	000000c8 .hidden hci_le_start_enc_cmd_handler
000123d8 g     F .text	00000030 .hidden lld_ch_map_upd_cfm_handler
00400fe4 g     O .bss	00000008 .hidden lld_sync_env
00015020 g     F .text	00000068 .hidden hci_le_set_addr_resol_en_cmd_handler.lto_priv.0
0001260c g     F .text	00000050 .hidden ll_slave_feature_req_handler
0000c660 g     F .text	0000003c .hidden lld_con_rx_enc
00400fd4 g     O .bss	00000008 .hidden lld_per_adv_env.lto_priv.0
000170fc g     F .text	000000c0 .hidden llc_stopped_ind_handler
0001ada4 g     F .text	000001b8 .hidden sch_prog_push.constprop.0
000174d8 g     F .text	00000034 .hidden hci_le_rd_local_supp_feats_cmd_handler.lto_priv.0
000177bc g     F .text	00000030 .hidden hci_le_rd_max_data_len_cmd_handler.lto_priv.0
0000b538 g     F .text	00000064 .hidden lld_con_max_lat_calc.lto_priv.0
00003160 g     F .text	000003b8 SYSirq_FIQ_Handler
0000ffc4 g     F .text	000000b0 .hidden hci_le_set_scan_rsp_data_cmd_handler
004034d0 g     O .bss	00000008 .hidden sch_slice_params
0000034c g     F .text	00000000 __enable_irq
0001c704 g     F .text	000000a6 memcpy
0001b7f4 g     F .text	000000e4 .hidden lld_sync_frm_eof_isr.constprop.0
0001b0b0 g     F .text	00000064 .hidden llc_cleanup.constprop.0
0001ba20 g     F .text	000000a4 .hidden lld_con_frm_isr.constprop.0
000014f0 g     F .text	00000034 .hidden __aeabi_cdrcmple
00023204 g     F .text	00000014 _cleanup_r
0001c980 g     F .text	00001ba8 _svfprintf_r
00000ed8 g     F .text	00000028 .hidden __floatsidf
000120f0 g     F .text	00000030 .hidden hci_le_set_evt_mask_cmd_handler.lto_priv.0
0000c69c g     F .text	00000098 .hidden lld_con_enc_key_load
00001460 g     F .text	00000090 .hidden __ltdf2
0000d904 g     F .text	00000404 .hidden lld_sync_process_pkt_rx.lto_priv.0
00012c44 g     F .text	0000001a .hidden co_bdaddr_compare
00001678 g     F .text	00000000 .hidden __aeabi_uldivmod
004035bc g     O .bss	0000001a .hidden hci_env
000174ac g     F .text	0000002c .hidden hci_le_rd_buff_size_cmd_handler.lto_priv.0
00020934 g     F .text	0000006c __ratio
00024abf g     O .rodata	00000014 .hidden rwip_priority
0001b07c g     F .text	00000034 .hidden llc_hci_dl_upd_info_send.constprop.0
004035b5 g     O .bss	00000001 .hidden uart_rx_en
00012c60 g     F .text	00000088 .hidden hci_le_set_rand_addr_cmd_handler.lto_priv.0
00000928 g     F .text	000000fc .hidden __udivsi3
00400ec8 g     O .bss	00000008 .hidden lld_adv_env.lto_priv.0
00023c6c g     F .text	00000062 _raise_r
00024330 g     F .text	00000010 _fstat
00021870 g     F .text	00000040 __assert_func
00026388 g     O .rodata	000000c8 __mprec_tens
0000b59c g     F .text	000000fc .hidden lld_con_evt_time_update.lto_priv.0
0001731c g     F .text	00000054 .hidden ll_feature_rsp_handler
00024b06 g     O .rodata	00000005 .hidden co_rate_to_phy
00012a58 g     F .text	00000044 .hidden hci_le_clear_rslv_list_cmd_handler.lto_priv.0
0000c7a0 g     F .text	000000c0 .hidden lld_init_end.lto_priv.0
00017670 g     F .text	00000034 .hidden hci_le_rd_supp_states_cmd_handler.lto_priv.0
00014628 g     F .text	00000030 .hidden rwip_time_get
00400c50 g       .bss	00000000 _bss_start
00005140 g     F .text	00000060 .hidden llc_loc_phy_upd_proc_err_cb.lto_priv.0
00403638 g     O .bss	00000004 __malloc_top_pad
000131a8 g     F .text	00000040 .hidden AddBigHexModP256
00023ed8 g     F .text	0000000c _getpid_r
00000eb4 g     F .text	00000024 .hidden __aeabi_ui2d
0001421c g     F .text	000000d4 .hidden llc_con_move_cbk
0001f900 g     F .text	00000008 _localeconv_r
00003704 g     F .text	00000028 .hidden llc_proc_err_ind
000236d4 g     F .text	0000031c __sfvwrite_r
00020194 g     F .text	00000064 __i2b
00023cd0 g     F .text	00000068 __sigtramp_r
00017554 g     F .text	00000068 .hidden hci_le_rd_peer_rslv_addr_cmd_handler.lto_priv.0
000016b4 g     F .text	0000019a .hidden __udivmoddi4
00000b98 g     F .text	00000000 .hidden __aeabi_drsub
00020ad8 g     F .text	00000028 _sbrk_r
000038a0 g     F .text	00000020 .hidden llc_cmd_cmp_send
00012948 g     F .text	00000064 .hidden hci_le_rmv_dev_from_wlst_cmd_handler.lto_priv.0
000036f0 g     F .text	00000014 .hidden llc_proc_get
0001a87c g     F .text	00000130 .hidden llc_loc_ch_map_proc_continue.constprop.0
000178a8 g     F .text	00000030 .hidden rwip_prevent_sleep_clear
000242f4 g     F .text	0000002c _read_r
000035f8 g     F .text	00000048 .hidden llc_llcp_trans_timer_set.lto_priv.0
00000394 g       .text	00000000 boot_stack_base_FIQ
0000065c g     F .text	00000012 .hidden __gnu_thumb1_case_uqi
0000153c g     F .text	00000018 .hidden __aeabi_dcmplt
00024178 g     F .text	000000e2 _fclose_r
00018680 g     F .text	0000005c .hidden llc_op_encrypt_ind_handler
0000ec94 g     F .text	000000ac .hidden hci_le_rmv_dev_from_per_adv_list_cmd_handler
00023188 g     F .text	0000007c fflush
00403630 g     O .bss	00000004 __malloc_max_sbrked_mem
0001a730 g     F .text	00000040 .hidden ke_queue_extract
00016258 g     F .text	00000080 .hidden lld_conless_cte_rx_ind_handler
00011d20 g     F .text	00000044 .hidden llm_FCC_test_mode_start_rx
00016d5c g     F .text	00000118 .hidden ll_connection_update_ind_handler
00000f00 g     F .text	00000048 .hidden __extendsfdf2
0000124c g     F .text	0000020c .hidden __aeabi_ddiv
00000ba4 g     F .text	00000310 .hidden __adddf3
00010510 g     F .text	000000cc .hidden hci_le_set_adv_set_rand_addr_cmd_handler
000175bc g     F .text	00000068 .hidden hci_le_rd_loc_rslv_addr_cmd_handler.lto_priv.0
0002078c g     F .text	000000cc __b2d
00014658 g     F .text	0000008c .hidden sch_alarm_prog.lto_priv.0
0001287c g     F .text	00000068 .hidden hci_le_set_priv_mode_cmd_handler.lto_priv.0
00403650 g     O .bss	00000001 __lock___env_recursive_mutex
00000fbc g     F .text	00000290 .hidden __aeabi_dmul
00024350 g     F .text	00000010 _isatty
00013472 g     F .text	0000001a .hidden notEqual256
0040365c g     O .bss	00000001 __lock___sinit_recursive_mutex
00026064 g     O .rodata	00000004 _global_impure_ptr
00000608 g     F .text	00000054 .hidden __aeabi_lmul
0001b144 g     F .text	0000004c .hidden sch_slice_init.constprop.0
00012408 g     F .text	00000058 .hidden llc_op_ch_map_upd_ind_handler
00021a70 g     F .text	000003e6 _realloc_r
0001c2c4 g     F .text	000003a8 .hidden lld_init_end_ind_handler
000235f4 g     F .text	00000064 _fputwc_r
00026360 g     O .rodata	00000028 __mprec_bigtens
0002004c g     F .text	000000b4 __s2b
00022f9c g     F .text	0000000e abort
00000eb4 g     F .text	00000024 .hidden __floatunsidf
00400fc8 g     O .bss	00000008 .hidden lld_exp_sync_pos_tab
0000b8f8 g     F .text	000000ec .hidden lld_con_cleanup.lto_priv.0
0001b32c g     F .text	000003de .hidden GF_Jacobian_Point_Addition256.isra.0
00024390 g     F .text	0000001c _sbrk
0002057c g     F .text	00000038 __mcmp
0001b190 g     F .text	00000034 .hidden ke_task_create.isra.0
0000e494 g     F .text	000003ea .hidden lld_test_start
00012134 g     F .text	00000020 .hidden hci_set_evt_mask_page_2_cmd_handler.lto_priv.0
00004384 g     F .text	0000004c .hidden llc_llcp_state_set
000234f8 g     F .text	00000024 __fp_lock_all
0001af5c g     F .text	00000044 .hidden llc_le_ping_proc_continue.constprop.0
00012bbc g     F .text	00000016 .hidden co_list_push_back
00011474 g     F .text	000000b4 .hidden hci_le_set_conless_cte_tx_param_cmd_handler
0000c56c g     F .text	00000080 .hidden lld_con_phys_update
00019394 g     F .text	0000011e .hidden hci_le_adv_report_evt_pkupk.lto_priv.0
00014aac g     F .text	00000034 .hidden lld_con_estab_ind_handler
00001ffc g     F .text	0000001c .hidden platform_reset
000129ac g     F .text	000000ac .hidden hci_le_add_dev_to_wlst_cmd_handler.lto_priv.0
0001200c g     F .text	000000e4 .hidden lld_sync_start_req_handler
0001355c g     F .text	000000d8 .hidden ke_malloc
0040366c g       .bss	00000000 _bss_end
00012b18 g     F .text	0000008c .hidden sch_slice_compute
000128f8 g     F .text	00000050 .hidden hci_le_clear_wlst_cmd_handler.lto_priv.0
0001afa0 g     F .text	00000024 .hidden llc_hci_nb_cmp_pkts_evt_send.constprop.0
0000039c g       .text	00000000 boot_stack_base_IRQ
0000bdbc g     F .text	00000218 .hidden lld_con_tx_prog.lto_priv.0
004034e5 g     O .bss	00000001 .hidden time_msb.lto_priv.0
00018c00 g     F .text	00000050 .hidden ll_start_enc_rsp_handler
00012d18 g     F .text	00000218 .hidden co_util_pack
00011528 g     F .text	00000154 .hidden hci_le_set_conless_cte_tx_en_cmd_handler
00021eac g     F .text	000000aa _reclaim_reent
0001750c g     F .text	00000024 .hidden hci_le_rd_wl_size_cmd_handler.lto_priv.0
00013172 g     F .text	00000034 .hidden co_ble_pkt_dur_in_us
00020100 g     F .text	00000036 __hi0bits
000189c8 g     F .text	00000064 .hidden ll_pause_enc_req_handler
000015d4 g     F .text	0000005c .hidden __fixdfsi
00011f00 g     F .text	00000044 .hidden hci_le_wr_suggted_dft_data_len_cmd_handler.lto_priv.0
00403654 g     O .bss	00000001 __lock___malloc_recursive_mutex
00010908 g     F .text	000005a4 .hidden hci_le_set_ext_adv_en_cmd_handler
00012236 g     F .text	00000052 .hidden hci_le_tx_test_v2_cmd_handler
0001167c g     F .text	00000010 .hidden llm_new_host_class_to_handler.lto_priv.0
0000033c g       .text	00000000 __fiq_handler
00012bd2 g     F .text	00000014 .hidden co_list_pop_front
000043d0 g     F .text	0000007c .hidden llc_llcp_send
0000f264 g     F .text	00000180 .hidden llm_init
0000f5c4 g     F .text	00000044 .hidden llm_activity_free_get
00015fc4 g     F .text	00000224 .hidden lld_per_adv_rx_end_ind_handler
00000ba4 g     F .text	00000310 .hidden __aeabi_dadd
00001460 g     F .text	00000090 .hidden __ledf2
000176ec g     F .text	00000038 .hidden hci_le_rd_rf_path_comp_cmd_handler.lto_priv.0
0001a7c0 g     F .text	000000bc .hidden llc_loc_clk_acc_proc_continue.constprop.0
0001281c g     F .text	00000060 .hidden hci_le_rmv_dev_from_rslv_list_cmd_handler.lto_priv.0
00017624 g     F .text	0000004c .hidden hci_le_rand_cmd_handler.lto_priv.0
000203a0 g     F .text	000000dc __pow5mult
00000f48 g     F .text	00000074 .hidden __aeabi_ul2d
00014e58 g     F .text	000000c4 .hidden ke_timer_set
0000f710 g     F .text	000001e8 .hidden hci_le_set_scan_en_cmd_handler
00008618 g     F .text	00000050 .hidden lld_rpa_renew.part.0
0000603c g     F .text	0000003c .hidden lld_res_list_clear
0000b38c g     F .text	0000005c .hidden hci_le_rd_nb_supp_adv_sets_cmd_handler
000154ac g     F .text	0000003c .hidden hci_le_rd_per_adv_list_size_cmd_handler
0040366c g       .bss	00000000 end
0000d30c g     F .text	00000210 .hidden lld_per_adv_chain_construct.lto_priv.0
00000a44 g     F .text	00000000 .hidden __aeabi_idiv
00400fd0 g     O .bss	00000004 .hidden lld_init_env.lto_priv.0
00011d64 g     F .text	00000040 .hidden llm_FCC_test_mode_set_power
0001a6cc g     F .text	00000064 .hidden hci_look_for_cmd_desc
00021a1c g     F .text	00000002 __retarget_lock_release_recursive
0000ea08 g     F .text	0000006c .hidden hci_le_clear_per_adv_list_cmd_handler
00000380 g     F .text	00000000 __disable_fiq
00014530 g     F .text	00000070 .hidden ke_state_set
00021a14 g     F .text	00000004 __retarget_lock_try_acquire_recursive
00005e98 g     F .text	00000064 .hidden lld_white_list_rem
0001b018 g     F .text	00000064 .hidden lld_con_data_len_update.constprop.0
0040124c g     O .bss	0000001c .hidden rwip_env
0000eaf8 g     F .text	00000058 .hidden llm_is_dev_synced
00001584 g     F .text	00000018 .hidden __aeabi_dcmpgt
00001630 g     F .text	00000048 .hidden __clzsi2
00017078 g     F .text	00000084 .hidden llc_op_con_upd_ind_handler
00018cb4 g     F .text	000000a4 .hidden hci_le_ltk_req_neg_reply_cmd_handler
000234a8 g     F .text	00000014 __sfp_lock_acquire
0001fe98 g     F .text	00000078 memchr
0001aa64 g     F .text	0000003c .hidden lld_per_adv_data_set.constprop.0
0000fdb0 g     F .text	00000164 .hidden hci_le_set_adv_param_cmd_handler
00005fb0 g     F .text	0000008c .hidden lld_per_adv_list_rem
00000140 g       .text	00000000 _reset_handler
00014df4 g     F .text	00000064 .hidden ke_timer_schedule.lto_priv.0
0001f734 g     F .text	000001c8 _free_r
0001a770 g     F .text	00000050 .hidden llc_con_upd_param_in_range.constprop.0
00000670 g     F .text	00000014 .hidden __gnu_thumb1_case_shi
000219a0 g     F .text	00000010 __locale_mb_cur_max
0000e89c g     F .text	00000068 .hidden hci_le_clear_adv_sets_cmd_handler
0000156c g     F .text	00000018 .hidden __aeabi_dcmpge
00400e88 g     O .bss	00000024 .hidden ke_event_env.lto_priv.0
00000ba0 g     F .text	00000314 .hidden __aeabi_dsub
00400840 g     O .data	00000004 __malloc_sbrk_base
0000ea90 g     F .text	00000068 .hidden llm_is_dev_connected
00000000 g       *ABS*	00000000 _vector_start
00016394 g     F .text	00000028 .hidden lld_test_end_ind_handler
00021a10 g     F .text	00000004 __retarget_lock_try_acquire
00000f48 g     F .text	00000074 .hidden __floatundidf
0000e240 g     F .text	0000023c .hidden lld_sync_start.part.0
0001c680 g     F .text	00000038 rand
00024370 g     F .text	00000010 _lseek
0002047c g     F .text	00000100 __lshift
00003ed4 g     F .text	00000058 .hidden llc_le_ping_set
00023da0 g     F .text	00000058 signal
00020bd4 g     F .text	00000118 __ssprint_r
000179c4 g     F .text	000000a8 .hidden h4tl_acl_hdr_rx_evt_handler.lto_priv.0
000163bc g     F .text	00000124 .hidden hci_le_test_end_cmd_handler
0000e9c0 g     F .text	00000048 .hidden hci_le_per_adv_term_sync_cmd_handler
00016360 g     F .text	00000034 .hidden llm_encrypt_ind_handler.lto_priv.0
0040336c g     O .bss	00000144 .hidden sch_prog_env.lto_priv.0
00403364 g     O .bss	00000008 .hidden sch_plan_env.lto_priv.0
000201f8 g     F .text	000001a8 __multiply
00020b60 g     F .text	00000074 strncpy
00403608 g     O .bss	00000028 __malloc_current_mallinfo
000194b2 g     F .text	00000126 .hidden hci_le_dir_adv_report_evt_pkupk.lto_priv.0
00020858 g     F .text	000000dc __d2b
0001bac4 g     F .text	00000022 .hidden llm_adv_con_len_check.isra.0
00014118 g     F .text	00000104 .hidden hci_le_con_upd_cmd_handler
00017530 g     F .text	00000024 .hidden hci_le_rd_rslv_list_size_cmd_handler.lto_priv.0
00003640 g     F .text	00000034 .hidden llc_proc_reg
00024756 g     O .rodata	00000010 .hidden co_sca2ppm
0000d51c g     F .text	00000068 .hidden lld_per_adv_ant_switch_config.lto_priv.0
00018b44 g     F .text	00000070 .hidden ll_enc_rsp_handler
00014a48 g     F .text	00000064 .hidden sch_plan_set
00024aaf g     O .rodata	00000010 .hidden one_bits
0000f3e4 g     F .text	000001e0 .hidden llm_ch_map_update
00024150 g     F .text	00000028 _close_r
00000ed8 g     F .text	00000028 .hidden __aeabi_i2d
00002dfa g     F .text	00000002 SoftwareInterrupt_Exception
00400e5c g     O .bss	0000002c .hidden ke_env
0001c6b8 g     F .text	0000004a memcmp
0000351c g     F .text	00000028 .hidden ble_util_buf_llcp_tx_free
00003fdc g     F .text	00000048 .hidden lld_rxdesc_free
00021a04 g     F .text	00000002 __retarget_lock_close_recursive
00400ce0 g     O .bss	000000b8 .hidden ble_util_buf_env.lto_priv.0
00003518 g     F .text	00000004 Irq_Exception
0002472a g     O .rodata	00000006 .hidden co_null_bdaddr
0000e47c g     F .text	00000018 .hidden lld_test_cleanup.lto_priv.0
00022eb4 g     F .text	000000e8 __swsetup_r
00000b94  w    F .text	00000002 .hidden __aeabi_ldiv0
000128e4 g     F .text	00000014 .hidden hci_reset_cmd_handler.lto_priv.0
000142f0 g     F .text	00000080 .hidden hci_disconnect_cmd_handler
0000124c g     F .text	0000020c .hidden __divdf3
000233cc g     F .text	000000dc __sfp
00000398 g       .text	00000000 boot_stack_len_FIQ
000209d8 g     F .text	00000042 __copybits
00007420 g     F .text	00000138 .hidden rwip_reset
00017c70 g     F .text	000000bc .hidden rwip_aes_encrypt
00400438 g     O .data	00000408 __malloc_av_
000102c4 g     F .text	0000024c .hidden hci_le_set_ext_adv_param_cmd_handler
000234e4 g     F .text	00000014 __sinit_lock_release
000178f8 g     F .text	00000030 .hidden h4tl_cmd_pld_rx_evt_handler.lto_priv.0
00016e74 g     F .text	000000d0 .hidden ll_connection_param_req_handler
000003a8 g       .text	00000000 boot_stack_len_SVC
00000fbc g     F .text	00000290 .hidden __muldf3
00023ee4 g     F .text	0000002c __sread
00012538 g     F .text	00000048 .hidden ll_clk_acc_req_handler
00018320 g     F .text	00000068 .hidden llc_op_disconnect_ind_handler
0000b9e4 g     F .text	000003a4 .hidden lld_con_sched.lto_priv.0
0001ff10 g     F .text	00000014 __malloc_lock
000075d8 g     F .text	00000120 .hidden lld_calc_aux_rx
0000c510 g     F .text	0000005c .hidden lld_con_ch_map_update
00023118 g     F .text	00000070 _fflush_r
000218bc g     F .text	0000005e _calloc_r
00011cc0 g     F .text	00000060 .hidden llm_FCC_test_mode_start_tx
00003878 g     F .text	00000026 .hidden llc_proc_collision_check
00021a0c g     F .text	00000002 __retarget_lock_acquire_recursive
0001370c g     F .text	000000d8 .hidden ke_task_schedule.lto_priv.0
00018bb4 g     F .text	0000004c .hidden ll_start_enc_req_handler
000035b4 g     F .text	00000014 .hidden ble_util_buf_adv_tx_alloc
00400fe0 g     O .bss	00000004 .hidden lld_scan_env.lto_priv.0
0001c868 g     F .text	000000ae memset
00008d5c g     F .text	00000054 .hidden lld_adv_adv_data_update
00006498 g     F .text	00000f88 main
0001632c g     F .text	00000034 .hidden llm_dh_key_gen_ind_handler.lto_priv.0
0000eb50 g     F .text	00000020 .hidden llm_dev_list_empty_entry
00010074 g     F .text	00000250 .hidden hci_le_set_adv_en_cmd_handler
00403634 g     O .bss	00000004 __malloc_max_total_mem
00400eac g     O .bss	0000000c .hidden ke_task_env.lto_priv.0
000219fc g     F .text	00000002 __retarget_lock_init_recursive
0002406c g     F .text	0000001c __swbuf
0001c66c g     F .text	00000014 srand
0001bc04 g     F .text	000000c8 .hidden lld_con_data_flow_set.isra.0
00017408 g     F .text	00000034 .hidden hci_rd_bd_addr_cmd_handler.lto_priv.0
0000953c g     F .text	0000002c .hidden llm_adv_rpa_gen_cb.lto_priv.0
00000928 g     F .text	00000000 .hidden __aeabi_uidiv
0001821c g     F .text	00000078 .hidden llc_disconnect
000176a4 g     F .text	00000048 .hidden hci_le_rd_tx_pwr_cmd_handler.lto_priv.0
00023f88 g     F .text	00000010 __sclose
00016fc8 g     F .text	00000054 .hidden hci_le_rem_con_param_req_neg_reply_cmd_handler
00400c50 g       .bss	00000000 _data_addr_end
00003674 g     F .text	00000018 .hidden llc_proc_id_get
0002425c g     F .text	00000018 fclose
00014f4c g     F .text	0000006c .hidden ke_timer_clear
000121a4 g     F .text	0000004a .hidden hci_le_tx_test_v1_cmd_handler
0001e674 g     F .text	0000101e _dtoa_r
0001f910 g     F .text	00000588 _malloc_r
00022e98 g     F .text	0000001c __ascii_wctomb
0000c46c g     F .text	000000a4 .hidden lld_con_param_update
00014b38 g     F .text	000000c8 .hidden sch_plan_req
00400ed0 g     O .bss	00000008 .hidden lld_con_env.lto_priv.0
00000f5c g     F .text	00000060 .hidden __aeabi_l2d
000154e8 g     F .text	00000184 .hidden hci_le_set_conless_iq_sampl_en_cmd_handler
000003ac g       .text	00000000 boot_stack_base_UNUSED
0002191c g     F .text	00000018 _fiprintf_r
0000fc68 g     F .text	00000100 .hidden hci_le_per_adv_create_sync_cmd_handler
00023df8 g     F .text	00000040 _init_signal
000239f0 g     F .text	00000048 _fwalk
00003544 g     F .text	00000048 .hidden ble_util_buf_rx_free
000003b0 g       .text	00000000 boot_stack_len_UNUSED
00012ce8 g     F .text	00000030 .hidden co_nb_good_le_channels
000146e4 g     F .text	000000a8 .hidden sch_arb_prog_timer.lto_priv.0
00021a20 g     F .text	00000022 _mbtowc_r
00000a44 g     F .text	00000130 .hidden __divsi3
000125b8 g     F .text	00000054 .hidden ll_feature_req_handler
0001f694 g     F .text	000000a0 _malloc_trim_r
00007558 g     F .text	00000080 .hidden lld_aa_gen
0000484c g     F .text	00000040 .hidden llc_ll_reject_ind_pdu_send
00400da8 g     O .bss	00000020 .hidden h4tl_env.lto_priv.0
000003e4 g     F .text	00000224 strcmp
00017ee4 g     F .text	00000338 .hidden sch_arb_insert
0000f8f8 g     F .text	00000100 .hidden hci_le_set_ext_scan_param_cmd_handler
00017b3c g     F .text	0000005c .hidden h4tl_tx_evt_handler.lto_priv.0
00022dd0 g     F .text	0000001c vfiprintf
00018388 g     F .text	00000038 .hidden ll_terminate_ind_handler
000219f8 g     F .text	00000002 __retarget_lock_init
00001468 g     F .text	00000088 .hidden __nedf2
00012288 g     F .text	0000008c .hidden hci_le_rx_test_v3_cmd_handler
00017964 g     F .text	00000060 .hidden h4tl_cmd_hdr_rx_evt_handler.lto_priv.0
00008ce4 g     F .text	00000078 .hidden lld_adv_stop
00012160 g     F .text	00000044 .hidden hci_le_rx_test_v1_cmd_handler
0000e938 g     F .text	00000088 .hidden hci_le_per_adv_create_sync_cancel_cmd_handler
0040363c g     O .bss	00000004 _PathLocale
0000e880 g     F .text	0000001c .hidden llm_cmd_cmp_send
00024b14 g     O .rodata	00000001 .hidden enable_phy_2m
00017370 g     F .text	00000068 .hidden llc_op_feats_exch_ind_handler
0001a9ac g     F .text	0000006c .hidden llc_rem_ch_map_proc_continue.constprop.0
00024124 g     F .text	0000002c _write_r
0000031c g       .text	00000000 __irq_handler
0001c954 g     F .text	0000002c _vsprintf_r
00016f44 g     F .text	00000084 .hidden hci_le_rem_con_param_req_reply_cmd_handler
000219b0 g     F .text	00000048 setlocale
0000377c g     F .text	00000054 .hidden llc_proc_timer_set
00003f80 g     F .text	0000005c .hidden lld_ral_search
00400008 g     O .data	00000004 _impure_ptr
0001afc4 g     F .text	00000054 .hidden lld_con_tx_len_update.constprop.0
0000b34c g     F .text	00000040 .hidden hci_le_rd_max_adv_data_len_cmd_handler
0000ea74 g     F .text	0000001c .hidden llm_cmd_stat_send
00022fac g     F .text	0000016c __sflush_r
00400ff4 g     O .bss	00000244 .hidden llm_env
0001348c g     F .text	00000034 .hidden ke_event_set
00020cec g     F .text	00000b84 _svfiprintf_r
000124b8 g     F .text	00000048 .hidden llc_op_clk_acc_ind_handler
000134f4 g     F .text	00000068 .hidden ke_mem_init
00021a44 g     F .text	0000002c __ascii_mbtowc
00020744 g     F .text	00000048 __ulp
0002351c g     F .text	00000024 __fp_unlock_all
00012f30 g     F .text	00000242 .hidden co_util_unpack
00000370 g     F .text	00000000 __enable_fiq
000105dc g     F .text	000001b4 .hidden hci_le_set_ext_adv_data_cmd_handler
00011da4 g     F .text	0000008c .hidden llm_test_hopping_mode_tx
00403310 g     O .bss	00000034 .hidden rwip_rf
000045b8 g     F .text	0000005c .hidden llc_dle_proc_err_cb.lto_priv.0
0000d224 g     F .text	00000058 .hidden lld_per_adv_sched.lto_priv.0
0000c734 g     F .text	00000044 .hidden lld_con_offset_get
00008668 g     F .text	0000067c .hidden lld_adv_start
00403348 g     O .bss	00000008 .hidden sch_alarm_env.lto_priv.0
000197ba g     F .text	0000018e .hidden hci_le_conless_iq_report_evt_pkupk.lto_priv.0
000137e4 g     F .text	00000032 .hidden ke_msg_alloc
00008db0 g     F .text	00000054 .hidden lld_adv_scan_rsp_data_update
00400cd4 g     O .bss	0000000c .hidden aes_env
0001f908 g     F .text	00000008 localeconv
00018a2c g     F .text	00000054 .hidden ll_pause_enc_rsp_handler
00023b74 g     F .text	00000064 __swhatbuf_r
00003dfc g     F .text	00000038 .hidden llc_le_ping_restart
00000a24 g     F .text	00000020 .hidden __aeabi_uidivmod
00001524 g     F .text	00000018 .hidden __aeabi_dcmpeq
0000ebac g     F .text	000000e8 .hidden hci_le_add_dev_to_per_adv_list_cmd_handler
00017bac g     F .text	000000c4 .hidden hci_le_mod_sleep_clk_acc_cmd_handler.lto_priv.0
000243ac g     F .text	00000010 _write
0001b70c g     F .text	00000064 .hidden sch_arb_remove.isra.0
0000f9f8 g     F .text	00000270 .hidden hci_le_set_ext_scan_en_cmd_handler
0000eb70 g     F .text	0000003c .hidden llm_dev_list_search
0001bccc g     F .text	000005f8 .hidden llc_start.isra.0
00010790 g     F .text	00000178 .hidden hci_le_set_ext_scan_rsp_data_cmd_handler
004034b0 g     O .bss	00000020 .hidden sch_slice_env.lto_priv.0
00023540 g     F .text	000000b4 __fputwc
00002dfe g     F .text	00000002 DataAbort_Exception
00403644 g     O .bss	00000001 __lock___at_quick_exit_mutex
00005e08 g     F .text	00000090 .hidden lld_white_list_add
00011ed0 g     F .text	00000030 .hidden hci_le_set_rslv_priv_addr_to_cmd_handler.lto_priv.0
000132b0 g     F .text	0000016c .hidden MultiplyBigHexModP256
00018c50 g     F .text	00000064 .hidden hci_le_ltk_req_reply_cmd_handler
0000b720 g     F .text	000001d8 .hidden lld_con_evt_start_cbk.lto_priv.0
000268f8 g       .data	00000000 data_load_begin
000138a8 g     F .text	00000038 .hidden ke_msg_send
00011e68 g     F .text	00000024 .hidden hci_host_buf_size_cmd_handler.lto_priv.0
00023f14 g     F .text	00000044 __swrite
00400844 g     O .data	00000004 __malloc_trim_threshold
00021934 g     F .text	00000024 fiprintf
00012500 g     F .text	00000038 .hidden ll_clk_acc_rsp_handler
00021ffc g     F .text	00000dd4 _vfiprintf_r
00017ebc g     F .text	00000028 .hidden rwip_sw_int_req
00023a38 g     F .text	00000050 _fwalk_reent
000205b4 g     F .text	00000190 __mdiff
00017d2c g     F .text	00000030 .hidden aes_start
000015d4 g     F .text	0000005c .hidden __aeabi_d2iz
0000d8e0 g     F .text	00000024 .hidden lld_sync_trunc_ind.lto_priv.0
00011e30 g     F .text	00000038 .hidden hci_set_ctrl_to_host_flow_ctrl_cmd_handler.lto_priv.0
000166f0 g     F .text	0000005c .hidden hci_le_rd_chnl_map_cmd_handler
00024360 g     F .text	00000010 _kill
00011e8c g     F .text	00000044 .hidden hci_host_nb_cmp_pkts_cmd_handler.lto_priv.0
0001566c g     F .text	000004e0 .hidden lld_adv_rep_ind_handler
00017da4 g     F .text	00000018 .hidden hci_le_enc_cmd_handler.lto_priv.0
000268f8 g       *ABS*	00000000 _data_load_begin
000234bc g     F .text	00000014 __sfp_lock_release
00400ff0 g     O .bss	00000004 .hidden lld_test_env.lto_priv.0
000161e8 g     F .text	00000070 .hidden lld_scan_end_ind_handler
00400000 g     O .data	00000006 .hidden co_default_bdaddr
00011410 g     F .text	00000064 .hidden hci_le_rmv_adv_set_cmd_handler
000195d8 g     F .text	000001e2 .hidden hci_le_ext_adv_report_evt_pkupk.lto_priv.0
00403304 g     O .bss	0000000c .hidden rwip_param
00017784 g     F .text	00000038 .hidden hci_le_rd_suggted_dft_data_len_cmd_handler.lto_priv.0
000140c0 g     F .text	00000058 .hidden llm_ch_map_update_ind_handler
0000bd88 g     F .text	00000034 .hidden lld_con_evt_canceled_cbk.lto_priv.0
000267ec g     O .rodata	00000101 _ctype_
00014ae0 g     F .text	00000058 .hidden lld_con_offset_upd_ind_handler
00024380 g     F .text	00000010 _read
0000f608 g     F .text	00000108 .hidden hci_le_set_scan_param_cmd_handler
00000b94  w    F .text	00000002 .hidden __aeabi_idiv0
00021a08 g     F .text	00000002 __retarget_lock_acquire
0000159c g     F .text	00000038 .hidden __unorddf2
000255bc g     O .rodata	00000008 .hidden llm_local_le_feats1.lto_priv.0
00021a18 g     F .text	00000002 __retarget_lock_release
000037d0 g     F .text	00000054 .hidden llc_proc_unreg
000243bc g     F .text	00000002 _exit
0001b1c4 g     F .text	00000168 .hidden GF_Jacobian_Point_Double256.isra.0
0000c624 g     F .text	0000003c .hidden lld_con_tx_enc
00000608 g     F .text	00000054 .hidden __muldi3
00019948 g     F .text	000001a8 .hidden hci_le_con_iq_report_evt_pkupk.lto_priv.0
0040364c g     O .bss	00000001 __lock___dd_hash_mutex
00023a88 g     F .text	000000ec __smakebuf_r
00403660 g     O .bss	00000001 __lock___tz_mutex
00003c48 g     F .text	00000020 .hidden llc_cmd_stat_send
00020b00 g     F .text	00000060 strlen
00023bd8 g     F .text	00000036 _init_signal_r
0000150c g     F .text	00000018 .hidden __aeabi_cdcmpeq
00001458 g     F .text	00000098 .hidden __gedf2
00024afe g     O .rodata	00000008 .hidden byte_tx_time
0001747c g     F .text	00000030 .hidden hci_rd_local_supp_feats_cmd_handler.lto_priv.0
00013818 g     F .text	00000090 .hidden ll_channel_map_ind_handler
0000ddc4 g     F .text	000003b4 .hidden lld_sync_sched.lto_priv.0
00002df8 g     F .text	00000002 Undefined_Exception
0001743c g     F .text	00000040 .hidden hci_rd_local_supp_cmds_cmd_handler.lto_priv.0
00024b0c g     O .rodata	00000008 .hidden fixed_tx_time
000218b0 g     F .text	0000000a __assert
000035c8 g     F .text	00000030 .hidden ble_util_buf_adv_tx_free
00021fe4 g     F .text	00000018 __sprint_r
00000f00 g     F .text	00000048 .hidden __aeabi_f2d
00403350 g     O .bss	00000014 .hidden sch_arb_env.lto_priv.0
00018d58 g     F .text	000000c8 .hidden llc_encrypt_ind_handler
000162d8 g     F .text	00000054 .hidden llm_pub_key_gen_ind_handler.lto_priv.0
00003824 g     F .text	00000054 .hidden llc_proc_timer_pause_set
0000dd08 g     F .text	000000bc .hidden lld_sync_ant_switch_config.lto_priv.0
00015320 g     F .text	0000018c .hidden hci_send_2_host
00022e7c g     F .text	0000001a _wctomb_r
00018a80 g     F .text	000000c4 .hidden ll_enc_req_handler
00001850 g     F .text	00000028 .hidden __clzdi2
00000ba0 g     F .text	00000314 .hidden __subdf3
00010f9c g     F .text	00000190 .hidden hci_le_set_per_adv_data_cmd_handler
00000684 g     F .text	00000014 .hidden __gnu_thumb1_case_uhi
00020138 g     F .text	0000005a __lo0bits
00000b74 g     F .text	00000020 .hidden __aeabi_idivmod
00004024 g     F .text	00000038 .hidden lld_rxdesc_check
00002e04 g     F .text	0000035c SYSirq_IRQ_Handler
00023e38 g     F .text	00000072 __sigtramp
0000ed40 g     F .text	00000038 .hidden llm_ral_search
000240d4 g     F .text	0000004e wcrtomb
00014f1c g     F .text	00000030 .hidden llm_rpa_renew_to_handler.lto_priv.0
00020a70 g     F .text	00000068 frexp
00400848 g     O .data	0000016c __global_locale
0000ff14 g     F .text	000000b0 .hidden hci_le_set_adv_data_cmd_handler
00403658 g     O .bss	00000001 __lock___sfp_recursive_mutex
000134c0 g     F .text	00000034 .hidden ke_event_clear
0001b114 g     F .text	00000030 .hidden sch_prog_init.constprop.0
00023658 g     F .text	0000007c fputwc
00024320 g     F .text	00000010 _close
00023d38 g     F .text	00000066 raise
00012314 g     F .text	00000094 .hidden hci_le_tx_test_v3_cmd_handler
000234d0 g     F .text	00000014 __sinit_lock_acquire
000145a0 g     F .text	00000068 .hidden lld_disc_ind_handler
0001ffa0 g     F .text	000000ac __multadd
0001ff8c g     F .text	00000014 _Bfree
000003a4 g       .text	00000000 boot_stack_base_SVC
00400fec g     O .bss	00000004 .hidden lld_sync_env.lto_priv.0
00017e48 g     F .text	00000074 .hidden aes_rpa_resolve_continue.lto_priv.0
00014fb8 g     F .text	00000068 .hidden hci_le_set_host_ch_class_cmd_handler.lto_priv.0



Disassembly of section .vectors:

00000000 <_vector_start>:
   0:	ea00004e 	b	140 <_reset_handler>
   4:	e59ff014 	ldr	pc, [pc, #20]	; 20 <_undefined_handler>
   8:	e59ff014 	ldr	pc, [pc, #20]	; 24 <_swi_handler>
   c:	e59ff014 	ldr	pc, [pc, #20]	; 28 <_pabort_handler>
  10:	e59ff014 	ldr	pc, [pc, #20]	; 2c <_dabort_handler>
  14:	e59ff014 	ldr	pc, [pc, #20]	; 30 <_reserved_handler>
  18:	e59ff014 	ldr	pc, [pc, #20]	; 34 <_irq_handler>
  1c:	e59ff014 	ldr	pc, [pc, #20]	; 38 <_fiq_handler>

00000020 <_undefined_handler>:
  20:	00002df9 	.word	0x00002df9

00000024 <_swi_handler>:
  24:	00002dfb 	.word	0x00002dfb

00000028 <_pabort_handler>:
  28:	00002dfd 	.word	0x00002dfd

0000002c <_dabort_handler>:
  2c:	00002dff 	.word	0x00002dff

00000030 <_reserved_handler>:
  30:	00002e01 	.word	0x00002e01

00000034 <_irq_handler>:
  34:	0000031c 	.word	0x0000031c

00000038 <_fiq_handler>:
  38:	0000033c 	.word	0x0000033c
  3c:	deadbeef 	.word	0xdeadbeef

Disassembly of section .text:

00000140 <_reset_handler>:
     140:	e10f0000 	mrs	r0, CPSR
     144:	e38000c0 	orr	r0, r0, #192	; 0xc0
     148:	e121f000 	msr	CPSR_c, r0
     14c:	e10f0000 	mrs	r0, CPSR
     150:	e3c0001f 	bic	r0, r0, #31
     154:	e380001f 	orr	r0, r0, #31
     158:	e121f000 	msr	CPSR_c, r0
     15c:	e59f024c 	ldr	r0, [pc, #588]	; 3b0 <boot_stack_len_UNUSED>
     160:	e59f1244 	ldr	r1, [pc, #580]	; 3ac <boot_stack_base_UNUSED>
     164:	e59f2254 	ldr	r2, [pc, #596]	; 3c0 <boot_stack_len_UNUSED+0x10>
     168:	e1a0d001 	mov	sp, r1
     16c:	e0410000 	sub	r0, r1, r0
     170:	e1500001 	cmp	r0, r1
     174:	b5802000 	strlt	r2, [r0]
     178:	b2800004 	addlt	r0, r0, #4
     17c:	bafffffb 	blt	170 <_reset_handler+0x30>
     180:	e10f0000 	mrs	r0, CPSR
     184:	e3c0001f 	bic	r0, r0, #31
     188:	e3800017 	orr	r0, r0, #23
     18c:	e121f000 	msr	CPSR_c, r0
     190:	e59f0218 	ldr	r0, [pc, #536]	; 3b0 <boot_stack_len_UNUSED>
     194:	e59f1210 	ldr	r1, [pc, #528]	; 3ac <boot_stack_base_UNUSED>
     198:	e59f2220 	ldr	r2, [pc, #544]	; 3c0 <boot_stack_len_UNUSED+0x10>
     19c:	e1a0d001 	mov	sp, r1
     1a0:	e0410000 	sub	r0, r1, r0
     1a4:	e1500001 	cmp	r0, r1
     1a8:	b5802000 	strlt	r2, [r0]
     1ac:	b2800004 	addlt	r0, r0, #4
     1b0:	bafffffb 	blt	1a4 <_reset_handler+0x64>
     1b4:	e10f0000 	mrs	r0, CPSR
     1b8:	e3c0001f 	bic	r0, r0, #31
     1bc:	e380001b 	orr	r0, r0, #27
     1c0:	e121f000 	msr	CPSR_c, r0
     1c4:	e59f01e4 	ldr	r0, [pc, #484]	; 3b0 <boot_stack_len_UNUSED>
     1c8:	e59f11dc 	ldr	r1, [pc, #476]	; 3ac <boot_stack_base_UNUSED>
     1cc:	e59f21ec 	ldr	r2, [pc, #492]	; 3c0 <boot_stack_len_UNUSED+0x10>
     1d0:	e1a0d001 	mov	sp, r1
     1d4:	e0410000 	sub	r0, r1, r0
     1d8:	e1500001 	cmp	r0, r1
     1dc:	b5802000 	strlt	r2, [r0]
     1e0:	b2800004 	addlt	r0, r0, #4
     1e4:	bafffffb 	blt	1d8 <_reset_handler+0x98>
     1e8:	e10f0000 	mrs	r0, CPSR
     1ec:	e3c0001f 	bic	r0, r0, #31
     1f0:	e3800012 	orr	r0, r0, #18
     1f4:	e121f000 	msr	CPSR_c, r0
     1f8:	e59f01a0 	ldr	r0, [pc, #416]	; 3a0 <boot_stack_len_IRQ>
     1fc:	e59f1198 	ldr	r1, [pc, #408]	; 39c <boot_stack_base_IRQ>
     200:	e59f21bc 	ldr	r2, [pc, #444]	; 3c4 <boot_stack_len_UNUSED+0x14>
     204:	e1a0d001 	mov	sp, r1
     208:	e0410000 	sub	r0, r1, r0
     20c:	e1500001 	cmp	r0, r1
     210:	b5802000 	strlt	r2, [r0]
     214:	b2800004 	addlt	r0, r0, #4
     218:	bafffffb 	blt	20c <_reset_handler+0xcc>
     21c:	e10f0000 	mrs	r0, CPSR
     220:	e3c0001f 	bic	r0, r0, #31
     224:	e3800011 	orr	r0, r0, #17
     228:	e121f000 	msr	CPSR_c, r0
     22c:	e59f0164 	ldr	r0, [pc, #356]	; 398 <boot_stack_len_FIQ>
     230:	e59f115c 	ldr	r1, [pc, #348]	; 394 <boot_stack_base_FIQ>
     234:	e59f218c 	ldr	r2, [pc, #396]	; 3c8 <boot_stack_len_UNUSED+0x18>
     238:	e1a0d001 	mov	sp, r1
     23c:	e0410000 	sub	r0, r1, r0
     240:	e1500001 	cmp	r0, r1
     244:	b5802000 	strlt	r2, [r0]
     248:	b2800004 	addlt	r0, r0, #4
     24c:	bafffffb 	blt	240 <_reset_handler+0x100>
     250:	e3a08000 	mov	r8, #0
     254:	e3a09000 	mov	r9, #0
     258:	e3a0a000 	mov	sl, #0
     25c:	e3a0b000 	mov	fp, #0
     260:	e3a0c000 	mov	ip, #0
     264:	e10f0000 	mrs	r0, CPSR
     268:	e3c0001f 	bic	r0, r0, #31
     26c:	e3800013 	orr	r0, r0, #19
     270:	e121f000 	msr	CPSR_c, r0
     274:	e59f012c 	ldr	r0, [pc, #300]	; 3a8 <boot_stack_len_SVC>
     278:	e59f1124 	ldr	r1, [pc, #292]	; 3a4 <boot_stack_base_SVC>
     27c:	e59f2148 	ldr	r2, [pc, #328]	; 3cc <boot_stack_len_UNUSED+0x1c>
     280:	e1a0d001 	mov	sp, r1
     284:	e0410000 	sub	r0, r1, r0
     288:	e1500001 	cmp	r0, r1
     28c:	b5802000 	strlt	r2, [r0]
     290:	b2800004 	addlt	r0, r0, #4
     294:	bafffffb 	blt	288 <_reset_handler+0x148>
     298:	eb00000e 	bl	2d8 <_data_init>
     29c:	eb000015 	bl	2f8 <_zi_init>
     2a0:	e3a00000 	mov	r0, #0
     2a4:	e3a01000 	mov	r1, #0
     2a8:	e3a02000 	mov	r2, #0
     2ac:	e3a03000 	mov	r3, #0
     2b0:	e3a04000 	mov	r4, #0
     2b4:	e3a05000 	mov	r5, #0
     2b8:	e3a06000 	mov	r6, #0
     2bc:	e3a07000 	mov	r7, #0
     2c0:	e3a08000 	mov	r8, #0
     2c4:	e3a09000 	mov	r9, #0
     2c8:	e3a0a000 	mov	sl, #0
     2cc:	e3a0b000 	mov	fp, #0
     2d0:	e3a0c000 	mov	ip, #0
     2d4:	ea009066 	b	24474 <__main_from_arm>

000002d8 <_data_init>:
     2d8:	e59f00f0 	ldr	r0, [pc, #240]	; 3d0 <boot_stack_len_UNUSED+0x20>
     2dc:	e59f10f0 	ldr	r1, [pc, #240]	; 3d4 <boot_stack_len_UNUSED+0x24>
     2e0:	e59f20f0 	ldr	r2, [pc, #240]	; 3d8 <boot_stack_len_UNUSED+0x28>
     2e4:	e1510002 	cmp	r1, r2
     2e8:	34904004 	ldrcc	r4, [r0], #4
     2ec:	34814004 	strcc	r4, [r1], #4
     2f0:	3afffffb 	bcc	2e4 <_data_init+0xc>
     2f4:	e12fff1e 	bx	lr

000002f8 <_zi_init>:
     2f8:	e59f00dc 	ldr	r0, [pc, #220]	; 3dc <boot_stack_len_UNUSED+0x2c>
     2fc:	e59f10dc 	ldr	r1, [pc, #220]	; 3e0 <boot_stack_len_UNUSED+0x30>
     300:	e1a03001 	mov	r3, r1
     304:	e1a04000 	mov	r4, r0
     308:	e3a02000 	mov	r2, #0
     30c:	e1540003 	cmp	r4, r3
     310:	34842004 	strcc	r2, [r4], #4
     314:	3afffffc 	bcc	30c <_zi_init+0x14>
     318:	e12fff1e 	bx	lr

0000031c <__irq_handler>:
     31c:	e92d5fff 	push	{r0, r1, r2, r3, r4, r5, r6, r7, r8, r9, sl, fp, ip, lr}
     320:	e3a00501 	mov	r0, #4194304	; 0x400000
     324:	e5901000 	ldr	r1, [r0]
     328:	e3510001 	cmp	r1, #1
     32c:	0b000c79 	bleq	3518 <Irq_Exception>
     330:	eb009024 	bl	243c8 <__SYSirq_IRQ_Handler_from_arm>
     334:	e8bd5fff 	pop	{r0, r1, r2, r3, r4, r5, r6, r7, r8, r9, sl, fp, ip, lr}
     338:	e25ef004 	subs	pc, lr, #4

0000033c <__fiq_handler>:
     33c:	e92d5fff 	push	{r0, r1, r2, r3, r4, r5, r6, r7, r8, r9, sl, fp, ip, lr}
     340:	eb009033 	bl	24414 <__SYSirq_FIQ_Handler_from_arm>
     344:	e8bd5fff 	pop	{r0, r1, r2, r3, r4, r5, r6, r7, r8, r9, sl, fp, ip, lr}
     348:	e25ef004 	subs	pc, lr, #4

0000034c <__enable_irq>:
     34c:	e10f0000 	mrs	r0, CPSR
     350:	e3c00080 	bic	r0, r0, #128	; 0x80
     354:	e121f000 	msr	CPSR_c, r0
     358:	e12fff1e 	bx	lr

0000035c <__disable_irq>:
     35c:	e10f0000 	mrs	r0, CPSR
     360:	e3801080 	orr	r1, r0, #128	; 0x80
     364:	e121f001 	msr	CPSR_c, r1
     368:	e2000080 	and	r0, r0, #128	; 0x80
     36c:	e12fff1e 	bx	lr

00000370 <__enable_fiq>:
     370:	e10f0000 	mrs	r0, CPSR
     374:	e3c00040 	bic	r0, r0, #64	; 0x40
     378:	e121f000 	msr	CPSR_c, r0
     37c:	e12fff1e 	bx	lr

00000380 <__disable_fiq>:
     380:	e10f0000 	mrs	r0, CPSR
     384:	e3801040 	orr	r1, r0, #64	; 0x40
     388:	e121f001 	msr	CPSR_c, r1
     38c:	e2000040 	and	r0, r0, #64	; 0x40
     390:	e12fff1e 	bx	lr

00000394 <boot_stack_base_FIQ>:
     394:	0040fffc 	.word	0x0040fffc

00000398 <boot_stack_len_FIQ>:
     398:	00000800 	.word	0x00000800

0000039c <boot_stack_base_IRQ>:
     39c:	0040f7fc 	.word	0x0040f7fc

000003a0 <boot_stack_len_IRQ>:
     3a0:	00000800 	.word	0x00000800

000003a4 <boot_stack_base_SVC>:
     3a4:	0040effc 	.word	0x0040effc

000003a8 <boot_stack_len_SVC>:
     3a8:	00000800 	.word	0x00000800

000003ac <boot_stack_base_UNUSED>:
     3ac:	0040e7fc 	.word	0x0040e7fc

000003b0 <boot_stack_len_UNUSED>:
     3b0:	00000400 	.word	0x00000400
     3b4:	deadbeef 	.word	0xdeadbeef
     3b8:	deadbeef 	.word	0xdeadbeef
     3bc:	deadbeef 	.word	0xdeadbeef
     3c0:	aaaaaaaa 	.word	0xaaaaaaaa
     3c4:	bbbbbbbb 	.word	0xbbbbbbbb
     3c8:	cccccccc 	.word	0xcccccccc
     3cc:	dddddddd 	.word	0xdddddddd
     3d0:	000268f8 	.word	0x000268f8
     3d4:	00400000 	.word	0x00400000
     3d8:	00400c50 	.word	0x00400c50
     3dc:	00400c50 	.word	0x00400c50
     3e0:	0040366c 	.word	0x0040366c

000003e4 <strcmp>:
     3e4:	e020c001 	eor	ip, r0, r1
     3e8:	e31c0003 	tst	ip, #3
     3ec:	1a000021 	bne	478 <strcmp+0x94>
     3f0:	e210c003 	ands	ip, r0, #3
     3f4:	e3c00003 	bic	r0, r0, #3
     3f8:	e3c11003 	bic	r1, r1, #3
     3fc:	e4902004 	ldr	r2, [r0], #4
     400:	04913004 	ldreq	r3, [r1], #4
     404:	0a000006 	beq	424 <strcmp+0x40>
     408:	e22cc003 	eor	ip, ip, #3
     40c:	e3e034ff 	mvn	r3, #-16777216	; 0xff000000
     410:	e1a0c18c 	lsl	ip, ip, #3
     414:	e1a0cc33 	lsr	ip, r3, ip
     418:	e4913004 	ldr	r3, [r1], #4
     41c:	e182200c 	orr	r2, r2, ip
     420:	e183300c 	orr	r3, r3, ip
     424:	e52d4004 	push	{r4}		; (str r4, [sp, #-4]!)
     428:	e3a04001 	mov	r4, #1
     42c:	e1844404 	orr	r4, r4, r4, lsl #8
     430:	e1844804 	orr	r4, r4, r4, lsl #16
     434:	e042c004 	sub	ip, r2, r4
     438:	e1520003 	cmp	r2, r3
     43c:	01ccc002 	biceq	ip, ip, r2
     440:	011c0384 	tsteq	ip, r4, lsl #7
     444:	04902004 	ldreq	r2, [r0], #4
     448:	04913004 	ldreq	r3, [r1], #4
     44c:	0afffff8 	beq	434 <strcmp+0x50>
     450:	e1a00c02 	lsl	r0, r2, #24
     454:	e1a02422 	lsr	r2, r2, #8
     458:	e3500001 	cmp	r0, #1
     45c:	21500c03 	cmpcs	r0, r3, lsl #24
     460:	01a03423 	lsreq	r3, r3, #8
     464:	0afffff9 	beq	450 <strcmp+0x6c>
     468:	e20330ff 	and	r3, r3, #255	; 0xff
     46c:	e0630c20 	rsb	r0, r3, r0, lsr #24
     470:	e49d4004 	pop	{r4}		; (ldr r4, [sp], #4)
     474:	e12fff1e 	bx	lr
     478:	e3100003 	tst	r0, #3
     47c:	0a000006 	beq	49c <strcmp+0xb8>
     480:	e4d02001 	ldrb	r2, [r0], #1
     484:	e4d13001 	ldrb	r3, [r1], #1
     488:	e3520001 	cmp	r2, #1
     48c:	21520003 	cmpcs	r2, r3
     490:	0afffff8 	beq	478 <strcmp+0x94>
     494:	e0420003 	sub	r0, r2, r3
     498:	e12fff1e 	bx	lr
     49c:	e92d0030 	push	{r4, r5}
     4a0:	e3a04001 	mov	r4, #1
     4a4:	e1844404 	orr	r4, r4, r4, lsl #8
     4a8:	e1844804 	orr	r4, r4, r4, lsl #16
     4ac:	e4902004 	ldr	r2, [r0], #4
     4b0:	e2015003 	and	r5, r1, #3
     4b4:	e3c11003 	bic	r1, r1, #3
     4b8:	e4913004 	ldr	r3, [r1], #4
     4bc:	e3550002 	cmp	r5, #2
     4c0:	0a000017 	beq	524 <strcmp+0x140>
     4c4:	8a00002d 	bhi	580 <strcmp+0x19c>
     4c8:	e3c254ff 	bic	r5, r2, #-16777216	; 0xff000000
     4cc:	e1550423 	cmp	r5, r3, lsr #8
     4d0:	e042c004 	sub	ip, r2, r4
     4d4:	e1ccc002 	bic	ip, ip, r2
     4d8:	1a000007 	bne	4fc <strcmp+0x118>
     4dc:	e01cc384 	ands	ip, ip, r4, lsl #7
     4e0:	04913004 	ldreq	r3, [r1], #4
     4e4:	1a000006 	bne	504 <strcmp+0x120>
     4e8:	e0255002 	eor	r5, r5, r2
     4ec:	e1550c03 	cmp	r5, r3, lsl #24
     4f0:	1a000008 	bne	518 <strcmp+0x134>
     4f4:	e4902004 	ldr	r2, [r0], #4
     4f8:	eafffff2 	b	4c8 <strcmp+0xe4>
     4fc:	e1a03423 	lsr	r3, r3, #8
     500:	ea000036 	b	5e0 <strcmp+0x1fc>
     504:	e3dcc4ff 	bics	ip, ip, #-16777216	; 0xff000000
     508:	1a000031 	bne	5d4 <strcmp+0x1f0>
     50c:	e5d13000 	ldrb	r3, [r1]
     510:	e1a05c22 	lsr	r5, r2, #24
     514:	ea000031 	b	5e0 <strcmp+0x1fc>
     518:	e1a05c22 	lsr	r5, r2, #24
     51c:	e20330ff 	and	r3, r3, #255	; 0xff
     520:	ea00002e 	b	5e0 <strcmp+0x1fc>
     524:	e1a05802 	lsl	r5, r2, #16
     528:	e042c004 	sub	ip, r2, r4
     52c:	e1a05825 	lsr	r5, r5, #16
     530:	e1ccc002 	bic	ip, ip, r2
     534:	e1550823 	cmp	r5, r3, lsr #16
     538:	1a00000e 	bne	578 <strcmp+0x194>
     53c:	e01cc384 	ands	ip, ip, r4, lsl #7
     540:	04913004 	ldreq	r3, [r1], #4
     544:	1a000004 	bne	55c <strcmp+0x178>
     548:	e0255002 	eor	r5, r5, r2
     54c:	e1550803 	cmp	r5, r3, lsl #16
     550:	1a000006 	bne	570 <strcmp+0x18c>
     554:	e4902004 	ldr	r2, [r0], #4
     558:	eafffff1 	b	524 <strcmp+0x140>
     55c:	e1b0c80c 	lsls	ip, ip, #16
     560:	1a00001b 	bne	5d4 <strcmp+0x1f0>
     564:	e1d130b0 	ldrh	r3, [r1]
     568:	e1a05822 	lsr	r5, r2, #16
     56c:	ea00001b 	b	5e0 <strcmp+0x1fc>
     570:	e1a03803 	lsl	r3, r3, #16
     574:	e1a05822 	lsr	r5, r2, #16
     578:	e1a03823 	lsr	r3, r3, #16
     57c:	ea000017 	b	5e0 <strcmp+0x1fc>
     580:	e20250ff 	and	r5, r2, #255	; 0xff
     584:	e1550c23 	cmp	r5, r3, lsr #24
     588:	e042c004 	sub	ip, r2, r4
     58c:	e1ccc002 	bic	ip, ip, r2
     590:	1a000007 	bne	5b4 <strcmp+0x1d0>
     594:	e01cc384 	ands	ip, ip, r4, lsl #7
     598:	04913004 	ldreq	r3, [r1], #4
     59c:	1a000006 	bne	5bc <strcmp+0x1d8>
     5a0:	e0255002 	eor	r5, r5, r2
     5a4:	e1550403 	cmp	r5, r3, lsl #8
     5a8:	1a000006 	bne	5c8 <strcmp+0x1e4>
     5ac:	e4902004 	ldr	r2, [r0], #4
     5b0:	eafffff2 	b	580 <strcmp+0x19c>
     5b4:	e1a03c23 	lsr	r3, r3, #24
     5b8:	ea000008 	b	5e0 <strcmp+0x1fc>
     5bc:	e31200ff 	tst	r2, #255	; 0xff
     5c0:	0a000003 	beq	5d4 <strcmp+0x1f0>
     5c4:	e4913004 	ldr	r3, [r1], #4
     5c8:	e1a05422 	lsr	r5, r2, #8
     5cc:	e3c334ff 	bic	r3, r3, #-16777216	; 0xff000000
     5d0:	ea000002 	b	5e0 <strcmp+0x1fc>
     5d4:	e3a00000 	mov	r0, #0
     5d8:	e8bd0030 	pop	{r4, r5}
     5dc:	e12fff1e 	bx	lr
     5e0:	e20520ff 	and	r2, r5, #255	; 0xff
     5e4:	e20300ff 	and	r0, r3, #255	; 0xff
     5e8:	e3500001 	cmp	r0, #1
     5ec:	21500002 	cmpcs	r0, r2
     5f0:	01a05425 	lsreq	r5, r5, #8
     5f4:	01a03423 	lsreq	r3, r3, #8
     5f8:	0afffff8 	beq	5e0 <strcmp+0x1fc>
     5fc:	e0420000 	sub	r0, r2, r0
     600:	e8bd0030 	pop	{r4, r5}
     604:	e12fff1e 	bx	lr

00000608 <__aeabi_lmul>:
     608:	b5f0      	push	{r4, r5, r6, r7, lr}
     60a:	000f      	movs	r7, r1
     60c:	0001      	movs	r1, r0
     60e:	46c6      	mov	lr, r8
     610:	4684      	mov	ip, r0
     612:	0415      	lsls	r5, r2, #16
     614:	0400      	lsls	r0, r0, #16
     616:	0c14      	lsrs	r4, r2, #16
     618:	0c00      	lsrs	r0, r0, #16
     61a:	0c09      	lsrs	r1, r1, #16
     61c:	0c2d      	lsrs	r5, r5, #16
     61e:	002e      	movs	r6, r5
     620:	4346      	muls	r6, r0
     622:	434d      	muls	r5, r1
     624:	4360      	muls	r0, r4
     626:	4361      	muls	r1, r4
     628:	1940      	adds	r0, r0, r5
     62a:	0c34      	lsrs	r4, r6, #16
     62c:	1820      	adds	r0, r4, r0
     62e:	b500      	push	{lr}
     630:	4285      	cmp	r5, r0
     632:	d903      	bls.n	63c <__aeabi_lmul+0x34>
     634:	2480      	movs	r4, #128	; 0x80
     636:	0264      	lsls	r4, r4, #9
     638:	46a0      	mov	r8, r4
     63a:	4441      	add	r1, r8
     63c:	0c05      	lsrs	r5, r0, #16
     63e:	186d      	adds	r5, r5, r1
     640:	4661      	mov	r1, ip
     642:	4359      	muls	r1, r3
     644:	437a      	muls	r2, r7
     646:	0436      	lsls	r6, r6, #16
     648:	0c36      	lsrs	r6, r6, #16
     64a:	1949      	adds	r1, r1, r5
     64c:	0400      	lsls	r0, r0, #16
     64e:	1980      	adds	r0, r0, r6
     650:	1889      	adds	r1, r1, r2
     652:	bc80      	pop	{r7}
     654:	46b8      	mov	r8, r7
     656:	bcf0      	pop	{r4, r5, r6, r7}
     658:	bc04      	pop	{r2}
     65a:	4710      	bx	r2

0000065c <__gnu_thumb1_case_uqi>:
     65c:	b402      	push	{r1}
     65e:	4671      	mov	r1, lr
     660:	0849      	lsrs	r1, r1, #1
     662:	0049      	lsls	r1, r1, #1
     664:	5c09      	ldrb	r1, [r1, r0]
     666:	0049      	lsls	r1, r1, #1
     668:	448e      	add	lr, r1
     66a:	bc02      	pop	{r1}
     66c:	4770      	bx	lr
     66e:	46c0      	nop			; (mov r8, r8)

00000670 <__gnu_thumb1_case_shi>:
     670:	b403      	push	{r0, r1}
     672:	4671      	mov	r1, lr
     674:	0849      	lsrs	r1, r1, #1
     676:	0040      	lsls	r0, r0, #1
     678:	0049      	lsls	r1, r1, #1
     67a:	5e09      	ldrsh	r1, [r1, r0]
     67c:	0049      	lsls	r1, r1, #1
     67e:	448e      	add	lr, r1
     680:	bc03      	pop	{r0, r1}
     682:	4770      	bx	lr

00000684 <__gnu_thumb1_case_uhi>:
     684:	b403      	push	{r0, r1}
     686:	4671      	mov	r1, lr
     688:	0849      	lsrs	r1, r1, #1
     68a:	0040      	lsls	r0, r0, #1
     68c:	0049      	lsls	r1, r1, #1
     68e:	5a09      	ldrh	r1, [r1, r0]
     690:	0049      	lsls	r1, r1, #1
     692:	448e      	add	lr, r1
     694:	bc03      	pop	{r0, r1}
     696:	4770      	bx	lr
     698:	e92d4070 	push	{r4, r5, r6, lr}
     69c:	e3a0c0ff 	mov	ip, #255	; 0xff
     6a0:	e38ccc07 	orr	ip, ip, #1792	; 0x700
     6a4:	e01c4a21 	ands	r4, ip, r1, lsr #20
     6a8:	101c5a23 	andsne	r5, ip, r3, lsr #20
     6ac:	1134000c 	teqne	r4, ip
     6b0:	1135000c 	teqne	r5, ip
     6b4:	0b000075 	bleq	890 <__gnu_thumb1_case_uhi+0x20c>
     6b8:	e0844005 	add	r4, r4, r5
     6bc:	e0216003 	eor	r6, r1, r3
     6c0:	e1c11a8c 	bic	r1, r1, ip, lsl #21
     6c4:	e1c33a8c 	bic	r3, r3, ip, lsl #21
     6c8:	e1905601 	orrs	r5, r0, r1, lsl #12
     6cc:	11925603 	orrsne	r5, r2, r3, lsl #12
     6d0:	e3811601 	orr	r1, r1, #1048576	; 0x100000
     6d4:	e3833601 	orr	r3, r3, #1048576	; 0x100000
     6d8:	0a00001d 	beq	754 <__gnu_thumb1_case_uhi+0xd0>
     6dc:	e08ec290 	umull	ip, lr, r0, r2
     6e0:	e3a05000 	mov	r5, #0
     6e4:	e0a5e291 	umlal	lr, r5, r1, r2
     6e8:	e2062102 	and	r2, r6, #-2147483648	; 0x80000000
     6ec:	e0a5e390 	umlal	lr, r5, r0, r3
     6f0:	e3a06000 	mov	r6, #0
     6f4:	e0a65391 	umlal	r5, r6, r1, r3
     6f8:	e33c0000 	teq	ip, #0
     6fc:	138ee001 	orrne	lr, lr, #1
     700:	e24440ff 	sub	r4, r4, #255	; 0xff
     704:	e3560c02 	cmp	r6, #512	; 0x200
     708:	e2c44c03 	sbc	r4, r4, #768	; 0x300
     70c:	2a000002 	bcs	71c <__gnu_thumb1_case_uhi+0x98>
     710:	e1b0e08e 	lsls	lr, lr, #1
     714:	e0b55005 	adcs	r5, r5, r5
     718:	e0a66006 	adc	r6, r6, r6
     71c:	e1821586 	orr	r1, r2, r6, lsl #11
     720:	e1811aa5 	orr	r1, r1, r5, lsr #21
     724:	e1a00585 	lsl	r0, r5, #11
     728:	e1800aae 	orr	r0, r0, lr, lsr #21
     72c:	e1a0e58e 	lsl	lr, lr, #11
     730:	e254c0fd 	subs	ip, r4, #253	; 0xfd
     734:	835c0c07 	cmphi	ip, #1792	; 0x700
     738:	8a000011 	bhi	784 <__gnu_thumb1_case_uhi+0x100>
     73c:	e35e0102 	cmp	lr, #-2147483648	; 0x80000000
     740:	01b0e0a0 	lsrseq	lr, r0, #1
     744:	e2b00000 	adcs	r0, r0, #0
     748:	e0a11a04 	adc	r1, r1, r4, lsl #20
     74c:	e8bd4070 	pop	{r4, r5, r6, lr}
     750:	e12fff1e 	bx	lr
     754:	e2066102 	and	r6, r6, #-2147483648	; 0x80000000
     758:	e1861001 	orr	r1, r6, r1
     75c:	e1800002 	orr	r0, r0, r2
     760:	e0211003 	eor	r1, r1, r3
     764:	e05440ac 	subs	r4, r4, ip, lsr #1
     768:	c074500c 	rsbsgt	r5, r4, ip
     76c:	c1811a04 	orrgt	r1, r1, r4, lsl #20
     770:	c8bd4070 	popgt	{r4, r5, r6, lr}
     774:	c12fff1e 	bxgt	lr
     778:	e3811601 	orr	r1, r1, #1048576	; 0x100000
     77c:	e3a0e000 	mov	lr, #0
     780:	e2544001 	subs	r4, r4, #1
     784:	ca00005d 	bgt	900 <__gnu_thumb1_case_uhi+0x27c>
     788:	e3740036 	cmn	r4, #54	; 0x36
     78c:	d3a00000 	movle	r0, #0
     790:	d2011102 	andle	r1, r1, #-2147483648	; 0x80000000
     794:	d8bd4070 	pople	{r4, r5, r6, lr}
     798:	d12fff1e 	bxle	lr
     79c:	e2644000 	rsb	r4, r4, #0
     7a0:	e2544020 	subs	r4, r4, #32
     7a4:	aa00001a 	bge	814 <__gnu_thumb1_case_uhi+0x190>
     7a8:	e294400c 	adds	r4, r4, #12
     7ac:	ca00000c 	bgt	7e4 <__gnu_thumb1_case_uhi+0x160>
     7b0:	e2844014 	add	r4, r4, #20
     7b4:	e2645020 	rsb	r5, r4, #32
     7b8:	e1a03510 	lsl	r3, r0, r5
     7bc:	e1a00430 	lsr	r0, r0, r4
     7c0:	e1800511 	orr	r0, r0, r1, lsl r5
     7c4:	e2012102 	and	r2, r1, #-2147483648	; 0x80000000
     7c8:	e3c11102 	bic	r1, r1, #-2147483648	; 0x80000000
     7cc:	e0900fa3 	adds	r0, r0, r3, lsr #31
     7d0:	e0a21431 	adc	r1, r2, r1, lsr r4
     7d4:	e19ee083 	orrs	lr, lr, r3, lsl #1
     7d8:	01c00fa3 	biceq	r0, r0, r3, lsr #31
     7dc:	e8bd4070 	pop	{r4, r5, r6, lr}
     7e0:	e12fff1e 	bx	lr
     7e4:	e264400c 	rsb	r4, r4, #12
     7e8:	e2645020 	rsb	r5, r4, #32
     7ec:	e1a03410 	lsl	r3, r0, r4
     7f0:	e1a00530 	lsr	r0, r0, r5
     7f4:	e1800411 	orr	r0, r0, r1, lsl r4
     7f8:	e2011102 	and	r1, r1, #-2147483648	; 0x80000000
     7fc:	e0900fa3 	adds	r0, r0, r3, lsr #31
     800:	e2a11000 	adc	r1, r1, #0
     804:	e19ee083 	orrs	lr, lr, r3, lsl #1
     808:	01c00fa3 	biceq	r0, r0, r3, lsr #31
     80c:	e8bd4070 	pop	{r4, r5, r6, lr}
     810:	e12fff1e 	bx	lr
     814:	e2645020 	rsb	r5, r4, #32
     818:	e18ee510 	orr	lr, lr, r0, lsl r5
     81c:	e1a03430 	lsr	r3, r0, r4
     820:	e1833511 	orr	r3, r3, r1, lsl r5
     824:	e1a00431 	lsr	r0, r1, r4
     828:	e2011102 	and	r1, r1, #-2147483648	; 0x80000000
     82c:	e1c00431 	bic	r0, r0, r1, lsr r4
     830:	e0800fa3 	add	r0, r0, r3, lsr #31
     834:	e19ee083 	orrs	lr, lr, r3, lsl #1
     838:	01c00fa3 	biceq	r0, r0, r3, lsr #31
     83c:	e8bd4070 	pop	{r4, r5, r6, lr}
     840:	e12fff1e 	bx	lr
     844:	e3340000 	teq	r4, #0
     848:	1a000008 	bne	870 <__gnu_thumb1_case_uhi+0x1ec>
     84c:	e2016102 	and	r6, r1, #-2147483648	; 0x80000000
     850:	e1b00080 	lsls	r0, r0, #1
     854:	e0a11001 	adc	r1, r1, r1
     858:	e3110601 	tst	r1, #1048576	; 0x100000
     85c:	02444001 	subeq	r4, r4, #1
     860:	0afffffa 	beq	850 <__gnu_thumb1_case_uhi+0x1cc>
     864:	e1811006 	orr	r1, r1, r6
     868:	e3350000 	teq	r5, #0
     86c:	112fff1e 	bxne	lr
     870:	e2036102 	and	r6, r3, #-2147483648	; 0x80000000
     874:	e1b02082 	lsls	r2, r2, #1
     878:	e0a33003 	adc	r3, r3, r3
     87c:	e3130601 	tst	r3, #1048576	; 0x100000
     880:	02455001 	subeq	r5, r5, #1
     884:	0afffffa 	beq	874 <__gnu_thumb1_case_uhi+0x1f0>
     888:	e1833006 	orr	r3, r3, r6
     88c:	e12fff1e 	bx	lr
     890:	e134000c 	teq	r4, ip
     894:	e00c5a23 	and	r5, ip, r3, lsr #20
     898:	1135000c 	teqne	r5, ip
     89c:	0a000007 	beq	8c0 <__gnu_thumb1_case_uhi+0x23c>
     8a0:	e1906081 	orrs	r6, r0, r1, lsl #1
     8a4:	11926083 	orrsne	r6, r2, r3, lsl #1
     8a8:	1affffe5 	bne	844 <__gnu_thumb1_case_uhi+0x1c0>
     8ac:	e0211003 	eor	r1, r1, r3
     8b0:	e2011102 	and	r1, r1, #-2147483648	; 0x80000000
     8b4:	e3a00000 	mov	r0, #0
     8b8:	e8bd4070 	pop	{r4, r5, r6, lr}
     8bc:	e12fff1e 	bx	lr
     8c0:	e1906081 	orrs	r6, r0, r1, lsl #1
     8c4:	01a00002 	moveq	r0, r2
     8c8:	01a01003 	moveq	r1, r3
     8cc:	11926083 	orrsne	r6, r2, r3, lsl #1
     8d0:	0a000010 	beq	918 <__gnu_thumb1_case_uhi+0x294>
     8d4:	e134000c 	teq	r4, ip
     8d8:	1a000001 	bne	8e4 <__gnu_thumb1_case_uhi+0x260>
     8dc:	e1906601 	orrs	r6, r0, r1, lsl #12
     8e0:	1a00000c 	bne	918 <__gnu_thumb1_case_uhi+0x294>
     8e4:	e135000c 	teq	r5, ip
     8e8:	1a000003 	bne	8fc <__gnu_thumb1_case_uhi+0x278>
     8ec:	e1926603 	orrs	r6, r2, r3, lsl #12
     8f0:	11a00002 	movne	r0, r2
     8f4:	11a01003 	movne	r1, r3
     8f8:	1a000006 	bne	918 <__gnu_thumb1_case_uhi+0x294>
     8fc:	e0211003 	eor	r1, r1, r3
     900:	e2011102 	and	r1, r1, #-2147483648	; 0x80000000
     904:	e381147f 	orr	r1, r1, #2130706432	; 0x7f000000
     908:	e381160f 	orr	r1, r1, #15728640	; 0xf00000
     90c:	e3a00000 	mov	r0, #0
     910:	e8bd4070 	pop	{r4, r5, r6, lr}
     914:	e12fff1e 	bx	lr
     918:	e381147f 	orr	r1, r1, #2130706432	; 0x7f000000
     91c:	e381173e 	orr	r1, r1, #16252928	; 0xf80000
     920:	e8bd4070 	pop	{r4, r5, r6, lr}
     924:	e12fff1e 	bx	lr

00000928 <__udivsi3>:
     928:	e2512001 	subs	r2, r1, #1
     92c:	012fff1e 	bxeq	lr
     930:	3a000036 	bcc	a10 <__udivsi3+0xe8>
     934:	e1500001 	cmp	r0, r1
     938:	9a000022 	bls	9c8 <__udivsi3+0xa0>
     93c:	e1110002 	tst	r1, r2
     940:	0a000023 	beq	9d4 <__udivsi3+0xac>
     944:	e311020e 	tst	r1, #-536870912	; 0xe0000000
     948:	01a01181 	lsleq	r1, r1, #3
     94c:	03a03008 	moveq	r3, #8
     950:	13a03001 	movne	r3, #1
     954:	e3510201 	cmp	r1, #268435456	; 0x10000000
     958:	31510000 	cmpcc	r1, r0
     95c:	31a01201 	lslcc	r1, r1, #4
     960:	31a03203 	lslcc	r3, r3, #4
     964:	3afffffa 	bcc	954 <__udivsi3+0x2c>
     968:	e3510102 	cmp	r1, #-2147483648	; 0x80000000
     96c:	31510000 	cmpcc	r1, r0
     970:	31a01081 	lslcc	r1, r1, #1
     974:	31a03083 	lslcc	r3, r3, #1
     978:	3afffffa 	bcc	968 <__udivsi3+0x40>
     97c:	e3a02000 	mov	r2, #0
     980:	e1500001 	cmp	r0, r1
     984:	20400001 	subcs	r0, r0, r1
     988:	21822003 	orrcs	r2, r2, r3
     98c:	e15000a1 	cmp	r0, r1, lsr #1
     990:	204000a1 	subcs	r0, r0, r1, lsr #1
     994:	218220a3 	orrcs	r2, r2, r3, lsr #1
     998:	e1500121 	cmp	r0, r1, lsr #2
     99c:	20400121 	subcs	r0, r0, r1, lsr #2
     9a0:	21822123 	orrcs	r2, r2, r3, lsr #2
     9a4:	e15001a1 	cmp	r0, r1, lsr #3
     9a8:	204001a1 	subcs	r0, r0, r1, lsr #3
     9ac:	218221a3 	orrcs	r2, r2, r3, lsr #3
     9b0:	e3500000 	cmp	r0, #0
     9b4:	11b03223 	lsrsne	r3, r3, #4
     9b8:	11a01221 	lsrne	r1, r1, #4
     9bc:	1affffef 	bne	980 <__udivsi3+0x58>
     9c0:	e1a00002 	mov	r0, r2
     9c4:	e12fff1e 	bx	lr
     9c8:	03a00001 	moveq	r0, #1
     9cc:	13a00000 	movne	r0, #0
     9d0:	e12fff1e 	bx	lr
     9d4:	e3510801 	cmp	r1, #65536	; 0x10000
     9d8:	21a01821 	lsrcs	r1, r1, #16
     9dc:	23a02010 	movcs	r2, #16
     9e0:	33a02000 	movcc	r2, #0
     9e4:	e3510c01 	cmp	r1, #256	; 0x100
     9e8:	21a01421 	lsrcs	r1, r1, #8
     9ec:	22822008 	addcs	r2, r2, #8
     9f0:	e3510010 	cmp	r1, #16
     9f4:	21a01221 	lsrcs	r1, r1, #4
     9f8:	22822004 	addcs	r2, r2, #4
     9fc:	e3510004 	cmp	r1, #4
     a00:	82822003 	addhi	r2, r2, #3
     a04:	908220a1 	addls	r2, r2, r1, lsr #1
     a08:	e1a00230 	lsr	r0, r0, r2
     a0c:	e12fff1e 	bx	lr
     a10:	e12fff1f 	bx	pc
     a14:	e1a00000 	nop			; (mov r0, r0)
     a18:	e3500000 	cmp	r0, #0
     a1c:	13e00000 	mvnne	r0, #0
     a20:	ea008e7e 	b	24420 <____aeabi_idiv0_from_arm>

00000a24 <__aeabi_uidivmod>:
     a24:	e3510000 	cmp	r1, #0
     a28:	0afffff8 	beq	a10 <__udivsi3+0xe8>
     a2c:	e92d4003 	push	{r0, r1, lr}
     a30:	ebffffbc 	bl	928 <__udivsi3>
     a34:	e8bd4006 	pop	{r1, r2, lr}
     a38:	e0030092 	mul	r3, r2, r0
     a3c:	e0411003 	sub	r1, r1, r3
     a40:	e12fff1e 	bx	lr

00000a44 <__divsi3>:
     a44:	e3510000 	cmp	r1, #0
     a48:	0a000043 	beq	b5c <.divsi3_skip_div0_test+0x110>

00000a4c <.divsi3_skip_div0_test>:
     a4c:	e020c001 	eor	ip, r0, r1
     a50:	42611000 	rsbmi	r1, r1, #0
     a54:	e2512001 	subs	r2, r1, #1
     a58:	0a000027 	beq	afc <.divsi3_skip_div0_test+0xb0>
     a5c:	e1b03000 	movs	r3, r0
     a60:	42603000 	rsbmi	r3, r0, #0
     a64:	e1530001 	cmp	r3, r1
     a68:	9a000026 	bls	b08 <.divsi3_skip_div0_test+0xbc>
     a6c:	e1110002 	tst	r1, r2
     a70:	0a000028 	beq	b18 <.divsi3_skip_div0_test+0xcc>
     a74:	e311020e 	tst	r1, #-536870912	; 0xe0000000
     a78:	01a01181 	lsleq	r1, r1, #3
     a7c:	03a02008 	moveq	r2, #8
     a80:	13a02001 	movne	r2, #1
     a84:	e3510201 	cmp	r1, #268435456	; 0x10000000
     a88:	31510003 	cmpcc	r1, r3
     a8c:	31a01201 	lslcc	r1, r1, #4
     a90:	31a02202 	lslcc	r2, r2, #4
     a94:	3afffffa 	bcc	a84 <.divsi3_skip_div0_test+0x38>
     a98:	e3510102 	cmp	r1, #-2147483648	; 0x80000000
     a9c:	31510003 	cmpcc	r1, r3
     aa0:	31a01081 	lslcc	r1, r1, #1
     aa4:	31a02082 	lslcc	r2, r2, #1
     aa8:	3afffffa 	bcc	a98 <.divsi3_skip_div0_test+0x4c>
     aac:	e3a00000 	mov	r0, #0
     ab0:	e1530001 	cmp	r3, r1
     ab4:	20433001 	subcs	r3, r3, r1
     ab8:	21800002 	orrcs	r0, r0, r2
     abc:	e15300a1 	cmp	r3, r1, lsr #1
     ac0:	204330a1 	subcs	r3, r3, r1, lsr #1
     ac4:	218000a2 	orrcs	r0, r0, r2, lsr #1
     ac8:	e1530121 	cmp	r3, r1, lsr #2
     acc:	20433121 	subcs	r3, r3, r1, lsr #2
     ad0:	21800122 	orrcs	r0, r0, r2, lsr #2
     ad4:	e15301a1 	cmp	r3, r1, lsr #3
     ad8:	204331a1 	subcs	r3, r3, r1, lsr #3
     adc:	218001a2 	orrcs	r0, r0, r2, lsr #3
     ae0:	e3530000 	cmp	r3, #0
     ae4:	11b02222 	lsrsne	r2, r2, #4
     ae8:	11a01221 	lsrne	r1, r1, #4
     aec:	1affffef 	bne	ab0 <.divsi3_skip_div0_test+0x64>
     af0:	e35c0000 	cmp	ip, #0
     af4:	42600000 	rsbmi	r0, r0, #0
     af8:	e12fff1e 	bx	lr
     afc:	e13c0000 	teq	ip, r0
     b00:	42600000 	rsbmi	r0, r0, #0
     b04:	e12fff1e 	bx	lr
     b08:	33a00000 	movcc	r0, #0
     b0c:	01a00fcc 	asreq	r0, ip, #31
     b10:	03800001 	orreq	r0, r0, #1
     b14:	e12fff1e 	bx	lr
     b18:	e3510801 	cmp	r1, #65536	; 0x10000
     b1c:	21a01821 	lsrcs	r1, r1, #16
     b20:	23a02010 	movcs	r2, #16
     b24:	33a02000 	movcc	r2, #0
     b28:	e3510c01 	cmp	r1, #256	; 0x100
     b2c:	21a01421 	lsrcs	r1, r1, #8
     b30:	22822008 	addcs	r2, r2, #8
     b34:	e3510010 	cmp	r1, #16
     b38:	21a01221 	lsrcs	r1, r1, #4
     b3c:	22822004 	addcs	r2, r2, #4
     b40:	e3510004 	cmp	r1, #4
     b44:	82822003 	addhi	r2, r2, #3
     b48:	908220a1 	addls	r2, r2, r1, lsr #1
     b4c:	e35c0000 	cmp	ip, #0
     b50:	e1a00233 	lsr	r0, r3, r2
     b54:	42600000 	rsbmi	r0, r0, #0
     b58:	e12fff1e 	bx	lr
     b5c:	e12fff1f 	bx	pc
     b60:	e1a00000 	nop			; (mov r0, r0)
     b64:	e3500000 	cmp	r0, #0
     b68:	c3e00102 	mvngt	r0, #-2147483648	; 0x80000000
     b6c:	b3a00102 	movlt	r0, #-2147483648	; 0x80000000
     b70:	ea008e2a 	b	24420 <____aeabi_idiv0_from_arm>

00000b74 <__aeabi_idivmod>:
     b74:	e3510000 	cmp	r1, #0
     b78:	0afffff7 	beq	b5c <.divsi3_skip_div0_test+0x110>
     b7c:	e92d4003 	push	{r0, r1, lr}
     b80:	ebffffb1 	bl	a4c <.divsi3_skip_div0_test>
     b84:	e8bd4006 	pop	{r1, r2, lr}
     b88:	e0030092 	mul	r3, r2, r0
     b8c:	e0411003 	sub	r1, r1, r3
     b90:	e12fff1e 	bx	lr

00000b94 <__aeabi_idiv0>:
     b94:	4770      	bx	lr
     b96:	46c0      	nop			; (mov r8, r8)

00000b98 <__aeabi_drsub>:
     b98:	e2211102 	eor	r1, r1, #-2147483648	; 0x80000000
     b9c:	ea000000 	b	ba4 <__adddf3>

00000ba0 <__aeabi_dsub>:
     ba0:	e2233102 	eor	r3, r3, #-2147483648	; 0x80000000

00000ba4 <__adddf3>:
     ba4:	e92d4030 	push	{r4, r5, lr}
     ba8:	e1a04081 	lsl	r4, r1, #1
     bac:	e1a05083 	lsl	r5, r3, #1
     bb0:	e1340005 	teq	r4, r5
     bb4:	01300002 	teqeq	r0, r2
     bb8:	1194c000 	orrsne	ip, r4, r0
     bbc:	1195c002 	orrsne	ip, r5, r2
     bc0:	11f0cac4 	mvnsne	ip, r4, asr #21
     bc4:	11f0cac5 	mvnsne	ip, r5, asr #21
     bc8:	0a00008c 	beq	e00 <__adddf3+0x25c>
     bcc:	e1a04aa4 	lsr	r4, r4, #21
     bd0:	e0745aa5 	rsbs	r5, r4, r5, lsr #21
     bd4:	b2655000 	rsblt	r5, r5, #0
     bd8:	da000006 	ble	bf8 <__adddf3+0x54>
     bdc:	e0844005 	add	r4, r4, r5
     be0:	e0202002 	eor	r2, r0, r2
     be4:	e0213003 	eor	r3, r1, r3
     be8:	e0220000 	eor	r0, r2, r0
     bec:	e0231001 	eor	r1, r3, r1
     bf0:	e0202002 	eor	r2, r0, r2
     bf4:	e0213003 	eor	r3, r1, r3
     bf8:	e3550036 	cmp	r5, #54	; 0x36
     bfc:	88bd4030 	pophi	{r4, r5, lr}
     c00:	812fff1e 	bxhi	lr
     c04:	e3110102 	tst	r1, #-2147483648	; 0x80000000
     c08:	e1a01601 	lsl	r1, r1, #12
     c0c:	e3a0c601 	mov	ip, #1048576	; 0x100000
     c10:	e18c1621 	orr	r1, ip, r1, lsr #12
     c14:	0a000001 	beq	c20 <__adddf3+0x7c>
     c18:	e2700000 	rsbs	r0, r0, #0
     c1c:	e2e11000 	rsc	r1, r1, #0
     c20:	e3130102 	tst	r3, #-2147483648	; 0x80000000
     c24:	e1a03603 	lsl	r3, r3, #12
     c28:	e18c3623 	orr	r3, ip, r3, lsr #12
     c2c:	0a000001 	beq	c38 <__adddf3+0x94>
     c30:	e2722000 	rsbs	r2, r2, #0
     c34:	e2e33000 	rsc	r3, r3, #0
     c38:	e1340005 	teq	r4, r5
     c3c:	0a000069 	beq	de8 <__adddf3+0x244>
     c40:	e2444001 	sub	r4, r4, #1
     c44:	e275e020 	rsbs	lr, r5, #32
     c48:	ba000005 	blt	c64 <__adddf3+0xc0>
     c4c:	e1a0ce12 	lsl	ip, r2, lr
     c50:	e0900532 	adds	r0, r0, r2, lsr r5
     c54:	e2a11000 	adc	r1, r1, #0
     c58:	e0900e13 	adds	r0, r0, r3, lsl lr
     c5c:	e0b11553 	adcs	r1, r1, r3, asr r5
     c60:	ea000006 	b	c80 <__adddf3+0xdc>
     c64:	e2455020 	sub	r5, r5, #32
     c68:	e28ee020 	add	lr, lr, #32
     c6c:	e3520001 	cmp	r2, #1
     c70:	e1a0ce13 	lsl	ip, r3, lr
     c74:	238cc002 	orrcs	ip, ip, #2
     c78:	e0900553 	adds	r0, r0, r3, asr r5
     c7c:	e0b11fc3 	adcs	r1, r1, r3, asr #31
     c80:	e2015102 	and	r5, r1, #-2147483648	; 0x80000000
     c84:	5a000002 	bpl	c94 <__adddf3+0xf0>
     c88:	e27cc000 	rsbs	ip, ip, #0
     c8c:	e2f00000 	rscs	r0, r0, #0
     c90:	e2e11000 	rsc	r1, r1, #0
     c94:	e3510601 	cmp	r1, #1048576	; 0x100000
     c98:	3a00000f 	bcc	cdc <__adddf3+0x138>
     c9c:	e3510602 	cmp	r1, #2097152	; 0x200000
     ca0:	3a000006 	bcc	cc0 <__adddf3+0x11c>
     ca4:	e1b010a1 	lsrs	r1, r1, #1
     ca8:	e1b00060 	rrxs	r0, r0
     cac:	e1a0c06c 	rrx	ip, ip
     cb0:	e2844001 	add	r4, r4, #1
     cb4:	e1a02a84 	lsl	r2, r4, #21
     cb8:	e3720501 	cmn	r2, #4194304	; 0x400000
     cbc:	2a00006b 	bcs	e70 <__adddf3+0x2cc>
     cc0:	e35c0102 	cmp	ip, #-2147483648	; 0x80000000
     cc4:	01b0c0a0 	lsrseq	ip, r0, #1
     cc8:	e2b00000 	adcs	r0, r0, #0
     ccc:	e0a11a04 	adc	r1, r1, r4, lsl #20
     cd0:	e1811005 	orr	r1, r1, r5
     cd4:	e8bd4030 	pop	{r4, r5, lr}
     cd8:	e12fff1e 	bx	lr
     cdc:	e1b0c08c 	lsls	ip, ip, #1
     ce0:	e0b00000 	adcs	r0, r0, r0
     ce4:	e0a11001 	adc	r1, r1, r1
     ce8:	e2544001 	subs	r4, r4, #1
     cec:	23510601 	cmpcs	r1, #1048576	; 0x100000
     cf0:	2afffff2 	bcs	cc0 <__adddf3+0x11c>
     cf4:	e3310000 	teq	r1, #0
     cf8:	13a03014 	movne	r3, #20
     cfc:	03a03034 	moveq	r3, #52	; 0x34
     d00:	01a01000 	moveq	r1, r0
     d04:	03a00000 	moveq	r0, #0
     d08:	e1a02001 	mov	r2, r1
     d0c:	e3520801 	cmp	r2, #65536	; 0x10000
     d10:	21a02822 	lsrcs	r2, r2, #16
     d14:	22433010 	subcs	r3, r3, #16
     d18:	e3520c01 	cmp	r2, #256	; 0x100
     d1c:	21a02422 	lsrcs	r2, r2, #8
     d20:	22433008 	subcs	r3, r3, #8
     d24:	e3520010 	cmp	r2, #16
     d28:	21a02222 	lsrcs	r2, r2, #4
     d2c:	22433004 	subcs	r3, r3, #4
     d30:	e3520004 	cmp	r2, #4
     d34:	22433002 	subcs	r3, r3, #2
     d38:	304330a2 	subcc	r3, r3, r2, lsr #1
     d3c:	e04331a2 	sub	r3, r3, r2, lsr #3
     d40:	e2532020 	subs	r2, r3, #32
     d44:	aa000007 	bge	d68 <__adddf3+0x1c4>
     d48:	e292200c 	adds	r2, r2, #12
     d4c:	da000004 	ble	d64 <__adddf3+0x1c0>
     d50:	e282c014 	add	ip, r2, #20
     d54:	e262200c 	rsb	r2, r2, #12
     d58:	e1a00c11 	lsl	r0, r1, ip
     d5c:	e1a01231 	lsr	r1, r1, r2
     d60:	ea000004 	b	d78 <__adddf3+0x1d4>
     d64:	e2822014 	add	r2, r2, #20
     d68:	d262c020 	rsble	ip, r2, #32
     d6c:	e1a01211 	lsl	r1, r1, r2
     d70:	d1811c30 	orrle	r1, r1, r0, lsr ip
     d74:	d1a00210 	lslle	r0, r0, r2
     d78:	e0544003 	subs	r4, r4, r3
     d7c:	a0811a04 	addge	r1, r1, r4, lsl #20
     d80:	a1811005 	orrge	r1, r1, r5
     d84:	a8bd4030 	popge	{r4, r5, lr}
     d88:	a12fff1e 	bxge	lr
     d8c:	e1e04004 	mvn	r4, r4
     d90:	e254401f 	subs	r4, r4, #31
     d94:	aa00000f 	bge	dd8 <__adddf3+0x234>
     d98:	e294400c 	adds	r4, r4, #12
     d9c:	ca000006 	bgt	dbc <__adddf3+0x218>
     da0:	e2844014 	add	r4, r4, #20
     da4:	e2642020 	rsb	r2, r4, #32
     da8:	e1a00430 	lsr	r0, r0, r4
     dac:	e1800211 	orr	r0, r0, r1, lsl r2
     db0:	e1851431 	orr	r1, r5, r1, lsr r4
     db4:	e8bd4030 	pop	{r4, r5, lr}
     db8:	e12fff1e 	bx	lr
     dbc:	e264400c 	rsb	r4, r4, #12
     dc0:	e2642020 	rsb	r2, r4, #32
     dc4:	e1a00230 	lsr	r0, r0, r2
     dc8:	e1800411 	orr	r0, r0, r1, lsl r4
     dcc:	e1a01005 	mov	r1, r5
     dd0:	e8bd4030 	pop	{r4, r5, lr}
     dd4:	e12fff1e 	bx	lr
     dd8:	e1a00431 	lsr	r0, r1, r4
     ddc:	e1a01005 	mov	r1, r5
     de0:	e8bd4030 	pop	{r4, r5, lr}
     de4:	e12fff1e 	bx	lr
     de8:	e3340000 	teq	r4, #0
     dec:	e2233601 	eor	r3, r3, #1048576	; 0x100000
     df0:	02211601 	eoreq	r1, r1, #1048576	; 0x100000
     df4:	02844001 	addeq	r4, r4, #1
     df8:	12455001 	subne	r5, r5, #1
     dfc:	eaffff8f 	b	c40 <__adddf3+0x9c>
     e00:	e1f0cac4 	mvns	ip, r4, asr #21
     e04:	11f0cac5 	mvnsne	ip, r5, asr #21
     e08:	0a00001d 	beq	e84 <__adddf3+0x2e0>
     e0c:	e1340005 	teq	r4, r5
     e10:	01300002 	teqeq	r0, r2
     e14:	0a000004 	beq	e2c <__adddf3+0x288>
     e18:	e194c000 	orrs	ip, r4, r0
     e1c:	01a01003 	moveq	r1, r3
     e20:	01a00002 	moveq	r0, r2
     e24:	e8bd4030 	pop	{r4, r5, lr}
     e28:	e12fff1e 	bx	lr
     e2c:	e1310003 	teq	r1, r3
     e30:	13a01000 	movne	r1, #0
     e34:	13a00000 	movne	r0, #0
     e38:	18bd4030 	popne	{r4, r5, lr}
     e3c:	112fff1e 	bxne	lr
     e40:	e1b0caa4 	lsrs	ip, r4, #21
     e44:	1a000004 	bne	e5c <__adddf3+0x2b8>
     e48:	e1b00080 	lsls	r0, r0, #1
     e4c:	e0b11001 	adcs	r1, r1, r1
     e50:	23811102 	orrcs	r1, r1, #-2147483648	; 0x80000000
     e54:	e8bd4030 	pop	{r4, r5, lr}
     e58:	e12fff1e 	bx	lr
     e5c:	e2944501 	adds	r4, r4, #4194304	; 0x400000
     e60:	32811601 	addcc	r1, r1, #1048576	; 0x100000
     e64:	38bd4030 	popcc	{r4, r5, lr}
     e68:	312fff1e 	bxcc	lr
     e6c:	e2015102 	and	r5, r1, #-2147483648	; 0x80000000
     e70:	e385147f 	orr	r1, r5, #2130706432	; 0x7f000000
     e74:	e381160f 	orr	r1, r1, #15728640	; 0xf00000
     e78:	e3a00000 	mov	r0, #0
     e7c:	e8bd4030 	pop	{r4, r5, lr}
     e80:	e12fff1e 	bx	lr
     e84:	e1f0cac4 	mvns	ip, r4, asr #21
     e88:	11a01003 	movne	r1, r3
     e8c:	11a00002 	movne	r0, r2
     e90:	01f0cac5 	mvnseq	ip, r5, asr #21
     e94:	11a03001 	movne	r3, r1
     e98:	11a02000 	movne	r2, r0
     e9c:	e1904601 	orrs	r4, r0, r1, lsl #12
     ea0:	01925603 	orrseq	r5, r2, r3, lsl #12
     ea4:	01310003 	teqeq	r1, r3
     ea8:	13811702 	orrne	r1, r1, #524288	; 0x80000
     eac:	e8bd4030 	pop	{r4, r5, lr}
     eb0:	e12fff1e 	bx	lr

00000eb4 <__aeabi_ui2d>:
     eb4:	e3300000 	teq	r0, #0
     eb8:	03a01000 	moveq	r1, #0
     ebc:	012fff1e 	bxeq	lr
     ec0:	e92d4030 	push	{r4, r5, lr}
     ec4:	e3a04b01 	mov	r4, #1024	; 0x400
     ec8:	e2844032 	add	r4, r4, #50	; 0x32
     ecc:	e3a05000 	mov	r5, #0
     ed0:	e3a01000 	mov	r1, #0
     ed4:	eaffff86 	b	cf4 <__adddf3+0x150>

00000ed8 <__aeabi_i2d>:
     ed8:	e3300000 	teq	r0, #0
     edc:	03a01000 	moveq	r1, #0
     ee0:	012fff1e 	bxeq	lr
     ee4:	e92d4030 	push	{r4, r5, lr}
     ee8:	e3a04b01 	mov	r4, #1024	; 0x400
     eec:	e2844032 	add	r4, r4, #50	; 0x32
     ef0:	e2105102 	ands	r5, r0, #-2147483648	; 0x80000000
     ef4:	42600000 	rsbmi	r0, r0, #0
     ef8:	e3a01000 	mov	r1, #0
     efc:	eaffff7c 	b	cf4 <__adddf3+0x150>

00000f00 <__aeabi_f2d>:
     f00:	e1b02080 	lsls	r2, r0, #1
     f04:	e1a011c2 	asr	r1, r2, #3
     f08:	e1a01061 	rrx	r1, r1
     f0c:	e1a00e02 	lsl	r0, r2, #28
     f10:	121234ff 	andsne	r3, r2, #-16777216	; 0xff000000
     f14:	133304ff 	teqne	r3, #-16777216	; 0xff000000
     f18:	1221130e 	eorne	r1, r1, #939524096	; 0x38000000
     f1c:	112fff1e 	bxne	lr
     f20:	e3d224ff 	bics	r2, r2, #-16777216	; 0xff000000
     f24:	012fff1e 	bxeq	lr
     f28:	e33304ff 	teq	r3, #-16777216	; 0xff000000
     f2c:	03811702 	orreq	r1, r1, #524288	; 0x80000
     f30:	012fff1e 	bxeq	lr
     f34:	e92d4030 	push	{r4, r5, lr}
     f38:	e3a04d0e 	mov	r4, #896	; 0x380
     f3c:	e2015102 	and	r5, r1, #-2147483648	; 0x80000000
     f40:	e3c11102 	bic	r1, r1, #-2147483648	; 0x80000000
     f44:	eaffff6a 	b	cf4 <__adddf3+0x150>

00000f48 <__aeabi_ul2d>:
     f48:	e1902001 	orrs	r2, r0, r1
     f4c:	012fff1e 	bxeq	lr
     f50:	e92d4030 	push	{r4, r5, lr}
     f54:	e3a05000 	mov	r5, #0
     f58:	ea000006 	b	f78 <__aeabi_l2d+0x1c>

00000f5c <__aeabi_l2d>:
     f5c:	e1902001 	orrs	r2, r0, r1
     f60:	012fff1e 	bxeq	lr
     f64:	e92d4030 	push	{r4, r5, lr}
     f68:	e2115102 	ands	r5, r1, #-2147483648	; 0x80000000
     f6c:	5a000001 	bpl	f78 <__aeabi_l2d+0x1c>
     f70:	e2700000 	rsbs	r0, r0, #0
     f74:	e2e11000 	rsc	r1, r1, #0
     f78:	e3a04b01 	mov	r4, #1024	; 0x400
     f7c:	e2844032 	add	r4, r4, #50	; 0x32
     f80:	e1b0cb21 	lsrs	ip, r1, #22
     f84:	0affff42 	beq	c94 <__adddf3+0xf0>
     f88:	e3a02003 	mov	r2, #3
     f8c:	e1b0c1ac 	lsrs	ip, ip, #3
     f90:	12822003 	addne	r2, r2, #3
     f94:	e1b0c1ac 	lsrs	ip, ip, #3
     f98:	12822003 	addne	r2, r2, #3
     f9c:	e08221ac 	add	r2, r2, ip, lsr #3
     fa0:	e2623020 	rsb	r3, r2, #32
     fa4:	e1a0c310 	lsl	ip, r0, r3
     fa8:	e1a00230 	lsr	r0, r0, r2
     fac:	e1800311 	orr	r0, r0, r1, lsl r3
     fb0:	e1a01231 	lsr	r1, r1, r2
     fb4:	e0844002 	add	r4, r4, r2
     fb8:	eaffff35 	b	c94 <__adddf3+0xf0>

00000fbc <__aeabi_dmul>:
     fbc:	e92d4070 	push	{r4, r5, r6, lr}
     fc0:	e3a0c0ff 	mov	ip, #255	; 0xff
     fc4:	e38ccc07 	orr	ip, ip, #1792	; 0x700
     fc8:	e01c4a21 	ands	r4, ip, r1, lsr #20
     fcc:	101c5a23 	andsne	r5, ip, r3, lsr #20
     fd0:	1134000c 	teqne	r4, ip
     fd4:	1135000c 	teqne	r5, ip
     fd8:	0b000075 	bleq	11b4 <__aeabi_dmul+0x1f8>
     fdc:	e0844005 	add	r4, r4, r5
     fe0:	e0216003 	eor	r6, r1, r3
     fe4:	e1c11a8c 	bic	r1, r1, ip, lsl #21
     fe8:	e1c33a8c 	bic	r3, r3, ip, lsl #21
     fec:	e1905601 	orrs	r5, r0, r1, lsl #12
     ff0:	11925603 	orrsne	r5, r2, r3, lsl #12
     ff4:	e3811601 	orr	r1, r1, #1048576	; 0x100000
     ff8:	e3833601 	orr	r3, r3, #1048576	; 0x100000
     ffc:	0a00001d 	beq	1078 <__aeabi_dmul+0xbc>
    1000:	e08ec290 	umull	ip, lr, r0, r2
    1004:	e3a05000 	mov	r5, #0
    1008:	e0a5e291 	umlal	lr, r5, r1, r2
    100c:	e2062102 	and	r2, r6, #-2147483648	; 0x80000000
    1010:	e0a5e390 	umlal	lr, r5, r0, r3
    1014:	e3a06000 	mov	r6, #0
    1018:	e0a65391 	umlal	r5, r6, r1, r3
    101c:	e33c0000 	teq	ip, #0
    1020:	138ee001 	orrne	lr, lr, #1
    1024:	e24440ff 	sub	r4, r4, #255	; 0xff
    1028:	e3560c02 	cmp	r6, #512	; 0x200
    102c:	e2c44c03 	sbc	r4, r4, #768	; 0x300
    1030:	2a000002 	bcs	1040 <__aeabi_dmul+0x84>
    1034:	e1b0e08e 	lsls	lr, lr, #1
    1038:	e0b55005 	adcs	r5, r5, r5
    103c:	e0a66006 	adc	r6, r6, r6
    1040:	e1821586 	orr	r1, r2, r6, lsl #11
    1044:	e1811aa5 	orr	r1, r1, r5, lsr #21
    1048:	e1a00585 	lsl	r0, r5, #11
    104c:	e1800aae 	orr	r0, r0, lr, lsr #21
    1050:	e1a0e58e 	lsl	lr, lr, #11
    1054:	e254c0fd 	subs	ip, r4, #253	; 0xfd
    1058:	835c0c07 	cmphi	ip, #1792	; 0x700
    105c:	8a000011 	bhi	10a8 <__aeabi_dmul+0xec>
    1060:	e35e0102 	cmp	lr, #-2147483648	; 0x80000000
    1064:	01b0e0a0 	lsrseq	lr, r0, #1
    1068:	e2b00000 	adcs	r0, r0, #0
    106c:	e0a11a04 	adc	r1, r1, r4, lsl #20
    1070:	e8bd4070 	pop	{r4, r5, r6, lr}
    1074:	e12fff1e 	bx	lr
    1078:	e2066102 	and	r6, r6, #-2147483648	; 0x80000000
    107c:	e1861001 	orr	r1, r6, r1
    1080:	e1800002 	orr	r0, r0, r2
    1084:	e0211003 	eor	r1, r1, r3
    1088:	e05440ac 	subs	r4, r4, ip, lsr #1
    108c:	c074500c 	rsbsgt	r5, r4, ip
    1090:	c1811a04 	orrgt	r1, r1, r4, lsl #20
    1094:	c8bd4070 	popgt	{r4, r5, r6, lr}
    1098:	c12fff1e 	bxgt	lr
    109c:	e3811601 	orr	r1, r1, #1048576	; 0x100000
    10a0:	e3a0e000 	mov	lr, #0
    10a4:	e2544001 	subs	r4, r4, #1
    10a8:	ca00005d 	bgt	1224 <__aeabi_dmul+0x268>
    10ac:	e3740036 	cmn	r4, #54	; 0x36
    10b0:	d3a00000 	movle	r0, #0
    10b4:	d2011102 	andle	r1, r1, #-2147483648	; 0x80000000
    10b8:	d8bd4070 	pople	{r4, r5, r6, lr}
    10bc:	d12fff1e 	bxle	lr
    10c0:	e2644000 	rsb	r4, r4, #0
    10c4:	e2544020 	subs	r4, r4, #32
    10c8:	aa00001a 	bge	1138 <__aeabi_dmul+0x17c>
    10cc:	e294400c 	adds	r4, r4, #12
    10d0:	ca00000c 	bgt	1108 <__aeabi_dmul+0x14c>
    10d4:	e2844014 	add	r4, r4, #20
    10d8:	e2645020 	rsb	r5, r4, #32
    10dc:	e1a03510 	lsl	r3, r0, r5
    10e0:	e1a00430 	lsr	r0, r0, r4
    10e4:	e1800511 	orr	r0, r0, r1, lsl r5
    10e8:	e2012102 	and	r2, r1, #-2147483648	; 0x80000000
    10ec:	e3c11102 	bic	r1, r1, #-2147483648	; 0x80000000
    10f0:	e0900fa3 	adds	r0, r0, r3, lsr #31
    10f4:	e0a21431 	adc	r1, r2, r1, lsr r4
    10f8:	e19ee083 	orrs	lr, lr, r3, lsl #1
    10fc:	01c00fa3 	biceq	r0, r0, r3, lsr #31
    1100:	e8bd4070 	pop	{r4, r5, r6, lr}
    1104:	e12fff1e 	bx	lr
    1108:	e264400c 	rsb	r4, r4, #12
    110c:	e2645020 	rsb	r5, r4, #32
    1110:	e1a03410 	lsl	r3, r0, r4
    1114:	e1a00530 	lsr	r0, r0, r5
    1118:	e1800411 	orr	r0, r0, r1, lsl r4
    111c:	e2011102 	and	r1, r1, #-2147483648	; 0x80000000
    1120:	e0900fa3 	adds	r0, r0, r3, lsr #31
    1124:	e2a11000 	adc	r1, r1, #0
    1128:	e19ee083 	orrs	lr, lr, r3, lsl #1
    112c:	01c00fa3 	biceq	r0, r0, r3, lsr #31
    1130:	e8bd4070 	pop	{r4, r5, r6, lr}
    1134:	e12fff1e 	bx	lr
    1138:	e2645020 	rsb	r5, r4, #32
    113c:	e18ee510 	orr	lr, lr, r0, lsl r5
    1140:	e1a03430 	lsr	r3, r0, r4
    1144:	e1833511 	orr	r3, r3, r1, lsl r5
    1148:	e1a00431 	lsr	r0, r1, r4
    114c:	e2011102 	and	r1, r1, #-2147483648	; 0x80000000
    1150:	e1c00431 	bic	r0, r0, r1, lsr r4
    1154:	e0800fa3 	add	r0, r0, r3, lsr #31
    1158:	e19ee083 	orrs	lr, lr, r3, lsl #1
    115c:	01c00fa3 	biceq	r0, r0, r3, lsr #31
    1160:	e8bd4070 	pop	{r4, r5, r6, lr}
    1164:	e12fff1e 	bx	lr
    1168:	e3340000 	teq	r4, #0
    116c:	1a000008 	bne	1194 <__aeabi_dmul+0x1d8>
    1170:	e2016102 	and	r6, r1, #-2147483648	; 0x80000000
    1174:	e1b00080 	lsls	r0, r0, #1
    1178:	e0a11001 	adc	r1, r1, r1
    117c:	e3110601 	tst	r1, #1048576	; 0x100000
    1180:	02444001 	subeq	r4, r4, #1
    1184:	0afffffa 	beq	1174 <__aeabi_dmul+0x1b8>
    1188:	e1811006 	orr	r1, r1, r6
    118c:	e3350000 	teq	r5, #0
    1190:	112fff1e 	bxne	lr
    1194:	e2036102 	and	r6, r3, #-2147483648	; 0x80000000
    1198:	e1b02082 	lsls	r2, r2, #1
    119c:	e0a33003 	adc	r3, r3, r3
    11a0:	e3130601 	tst	r3, #1048576	; 0x100000
    11a4:	02455001 	subeq	r5, r5, #1
    11a8:	0afffffa 	beq	1198 <__aeabi_dmul+0x1dc>
    11ac:	e1833006 	orr	r3, r3, r6
    11b0:	e12fff1e 	bx	lr
    11b4:	e134000c 	teq	r4, ip
    11b8:	e00c5a23 	and	r5, ip, r3, lsr #20
    11bc:	1135000c 	teqne	r5, ip
    11c0:	0a000007 	beq	11e4 <__aeabi_dmul+0x228>
    11c4:	e1906081 	orrs	r6, r0, r1, lsl #1
    11c8:	11926083 	orrsne	r6, r2, r3, lsl #1
    11cc:	1affffe5 	bne	1168 <__aeabi_dmul+0x1ac>
    11d0:	e0211003 	eor	r1, r1, r3
    11d4:	e2011102 	and	r1, r1, #-2147483648	; 0x80000000
    11d8:	e3a00000 	mov	r0, #0
    11dc:	e8bd4070 	pop	{r4, r5, r6, lr}
    11e0:	e12fff1e 	bx	lr
    11e4:	e1906081 	orrs	r6, r0, r1, lsl #1
    11e8:	01a00002 	moveq	r0, r2
    11ec:	01a01003 	moveq	r1, r3
    11f0:	11926083 	orrsne	r6, r2, r3, lsl #1
    11f4:	0a000010 	beq	123c <__aeabi_dmul+0x280>
    11f8:	e134000c 	teq	r4, ip
    11fc:	1a000001 	bne	1208 <__aeabi_dmul+0x24c>
    1200:	e1906601 	orrs	r6, r0, r1, lsl #12
    1204:	1a00000c 	bne	123c <__aeabi_dmul+0x280>
    1208:	e135000c 	teq	r5, ip
    120c:	1a000003 	bne	1220 <__aeabi_dmul+0x264>
    1210:	e1926603 	orrs	r6, r2, r3, lsl #12
    1214:	11a00002 	movne	r0, r2
    1218:	11a01003 	movne	r1, r3
    121c:	1a000006 	bne	123c <__aeabi_dmul+0x280>
    1220:	e0211003 	eor	r1, r1, r3
    1224:	e2011102 	and	r1, r1, #-2147483648	; 0x80000000
    1228:	e381147f 	orr	r1, r1, #2130706432	; 0x7f000000
    122c:	e381160f 	orr	r1, r1, #15728640	; 0xf00000
    1230:	e3a00000 	mov	r0, #0
    1234:	e8bd4070 	pop	{r4, r5, r6, lr}
    1238:	e12fff1e 	bx	lr
    123c:	e381147f 	orr	r1, r1, #2130706432	; 0x7f000000
    1240:	e381173e 	orr	r1, r1, #16252928	; 0xf80000
    1244:	e8bd4070 	pop	{r4, r5, r6, lr}
    1248:	e12fff1e 	bx	lr

0000124c <__aeabi_ddiv>:
    124c:	e92d4070 	push	{r4, r5, r6, lr}
    1250:	e3a0c0ff 	mov	ip, #255	; 0xff
    1254:	e38ccc07 	orr	ip, ip, #1792	; 0x700
    1258:	e01c4a21 	ands	r4, ip, r1, lsr #20
    125c:	101c5a23 	andsne	r5, ip, r3, lsr #20
    1260:	1134000c 	teqne	r4, ip
    1264:	1135000c 	teqne	r5, ip
    1268:	0b00005e 	bleq	13e8 <__aeabi_ddiv+0x19c>
    126c:	e0444005 	sub	r4, r4, r5
    1270:	e021e003 	eor	lr, r1, r3
    1274:	e1925603 	orrs	r5, r2, r3, lsl #12
    1278:	e1a01601 	lsl	r1, r1, #12
    127c:	0a00004c 	beq	13b4 <__aeabi_ddiv+0x168>
    1280:	e1a03603 	lsl	r3, r3, #12
    1284:	e3a05201 	mov	r5, #268435456	; 0x10000000
    1288:	e1853223 	orr	r3, r5, r3, lsr #4
    128c:	e1833c22 	orr	r3, r3, r2, lsr #24
    1290:	e1a02402 	lsl	r2, r2, #8
    1294:	e1855221 	orr	r5, r5, r1, lsr #4
    1298:	e1855c20 	orr	r5, r5, r0, lsr #24
    129c:	e1a06400 	lsl	r6, r0, #8
    12a0:	e20e1102 	and	r1, lr, #-2147483648	; 0x80000000
    12a4:	e1550003 	cmp	r5, r3
    12a8:	01560002 	cmpeq	r6, r2
    12ac:	e2a440fd 	adc	r4, r4, #253	; 0xfd
    12b0:	e2844c03 	add	r4, r4, #768	; 0x300
    12b4:	2a000001 	bcs	12c0 <__aeabi_ddiv+0x74>
    12b8:	e1b030a3 	lsrs	r3, r3, #1
    12bc:	e1a02062 	rrx	r2, r2
    12c0:	e0566002 	subs	r6, r6, r2
    12c4:	e0c55003 	sbc	r5, r5, r3
    12c8:	e1b030a3 	lsrs	r3, r3, #1
    12cc:	e1a02062 	rrx	r2, r2
    12d0:	e3a00601 	mov	r0, #1048576	; 0x100000
    12d4:	e3a0c702 	mov	ip, #524288	; 0x80000
    12d8:	e056e002 	subs	lr, r6, r2
    12dc:	e0d5e003 	sbcs	lr, r5, r3
    12e0:	20466002 	subcs	r6, r6, r2
    12e4:	21a0500e 	movcs	r5, lr
    12e8:	2180000c 	orrcs	r0, r0, ip
    12ec:	e1b030a3 	lsrs	r3, r3, #1
    12f0:	e1a02062 	rrx	r2, r2
    12f4:	e056e002 	subs	lr, r6, r2
    12f8:	e0d5e003 	sbcs	lr, r5, r3
    12fc:	20466002 	subcs	r6, r6, r2
    1300:	21a0500e 	movcs	r5, lr
    1304:	218000ac 	orrcs	r0, r0, ip, lsr #1
    1308:	e1b030a3 	lsrs	r3, r3, #1
    130c:	e1a02062 	rrx	r2, r2
    1310:	e056e002 	subs	lr, r6, r2
    1314:	e0d5e003 	sbcs	lr, r5, r3
    1318:	20466002 	subcs	r6, r6, r2
    131c:	21a0500e 	movcs	r5, lr
    1320:	2180012c 	orrcs	r0, r0, ip, lsr #2
    1324:	e1b030a3 	lsrs	r3, r3, #1
    1328:	e1a02062 	rrx	r2, r2
    132c:	e056e002 	subs	lr, r6, r2
    1330:	e0d5e003 	sbcs	lr, r5, r3
    1334:	20466002 	subcs	r6, r6, r2
    1338:	21a0500e 	movcs	r5, lr
    133c:	218001ac 	orrcs	r0, r0, ip, lsr #3
    1340:	e195e006 	orrs	lr, r5, r6
    1344:	0a00000d 	beq	1380 <__aeabi_ddiv+0x134>
    1348:	e1a05205 	lsl	r5, r5, #4
    134c:	e1855e26 	orr	r5, r5, r6, lsr #28
    1350:	e1a06206 	lsl	r6, r6, #4
    1354:	e1a03183 	lsl	r3, r3, #3
    1358:	e1833ea2 	orr	r3, r3, r2, lsr #29
    135c:	e1a02182 	lsl	r2, r2, #3
    1360:	e1b0c22c 	lsrs	ip, ip, #4
    1364:	1affffdb 	bne	12d8 <__aeabi_ddiv+0x8c>
    1368:	e3110601 	tst	r1, #1048576	; 0x100000
    136c:	1a000006 	bne	138c <__aeabi_ddiv+0x140>
    1370:	e1811000 	orr	r1, r1, r0
    1374:	e3a00000 	mov	r0, #0
    1378:	e3a0c102 	mov	ip, #-2147483648	; 0x80000000
    137c:	eaffffd5 	b	12d8 <__aeabi_ddiv+0x8c>
    1380:	e3110601 	tst	r1, #1048576	; 0x100000
    1384:	01811000 	orreq	r1, r1, r0
    1388:	03a00000 	moveq	r0, #0
    138c:	e254c0fd 	subs	ip, r4, #253	; 0xfd
    1390:	835c0c07 	cmphi	ip, #1792	; 0x700
    1394:	8affff43 	bhi	10a8 <__aeabi_dmul+0xec>
    1398:	e055c003 	subs	ip, r5, r3
    139c:	0056c002 	subseq	ip, r6, r2
    13a0:	01b0c0a0 	lsrseq	ip, r0, #1
    13a4:	e2b00000 	adcs	r0, r0, #0
    13a8:	e0a11a04 	adc	r1, r1, r4, lsl #20
    13ac:	e8bd4070 	pop	{r4, r5, r6, lr}
    13b0:	e12fff1e 	bx	lr
    13b4:	e20ee102 	and	lr, lr, #-2147483648	; 0x80000000
    13b8:	e18e1621 	orr	r1, lr, r1, lsr #12
    13bc:	e09440ac 	adds	r4, r4, ip, lsr #1
    13c0:	c074500c 	rsbsgt	r5, r4, ip
    13c4:	c1811a04 	orrgt	r1, r1, r4, lsl #20
    13c8:	c8bd4070 	popgt	{r4, r5, r6, lr}
    13cc:	c12fff1e 	bxgt	lr
    13d0:	e3811601 	orr	r1, r1, #1048576	; 0x100000
    13d4:	e3a0e000 	mov	lr, #0
    13d8:	e2544001 	subs	r4, r4, #1
    13dc:	eaffff31 	b	10a8 <__aeabi_dmul+0xec>
    13e0:	e185e006 	orr	lr, r5, r6
    13e4:	eaffff2f 	b	10a8 <__aeabi_dmul+0xec>
    13e8:	e00c5a23 	and	r5, ip, r3, lsr #20
    13ec:	e134000c 	teq	r4, ip
    13f0:	0135000c 	teqeq	r5, ip
    13f4:	0affff90 	beq	123c <__aeabi_dmul+0x280>
    13f8:	e134000c 	teq	r4, ip
    13fc:	1a000006 	bne	141c <__aeabi_ddiv+0x1d0>
    1400:	e1904601 	orrs	r4, r0, r1, lsl #12
    1404:	1affff8c 	bne	123c <__aeabi_dmul+0x280>
    1408:	e135000c 	teq	r5, ip
    140c:	1affff83 	bne	1220 <__aeabi_dmul+0x264>
    1410:	e1a00002 	mov	r0, r2
    1414:	e1a01003 	mov	r1, r3
    1418:	eaffff87 	b	123c <__aeabi_dmul+0x280>
    141c:	e135000c 	teq	r5, ip
    1420:	1a000004 	bne	1438 <__aeabi_ddiv+0x1ec>
    1424:	e1925603 	orrs	r5, r2, r3, lsl #12
    1428:	0affff68 	beq	11d0 <__aeabi_dmul+0x214>
    142c:	e1a00002 	mov	r0, r2
    1430:	e1a01003 	mov	r1, r3
    1434:	eaffff80 	b	123c <__aeabi_dmul+0x280>
    1438:	e1906081 	orrs	r6, r0, r1, lsl #1
    143c:	11926083 	orrsne	r6, r2, r3, lsl #1
    1440:	1affff48 	bne	1168 <__aeabi_dmul+0x1ac>
    1444:	e1904081 	orrs	r4, r0, r1, lsl #1
    1448:	1affff74 	bne	1220 <__aeabi_dmul+0x264>
    144c:	e1925083 	orrs	r5, r2, r3, lsl #1
    1450:	1affff5e 	bne	11d0 <__aeabi_dmul+0x214>
    1454:	eaffff78 	b	123c <__aeabi_dmul+0x280>

00001458 <__gedf2>:
    1458:	e3e0c000 	mvn	ip, #0
    145c:	ea000002 	b	146c <__cmpdf2+0x4>

00001460 <__ledf2>:
    1460:	e3a0c001 	mov	ip, #1
    1464:	ea000000 	b	146c <__cmpdf2+0x4>

00001468 <__cmpdf2>:
    1468:	e3a0c001 	mov	ip, #1
    146c:	e52dc004 	push	{ip}		; (str ip, [sp, #-4]!)
    1470:	e1a0c081 	lsl	ip, r1, #1
    1474:	e1f0cacc 	mvns	ip, ip, asr #21
    1478:	e1a0c083 	lsl	ip, r3, #1
    147c:	11f0cacc 	mvnsne	ip, ip, asr #21
    1480:	0a00000e 	beq	14c0 <__cmpdf2+0x58>
    1484:	e28dd004 	add	sp, sp, #4
    1488:	e190c081 	orrs	ip, r0, r1, lsl #1
    148c:	0192c083 	orrseq	ip, r2, r3, lsl #1
    1490:	11310003 	teqne	r1, r3
    1494:	01300002 	teqeq	r0, r2
    1498:	03a00000 	moveq	r0, #0
    149c:	012fff1e 	bxeq	lr
    14a0:	e3700000 	cmn	r0, #0
    14a4:	e1310003 	teq	r1, r3
    14a8:	51510003 	cmppl	r1, r3
    14ac:	01500002 	cmpeq	r0, r2
    14b0:	21a00fc3 	asrcs	r0, r3, #31
    14b4:	31e00fc3 	mvncc	r0, r3, asr #31
    14b8:	e3800001 	orr	r0, r0, #1
    14bc:	e12fff1e 	bx	lr
    14c0:	e1a0c081 	lsl	ip, r1, #1
    14c4:	e1f0cacc 	mvns	ip, ip, asr #21
    14c8:	1a000001 	bne	14d4 <__cmpdf2+0x6c>
    14cc:	e190c601 	orrs	ip, r0, r1, lsl #12
    14d0:	1a000004 	bne	14e8 <__cmpdf2+0x80>
    14d4:	e1a0c083 	lsl	ip, r3, #1
    14d8:	e1f0cacc 	mvns	ip, ip, asr #21
    14dc:	1affffe8 	bne	1484 <__cmpdf2+0x1c>
    14e0:	e192c603 	orrs	ip, r2, r3, lsl #12
    14e4:	0affffe6 	beq	1484 <__cmpdf2+0x1c>
    14e8:	e49d0004 	pop	{r0}		; (ldr r0, [sp], #4)
    14ec:	e12fff1e 	bx	lr

000014f0 <__aeabi_cdrcmple>:
    14f0:	e1a0c000 	mov	ip, r0
    14f4:	e1a00002 	mov	r0, r2
    14f8:	e1a0200c 	mov	r2, ip
    14fc:	e1a0c001 	mov	ip, r1
    1500:	e1a01003 	mov	r1, r3
    1504:	e1a0300c 	mov	r3, ip
    1508:	eaffffff 	b	150c <__aeabi_cdcmpeq>

0000150c <__aeabi_cdcmpeq>:
    150c:	e92d4001 	push	{r0, lr}
    1510:	ebffffd4 	bl	1468 <__cmpdf2>
    1514:	e3500000 	cmp	r0, #0
    1518:	43700000 	cmnmi	r0, #0
    151c:	e8bd4001 	pop	{r0, lr}
    1520:	e12fff1e 	bx	lr

00001524 <__aeabi_dcmpeq>:
    1524:	e52de008 	str	lr, [sp, #-8]!
    1528:	ebfffff7 	bl	150c <__aeabi_cdcmpeq>
    152c:	03a00001 	moveq	r0, #1
    1530:	13a00000 	movne	r0, #0
    1534:	e49de008 	ldr	lr, [sp], #8
    1538:	e12fff1e 	bx	lr

0000153c <__aeabi_dcmplt>:
    153c:	e52de008 	str	lr, [sp, #-8]!
    1540:	ebfffff1 	bl	150c <__aeabi_cdcmpeq>
    1544:	33a00001 	movcc	r0, #1
    1548:	23a00000 	movcs	r0, #0
    154c:	e49de008 	ldr	lr, [sp], #8
    1550:	e12fff1e 	bx	lr

00001554 <__aeabi_dcmple>:
    1554:	e52de008 	str	lr, [sp, #-8]!
    1558:	ebffffeb 	bl	150c <__aeabi_cdcmpeq>
    155c:	93a00001 	movls	r0, #1
    1560:	83a00000 	movhi	r0, #0
    1564:	e49de008 	ldr	lr, [sp], #8
    1568:	e12fff1e 	bx	lr

0000156c <__aeabi_dcmpge>:
    156c:	e52de008 	str	lr, [sp, #-8]!
    1570:	ebffffde 	bl	14f0 <__aeabi_cdrcmple>
    1574:	93a00001 	movls	r0, #1
    1578:	83a00000 	movhi	r0, #0
    157c:	e49de008 	ldr	lr, [sp], #8
    1580:	e12fff1e 	bx	lr

00001584 <__aeabi_dcmpgt>:
    1584:	e52de008 	str	lr, [sp, #-8]!
    1588:	ebffffd8 	bl	14f0 <__aeabi_cdrcmple>
    158c:	33a00001 	movcc	r0, #1
    1590:	23a00000 	movcs	r0, #0
    1594:	e49de008 	ldr	lr, [sp], #8
    1598:	e12fff1e 	bx	lr

0000159c <__aeabi_dcmpun>:
    159c:	e1a0c081 	lsl	ip, r1, #1
    15a0:	e1f0cacc 	mvns	ip, ip, asr #21
    15a4:	1a000001 	bne	15b0 <__aeabi_dcmpun+0x14>
    15a8:	e190c601 	orrs	ip, r0, r1, lsl #12
    15ac:	1a000006 	bne	15cc <__aeabi_dcmpun+0x30>
    15b0:	e1a0c083 	lsl	ip, r3, #1
    15b4:	e1f0cacc 	mvns	ip, ip, asr #21
    15b8:	1a000001 	bne	15c4 <__aeabi_dcmpun+0x28>
    15bc:	e192c603 	orrs	ip, r2, r3, lsl #12
    15c0:	1a000001 	bne	15cc <__aeabi_dcmpun+0x30>
    15c4:	e3a00000 	mov	r0, #0
    15c8:	e12fff1e 	bx	lr
    15cc:	e3a00001 	mov	r0, #1
    15d0:	e12fff1e 	bx	lr

000015d4 <__aeabi_d2iz>:
    15d4:	e1a02081 	lsl	r2, r1, #1
    15d8:	e2922602 	adds	r2, r2, #2097152	; 0x200000
    15dc:	2a00000c 	bcs	1614 <__aeabi_d2iz+0x40>
    15e0:	5a000009 	bpl	160c <__aeabi_d2iz+0x38>
    15e4:	e3e03e3e 	mvn	r3, #992	; 0x3e0
    15e8:	e0532ac2 	subs	r2, r3, r2, asr #21
    15ec:	9a00000a 	bls	161c <__aeabi_d2iz+0x48>
    15f0:	e1a03581 	lsl	r3, r1, #11
    15f4:	e3833102 	orr	r3, r3, #-2147483648	; 0x80000000
    15f8:	e1833aa0 	orr	r3, r3, r0, lsr #21
    15fc:	e3110102 	tst	r1, #-2147483648	; 0x80000000
    1600:	e1a00233 	lsr	r0, r3, r2
    1604:	12600000 	rsbne	r0, r0, #0
    1608:	e12fff1e 	bx	lr
    160c:	e3a00000 	mov	r0, #0
    1610:	e12fff1e 	bx	lr
    1614:	e1900601 	orrs	r0, r0, r1, lsl #12
    1618:	1a000002 	bne	1628 <__aeabi_d2iz+0x54>
    161c:	e2110102 	ands	r0, r1, #-2147483648	; 0x80000000
    1620:	03e00102 	mvneq	r0, #-2147483648	; 0x80000000
    1624:	e12fff1e 	bx	lr
    1628:	e3a00000 	mov	r0, #0
    162c:	e12fff1e 	bx	lr

00001630 <__clzsi2>:
    1630:	e3a0101c 	mov	r1, #28
    1634:	e3500801 	cmp	r0, #65536	; 0x10000
    1638:	21a00820 	lsrcs	r0, r0, #16
    163c:	22411010 	subcs	r1, r1, #16
    1640:	e3500c01 	cmp	r0, #256	; 0x100
    1644:	21a00420 	lsrcs	r0, r0, #8
    1648:	22411008 	subcs	r1, r1, #8
    164c:	e3500010 	cmp	r0, #16
    1650:	21a00220 	lsrcs	r0, r0, #4
    1654:	22411004 	subcs	r1, r1, #4
    1658:	e28f2008 	add	r2, pc, #8
    165c:	e7d20000 	ldrb	r0, [r2, r0]
    1660:	e0800001 	add	r0, r0, r1
    1664:	e12fff1e 	bx	lr
    1668:	02020304 	.word	0x02020304
    166c:	01010101 	.word	0x01010101
	...

00001678 <__aeabi_uldivmod>:
    1678:	e3530000 	cmp	r3, #0
    167c:	03520000 	cmpeq	r2, #0
    1680:	1a000004 	bne	1698 <__aeabi_uldivmod+0x20>
    1684:	e3510000 	cmp	r1, #0
    1688:	03500000 	cmpeq	r0, #0
    168c:	13e01000 	mvnne	r1, #0
    1690:	13e00000 	mvnne	r0, #0
    1694:	ea008b68 	b	2443c <____aeabi_ldiv0_from_arm>
    1698:	e24dd008 	sub	sp, sp, #8
    169c:	e92d6000 	push	{sp, lr}
    16a0:	eb008b6c 	bl	24458 <____udivmoddi4_from_arm>
    16a4:	e59de004 	ldr	lr, [sp, #4]
    16a8:	e28dd008 	add	sp, sp, #8
    16ac:	e8bd000c 	pop	{r2, r3}
    16b0:	e12fff1e 	bx	lr

000016b4 <__udivmoddi4>:
    16b4:	b5f0      	push	{r4, r5, r6, r7, lr}
    16b6:	4657      	mov	r7, sl
    16b8:	464e      	mov	r6, r9
    16ba:	4645      	mov	r5, r8
    16bc:	46de      	mov	lr, fp
    16be:	b5e0      	push	{r5, r6, r7, lr}
    16c0:	0004      	movs	r4, r0
    16c2:	000d      	movs	r5, r1
    16c4:	4692      	mov	sl, r2
    16c6:	4699      	mov	r9, r3
    16c8:	b083      	sub	sp, #12
    16ca:	428b      	cmp	r3, r1
    16cc:	d830      	bhi.n	1730 <__udivmoddi4+0x7c>
    16ce:	d02d      	beq.n	172c <__udivmoddi4+0x78>
    16d0:	4649      	mov	r1, r9
    16d2:	4650      	mov	r0, sl
    16d4:	f022 fe9a 	bl	2440c <____clzdi2_from_thumb>
    16d8:	0029      	movs	r1, r5
    16da:	0006      	movs	r6, r0
    16dc:	0020      	movs	r0, r4
    16de:	f022 fe95 	bl	2440c <____clzdi2_from_thumb>
    16e2:	1a33      	subs	r3, r6, r0
    16e4:	4698      	mov	r8, r3
    16e6:	3b20      	subs	r3, #32
    16e8:	469b      	mov	fp, r3
    16ea:	d435      	bmi.n	1758 <__udivmoddi4+0xa4>
    16ec:	465a      	mov	r2, fp
    16ee:	4653      	mov	r3, sl
    16f0:	4093      	lsls	r3, r2
    16f2:	4642      	mov	r2, r8
    16f4:	001f      	movs	r7, r3
    16f6:	4653      	mov	r3, sl
    16f8:	4093      	lsls	r3, r2
    16fa:	001e      	movs	r6, r3
    16fc:	42af      	cmp	r7, r5
    16fe:	d83c      	bhi.n	177a <__udivmoddi4+0xc6>
    1700:	42af      	cmp	r7, r5
    1702:	d100      	bne.n	1706 <__udivmoddi4+0x52>
    1704:	e07a      	b.n	17fc <__udivmoddi4+0x148>
    1706:	465b      	mov	r3, fp
    1708:	1ba4      	subs	r4, r4, r6
    170a:	41bd      	sbcs	r5, r7
    170c:	2b00      	cmp	r3, #0
    170e:	da00      	bge.n	1712 <__udivmoddi4+0x5e>
    1710:	e077      	b.n	1802 <__udivmoddi4+0x14e>
    1712:	2200      	movs	r2, #0
    1714:	2300      	movs	r3, #0
    1716:	9200      	str	r2, [sp, #0]
    1718:	9301      	str	r3, [sp, #4]
    171a:	2301      	movs	r3, #1
    171c:	465a      	mov	r2, fp
    171e:	4093      	lsls	r3, r2
    1720:	9301      	str	r3, [sp, #4]
    1722:	2301      	movs	r3, #1
    1724:	4642      	mov	r2, r8
    1726:	4093      	lsls	r3, r2
    1728:	9300      	str	r3, [sp, #0]
    172a:	e02a      	b.n	1782 <__udivmoddi4+0xce>
    172c:	4282      	cmp	r2, r0
    172e:	d9cf      	bls.n	16d0 <__udivmoddi4+0x1c>
    1730:	2200      	movs	r2, #0
    1732:	2300      	movs	r3, #0
    1734:	9200      	str	r2, [sp, #0]
    1736:	9301      	str	r3, [sp, #4]
    1738:	9b0c      	ldr	r3, [sp, #48]	; 0x30
    173a:	2b00      	cmp	r3, #0
    173c:	d001      	beq.n	1742 <__udivmoddi4+0x8e>
    173e:	601c      	str	r4, [r3, #0]
    1740:	605d      	str	r5, [r3, #4]
    1742:	9800      	ldr	r0, [sp, #0]
    1744:	9901      	ldr	r1, [sp, #4]
    1746:	b003      	add	sp, #12
    1748:	bcf0      	pop	{r4, r5, r6, r7}
    174a:	46bb      	mov	fp, r7
    174c:	46b2      	mov	sl, r6
    174e:	46a9      	mov	r9, r5
    1750:	46a0      	mov	r8, r4
    1752:	bcf0      	pop	{r4, r5, r6, r7}
    1754:	bc04      	pop	{r2}
    1756:	4710      	bx	r2
    1758:	4642      	mov	r2, r8
    175a:	2320      	movs	r3, #32
    175c:	1a9b      	subs	r3, r3, r2
    175e:	4652      	mov	r2, sl
    1760:	40da      	lsrs	r2, r3
    1762:	4641      	mov	r1, r8
    1764:	0013      	movs	r3, r2
    1766:	464a      	mov	r2, r9
    1768:	408a      	lsls	r2, r1
    176a:	0017      	movs	r7, r2
    176c:	4642      	mov	r2, r8
    176e:	431f      	orrs	r7, r3
    1770:	4653      	mov	r3, sl
    1772:	4093      	lsls	r3, r2
    1774:	001e      	movs	r6, r3
    1776:	42af      	cmp	r7, r5
    1778:	d9c2      	bls.n	1700 <__udivmoddi4+0x4c>
    177a:	2200      	movs	r2, #0
    177c:	2300      	movs	r3, #0
    177e:	9200      	str	r2, [sp, #0]
    1780:	9301      	str	r3, [sp, #4]
    1782:	4643      	mov	r3, r8
    1784:	2b00      	cmp	r3, #0
    1786:	d0d7      	beq.n	1738 <__udivmoddi4+0x84>
    1788:	07fb      	lsls	r3, r7, #31
    178a:	0872      	lsrs	r2, r6, #1
    178c:	431a      	orrs	r2, r3
    178e:	4646      	mov	r6, r8
    1790:	087b      	lsrs	r3, r7, #1
    1792:	e00e      	b.n	17b2 <__udivmoddi4+0xfe>
    1794:	42ab      	cmp	r3, r5
    1796:	d101      	bne.n	179c <__udivmoddi4+0xe8>
    1798:	42a2      	cmp	r2, r4
    179a:	d80c      	bhi.n	17b6 <__udivmoddi4+0x102>
    179c:	1aa4      	subs	r4, r4, r2
    179e:	419d      	sbcs	r5, r3
    17a0:	2001      	movs	r0, #1
    17a2:	1924      	adds	r4, r4, r4
    17a4:	416d      	adcs	r5, r5
    17a6:	2100      	movs	r1, #0
    17a8:	3e01      	subs	r6, #1
    17aa:	1824      	adds	r4, r4, r0
    17ac:	414d      	adcs	r5, r1
    17ae:	2e00      	cmp	r6, #0
    17b0:	d006      	beq.n	17c0 <__udivmoddi4+0x10c>
    17b2:	42ab      	cmp	r3, r5
    17b4:	d9ee      	bls.n	1794 <__udivmoddi4+0xe0>
    17b6:	3e01      	subs	r6, #1
    17b8:	1924      	adds	r4, r4, r4
    17ba:	416d      	adcs	r5, r5
    17bc:	2e00      	cmp	r6, #0
    17be:	d1f8      	bne.n	17b2 <__udivmoddi4+0xfe>
    17c0:	465b      	mov	r3, fp
    17c2:	9800      	ldr	r0, [sp, #0]
    17c4:	9901      	ldr	r1, [sp, #4]
    17c6:	1900      	adds	r0, r0, r4
    17c8:	4169      	adcs	r1, r5
    17ca:	2b00      	cmp	r3, #0
    17cc:	db24      	blt.n	1818 <__udivmoddi4+0x164>
    17ce:	002b      	movs	r3, r5
    17d0:	465a      	mov	r2, fp
    17d2:	4644      	mov	r4, r8
    17d4:	40d3      	lsrs	r3, r2
    17d6:	002a      	movs	r2, r5
    17d8:	40e2      	lsrs	r2, r4
    17da:	001c      	movs	r4, r3
    17dc:	465b      	mov	r3, fp
    17de:	0015      	movs	r5, r2
    17e0:	2b00      	cmp	r3, #0
    17e2:	db2a      	blt.n	183a <__udivmoddi4+0x186>
    17e4:	0026      	movs	r6, r4
    17e6:	409e      	lsls	r6, r3
    17e8:	0033      	movs	r3, r6
    17ea:	0026      	movs	r6, r4
    17ec:	4647      	mov	r7, r8
    17ee:	40be      	lsls	r6, r7
    17f0:	0032      	movs	r2, r6
    17f2:	1a80      	subs	r0, r0, r2
    17f4:	4199      	sbcs	r1, r3
    17f6:	9000      	str	r0, [sp, #0]
    17f8:	9101      	str	r1, [sp, #4]
    17fa:	e79d      	b.n	1738 <__udivmoddi4+0x84>
    17fc:	42a3      	cmp	r3, r4
    17fe:	d8bc      	bhi.n	177a <__udivmoddi4+0xc6>
    1800:	e781      	b.n	1706 <__udivmoddi4+0x52>
    1802:	4642      	mov	r2, r8
    1804:	2320      	movs	r3, #32
    1806:	2100      	movs	r1, #0
    1808:	1a9b      	subs	r3, r3, r2
    180a:	2200      	movs	r2, #0
    180c:	9100      	str	r1, [sp, #0]
    180e:	9201      	str	r2, [sp, #4]
    1810:	2201      	movs	r2, #1
    1812:	40da      	lsrs	r2, r3
    1814:	9201      	str	r2, [sp, #4]
    1816:	e784      	b.n	1722 <__udivmoddi4+0x6e>
    1818:	4642      	mov	r2, r8
    181a:	2320      	movs	r3, #32
    181c:	1a9b      	subs	r3, r3, r2
    181e:	002a      	movs	r2, r5
    1820:	4646      	mov	r6, r8
    1822:	409a      	lsls	r2, r3
    1824:	0023      	movs	r3, r4
    1826:	40f3      	lsrs	r3, r6
    1828:	4644      	mov	r4, r8
    182a:	4313      	orrs	r3, r2
    182c:	002a      	movs	r2, r5
    182e:	40e2      	lsrs	r2, r4
    1830:	001c      	movs	r4, r3
    1832:	465b      	mov	r3, fp
    1834:	0015      	movs	r5, r2
    1836:	2b00      	cmp	r3, #0
    1838:	dad4      	bge.n	17e4 <__udivmoddi4+0x130>
    183a:	4642      	mov	r2, r8
    183c:	002f      	movs	r7, r5
    183e:	2320      	movs	r3, #32
    1840:	0026      	movs	r6, r4
    1842:	4097      	lsls	r7, r2
    1844:	1a9b      	subs	r3, r3, r2
    1846:	40de      	lsrs	r6, r3
    1848:	003b      	movs	r3, r7
    184a:	4333      	orrs	r3, r6
    184c:	e7cd      	b.n	17ea <__udivmoddi4+0x136>
    184e:	46c0      	nop			; (mov r8, r8)

00001850 <__clzdi2>:
    1850:	e92d4010 	push	{r4, lr}
    1854:	e3510000 	cmp	r1, #0
    1858:	1a000002 	bne	1868 <__clzdi2+0x18>
    185c:	ebffff73 	bl	1630 <__clzsi2>
    1860:	e2800020 	add	r0, r0, #32
    1864:	ea000001 	b	1870 <__clzdi2+0x20>
    1868:	e1a00001 	mov	r0, r1
    186c:	ebffff6f 	bl	1630 <__clzsi2>
    1870:	e8bd4010 	pop	{r4, lr}
    1874:	e12fff1e 	bx	lr

00001878 <rwip_param_dummy_get>:
    1878:	2001      	movs	r0, #1
    187a:	4770      	bx	lr

0000187c <rwip_param_dummy_set>:
    187c:	2001      	movs	r0, #1
    187e:	4770      	bx	lr

00001880 <rwip_param_dummy_del>:
    1880:	2001      	movs	r0, #1
    1882:	4770      	bx	lr

00001884 <rf_rpl_reg_rd>:
    1884:	6800      	ldr	r0, [r0, #0]
    1886:	4770      	bx	lr

00001888 <rf_rpl_reg_wr>:
    1888:	6001      	str	r1, [r0, #0]
    188a:	4770      	bx	lr

0000188c <rf_txpwr_dbm_get>:
    188c:	2000      	movs	r0, #0
    188e:	4770      	bx	lr

00001890 <rf_sleep>:
    1890:	2307      	movs	r3, #7
    1892:	4a02      	ldr	r2, [pc, #8]	; (189c <rf_sleep+0xc>)
    1894:	6811      	ldr	r1, [r2, #0]
    1896:	430b      	orrs	r3, r1
    1898:	6013      	str	r3, [r2, #0]
    189a:	4770      	bx	lr
    189c:	00820030 	.word	0x00820030

000018a0 <rf_force_agc_enable>:
    18a0:	4906      	ldr	r1, [pc, #24]	; (18bc <rf_force_agc_enable+0x1c>)
    18a2:	07c2      	lsls	r2, r0, #31
    18a4:	680b      	ldr	r3, [r1, #0]
    18a6:	005b      	lsls	r3, r3, #1
    18a8:	085b      	lsrs	r3, r3, #1
    18aa:	4313      	orrs	r3, r2
    18ac:	600b      	str	r3, [r1, #0]
    18ae:	4904      	ldr	r1, [pc, #16]	; (18c0 <rf_force_agc_enable+0x20>)
    18b0:	680b      	ldr	r3, [r1, #0]
    18b2:	005b      	lsls	r3, r3, #1
    18b4:	0858      	lsrs	r0, r3, #1
    18b6:	4310      	orrs	r0, r2
    18b8:	6008      	str	r0, [r1, #0]
    18ba:	4770      	bx	lr
    18bc:	00820074 	.word	0x00820074
    18c0:	00820874 	.word	0x00820874

000018c4 <rf_rssi_convert>:
    18c4:	0840      	lsrs	r0, r0, #1
    18c6:	3876      	subs	r0, #118	; 0x76
    18c8:	0600      	lsls	r0, r0, #24
    18ca:	1600      	asrs	r0, r0, #24
    18cc:	4770      	bx	lr
	...

000018d0 <rf_txpwr_cs_get>:
    18d0:	0002      	movs	r2, r0
    18d2:	2301      	movs	r3, #1
    18d4:	b530      	push	{r4, r5, lr}
    18d6:	4c0a      	ldr	r4, [pc, #40]	; (1900 <rf_txpwr_cs_get+0x30>)
    18d8:	571d      	ldrsb	r5, [r3, r4]
    18da:	0618      	lsls	r0, r3, #24
    18dc:	0e00      	lsrs	r0, r0, #24
    18de:	4295      	cmp	r5, r2
    18e0:	da03      	bge.n	18ea <rf_txpwr_cs_get+0x1a>
    18e2:	3301      	adds	r3, #1
    18e4:	2b0d      	cmp	r3, #13
    18e6:	d1f7      	bne.n	18d8 <rf_txpwr_cs_get+0x8>
    18e8:	0018      	movs	r0, r3
    18ea:	5623      	ldrsb	r3, [r4, r0]
    18ec:	4293      	cmp	r3, r2
    18ee:	d006      	beq.n	18fe <rf_txpwr_cs_get+0x2e>
    18f0:	2900      	cmp	r1, #0
    18f2:	d104      	bne.n	18fe <rf_txpwr_cs_get+0x2e>
    18f4:	2801      	cmp	r0, #1
    18f6:	d002      	beq.n	18fe <rf_txpwr_cs_get+0x2e>
    18f8:	3801      	subs	r0, #1
    18fa:	0600      	lsls	r0, r0, #24
    18fc:	0e00      	lsrs	r0, r0, #24
    18fe:	bd30      	pop	{r4, r5, pc}
    1900:	00024702 	.word	0x00024702

00001904 <rwble_sleep_wakeup_end>:
    1904:	2200      	movs	r2, #0
    1906:	4b01      	ldr	r3, [pc, #4]	; (190c <rwble_sleep_wakeup_end+0x8>)
    1908:	601a      	str	r2, [r3, #0]
    190a:	4770      	bx	lr
    190c:	0082080c 	.word	0x0082080c

00001910 <uart_send>:
    1910:	b5f0      	push	{r4, r5, r6, r7, lr}
    1912:	2480      	movs	r4, #128	; 0x80
    1914:	4b08      	ldr	r3, [pc, #32]	; (1938 <uart_send+0x28>)
    1916:	4a09      	ldr	r2, [pc, #36]	; (193c <uart_send+0x2c>)
    1918:	4d09      	ldr	r5, [pc, #36]	; (1940 <uart_send+0x30>)
    191a:	0364      	lsls	r4, r4, #13
    191c:	3901      	subs	r1, #1
    191e:	0409      	lsls	r1, r1, #16
    1920:	0c09      	lsrs	r1, r1, #16
    1922:	4299      	cmp	r1, r3
    1924:	d100      	bne.n	1928 <uart_send+0x18>
    1926:	bdf0      	pop	{r4, r5, r6, r7, pc}
    1928:	7806      	ldrb	r6, [r0, #0]
    192a:	6817      	ldr	r7, [r2, #0]
    192c:	4227      	tst	r7, r4
    192e:	d0fc      	beq.n	192a <uart_send+0x1a>
    1930:	602e      	str	r6, [r5, #0]
    1932:	3001      	adds	r0, #1
    1934:	e7f2      	b.n	191c <uart_send+0xc>
    1936:	46c0      	nop			; (mov r8, r8)
    1938:	0000ffff 	.word	0x0000ffff
    193c:	00806308 	.word	0x00806308
    1940:	0080630c 	.word	0x0080630c

00001944 <uart_flow_on>:
    1944:	4770      	bx	lr

00001946 <uart_flow_off>:
    1946:	2001      	movs	r0, #1
    1948:	4770      	bx	lr
	...

0000194c <uart_read>:
    194c:	b510      	push	{r4, lr}
    194e:	4c04      	ldr	r4, [pc, #16]	; (1960 <uart_read+0x14>)
    1950:	60a2      	str	r2, [r4, #8]
    1952:	60e3      	str	r3, [r4, #12]
    1954:	2301      	movs	r3, #1
    1956:	61a0      	str	r0, [r4, #24]
    1958:	6221      	str	r1, [r4, #32]
    195a:	3406      	adds	r4, #6
    195c:	77e3      	strb	r3, [r4, #31]
    195e:	bd10      	pop	{r4, pc}
    1960:	0040350c 	.word	0x0040350c

00001964 <uart_write>:
    1964:	b510      	push	{r4, lr}
    1966:	4c04      	ldr	r4, [pc, #16]	; (1978 <uart_write+0x14>)
    1968:	6022      	str	r2, [r4, #0]
    196a:	6063      	str	r3, [r4, #4]
    196c:	2301      	movs	r3, #1
    196e:	6160      	str	r0, [r4, #20]
    1970:	61e1      	str	r1, [r4, #28]
    1972:	3405      	adds	r4, #5
    1974:	77e3      	strb	r3, [r4, #31]
    1976:	bd10      	pop	{r4, pc}
    1978:	0040350c 	.word	0x0040350c

0000197c <get_flash_ID>:
    197c:	4b0b      	ldr	r3, [pc, #44]	; (19ac <get_flash_ID+0x30>)
    197e:	681a      	ldr	r2, [r3, #0]
    1980:	2a00      	cmp	r2, #0
    1982:	dbfc      	blt.n	197e <get_flash_ID+0x2>
    1984:	4a0a      	ldr	r2, [pc, #40]	; (19b0 <get_flash_ID+0x34>)
    1986:	601a      	str	r2, [r3, #0]
    1988:	681a      	ldr	r2, [r3, #0]
    198a:	2a00      	cmp	r2, #0
    198c:	dbfc      	blt.n	1988 <get_flash_ID+0xc>
    198e:	2201      	movs	r2, #1
    1990:	4b08      	ldr	r3, [pc, #32]	; (19b4 <get_flash_ID+0x38>)
    1992:	4252      	negs	r2, r2
    1994:	601a      	str	r2, [r3, #0]
    1996:	601a      	str	r2, [r3, #0]
    1998:	601a      	str	r2, [r3, #0]
    199a:	601a      	str	r2, [r3, #0]
    199c:	601a      	str	r2, [r3, #0]
    199e:	601a      	str	r2, [r3, #0]
    19a0:	601a      	str	r2, [r3, #0]
    19a2:	601a      	str	r2, [r3, #0]
    19a4:	4b04      	ldr	r3, [pc, #16]	; (19b8 <get_flash_ID+0x3c>)
    19a6:	6818      	ldr	r0, [r3, #0]
    19a8:	4770      	bx	lr
    19aa:	46c0      	nop			; (mov r8, r8)
    19ac:	00802000 	.word	0x00802000
    19b0:	3407d000 	.word	0x3407d000
    19b4:	00802004 	.word	0x00802004
    19b8:	00802010 	.word	0x00802010

000019bc <flash_write_sr>:
    19bc:	b570      	push	{r4, r5, r6, lr}
    19be:	0005      	movs	r5, r0
    19c0:	000c      	movs	r4, r1
    19c2:	f7ff ffdb 	bl	197c <get_flash_ID>
    19c6:	4e1d      	ldr	r6, [pc, #116]	; (1a3c <flash_write_sr+0x80>)
    19c8:	6833      	ldr	r3, [r6, #0]
    19ca:	4298      	cmp	r0, r3
    19cc:	d133      	bne.n	1a36 <flash_write_sr+0x7a>
    19ce:	4a1c      	ldr	r2, [pc, #112]	; (1a40 <flash_write_sr+0x84>)
    19d0:	4b1c      	ldr	r3, [pc, #112]	; (1a44 <flash_write_sr+0x88>)
    19d2:	4290      	cmp	r0, r2
    19d4:	d00b      	beq.n	19ee <flash_write_sr+0x32>
    19d6:	d806      	bhi.n	19e6 <flash_write_sr+0x2a>
    19d8:	4a1b      	ldr	r2, [pc, #108]	; (1a48 <flash_write_sr+0x8c>)
    19da:	1880      	adds	r0, r0, r2
    19dc:	2801      	cmp	r0, #1
    19de:	d909      	bls.n	19f4 <flash_write_sr+0x38>
    19e0:	681a      	ldr	r2, [r3, #0]
    19e2:	491a      	ldr	r1, [pc, #104]	; (1a4c <flash_write_sr+0x90>)
    19e4:	e008      	b.n	19f8 <flash_write_sr+0x3c>
    19e6:	4a1a      	ldr	r2, [pc, #104]	; (1a50 <flash_write_sr+0x94>)
    19e8:	1880      	adds	r0, r0, r2
    19ea:	2801      	cmp	r0, #1
    19ec:	d8f8      	bhi.n	19e0 <flash_write_sr+0x24>
    19ee:	681a      	ldr	r2, [r3, #0]
    19f0:	4918      	ldr	r1, [pc, #96]	; (1a54 <flash_write_sr+0x98>)
    19f2:	e001      	b.n	19f8 <flash_write_sr+0x3c>
    19f4:	681a      	ldr	r2, [r3, #0]
    19f6:	4918      	ldr	r1, [pc, #96]	; (1a58 <flash_write_sr+0x9c>)
    19f8:	400a      	ands	r2, r1
    19fa:	601a      	str	r2, [r3, #0]
    19fc:	6819      	ldr	r1, [r3, #0]
    19fe:	02a4      	lsls	r4, r4, #10
    1a00:	430c      	orrs	r4, r1
    1a02:	2180      	movs	r1, #128	; 0x80
    1a04:	0089      	lsls	r1, r1, #2
    1a06:	430c      	orrs	r4, r1
    1a08:	601c      	str	r4, [r3, #0]
    1a0a:	4c14      	ldr	r4, [pc, #80]	; (1a5c <flash_write_sr+0xa0>)
    1a0c:	6823      	ldr	r3, [r4, #0]
    1a0e:	2b00      	cmp	r3, #0
    1a10:	dbfc      	blt.n	1a0c <flash_write_sr+0x50>
    1a12:	f7ff ffb3 	bl	197c <get_flash_ID>
    1a16:	6833      	ldr	r3, [r6, #0]
    1a18:	4298      	cmp	r0, r3
    1a1a:	d10c      	bne.n	1a36 <flash_write_sr+0x7a>
    1a1c:	2d01      	cmp	r5, #1
    1a1e:	d10b      	bne.n	1a38 <flash_write_sr+0x7c>
    1a20:	4b0f      	ldr	r3, [pc, #60]	; (1a60 <flash_write_sr+0xa4>)
    1a22:	6023      	str	r3, [r4, #0]
    1a24:	6823      	ldr	r3, [r4, #0]
    1a26:	2b00      	cmp	r3, #0
    1a28:	dbfc      	blt.n	1a24 <flash_write_sr+0x68>
    1a2a:	23fa      	movs	r3, #250	; 0xfa
    1a2c:	02db      	lsls	r3, r3, #11
    1a2e:	6023      	str	r3, [r4, #0]
    1a30:	6823      	ldr	r3, [r4, #0]
    1a32:	2b00      	cmp	r3, #0
    1a34:	dbfc      	blt.n	1a30 <flash_write_sr+0x74>
    1a36:	bd70      	pop	{r4, r5, r6, pc}
    1a38:	4b0a      	ldr	r3, [pc, #40]	; (1a64 <flash_write_sr+0xa8>)
    1a3a:	e7f2      	b.n	1a22 <flash_write_sr+0x66>
    1a3c:	00400da4 	.word	0x00400da4
    1a40:	00c84013 	.word	0x00c84013
    1a44:	0080201c 	.word	0x0080201c
    1a48:	ff3ddced 	.word	0xff3ddced
    1a4c:	ffff0fff 	.word	0xffff0fff
    1a50:	ff1fbfed 	.word	0xff1fbfed
    1a54:	fefe0fff 	.word	0xfefe0fff
    1a58:	ffdf0fff 	.word	0xffdf0fff
    1a5c:	00802000 	.word	0x00802000
    1a60:	6407d000 	.word	0x6407d000
    1a64:	6707d000 	.word	0x6707d000

00001a68 <rf_reset>:
    1a68:	4770      	bx	lr
	...

00001a6c <rwip_driver_init>:
    1a6c:	b5f0      	push	{r4, r5, r6, r7, lr}
    1a6e:	b085      	sub	sp, #20
    1a70:	2300      	movs	r3, #0
    1a72:	466a      	mov	r2, sp
    1a74:	7213      	strb	r3, [r2, #8]
    1a76:	4298      	cmp	r0, r3
    1a78:	d102      	bne.n	1a80 <rwip_driver_init+0x14>
    1a7a:	4b57      	ldr	r3, [pc, #348]	; (1bd8 <rwip_driver_init+0x16c>)
    1a7c:	4a57      	ldr	r2, [pc, #348]	; (1bdc <rwip_driver_init+0x170>)
    1a7e:	609a      	str	r2, [r3, #8]
    1a80:	2200      	movs	r2, #0
    1a82:	4b57      	ldr	r3, [pc, #348]	; (1be0 <rwip_driver_init+0x174>)
    1a84:	82da      	strh	r2, [r3, #22]
    1a86:	3a01      	subs	r2, #1
    1a88:	609a      	str	r2, [r3, #8]
    1a8a:	601a      	str	r2, [r3, #0]
    1a8c:	605a      	str	r2, [r3, #4]
    1a8e:	2800      	cmp	r0, #0
    1a90:	d009      	beq.n	1aa6 <rwip_driver_init+0x3a>
    1a92:	2382      	movs	r3, #130	; 0x82
    1a94:	2180      	movs	r1, #128	; 0x80
    1a96:	041b      	lsls	r3, r3, #16
    1a98:	681a      	ldr	r2, [r3, #0]
    1a9a:	0609      	lsls	r1, r1, #24
    1a9c:	430a      	orrs	r2, r1
    1a9e:	601a      	str	r2, [r3, #0]
    1aa0:	681a      	ldr	r2, [r3, #0]
    1aa2:	2a00      	cmp	r2, #0
    1aa4:	dbfc      	blt.n	1aa0 <rwip_driver_init+0x34>
    1aa6:	4b4f      	ldr	r3, [pc, #316]	; (1be4 <rwip_driver_init+0x178>)
    1aa8:	4a4f      	ldr	r2, [pc, #316]	; (1be8 <rwip_driver_init+0x17c>)
    1aaa:	2109      	movs	r1, #9
    1aac:	601a      	str	r2, [r3, #0]
    1aae:	2301      	movs	r3, #1
    1ab0:	4469      	add	r1, sp
    1ab2:	700b      	strb	r3, [r1, #0]
    1ab4:	2800      	cmp	r0, #0
    1ab6:	d004      	beq.n	1ac2 <rwip_driver_init+0x56>
    1ab8:	4b4c      	ldr	r3, [pc, #304]	; (1bec <rwip_driver_init+0x180>)
    1aba:	2011      	movs	r0, #17
    1abc:	681b      	ldr	r3, [r3, #0]
    1abe:	aa02      	add	r2, sp, #8
    1ac0:	4798      	blx	r3
    1ac2:	466b      	mov	r3, sp
    1ac4:	2501      	movs	r5, #1
    1ac6:	1ddc      	adds	r4, r3, #7
    1ac8:	721d      	strb	r5, [r3, #8]
    1aca:	2309      	movs	r3, #9
    1acc:	4f47      	ldr	r7, [pc, #284]	; (1bec <rwip_driver_init+0x180>)
    1ace:	446b      	add	r3, sp
    1ad0:	0022      	movs	r2, r4
    1ad2:	0019      	movs	r1, r3
    1ad4:	2012      	movs	r0, #18
    1ad6:	683b      	ldr	r3, [r7, #0]
    1ad8:	4798      	blx	r3
    1ada:	2302      	movs	r3, #2
    1adc:	466a      	mov	r2, sp
    1ade:	7025      	strb	r5, [r4, #0]
    1ae0:	4c3f      	ldr	r4, [pc, #252]	; (1be0 <rwip_driver_init+0x174>)
    1ae2:	7253      	strb	r3, [r2, #9]
    1ae4:	0022      	movs	r2, r4
    1ae6:	3307      	adds	r3, #7
    1ae8:	446b      	add	r3, sp
    1aea:	0019      	movs	r1, r3
    1aec:	202e      	movs	r0, #46	; 0x2e
    1aee:	683b      	ldr	r3, [r7, #0]
    1af0:	7625      	strb	r5, [r4, #24]
    1af2:	3214      	adds	r2, #20
    1af4:	4798      	blx	r3
    1af6:	2800      	cmp	r0, #0
    1af8:	d002      	beq.n	1b00 <rwip_driver_init+0x94>
    1afa:	23c8      	movs	r3, #200	; 0xc8
    1afc:	005b      	lsls	r3, r3, #1
    1afe:	82a3      	strh	r3, [r4, #20]
    1b00:	2300      	movs	r3, #0
    1b02:	2502      	movs	r5, #2
    1b04:	60e3      	str	r3, [r4, #12]
    1b06:	466b      	mov	r3, sp
    1b08:	260a      	movs	r6, #10
    1b0a:	725d      	strb	r5, [r3, #9]
    1b0c:	2309      	movs	r3, #9
    1b0e:	446e      	add	r6, sp
    1b10:	446b      	add	r3, sp
    1b12:	0019      	movs	r1, r3
    1b14:	0032      	movs	r2, r6
    1b16:	200f      	movs	r0, #15
    1b18:	683b      	ldr	r3, [r7, #0]
    1b1a:	4798      	blx	r3
    1b1c:	2800      	cmp	r0, #0
    1b1e:	d001      	beq.n	1b24 <rwip_driver_init+0xb8>
    1b20:	4b33      	ldr	r3, [pc, #204]	; (1bf0 <rwip_driver_init+0x184>)
    1b22:	8033      	strh	r3, [r6, #0]
    1b24:	466b      	mov	r3, sp
    1b26:	725d      	strb	r5, [r3, #9]
    1b28:	2309      	movs	r3, #9
    1b2a:	446b      	add	r3, sp
    1b2c:	0019      	movs	r1, r3
    1b2e:	200e      	movs	r0, #14
    1b30:	683b      	ldr	r3, [r7, #0]
    1b32:	aa03      	add	r2, sp, #12
    1b34:	4798      	blx	r3
    1b36:	2800      	cmp	r0, #0
    1b38:	d002      	beq.n	1b40 <rwip_driver_init+0xd4>
    1b3a:	466a      	mov	r2, sp
    1b3c:	4b2c      	ldr	r3, [pc, #176]	; (1bf0 <rwip_driver_init+0x184>)
    1b3e:	8193      	strh	r3, [r2, #12]
    1b40:	250e      	movs	r5, #14
    1b42:	2302      	movs	r3, #2
    1b44:	466a      	mov	r2, sp
    1b46:	2109      	movs	r1, #9
    1b48:	446d      	add	r5, sp
    1b4a:	7253      	strb	r3, [r2, #9]
    1b4c:	200d      	movs	r0, #13
    1b4e:	002a      	movs	r2, r5
    1b50:	683b      	ldr	r3, [r7, #0]
    1b52:	4469      	add	r1, sp
    1b54:	4798      	blx	r3
    1b56:	2800      	cmp	r0, #0
    1b58:	d001      	beq.n	1b5e <rwip_driver_init+0xf2>
    1b5a:	4b25      	ldr	r3, [pc, #148]	; (1bf0 <rwip_driver_init+0x184>)
    1b5c:	802b      	strh	r3, [r5, #0]
    1b5e:	21fa      	movs	r1, #250	; 0xfa
    1b60:	8830      	ldrh	r0, [r6, #0]
    1b62:	4f24      	ldr	r7, [pc, #144]	; (1bf4 <rwip_driver_init+0x188>)
    1b64:	0140      	lsls	r0, r0, #5
    1b66:	19c0      	adds	r0, r0, r7
    1b68:	0089      	lsls	r1, r1, #2
    1b6a:	f022 fc29 	bl	243c0 <____aeabi_uidiv_from_thumb>
    1b6e:	466b      	mov	r3, sp
    1b70:	21fa      	movs	r1, #250	; 0xfa
    1b72:	8030      	strh	r0, [r6, #0]
    1b74:	8998      	ldrh	r0, [r3, #12]
    1b76:	0089      	lsls	r1, r1, #2
    1b78:	0140      	lsls	r0, r0, #5
    1b7a:	19c0      	adds	r0, r0, r7
    1b7c:	f022 fc20 	bl	243c0 <____aeabi_uidiv_from_thumb>
    1b80:	466a      	mov	r2, sp
    1b82:	21fa      	movs	r1, #250	; 0xfa
    1b84:	8190      	strh	r0, [r2, #12]
    1b86:	0007      	movs	r7, r0
    1b88:	8828      	ldrh	r0, [r5, #0]
    1b8a:	4b1a      	ldr	r3, [pc, #104]	; (1bf4 <rwip_driver_init+0x188>)
    1b8c:	0140      	lsls	r0, r0, #5
    1b8e:	18c0      	adds	r0, r0, r3
    1b90:	0089      	lsls	r1, r1, #2
    1b92:	f022 fc15 	bl	243c0 <____aeabi_uidiv_from_thumb>
    1b96:	0003      	movs	r3, r0
    1b98:	8028      	strh	r0, [r5, #0]
    1b9a:	02bf      	lsls	r7, r7, #10
    1b9c:	0540      	lsls	r0, r0, #21
    1b9e:	4338      	orrs	r0, r7
    1ba0:	4318      	orrs	r0, r3
    1ba2:	4b15      	ldr	r3, [pc, #84]	; (1bf8 <rwip_driver_init+0x18c>)
    1ba4:	6018      	str	r0, [r3, #0]
    1ba6:	8832      	ldrh	r2, [r6, #0]
    1ba8:	882b      	ldrh	r3, [r5, #0]
    1baa:	4293      	cmp	r3, r2
    1bac:	d200      	bcs.n	1bb0 <rwip_driver_init+0x144>
    1bae:	0013      	movs	r3, r2
    1bb0:	aa03      	add	r2, sp, #12
    1bb2:	8812      	ldrh	r2, [r2, #0]
    1bb4:	4293      	cmp	r3, r2
    1bb6:	d200      	bcs.n	1bba <rwip_driver_init+0x14e>
    1bb8:	0013      	movs	r3, r2
    1bba:	2080      	movs	r0, #128	; 0x80
    1bbc:	490f      	ldr	r1, [pc, #60]	; (1bfc <rwip_driver_init+0x190>)
    1bbe:	802b      	strh	r3, [r5, #0]
    1bc0:	6123      	str	r3, [r4, #16]
    1bc2:	680a      	ldr	r2, [r1, #0]
    1bc4:	7e23      	ldrb	r3, [r4, #24]
    1bc6:	0600      	lsls	r0, r0, #24
    1bc8:	07db      	lsls	r3, r3, #31
    1bca:	0052      	lsls	r2, r2, #1
    1bcc:	181b      	adds	r3, r3, r0
    1bce:	0852      	lsrs	r2, r2, #1
    1bd0:	4313      	orrs	r3, r2
    1bd2:	600b      	str	r3, [r1, #0]
    1bd4:	b005      	add	sp, #20
    1bd6:	bdf0      	pop	{r4, r5, r6, r7, pc}
    1bd8:	00400e88 	.word	0x00400e88
    1bdc:	00002155 	.word	0x00002155
    1be0:	0040124c 	.word	0x0040124c
    1be4:	00820018 	.word	0x00820018
    1be8:	0001800c 	.word	0x0001800c
    1bec:	00403304 	.word	0x00403304
    1bf0:	000005dc 	.word	0x000005dc
    1bf4:	000003e7 	.word	0x000003e7
    1bf8:	0082003c 	.word	0x0082003c
    1bfc:	00820030 	.word	0x00820030

00001c00 <hci_command_handler>:
    1c00:	2000      	movs	r0, #0
    1c02:	b570      	push	{r4, r5, r6, lr}
    1c04:	001a      	movs	r2, r3
    1c06:	4b08      	ldr	r3, [pc, #32]	; (1c28 <hci_command_handler+0x28>)
    1c08:	00c4      	lsls	r4, r0, #3
    1c0a:	18e5      	adds	r5, r4, r3
    1c0c:	5b1c      	ldrh	r4, [r3, r4]
    1c0e:	4294      	cmp	r4, r2
    1c10:	d105      	bne.n	1c1e <hci_command_handler+0x1e>
    1c12:	686b      	ldr	r3, [r5, #4]
    1c14:	1e18      	subs	r0, r3, #0
    1c16:	d001      	beq.n	1c1c <hci_command_handler+0x1c>
    1c18:	7808      	ldrb	r0, [r1, #0]
    1c1a:	4798      	blx	r3
    1c1c:	bd70      	pop	{r4, r5, r6, pc}
    1c1e:	3001      	adds	r0, #1
    1c20:	2816      	cmp	r0, #22
    1c22:	d1f1      	bne.n	1c08 <hci_command_handler+0x8>
    1c24:	2000      	movs	r0, #0
    1c26:	e7f9      	b.n	1c1c <hci_command_handler+0x1c>
    1c28:	00024768 	.word	0x00024768

00001c2c <lld_adv_sync_info_set>:
    1c2c:	b5f0      	push	{r4, r5, r6, r7, lr}
    1c2e:	4b71      	ldr	r3, [pc, #452]	; (1df4 <lld_adv_sync_info_set+0x1c8>)
    1c30:	0080      	lsls	r0, r0, #2
    1c32:	58c5      	ldr	r5, [r0, r3]
    1c34:	2400      	movs	r4, #0
    1c36:	002b      	movs	r3, r5
    1c38:	339e      	adds	r3, #158	; 0x9e
    1c3a:	781b      	ldrb	r3, [r3, #0]
    1c3c:	002f      	movs	r7, r5
    1c3e:	b087      	sub	sp, #28
    1c40:	42a3      	cmp	r3, r4
    1c42:	d000      	beq.n	1c46 <lld_adv_sync_info_set+0x1a>
    1c44:	3738      	adds	r7, #56	; 0x38
    1c46:	002b      	movs	r3, r5
    1c48:	3390      	adds	r3, #144	; 0x90
    1c4a:	781b      	ldrb	r3, [r3, #0]
    1c4c:	9301      	str	r3, [sp, #4]
    1c4e:	f022 fc2f 	bl	244b0 <____disable_fiq_from_thumb>
    1c52:	9002      	str	r0, [sp, #8]
    1c54:	f022 fbd6 	bl	24404 <____disable_irq_from_thumb>
    1c58:	9b01      	ldr	r3, [sp, #4]
    1c5a:	4a67      	ldr	r2, [pc, #412]	; (1df8 <lld_adv_sync_info_set+0x1cc>)
    1c5c:	009b      	lsls	r3, r3, #2
    1c5e:	5899      	ldr	r1, [r3, r2]
    1c60:	9003      	str	r0, [sp, #12]
    1c62:	2900      	cmp	r1, #0
    1c64:	d013      	beq.n	1c8e <lld_adv_sync_info_set+0x62>
    1c66:	000b      	movs	r3, r1
    1c68:	3358      	adds	r3, #88	; 0x58
    1c6a:	881c      	ldrh	r4, [r3, #0]
    1c6c:	3b17      	subs	r3, #23
    1c6e:	781b      	ldrb	r3, [r3, #0]
    1c70:	684e      	ldr	r6, [r1, #4]
    1c72:	2b00      	cmp	r3, #0
    1c74:	d100      	bne.n	1c78 <lld_adv_sync_info_set+0x4c>
    1c76:	e0a1      	b.n	1dbc <lld_adv_sync_info_set+0x190>
    1c78:	8fcb      	ldrh	r3, [r1, #62]	; 0x3e
    1c7a:	42a3      	cmp	r3, r4
    1c7c:	d000      	beq.n	1c80 <lld_adv_sync_info_set+0x54>
    1c7e:	e09d      	b.n	1dbc <lld_adv_sync_info_set+0x190>
    1c80:	000b      	movs	r3, r1
    1c82:	6b8a      	ldr	r2, [r1, #56]	; 0x38
    1c84:	3338      	adds	r3, #56	; 0x38
    1c86:	9204      	str	r2, [sp, #16]
    1c88:	791b      	ldrb	r3, [r3, #4]
    1c8a:	aa04      	add	r2, sp, #16
    1c8c:	7113      	strb	r3, [r2, #4]
    1c8e:	9b02      	ldr	r3, [sp, #8]
    1c90:	2b00      	cmp	r3, #0
    1c92:	d101      	bne.n	1c98 <lld_adv_sync_info_set+0x6c>
    1c94:	f022 fbe6 	bl	24464 <____enable_fiq_from_thumb>
    1c98:	9b03      	ldr	r3, [sp, #12]
    1c9a:	2b00      	cmp	r3, #0
    1c9c:	d101      	bne.n	1ca2 <lld_adv_sync_info_set+0x76>
    1c9e:	f022 fbf3 	bl	24488 <____enable_irq_from_thumb>
    1ca2:	2280      	movs	r2, #128	; 0x80
    1ca4:	687b      	ldr	r3, [r7, #4]
    1ca6:	0512      	lsls	r2, r2, #20
    1ca8:	1af7      	subs	r7, r6, r3
    1caa:	013f      	lsls	r7, r7, #4
    1cac:	093f      	lsrs	r7, r7, #4
    1cae:	4297      	cmp	r7, r2
    1cb0:	d903      	bls.n	1cba <lld_adv_sync_info_set+0x8e>
    1cb2:	1b9f      	subs	r7, r3, r6
    1cb4:	013f      	lsls	r7, r7, #4
    1cb6:	093f      	lsrs	r7, r7, #4
    1cb8:	427f      	negs	r7, r7
    1cba:	002a      	movs	r2, r5
    1cbc:	211e      	movs	r1, #30
    1cbe:	3282      	adds	r2, #130	; 0x82
    1cc0:	8812      	ldrh	r2, [r2, #0]
    1cc2:	4249      	negs	r1, r1
    1cc4:	434a      	muls	r2, r1
    1cc6:	6fa9      	ldr	r1, [r5, #120]	; 0x78
    1cc8:	484c      	ldr	r0, [pc, #304]	; (1dfc <lld_adv_sync_info_set+0x1d0>)
    1cca:	312d      	adds	r1, #45	; 0x2d
    1ccc:	31ff      	adds	r1, #255	; 0xff
    1cce:	9101      	str	r1, [sp, #4]
    1cd0:	2180      	movs	r1, #128	; 0x80
    1cd2:	0509      	lsls	r1, r1, #20
    1cd4:	468c      	mov	ip, r1
    1cd6:	4347      	muls	r7, r0
    1cd8:	107f      	asrs	r7, r7, #1
    1cda:	18bf      	adds	r7, r7, r2
    1cdc:	9901      	ldr	r1, [sp, #4]
    1cde:	42b9      	cmp	r1, r7
    1ce0:	db00      	blt.n	1ce4 <lld_adv_sync_info_set+0xb8>
    1ce2:	e071      	b.n	1dc8 <lld_adv_sync_info_set+0x19c>
    1ce4:	2100      	movs	r1, #0
    1ce6:	4b46      	ldr	r3, [pc, #280]	; (1e00 <lld_adv_sync_info_set+0x1d4>)
    1ce8:	0008      	movs	r0, r1
    1cea:	429f      	cmp	r7, r3
    1cec:	dc10      	bgt.n	1d10 <lld_adv_sync_info_set+0xe4>
    1cee:	4e45      	ldr	r6, [pc, #276]	; (1e04 <lld_adv_sync_info_set+0x1d8>)
    1cf0:	311e      	adds	r1, #30
    1cf2:	42b7      	cmp	r7, r6
    1cf4:	dd01      	ble.n	1cfa <lld_adv_sync_info_set+0xce>
    1cf6:	2196      	movs	r1, #150	; 0x96
    1cf8:	0049      	lsls	r1, r1, #1
    1cfa:	0038      	movs	r0, r7
    1cfc:	f022 fbcc 	bl	24498 <____aeabi_idiv_from_thumb>
    1d00:	0400      	lsls	r0, r0, #16
    1d02:	2301      	movs	r3, #1
    1d04:	0c00      	lsrs	r0, r0, #16
    1d06:	42b7      	cmp	r7, r6
    1d08:	dc00      	bgt.n	1d0c <lld_adv_sync_info_set+0xe0>
    1d0a:	2300      	movs	r3, #0
    1d0c:	061b      	lsls	r3, r3, #24
    1d0e:	0e19      	lsrs	r1, r3, #24
    1d10:	261f      	movs	r6, #31
    1d12:	0602      	lsls	r2, r0, #24
    1d14:	0a03      	lsrs	r3, r0, #8
    1d16:	a804      	add	r0, sp, #16
    1d18:	7900      	ldrb	r0, [r0, #4]
    1d1a:	4033      	ands	r3, r6
    1d1c:	4006      	ands	r6, r0
    1d1e:	483a      	ldr	r0, [pc, #232]	; (1e08 <lld_adv_sync_info_set+0x1dc>)
    1d20:	0149      	lsls	r1, r1, #5
    1d22:	30c6      	adds	r0, #198	; 0xc6
    1d24:	8800      	ldrh	r0, [r0, #0]
    1d26:	430b      	orrs	r3, r1
    1d28:	0140      	lsls	r0, r0, #5
    1d2a:	4306      	orrs	r6, r0
    1d2c:	a804      	add	r0, sp, #16
    1d2e:	7106      	strb	r6, [r0, #4]
    1d30:	0028      	movs	r0, r5
    1d32:	2680      	movs	r6, #128	; 0x80
    1d34:	308f      	adds	r0, #143	; 0x8f
    1d36:	7800      	ldrb	r0, [r0, #0]
    1d38:	0476      	lsls	r6, r6, #17
    1d3a:	0680      	lsls	r0, r0, #26
    1d3c:	1980      	adds	r0, r0, r6
    1d3e:	0d06      	lsrs	r6, r0, #20
    1d40:	4832      	ldr	r0, [pc, #200]	; (1e0c <lld_adv_sync_info_set+0x1e0>)
    1d42:	357c      	adds	r5, #124	; 0x7c
    1d44:	1830      	adds	r0, r6, r0
    1d46:	8800      	ldrh	r0, [r0, #0]
    1d48:	882f      	ldrh	r7, [r5, #0]
    1d4a:	0621      	lsls	r1, r4, #24
    1d4c:	061b      	lsls	r3, r3, #24
    1d4e:	4684      	mov	ip, r0
    1d50:	2500      	movs	r5, #0
    1d52:	0e12      	lsrs	r2, r2, #24
    1d54:	0e1b      	lsrs	r3, r3, #24
    1d56:	0e09      	lsrs	r1, r1, #24
    1d58:	0a24      	lsrs	r4, r4, #8
    1d5a:	06b8      	lsls	r0, r7, #26
    1d5c:	d400      	bmi.n	1d60 <lld_adv_sync_info_set+0x134>
    1d5e:	3506      	adds	r5, #6
    1d60:	0778      	lsls	r0, r7, #29
    1d62:	d502      	bpl.n	1d6a <lld_adv_sync_info_set+0x13e>
    1d64:	3506      	adds	r5, #6
    1d66:	062d      	lsls	r5, r5, #24
    1d68:	0e2d      	lsrs	r5, r5, #24
    1d6a:	4f29      	ldr	r7, [pc, #164]	; (1e10 <lld_adv_sync_info_set+0x1e4>)
    1d6c:	19f6      	adds	r6, r6, r7
    1d6e:	8837      	ldrh	r7, [r6, #0]
    1d70:	1d6e      	adds	r6, r5, #5
    1d72:	0636      	lsls	r6, r6, #24
    1d74:	0e36      	lsrs	r6, r6, #24
    1d76:	04f8      	lsls	r0, r7, #19
    1d78:	d402      	bmi.n	1d80 <lld_adv_sync_info_set+0x154>
    1d7a:	3502      	adds	r5, #2
    1d7c:	062e      	lsls	r6, r5, #24
    1d7e:	0e36      	lsrs	r6, r6, #24
    1d80:	0030      	movs	r0, r6
    1d82:	4460      	add	r0, ip
    1d84:	4d23      	ldr	r5, [pc, #140]	; (1e14 <lld_adv_sync_info_set+0x1e8>)
    1d86:	0400      	lsls	r0, r0, #16
    1d88:	0c00      	lsrs	r0, r0, #16
    1d8a:	5542      	strb	r2, [r0, r5]
    1d8c:	1c42      	adds	r2, r0, #1
    1d8e:	0412      	lsls	r2, r2, #16
    1d90:	0c12      	lsrs	r2, r2, #16
    1d92:	5553      	strb	r3, [r2, r5]
    1d94:	0003      	movs	r3, r0
    1d96:	3310      	adds	r3, #16
    1d98:	041b      	lsls	r3, r3, #16
    1d9a:	0c1b      	lsrs	r3, r3, #16
    1d9c:	5559      	strb	r1, [r3, r5]
    1d9e:	0003      	movs	r3, r0
    1da0:	3004      	adds	r0, #4
    1da2:	3311      	adds	r3, #17
    1da4:	041b      	lsls	r3, r3, #16
    1da6:	0400      	lsls	r0, r0, #16
    1da8:	0c1b      	lsrs	r3, r3, #16
    1daa:	0c00      	lsrs	r0, r0, #16
    1dac:	2205      	movs	r2, #5
    1dae:	555c      	strb	r4, [r3, r5]
    1db0:	1940      	adds	r0, r0, r5
    1db2:	a904      	add	r1, sp, #16
    1db4:	f01a fca6 	bl	1c704 <memcpy>
    1db8:	b007      	add	sp, #28
    1dba:	bdf0      	pop	{r4, r5, r6, r7, pc}
    1dbc:	2205      	movs	r2, #5
    1dbe:	3133      	adds	r1, #51	; 0x33
    1dc0:	a804      	add	r0, sp, #16
    1dc2:	f01a fc9f 	bl	1c704 <memcpy>
    1dc6:	e762      	b.n	1c8e <lld_adv_sync_info_set+0x62>
    1dc8:	6f29      	ldr	r1, [r5, #112]	; 0x70
    1dca:	3401      	adds	r4, #1
    1dcc:	008f      	lsls	r7, r1, #2
    1dce:	19be      	adds	r6, r7, r6
    1dd0:	0136      	lsls	r6, r6, #4
    1dd2:	0936      	lsrs	r6, r6, #4
    1dd4:	1af7      	subs	r7, r6, r3
    1dd6:	0424      	lsls	r4, r4, #16
    1dd8:	013f      	lsls	r7, r7, #4
    1dda:	0c24      	lsrs	r4, r4, #16
    1ddc:	093f      	lsrs	r7, r7, #4
    1dde:	4567      	cmp	r7, ip
    1de0:	d903      	bls.n	1dea <lld_adv_sync_info_set+0x1be>
    1de2:	1b9f      	subs	r7, r3, r6
    1de4:	013f      	lsls	r7, r7, #4
    1de6:	093f      	lsrs	r7, r7, #4
    1de8:	427f      	negs	r7, r7
    1dea:	4347      	muls	r7, r0
    1dec:	107f      	asrs	r7, r7, #1
    1dee:	18bf      	adds	r7, r7, r2
    1df0:	e774      	b.n	1cdc <lld_adv_sync_info_set+0xb0>
    1df2:	46c0      	nop			; (mov r8, r8)
    1df4:	00400ec8 	.word	0x00400ec8
    1df8:	00400fd4 	.word	0x00400fd4
    1dfc:	00000271 	.word	0x00000271
    1e00:	00257ed4 	.word	0x00257ed4
    1e04:	0003bfc3 	.word	0x0003bfc3
    1e08:	00400ed8 	.word	0x00400ed8
    1e0c:	008104c4 	.word	0x008104c4
    1e10:	008104be 	.word	0x008104be
    1e14:	00814000 	.word	0x00814000

00001e18 <ble_util_buf_init>:
    1e18:	b510      	push	{r4, lr}
    1e1a:	1e01      	subs	r1, r0, #0
    1e1c:	4c3a      	ldr	r4, [pc, #232]	; (1f08 <ble_util_buf_init+0xf0>)
    1e1e:	d147      	bne.n	1eb0 <ble_util_buf_init+0x98>
    1e20:	2294      	movs	r2, #148	; 0x94
    1e22:	483a      	ldr	r0, [pc, #232]	; (1f0c <ble_util_buf_init+0xf4>)
    1e24:	f01a fd20 	bl	1c868 <memset>
    1e28:	4b39      	ldr	r3, [pc, #228]	; (1f10 <ble_util_buf_init+0xf8>)
    1e2a:	4a3a      	ldr	r2, [pc, #232]	; (1f14 <ble_util_buf_init+0xfc>)
    1e2c:	87a3      	strh	r3, [r4, #60]	; 0x3c
    1e2e:	4b3a      	ldr	r3, [pc, #232]	; (1f18 <ble_util_buf_init+0x100>)
    1e30:	86a3      	strh	r3, [r4, #52]	; 0x34
    1e32:	4b3a      	ldr	r3, [pc, #232]	; (1f1c <ble_util_buf_init+0x104>)
    1e34:	85a3      	strh	r3, [r4, #44]	; 0x2c
    1e36:	3b21      	subs	r3, #33	; 0x21
    1e38:	84a3      	strh	r3, [r4, #36]	; 0x24
    1e3a:	0023      	movs	r3, r4
    1e3c:	3384      	adds	r3, #132	; 0x84
    1e3e:	801a      	strh	r2, [r3, #0]
    1e40:	0023      	movs	r3, r4
    1e42:	4a37      	ldr	r2, [pc, #220]	; (1f20 <ble_util_buf_init+0x108>)
    1e44:	337c      	adds	r3, #124	; 0x7c
    1e46:	801a      	strh	r2, [r3, #0]
    1e48:	0023      	movs	r3, r4
    1e4a:	4a36      	ldr	r2, [pc, #216]	; (1f24 <ble_util_buf_init+0x10c>)
    1e4c:	3374      	adds	r3, #116	; 0x74
    1e4e:	801a      	strh	r2, [r3, #0]
    1e50:	0023      	movs	r3, r4
    1e52:	4a35      	ldr	r2, [pc, #212]	; (1f28 <ble_util_buf_init+0x110>)
    1e54:	336c      	adds	r3, #108	; 0x6c
    1e56:	801a      	strh	r2, [r3, #0]
    1e58:	0023      	movs	r3, r4
    1e5a:	4a34      	ldr	r2, [pc, #208]	; (1f2c <ble_util_buf_init+0x114>)
    1e5c:	3364      	adds	r3, #100	; 0x64
    1e5e:	801a      	strh	r2, [r3, #0]
    1e60:	0023      	movs	r3, r4
    1e62:	4a33      	ldr	r2, [pc, #204]	; (1f30 <ble_util_buf_init+0x118>)
    1e64:	335c      	adds	r3, #92	; 0x5c
    1e66:	801a      	strh	r2, [r3, #0]
    1e68:	0023      	movs	r3, r4
    1e6a:	4a32      	ldr	r2, [pc, #200]	; (1f34 <ble_util_buf_init+0x11c>)
    1e6c:	3354      	adds	r3, #84	; 0x54
    1e6e:	801a      	strh	r2, [r3, #0]
    1e70:	0023      	movs	r3, r4
    1e72:	4a31      	ldr	r2, [pc, #196]	; (1f38 <ble_util_buf_init+0x120>)
    1e74:	334c      	adds	r3, #76	; 0x4c
    1e76:	801a      	strh	r2, [r3, #0]
    1e78:	4a30      	ldr	r2, [pc, #192]	; (1f3c <ble_util_buf_init+0x124>)
    1e7a:	1da3      	adds	r3, r4, #6
    1e7c:	87da      	strh	r2, [r3, #62]	; 0x3e
    1e7e:	0023      	movs	r3, r4
    1e80:	4a2f      	ldr	r2, [pc, #188]	; (1f40 <ble_util_buf_init+0x128>)
    1e82:	33a4      	adds	r3, #164	; 0xa4
    1e84:	801a      	strh	r2, [r3, #0]
    1e86:	0023      	movs	r3, r4
    1e88:	4a2e      	ldr	r2, [pc, #184]	; (1f44 <ble_util_buf_init+0x12c>)
    1e8a:	339c      	adds	r3, #156	; 0x9c
    1e8c:	801a      	strh	r2, [r3, #0]
    1e8e:	0023      	movs	r3, r4
    1e90:	4a2d      	ldr	r2, [pc, #180]	; (1f48 <ble_util_buf_init+0x130>)
    1e92:	3394      	adds	r3, #148	; 0x94
    1e94:	801a      	strh	r2, [r3, #0]
    1e96:	0023      	movs	r3, r4
    1e98:	4a2c      	ldr	r2, [pc, #176]	; (1f4c <ble_util_buf_init+0x134>)
    1e9a:	338c      	adds	r3, #140	; 0x8c
    1e9c:	801a      	strh	r2, [r3, #0]
    1e9e:	0023      	movs	r3, r4
    1ea0:	4a2b      	ldr	r2, [pc, #172]	; (1f50 <ble_util_buf_init+0x138>)
    1ea2:	33b4      	adds	r3, #180	; 0xb4
    1ea4:	801a      	strh	r2, [r3, #0]
    1ea6:	0023      	movs	r3, r4
    1ea8:	3afd      	subs	r2, #253	; 0xfd
    1eaa:	33ac      	adds	r3, #172	; 0xac
    1eac:	3aff      	subs	r2, #255	; 0xff
    1eae:	801a      	strh	r2, [r3, #0]
    1eb0:	2200      	movs	r2, #0
    1eb2:	4b28      	ldr	r3, [pc, #160]	; (1f54 <ble_util_buf_init+0x13c>)
    1eb4:	63a2      	str	r2, [r4, #56]	; 0x38
    1eb6:	6023      	str	r3, [r4, #0]
    1eb8:	4b27      	ldr	r3, [pc, #156]	; (1f58 <ble_util_buf_init+0x140>)
    1eba:	0022      	movs	r2, r4
    1ebc:	6223      	str	r3, [r4, #32]
    1ebe:	4b27      	ldr	r3, [pc, #156]	; (1f5c <ble_util_buf_init+0x144>)
    1ec0:	62a3      	str	r3, [r4, #40]	; 0x28
    1ec2:	4b27      	ldr	r3, [pc, #156]	; (1f60 <ble_util_buf_init+0x148>)
    1ec4:	6323      	str	r3, [r4, #48]	; 0x30
    1ec6:	6063      	str	r3, [r4, #4]
    1ec8:	4b26      	ldr	r3, [pc, #152]	; (1f64 <ble_util_buf_init+0x14c>)
    1eca:	60a3      	str	r3, [r4, #8]
    1ecc:	2308      	movs	r3, #8
    1ece:	0011      	movs	r1, r2
    1ed0:	3b01      	subs	r3, #1
    1ed2:	3148      	adds	r1, #72	; 0x48
    1ed4:	6411      	str	r1, [r2, #64]	; 0x40
    1ed6:	3208      	adds	r2, #8
    1ed8:	2b00      	cmp	r3, #0
    1eda:	d1f8      	bne.n	1ece <ble_util_buf_init+0xb6>
    1edc:	1d22      	adds	r2, r4, #4
    1ede:	67d3      	str	r3, [r2, #124]	; 0x7c
    1ee0:	4a21      	ldr	r2, [pc, #132]	; (1f68 <ble_util_buf_init+0x150>)
    1ee2:	4922      	ldr	r1, [pc, #136]	; (1f6c <ble_util_buf_init+0x154>)
    1ee4:	60e2      	str	r2, [r4, #12]
    1ee6:	4a22      	ldr	r2, [pc, #136]	; (1f70 <ble_util_buf_init+0x158>)
    1ee8:	6121      	str	r1, [r4, #16]
    1eea:	600a      	str	r2, [r1, #0]
    1eec:	4921      	ldr	r1, [pc, #132]	; (1f74 <ble_util_buf_init+0x15c>)
    1eee:	6011      	str	r1, [r2, #0]
    1ef0:	4a21      	ldr	r2, [pc, #132]	; (1f78 <ble_util_buf_init+0x160>)
    1ef2:	600a      	str	r2, [r1, #0]
    1ef4:	6013      	str	r3, [r2, #0]
    1ef6:	4921      	ldr	r1, [pc, #132]	; (1f7c <ble_util_buf_init+0x164>)
    1ef8:	6162      	str	r2, [r4, #20]
    1efa:	4a21      	ldr	r2, [pc, #132]	; (1f80 <ble_util_buf_init+0x168>)
    1efc:	61a1      	str	r1, [r4, #24]
    1efe:	600a      	str	r2, [r1, #0]
    1f00:	6013      	str	r3, [r2, #0]
    1f02:	61e2      	str	r2, [r4, #28]
    1f04:	bd10      	pop	{r4, pc}
    1f06:	46c0      	nop			; (mov r8, r8)
    1f08:	00400ce0 	.word	0x00400ce0
    1f0c:	00400d04 	.word	0x00400d04
    1f10:	0000059b 	.word	0x0000059b
    1f14:	0000127d 	.word	0x0000127d
    1f18:	0000057a 	.word	0x0000057a
    1f1c:	00000559 	.word	0x00000559
    1f20:	0000117d 	.word	0x0000117d
    1f24:	0000107d 	.word	0x0000107d
    1f28:	00000f7d 	.word	0x00000f7d
    1f2c:	00000e7d 	.word	0x00000e7d
    1f30:	00000d7d 	.word	0x00000d7d
    1f34:	00000c7d 	.word	0x00000c7d
    1f38:	00000b7d 	.word	0x00000b7d
    1f3c:	00000a7d 	.word	0x00000a7d
    1f40:	00001678 	.word	0x00001678
    1f44:	00001578 	.word	0x00001578
    1f48:	00001478 	.word	0x00001478
    1f4c:	00001378 	.word	0x00001378
    1f50:	00000814 	.word	0x00000814
    1f54:	00400d00 	.word	0x00400d00
    1f58:	00400d08 	.word	0x00400d08
    1f5c:	00400d10 	.word	0x00400d10
    1f60:	00400d18 	.word	0x00400d18
    1f64:	00400d20 	.word	0x00400d20
    1f68:	00400d60 	.word	0x00400d60
    1f6c:	00400d68 	.word	0x00400d68
    1f70:	00400d70 	.word	0x00400d70
    1f74:	00400d78 	.word	0x00400d78
    1f78:	00400d80 	.word	0x00400d80
    1f7c:	00400d88 	.word	0x00400d88
    1f80:	00400d90 	.word	0x00400d90

00001f84 <ble_util_buf_rx_alloc>:
    1f84:	b570      	push	{r4, r5, r6, lr}
    1f86:	f022 fa93 	bl	244b0 <____disable_fiq_from_thumb>
    1f8a:	0006      	movs	r6, r0
    1f8c:	f022 fa3a 	bl	24404 <____disable_irq_from_thumb>
    1f90:	0005      	movs	r5, r0
    1f92:	4808      	ldr	r0, [pc, #32]	; (1fb4 <ble_util_buf_rx_alloc+0x30>)
    1f94:	f010 fe1d 	bl	12bd2 <co_list_pop_front>
    1f98:	0004      	movs	r4, r0
    1f9a:	2e00      	cmp	r6, #0
    1f9c:	d101      	bne.n	1fa2 <ble_util_buf_rx_alloc+0x1e>
    1f9e:	f022 fa61 	bl	24464 <____enable_fiq_from_thumb>
    1fa2:	2d00      	cmp	r5, #0
    1fa4:	d101      	bne.n	1faa <ble_util_buf_rx_alloc+0x26>
    1fa6:	f022 fa6f 	bl	24488 <____enable_irq_from_thumb>
    1faa:	1e20      	subs	r0, r4, #0
    1fac:	d000      	beq.n	1fb0 <ble_util_buf_rx_alloc+0x2c>
    1fae:	88a0      	ldrh	r0, [r4, #4]
    1fb0:	bd70      	pop	{r4, r5, r6, pc}
    1fb2:	46c0      	nop			; (mov r8, r8)
    1fb4:	00400ce8 	.word	0x00400ce8

00001fb8 <uart2_printf>:
    1fb8:	b40f      	push	{r0, r1, r2, r3}
    1fba:	b5f0      	push	{r4, r5, r6, r7, lr}
    1fbc:	b0a3      	sub	sp, #140	; 0x8c
    1fbe:	aa28      	add	r2, sp, #160	; 0xa0
    1fc0:	ca02      	ldmia	r2!, {r1}
    1fc2:	a802      	add	r0, sp, #8
    1fc4:	9201      	str	r2, [sp, #4]
    1fc6:	f01a fca7 	bl	1c918 <vsprintf>
    1fca:	2480      	movs	r4, #128	; 0x80
    1fcc:	0002      	movs	r2, r0
    1fce:	4909      	ldr	r1, [pc, #36]	; (1ff4 <uart2_printf+0x3c>)
    1fd0:	4d09      	ldr	r5, [pc, #36]	; (1ff8 <uart2_printf+0x40>)
    1fd2:	ab02      	add	r3, sp, #8
    1fd4:	0364      	lsls	r4, r4, #13
    1fd6:	3a01      	subs	r2, #1
    1fd8:	d204      	bcs.n	1fe4 <uart2_printf+0x2c>
    1fda:	b023      	add	sp, #140	; 0x8c
    1fdc:	bcf0      	pop	{r4, r5, r6, r7}
    1fde:	bc08      	pop	{r3}
    1fe0:	b004      	add	sp, #16
    1fe2:	4718      	bx	r3
    1fe4:	781e      	ldrb	r6, [r3, #0]
    1fe6:	680f      	ldr	r7, [r1, #0]
    1fe8:	4227      	tst	r7, r4
    1fea:	d0fc      	beq.n	1fe6 <uart2_printf+0x2e>
    1fec:	602e      	str	r6, [r5, #0]
    1fee:	3301      	adds	r3, #1
    1ff0:	e7f1      	b.n	1fd6 <uart2_printf+0x1e>
    1ff2:	46c0      	nop			; (mov r8, r8)
    1ff4:	00806a08 	.word	0x00806a08
    1ff8:	00806a0c 	.word	0x00806a0c

00001ffc <platform_reset>:
    1ffc:	b510      	push	{r4, lr}
    1ffe:	0001      	movs	r1, r0
    2000:	4804      	ldr	r0, [pc, #16]	; (2014 <platform_reset+0x18>)
    2002:	f7ff ffd9 	bl	1fb8 <uart2_printf>
    2006:	f022 fa53 	bl	244b0 <____disable_fiq_from_thumb>
    200a:	f022 f9fb 	bl	24404 <____disable_irq_from_thumb>
    200e:	2300      	movs	r3, #0
    2010:	4798      	blx	r3
    2012:	bd10      	pop	{r4, pc}
    2014:	00024522 	.word	0x00024522

00002018 <rwip_timer_10ms_handler>:
    2018:	2201      	movs	r2, #1
    201a:	2140      	movs	r1, #64	; 0x40
    201c:	b510      	push	{r4, lr}
    201e:	4b05      	ldr	r3, [pc, #20]	; (2034 <rwip_timer_10ms_handler+0x1c>)
    2020:	4252      	negs	r2, r2
    2022:	609a      	str	r2, [r3, #8]
    2024:	4a04      	ldr	r2, [pc, #16]	; (2038 <rwip_timer_10ms_handler+0x20>)
    2026:	2003      	movs	r0, #3
    2028:	6813      	ldr	r3, [r2, #0]
    202a:	438b      	bics	r3, r1
    202c:	6013      	str	r3, [r2, #0]
    202e:	f011 fa2d 	bl	1348c <ke_event_set>
    2032:	bd10      	pop	{r4, pc}
    2034:	0040124c 	.word	0x0040124c
    2038:	00820018 	.word	0x00820018

0000203c <rwip_timer_hs_handler>:
    203c:	2201      	movs	r2, #1
    203e:	b513      	push	{r0, r1, r4, lr}
    2040:	2110      	movs	r1, #16
    2042:	4b10      	ldr	r3, [pc, #64]	; (2084 <rwip_timer_hs_handler+0x48>)
    2044:	4252      	negs	r2, r2
    2046:	601a      	str	r2, [r3, #0]
    2048:	4a0f      	ldr	r2, [pc, #60]	; (2088 <rwip_timer_hs_handler+0x4c>)
    204a:	6813      	ldr	r3, [r2, #0]
    204c:	438b      	bics	r3, r1
    204e:	6013      	str	r3, [r2, #0]
    2050:	4668      	mov	r0, sp
    2052:	f012 fae9 	bl	14628 <rwip_time_get>
    2056:	480d      	ldr	r0, [pc, #52]	; (208c <rwip_timer_hs_handler+0x50>)
    2058:	6804      	ldr	r4, [r0, #0]
    205a:	2c00      	cmp	r4, #0
    205c:	d011      	beq.n	2082 <rwip_timer_hs_handler+0x46>
    205e:	6862      	ldr	r2, [r4, #4]
    2060:	9b00      	ldr	r3, [sp, #0]
    2062:	1a9b      	subs	r3, r3, r2
    2064:	4a0a      	ldr	r2, [pc, #40]	; (2090 <rwip_timer_hs_handler+0x54>)
    2066:	011b      	lsls	r3, r3, #4
    2068:	091b      	lsrs	r3, r3, #4
    206a:	4293      	cmp	r3, r2
    206c:	d807      	bhi.n	207e <rwip_timer_hs_handler+0x42>
    206e:	f010 fdb0 	bl	12bd2 <co_list_pop_front>
    2072:	68a3      	ldr	r3, [r4, #8]
    2074:	2b00      	cmp	r3, #0
    2076:	d0eb      	beq.n	2050 <rwip_timer_hs_handler+0x14>
    2078:	0020      	movs	r0, r4
    207a:	4798      	blx	r3
    207c:	e7e8      	b.n	2050 <rwip_timer_hs_handler+0x14>
    207e:	f012 faeb 	bl	14658 <sch_alarm_prog.lto_priv.0>
    2082:	bd13      	pop	{r0, r1, r4, pc}
    2084:	0040124c 	.word	0x0040124c
    2088:	00820018 	.word	0x00820018
    208c:	00403348 	.word	0x00403348
    2090:	07fffffe 	.word	0x07fffffe

00002094 <rwip_timer_hus_handler>:
    2094:	2201      	movs	r2, #1
    2096:	2120      	movs	r1, #32
    2098:	b5f0      	push	{r4, r5, r6, r7, lr}
    209a:	4b2a      	ldr	r3, [pc, #168]	; (2144 <rwip_timer_hus_handler+0xb0>)
    209c:	4252      	negs	r2, r2
    209e:	605a      	str	r2, [r3, #4]
    20a0:	4a29      	ldr	r2, [pc, #164]	; (2148 <rwip_timer_hus_handler+0xb4>)
    20a2:	4d2a      	ldr	r5, [pc, #168]	; (214c <rwip_timer_hus_handler+0xb8>)
    20a4:	6813      	ldr	r3, [r2, #0]
    20a6:	b085      	sub	sp, #20
    20a8:	438b      	bics	r3, r1
    20aa:	6013      	str	r3, [r2, #0]
    20ac:	682c      	ldr	r4, [r5, #0]
    20ae:	a802      	add	r0, sp, #8
    20b0:	f012 faba 	bl	14628 <rwip_time_get>
    20b4:	2c00      	cmp	r4, #0
    20b6:	d01d      	beq.n	20f4 <rwip_timer_hus_handler+0x60>
    20b8:	6862      	ldr	r2, [r4, #4]
    20ba:	7e23      	ldrb	r3, [r4, #24]
    20bc:	9e02      	ldr	r6, [sp, #8]
    20be:	1ad3      	subs	r3, r2, r3
    20c0:	1b9a      	subs	r2, r3, r6
    20c2:	3201      	adds	r2, #1
    20c4:	4f22      	ldr	r7, [pc, #136]	; (2150 <rwip_timer_hus_handler+0xbc>)
    20c6:	0112      	lsls	r2, r2, #4
    20c8:	0912      	lsrs	r2, r2, #4
    20ca:	42ba      	cmp	r2, r7
    20cc:	d80a      	bhi.n	20e4 <rwip_timer_hus_handler+0x50>
    20ce:	9a03      	ldr	r2, [sp, #12]
    20d0:	3301      	adds	r3, #1
    20d2:	011b      	lsls	r3, r3, #4
    20d4:	9201      	str	r2, [sp, #4]
    20d6:	091b      	lsrs	r3, r3, #4
    20d8:	429e      	cmp	r6, r3
    20da:	d114      	bne.n	2106 <rwip_timer_hus_handler+0x72>
    20dc:	0013      	movs	r3, r2
    20de:	68a2      	ldr	r2, [r4, #8]
    20e0:	4293      	cmp	r3, r2
    20e2:	d910      	bls.n	2106 <rwip_timer_hus_handler+0x72>
    20e4:	0028      	movs	r0, r5
    20e6:	f010 fd74 	bl	12bd2 <co_list_pop_front>
    20ea:	0001      	movs	r1, r0
    20ec:	0028      	movs	r0, r5
    20ee:	300c      	adds	r0, #12
    20f0:	f010 fd64 	bl	12bbc <co_list_push_back>
    20f4:	68eb      	ldr	r3, [r5, #12]
    20f6:	2b00      	cmp	r3, #0
    20f8:	d001      	beq.n	20fe <rwip_timer_hus_handler+0x6a>
    20fa:	f015 fedf 	bl	17ebc <rwip_sw_int_req>
    20fe:	f012 faf1 	bl	146e4 <sch_arb_prog_timer.lto_priv.0>
    2102:	b005      	add	sp, #20
    2104:	bdf0      	pop	{r4, r5, r6, r7, pc}
    2106:	6862      	ldr	r2, [r4, #4]
    2108:	7e23      	ldrb	r3, [r4, #24]
    210a:	1ad3      	subs	r3, r2, r3
    210c:	43f2      	mvns	r2, r6
    210e:	18d2      	adds	r2, r2, r3
    2110:	0112      	lsls	r2, r2, #4
    2112:	0912      	lsrs	r2, r2, #4
    2114:	42ba      	cmp	r2, r7
    2116:	d808      	bhi.n	212a <rwip_timer_hus_handler+0x96>
    2118:	3b01      	subs	r3, #1
    211a:	011b      	lsls	r3, r3, #4
    211c:	091b      	lsrs	r3, r3, #4
    211e:	429e      	cmp	r6, r3
    2120:	d1e8      	bne.n	20f4 <rwip_timer_hus_handler+0x60>
    2122:	68a3      	ldr	r3, [r4, #8]
    2124:	9a01      	ldr	r2, [sp, #4]
    2126:	429a      	cmp	r2, r3
    2128:	d3e4      	bcc.n	20f4 <rwip_timer_hus_handler+0x60>
    212a:	0028      	movs	r0, r5
    212c:	f010 fd51 	bl	12bd2 <co_list_pop_front>
    2130:	69c3      	ldr	r3, [r0, #28]
    2132:	60a8      	str	r0, [r5, #8]
    2134:	2b00      	cmp	r3, #0
    2136:	d000      	beq.n	213a <rwip_timer_hus_handler+0xa6>
    2138:	4798      	blx	r3
    213a:	682c      	ldr	r4, [r5, #0]
    213c:	2c00      	cmp	r4, #0
    213e:	d1e2      	bne.n	2106 <rwip_timer_hus_handler+0x72>
    2140:	e7d8      	b.n	20f4 <rwip_timer_hus_handler+0x60>
    2142:	46c0      	nop			; (mov r8, r8)
    2144:	0040124c 	.word	0x0040124c
    2148:	00820018 	.word	0x00820018
    214c:	00403350 	.word	0x00403350
    2150:	07fffffe 	.word	0x07fffffe

00002154 <rwip_crypt_evt_handler>:
    2154:	b530      	push	{r4, r5, lr}
    2156:	2001      	movs	r0, #1
    2158:	b085      	sub	sp, #20
    215a:	f011 f9b1 	bl	134c0 <ke_event_clear>
    215e:	2210      	movs	r2, #16
    2160:	4915      	ldr	r1, [pc, #84]	; (21b8 <rwip_crypt_evt_handler+0x64>)
    2162:	4668      	mov	r0, sp
    2164:	f01a face 	bl	1c704 <memcpy>
    2168:	4d14      	ldr	r5, [pc, #80]	; (21bc <rwip_crypt_evt_handler+0x68>)
    216a:	0028      	movs	r0, r5
    216c:	f010 fd31 	bl	12bd2 <co_list_pop_front>
    2170:	682b      	ldr	r3, [r5, #0]
    2172:	0004      	movs	r4, r0
    2174:	2b00      	cmp	r3, #0
    2176:	d10c      	bne.n	2192 <rwip_crypt_evt_handler+0x3e>
    2178:	722b      	strb	r3, [r5, #8]
    217a:	2c00      	cmp	r4, #0
    217c:	d015      	beq.n	21aa <rwip_crypt_evt_handler+0x56>
    217e:	6863      	ldr	r3, [r4, #4]
    2180:	2b00      	cmp	r3, #0
    2182:	d10d      	bne.n	21a0 <rwip_crypt_evt_handler+0x4c>
    2184:	68a3      	ldr	r3, [r4, #8]
    2186:	2b00      	cmp	r3, #0
    2188:	d111      	bne.n	21ae <rwip_crypt_evt_handler+0x5a>
    218a:	0020      	movs	r0, r4
    218c:	f011 fa52 	bl	13634 <ke_free>
    2190:	e00b      	b.n	21aa <rwip_crypt_evt_handler+0x56>
    2192:	2201      	movs	r2, #1
    2194:	6919      	ldr	r1, [r3, #16]
    2196:	68d8      	ldr	r0, [r3, #12]
    2198:	722a      	strb	r2, [r5, #8]
    219a:	f015 fd69 	bl	17c70 <rwip_aes_encrypt>
    219e:	e7ec      	b.n	217a <rwip_crypt_evt_handler+0x26>
    21a0:	4669      	mov	r1, sp
    21a2:	0020      	movs	r0, r4
    21a4:	4798      	blx	r3
    21a6:	2800      	cmp	r0, #0
    21a8:	d1ec      	bne.n	2184 <rwip_crypt_evt_handler+0x30>
    21aa:	b005      	add	sp, #20
    21ac:	bd30      	pop	{r4, r5, pc}
    21ae:	4669      	mov	r1, sp
    21b0:	2000      	movs	r0, #0
    21b2:	6962      	ldr	r2, [r4, #20]
    21b4:	4798      	blx	r3
    21b6:	e7e8      	b.n	218a <rwip_crypt_evt_handler+0x36>
    21b8:	00814140 	.word	0x00814140
    21bc:	00400cd4 	.word	0x00400cd4

000021c0 <llc_auth_payl_nearly_to_handler>:
    21c0:	0011      	movs	r1, r2
    21c2:	b510      	push	{r4, lr}
    21c4:	0a13      	lsrs	r3, r2, #8
    21c6:	2b01      	cmp	r3, #1
    21c8:	d81a      	bhi.n	2200 <llc_auth_payl_nearly_to_handler+0x40>
    21ca:	4a0e      	ldr	r2, [pc, #56]	; (2204 <llc_auth_payl_nearly_to_handler+0x44>)
    21cc:	009b      	lsls	r3, r3, #2
    21ce:	589b      	ldr	r3, [r3, r2]
    21d0:	2b00      	cmp	r3, #0
    21d2:	d015      	beq.n	2200 <llc_auth_payl_nearly_to_handler+0x40>
    21d4:	001a      	movs	r2, r3
    21d6:	327a      	adds	r2, #122	; 0x7a
    21d8:	7812      	ldrb	r2, [r2, #0]
    21da:	43d2      	mvns	r2, r2
    21dc:	0792      	lsls	r2, r2, #30
    21de:	d00f      	beq.n	2200 <llc_auth_payl_nearly_to_handler+0x40>
    21e0:	3378      	adds	r3, #120	; 0x78
    21e2:	881b      	ldrh	r3, [r3, #0]
    21e4:	069b      	lsls	r3, r3, #26
    21e6:	d50b      	bpl.n	2200 <llc_auth_payl_nearly_to_handler+0x40>
    21e8:	2086      	movs	r0, #134	; 0x86
    21ea:	2308      	movs	r3, #8
    21ec:	000a      	movs	r2, r1
    21ee:	0040      	lsls	r0, r0, #1
    21f0:	f011 faf8 	bl	137e4 <ke_msg_alloc>
    21f4:	2308      	movs	r3, #8
    21f6:	8083      	strh	r3, [r0, #4]
    21f8:	4b03      	ldr	r3, [pc, #12]	; (2208 <llc_auth_payl_nearly_to_handler+0x48>)
    21fa:	6003      	str	r3, [r0, #0]
    21fc:	f011 fb54 	bl	138a8 <ke_msg_send>
    2200:	2000      	movs	r0, #0
    2202:	bd10      	pop	{r4, pc}
    2204:	00400ebc 	.word	0x00400ebc
    2208:	000024d1 	.word	0x000024d1

0000220c <hci_rd_tx_pwr_lvl_cmd_handler>:
    220c:	b5f7      	push	{r0, r1, r2, r4, r5, r6, r7, lr}
    220e:	2306      	movs	r3, #6
    2210:	0007      	movs	r7, r0
    2212:	000e      	movs	r6, r1
    2214:	4a2a      	ldr	r2, [pc, #168]	; (22c0 <hci_rd_tx_pwr_lvl_cmd_handler+0xb4>)
    2216:	8809      	ldrh	r1, [r1, #0]
    2218:	482a      	ldr	r0, [pc, #168]	; (22c4 <hci_rd_tx_pwr_lvl_cmd_handler+0xb8>)
    221a:	f011 fae3 	bl	137e4 <ke_msg_alloc>
    221e:	0004      	movs	r4, r0
    2220:	2f01      	cmp	r7, #1
    2222:	d80b      	bhi.n	223c <hci_rd_tx_pwr_lvl_cmd_handler+0x30>
    2224:	00bb      	lsls	r3, r7, #2
    2226:	9300      	str	r3, [sp, #0]
    2228:	4b27      	ldr	r3, [pc, #156]	; (22c8 <hci_rd_tx_pwr_lvl_cmd_handler+0xbc>)
    222a:	00ba      	lsls	r2, r7, #2
    222c:	58d3      	ldr	r3, [r2, r3]
    222e:	2b00      	cmp	r3, #0
    2230:	d004      	beq.n	223c <hci_rd_tx_pwr_lvl_cmd_handler+0x30>
    2232:	337a      	adds	r3, #122	; 0x7a
    2234:	781b      	ldrb	r3, [r3, #0]
    2236:	43db      	mvns	r3, r3
    2238:	079b      	lsls	r3, r3, #30
    223a:	d104      	bne.n	2246 <hci_rd_tx_pwr_lvl_cmd_handler+0x3a>
    223c:	230c      	movs	r3, #12
    223e:	7023      	strb	r3, [r4, #0]
    2240:	2300      	movs	r3, #0
    2242:	7123      	strb	r3, [r4, #4]
    2244:	e02b      	b.n	229e <hci_rd_tx_pwr_lvl_cmd_handler+0x92>
    2246:	2300      	movs	r3, #0
    2248:	7003      	strb	r3, [r0, #0]
    224a:	78b5      	ldrb	r5, [r6, #2]
    224c:	429d      	cmp	r5, r3
    224e:	d004      	beq.n	225a <hci_rd_tx_pwr_lvl_cmd_handler+0x4e>
    2250:	2d01      	cmp	r5, #1
    2252:	d02b      	beq.n	22ac <hci_rd_tx_pwr_lvl_cmd_handler+0xa0>
    2254:	2212      	movs	r2, #18
    2256:	7002      	strb	r2, [r0, #0]
    2258:	e7f3      	b.n	2242 <hci_rd_tx_pwr_lvl_cmd_handler+0x36>
    225a:	f022 f929 	bl	244b0 <____disable_fiq_from_thumb>
    225e:	9000      	str	r0, [sp, #0]
    2260:	f022 f8d0 	bl	24404 <____disable_irq_from_thumb>
    2264:	4b19      	ldr	r3, [pc, #100]	; (22cc <hci_rd_tx_pwr_lvl_cmd_handler+0xc0>)
    2266:	00ba      	lsls	r2, r7, #2
    2268:	58d3      	ldr	r3, [r2, r3]
    226a:	9001      	str	r0, [sp, #4]
    226c:	2b00      	cmp	r3, #0
    226e:	d00b      	beq.n	2288 <hci_rd_tx_pwr_lvl_cmd_handler+0x7c>
    2270:	206c      	movs	r0, #108	; 0x6c
    2272:	4347      	muls	r7, r0
    2274:	4b16      	ldr	r3, [pc, #88]	; (22d0 <hci_rd_tx_pwr_lvl_cmd_handler+0xc4>)
    2276:	2101      	movs	r1, #1
    2278:	18ff      	adds	r7, r7, r3
    227a:	8838      	ldrh	r0, [r7, #0]
    227c:	4b15      	ldr	r3, [pc, #84]	; (22d4 <hci_rd_tx_pwr_lvl_cmd_handler+0xc8>)
    227e:	0600      	lsls	r0, r0, #24
    2280:	695b      	ldr	r3, [r3, #20]
    2282:	0e00      	lsrs	r0, r0, #24
    2284:	4798      	blx	r3
    2286:	0005      	movs	r5, r0
    2288:	9b00      	ldr	r3, [sp, #0]
    228a:	2b00      	cmp	r3, #0
    228c:	d101      	bne.n	2292 <hci_rd_tx_pwr_lvl_cmd_handler+0x86>
    228e:	f022 f8e9 	bl	24464 <____enable_fiq_from_thumb>
    2292:	9b01      	ldr	r3, [sp, #4]
    2294:	2b00      	cmp	r3, #0
    2296:	d101      	bne.n	229c <hci_rd_tx_pwr_lvl_cmd_handler+0x90>
    2298:	f022 f8f6 	bl	24488 <____enable_irq_from_thumb>
    229c:	7125      	strb	r5, [r4, #4]
    229e:	8833      	ldrh	r3, [r6, #0]
    22a0:	0020      	movs	r0, r4
    22a2:	8063      	strh	r3, [r4, #2]
    22a4:	f013 f83c 	bl	15320 <hci_send_2_host>
    22a8:	2000      	movs	r0, #0
    22aa:	bdfe      	pop	{r1, r2, r3, r4, r5, r6, r7, pc}
    22ac:	4b09      	ldr	r3, [pc, #36]	; (22d4 <hci_rd_tx_pwr_lvl_cmd_handler+0xc8>)
    22ae:	0029      	movs	r1, r5
    22b0:	001a      	movs	r2, r3
    22b2:	322d      	adds	r2, #45	; 0x2d
    22b4:	7810      	ldrb	r0, [r2, #0]
    22b6:	695b      	ldr	r3, [r3, #20]
    22b8:	4798      	blx	r3
    22ba:	7120      	strb	r0, [r4, #4]
    22bc:	e7ef      	b.n	229e <hci_rd_tx_pwr_lvl_cmd_handler+0x92>
    22be:	46c0      	nop			; (mov r8, r8)
    22c0:	00000c2d 	.word	0x00000c2d
    22c4:	00001101 	.word	0x00001101
    22c8:	00400ebc 	.word	0x00400ebc
    22cc:	00400ed0 	.word	0x00400ed0
    22d0:	0081016a 	.word	0x0081016a
    22d4:	00403310 	.word	0x00403310

000022d8 <hci_rd_rssi_cmd_handler>:
    22d8:	b5f7      	push	{r0, r1, r2, r4, r5, r6, r7, lr}
    22da:	2306      	movs	r3, #6
    22dc:	0005      	movs	r5, r0
    22de:	000e      	movs	r6, r1
    22e0:	4a1e      	ldr	r2, [pc, #120]	; (235c <hci_rd_rssi_cmd_handler+0x84>)
    22e2:	8809      	ldrh	r1, [r1, #0]
    22e4:	481e      	ldr	r0, [pc, #120]	; (2360 <hci_rd_rssi_cmd_handler+0x88>)
    22e6:	f011 fa7d 	bl	137e4 <ke_msg_alloc>
    22ea:	0004      	movs	r4, r0
    22ec:	2d01      	cmp	r5, #1
    22ee:	d809      	bhi.n	2304 <hci_rd_rssi_cmd_handler+0x2c>
    22f0:	4b1c      	ldr	r3, [pc, #112]	; (2364 <hci_rd_rssi_cmd_handler+0x8c>)
    22f2:	00ad      	lsls	r5, r5, #2
    22f4:	58eb      	ldr	r3, [r5, r3]
    22f6:	2b00      	cmp	r3, #0
    22f8:	d004      	beq.n	2304 <hci_rd_rssi_cmd_handler+0x2c>
    22fa:	337a      	adds	r3, #122	; 0x7a
    22fc:	781b      	ldrb	r3, [r3, #0]
    22fe:	43db      	mvns	r3, r3
    2300:	079b      	lsls	r3, r3, #30
    2302:	d10a      	bne.n	231a <hci_rd_rssi_cmd_handler+0x42>
    2304:	230c      	movs	r3, #12
    2306:	7023      	strb	r3, [r4, #0]
    2308:	2300      	movs	r3, #0
    230a:	7123      	strb	r3, [r4, #4]
    230c:	8833      	ldrh	r3, [r6, #0]
    230e:	0020      	movs	r0, r4
    2310:	8063      	strh	r3, [r4, #2]
    2312:	f013 f805 	bl	15320 <hci_send_2_host>
    2316:	2000      	movs	r0, #0
    2318:	bdfe      	pop	{r1, r2, r3, r4, r5, r6, r7, pc}
    231a:	2300      	movs	r3, #0
    231c:	7003      	strb	r3, [r0, #0]
    231e:	f022 f8c7 	bl	244b0 <____disable_fiq_from_thumb>
    2322:	0007      	movs	r7, r0
    2324:	f022 f86e 	bl	24404 <____disable_irq_from_thumb>
    2328:	4b0f      	ldr	r3, [pc, #60]	; (2368 <hci_rd_rssi_cmd_handler+0x90>)
    232a:	9001      	str	r0, [sp, #4]
    232c:	58eb      	ldr	r3, [r5, r3]
    232e:	1e1d      	subs	r5, r3, #0
    2330:	d001      	beq.n	2336 <hci_rd_rssi_cmd_handler+0x5e>
    2332:	2597      	movs	r5, #151	; 0x97
    2334:	575d      	ldrsb	r5, [r3, r5]
    2336:	2f00      	cmp	r7, #0
    2338:	d101      	bne.n	233e <hci_rd_rssi_cmd_handler+0x66>
    233a:	f022 f893 	bl	24464 <____enable_fiq_from_thumb>
    233e:	9b01      	ldr	r3, [sp, #4]
    2340:	2b00      	cmp	r3, #0
    2342:	d101      	bne.n	2348 <hci_rd_rssi_cmd_handler+0x70>
    2344:	f022 f8a0 	bl	24488 <____enable_irq_from_thumb>
    2348:	23d6      	movs	r3, #214	; 0xd6
    234a:	4a08      	ldr	r2, [pc, #32]	; (236c <hci_rd_rssi_cmd_handler+0x94>)
    234c:	005b      	lsls	r3, r3, #1
    234e:	5ed0      	ldrsh	r0, [r2, r3]
    2350:	210a      	movs	r1, #10
    2352:	f022 f8a1 	bl	24498 <____aeabi_idiv_from_thumb>
    2356:	1945      	adds	r5, r0, r5
    2358:	7125      	strb	r5, [r4, #4]
    235a:	e7d7      	b.n	230c <hci_rd_rssi_cmd_handler+0x34>
    235c:	00001405 	.word	0x00001405
    2360:	00001101 	.word	0x00001101
    2364:	00400ebc 	.word	0x00400ebc
    2368:	00400ed0 	.word	0x00400ed0
    236c:	00400ff4 	.word	0x00400ff4

00002370 <hci_rd_auth_payl_to_cmd_handler>:
    2370:	b570      	push	{r4, r5, r6, lr}
    2372:	2306      	movs	r3, #6
    2374:	0004      	movs	r4, r0
    2376:	000d      	movs	r5, r1
    2378:	4a0e      	ldr	r2, [pc, #56]	; (23b4 <hci_rd_auth_payl_to_cmd_handler+0x44>)
    237a:	8809      	ldrh	r1, [r1, #0]
    237c:	480e      	ldr	r0, [pc, #56]	; (23b8 <hci_rd_auth_payl_to_cmd_handler+0x48>)
    237e:	f011 fa31 	bl	137e4 <ke_msg_alloc>
    2382:	210c      	movs	r1, #12
    2384:	2c01      	cmp	r4, #1
    2386:	d80d      	bhi.n	23a4 <hci_rd_auth_payl_to_cmd_handler+0x34>
    2388:	4b0c      	ldr	r3, [pc, #48]	; (23bc <hci_rd_auth_payl_to_cmd_handler+0x4c>)
    238a:	00a4      	lsls	r4, r4, #2
    238c:	58e3      	ldr	r3, [r4, r3]
    238e:	2b00      	cmp	r3, #0
    2390:	d008      	beq.n	23a4 <hci_rd_auth_payl_to_cmd_handler+0x34>
    2392:	001a      	movs	r2, r3
    2394:	327a      	adds	r2, #122	; 0x7a
    2396:	7812      	ldrb	r2, [r2, #0]
    2398:	43d2      	mvns	r2, r2
    239a:	0792      	lsls	r2, r2, #30
    239c:	d002      	beq.n	23a4 <hci_rd_auth_payl_to_cmd_handler+0x34>
    239e:	2100      	movs	r1, #0
    23a0:	8edb      	ldrh	r3, [r3, #54]	; 0x36
    23a2:	8083      	strh	r3, [r0, #4]
    23a4:	7001      	strb	r1, [r0, #0]
    23a6:	882b      	ldrh	r3, [r5, #0]
    23a8:	8043      	strh	r3, [r0, #2]
    23aa:	f012 ffb9 	bl	15320 <hci_send_2_host>
    23ae:	2000      	movs	r0, #0
    23b0:	bd70      	pop	{r4, r5, r6, pc}
    23b2:	46c0      	nop			; (mov r8, r8)
    23b4:	00000c7b 	.word	0x00000c7b
    23b8:	00001101 	.word	0x00001101
    23bc:	00400ebc 	.word	0x00400ebc

000023c0 <llc_hci_le_phy_upd_cmp_evt_send>:
    23c0:	b5f8      	push	{r3, r4, r5, r6, r7, lr}
    23c2:	000d      	movs	r5, r1
    23c4:	0017      	movs	r7, r2
    23c6:	001e      	movs	r6, r3
    23c8:	0001      	movs	r1, r0
    23ca:	0004      	movs	r4, r0
    23cc:	223e      	movs	r2, #62	; 0x3e
    23ce:	2306      	movs	r3, #6
    23d0:	4805      	ldr	r0, [pc, #20]	; (23e8 <llc_hci_le_phy_upd_cmp_evt_send+0x28>)
    23d2:	f011 fa07 	bl	137e4 <ke_msg_alloc>
    23d6:	230c      	movs	r3, #12
    23d8:	7107      	strb	r7, [r0, #4]
    23da:	7146      	strb	r6, [r0, #5]
    23dc:	7045      	strb	r5, [r0, #1]
    23de:	8044      	strh	r4, [r0, #2]
    23e0:	7003      	strb	r3, [r0, #0]
    23e2:	f012 ff9d 	bl	15320 <hci_send_2_host>
    23e6:	bdf8      	pop	{r3, r4, r5, r6, r7, pc}
    23e8:	00001104 	.word	0x00001104

000023ec <hci_le_rd_phy_cmd_handler>:
    23ec:	b570      	push	{r4, r5, r6, lr}
    23ee:	2306      	movs	r3, #6
    23f0:	0004      	movs	r4, r0
    23f2:	000d      	movs	r5, r1
    23f4:	480e      	ldr	r0, [pc, #56]	; (2430 <hci_le_rd_phy_cmd_handler+0x44>)
    23f6:	8809      	ldrh	r1, [r1, #0]
    23f8:	f011 f9f4 	bl	137e4 <ke_msg_alloc>
    23fc:	210c      	movs	r1, #12
    23fe:	2c01      	cmp	r4, #1
    2400:	d80f      	bhi.n	2422 <hci_le_rd_phy_cmd_handler+0x36>
    2402:	4b0c      	ldr	r3, [pc, #48]	; (2434 <hci_le_rd_phy_cmd_handler+0x48>)
    2404:	00a4      	lsls	r4, r4, #2
    2406:	58e3      	ldr	r3, [r4, r3]
    2408:	2b00      	cmp	r3, #0
    240a:	d00a      	beq.n	2422 <hci_le_rd_phy_cmd_handler+0x36>
    240c:	001a      	movs	r2, r3
    240e:	327a      	adds	r2, #122	; 0x7a
    2410:	7812      	ldrb	r2, [r2, #0]
    2412:	43d2      	mvns	r2, r2
    2414:	0792      	lsls	r2, r2, #30
    2416:	d004      	beq.n	2422 <hci_le_rd_phy_cmd_handler+0x36>
    2418:	2100      	movs	r1, #0
    241a:	7f5a      	ldrb	r2, [r3, #29]
    241c:	7142      	strb	r2, [r0, #5]
    241e:	7f1b      	ldrb	r3, [r3, #28]
    2420:	7103      	strb	r3, [r0, #4]
    2422:	7001      	strb	r1, [r0, #0]
    2424:	882b      	ldrh	r3, [r5, #0]
    2426:	8043      	strh	r3, [r0, #2]
    2428:	f012 ff7a 	bl	15320 <hci_send_2_host>
    242c:	2000      	movs	r0, #0
    242e:	bd70      	pop	{r4, r5, r6, pc}
    2430:	00001101 	.word	0x00001101
    2434:	00400ebc 	.word	0x00400ebc

00002438 <llc_hci_version_info_send>:
    2438:	b570      	push	{r4, r5, r6, lr}
    243a:	230a      	movs	r3, #10
    243c:	000d      	movs	r5, r1
    243e:	0006      	movs	r6, r0
    2440:	0001      	movs	r1, r0
    2442:	0014      	movs	r4, r2
    2444:	4808      	ldr	r0, [pc, #32]	; (2468 <llc_hci_version_info_send+0x30>)
    2446:	220c      	movs	r2, #12
    2448:	f011 f9cc 	bl	137e4 <ke_msg_alloc>
    244c:	8046      	strh	r6, [r0, #2]
    244e:	7005      	strb	r5, [r0, #0]
    2450:	2d00      	cmp	r5, #0
    2452:	d105      	bne.n	2460 <llc_hci_version_info_send+0x28>
    2454:	8863      	ldrh	r3, [r4, #2]
    2456:	80c3      	strh	r3, [r0, #6]
    2458:	88a3      	ldrh	r3, [r4, #4]
    245a:	8103      	strh	r3, [r0, #8]
    245c:	7823      	ldrb	r3, [r4, #0]
    245e:	7103      	strb	r3, [r0, #4]
    2460:	f012 ff5e 	bl	15320 <hci_send_2_host>
    2464:	bd70      	pop	{r4, r5, r6, pc}
    2466:	46c0      	nop			; (mov r8, r8)
    2468:	00001103 	.word	0x00001103

0000246c <lld_acl_tx_cfm_handler>:
    246c:	b510      	push	{r4, lr}
    246e:	0a10      	lsrs	r0, r2, #8
    2470:	f018 fd96 	bl	1afa0 <llc_hci_nb_cmp_pkts_evt_send.constprop.0>
    2474:	2000      	movs	r0, #0
    2476:	bd10      	pop	{r4, pc}

00002478 <lld_rpa_renew_instant_cbk>:
    2478:	b5f8      	push	{r3, r4, r5, r6, r7, lr}
    247a:	4c12      	ldr	r4, [pc, #72]	; (24c4 <lld_rpa_renew_instant_cbk+0x4c>)
    247c:	6820      	ldr	r0, [r4, #0]
    247e:	2800      	cmp	r0, #0
    2480:	d01f      	beq.n	24c2 <lld_rpa_renew_instant_cbk+0x4a>
    2482:	2140      	movs	r1, #64	; 0x40
    2484:	2504      	movs	r5, #4
    2486:	4b10      	ldr	r3, [pc, #64]	; (24c8 <lld_rpa_renew_instant_cbk+0x50>)
    2488:	881a      	ldrh	r2, [r3, #0]
    248a:	0bd2      	lsrs	r2, r2, #15
    248c:	d00d      	beq.n	24aa <lld_rpa_renew_instant_cbk+0x32>
    248e:	881f      	ldrh	r7, [r3, #0]
    2490:	881a      	ldrh	r2, [r3, #0]
    2492:	881e      	ldrh	r6, [r3, #0]
    2494:	007f      	lsls	r7, r7, #1
    2496:	400f      	ands	r7, r1
    2498:	438e      	bics	r6, r1
    249a:	4337      	orrs	r7, r6
    249c:	801f      	strh	r7, [r3, #0]
    249e:	881f      	ldrh	r7, [r3, #0]
    24a0:	0052      	lsls	r2, r2, #1
    24a2:	402a      	ands	r2, r5
    24a4:	43af      	bics	r7, r5
    24a6:	433a      	orrs	r2, r7
    24a8:	801a      	strh	r2, [r3, #0]
    24aa:	4a08      	ldr	r2, [pc, #32]	; (24cc <lld_rpa_renew_instant_cbk+0x54>)
    24ac:	3338      	adds	r3, #56	; 0x38
    24ae:	4293      	cmp	r3, r2
    24b0:	d1ea      	bne.n	2488 <lld_rpa_renew_instant_cbk+0x10>
    24b2:	2101      	movs	r1, #1
    24b4:	f019 f92a 	bl	1b70c <sch_arb_remove.isra.0>
    24b8:	6820      	ldr	r0, [r4, #0]
    24ba:	f011 f8bb 	bl	13634 <ke_free>
    24be:	2300      	movs	r3, #0
    24c0:	6023      	str	r3, [r4, #0]
    24c2:	bdf8      	pop	{r3, r4, r5, r6, r7, pc}
    24c4:	00400fdc 	.word	0x00400fdc
    24c8:	00810330 	.word	0x00810330
    24cc:	00810410 	.word	0x00810410

000024d0 <llc_le_ping_proc_err_cb>:
    24d0:	b510      	push	{r4, lr}
    24d2:	2900      	cmp	r1, #0
    24d4:	d002      	beq.n	24dc <llc_le_ping_proc_err_cb+0xc>
    24d6:	2901      	cmp	r1, #1
    24d8:	d004      	beq.n	24e4 <llc_le_ping_proc_err_cb+0x14>
    24da:	bd10      	pop	{r4, pc}
    24dc:	2101      	movs	r1, #1
    24de:	f018 fd3d 	bl	1af5c <llc_le_ping_proc_continue.constprop.0>
    24e2:	e7fa      	b.n	24da <llc_le_ping_proc_err_cb+0xa>
    24e4:	7853      	ldrb	r3, [r2, #1]
    24e6:	2b12      	cmp	r3, #18
    24e8:	d1f7      	bne.n	24da <llc_le_ping_proc_err_cb+0xa>
    24ea:	e7f8      	b.n	24de <llc_le_ping_proc_err_cb+0xe>

000024ec <llc_rem_llcp_rsp_to_handler>:
    24ec:	b510      	push	{r4, lr}
    24ee:	0a10      	lsrs	r0, r2, #8
    24f0:	2122      	movs	r1, #34	; 0x22
    24f2:	2201      	movs	r2, #1
    24f4:	f015 fe92 	bl	1821c <llc_disconnect>
    24f8:	2000      	movs	r0, #0
    24fa:	bd10      	pop	{r4, pc}

000024fc <llc_loc_llcp_rsp_to_handler>:
    24fc:	b510      	push	{r4, lr}
    24fe:	0a10      	lsrs	r0, r2, #8
    2500:	2122      	movs	r1, #34	; 0x22
    2502:	2201      	movs	r2, #1
    2504:	f015 fe8a 	bl	1821c <llc_disconnect>
    2508:	2000      	movs	r0, #0
    250a:	bd10      	pop	{r4, pc}

0000250c <llc_dl_chg_check>:
    250c:	b5f7      	push	{r0, r1, r2, r4, r5, r6, r7, lr}
    250e:	4b2d      	ldr	r3, [pc, #180]	; (25c4 <llc_dl_chg_check+0xb8>)
    2510:	0006      	movs	r6, r0
    2512:	0080      	lsls	r0, r0, #2
    2514:	58c4      	ldr	r4, [r0, r3]
    2516:	3a03      	subs	r2, #3
    2518:	7f65      	ldrb	r5, [r4, #29]
    251a:	7f23      	ldrb	r3, [r4, #28]
    251c:	1ee8      	subs	r0, r5, #3
    251e:	4247      	negs	r7, r0
    2520:	4147      	adcs	r7, r0
    2522:	4250      	negs	r0, r2
    2524:	4150      	adcs	r0, r2
    2526:	3903      	subs	r1, #3
    2528:	1eda      	subs	r2, r3, #3
    252a:	9001      	str	r0, [sp, #4]
    252c:	4250      	negs	r0, r2
    252e:	4142      	adcs	r2, r0
    2530:	4248      	negs	r0, r1
    2532:	4141      	adcs	r1, r0
    2534:	9700      	str	r7, [sp, #0]
    2536:	428a      	cmp	r2, r1
    2538:	d03e      	beq.n	25b8 <llc_dl_chg_check+0xac>
    253a:	2701      	movs	r7, #1
    253c:	3b01      	subs	r3, #1
    253e:	0619      	lsls	r1, r3, #24
    2540:	0e09      	lsrs	r1, r1, #24
    2542:	428f      	cmp	r7, r1
    2544:	4189      	sbcs	r1, r1
    2546:	8aa0      	ldrh	r0, [r4, #20]
    2548:	4249      	negs	r1, r1
    254a:	3004      	adds	r0, #4
    254c:	0600      	lsls	r0, r0, #24
    254e:	40b9      	lsls	r1, r7
    2550:	0e00      	lsrs	r0, r0, #24
    2552:	f010 fe0e 	bl	13172 <co_ble_pkt_dur_in_us>
    2556:	8b23      	ldrh	r3, [r4, #24]
    2558:	4283      	cmp	r3, r0
    255a:	d02d      	beq.n	25b8 <llc_dl_chg_check+0xac>
    255c:	9b00      	ldr	r3, [sp, #0]
    255e:	9a01      	ldr	r2, [sp, #4]
    2560:	8320      	strh	r0, [r4, #24]
    2562:	4293      	cmp	r3, r2
    2564:	d011      	beq.n	258a <llc_dl_chg_check+0x7e>
    2566:	2101      	movs	r1, #1
    2568:	3d01      	subs	r5, #1
    256a:	062d      	lsls	r5, r5, #24
    256c:	0e2d      	lsrs	r5, r5, #24
    256e:	42a9      	cmp	r1, r5
    2570:	4189      	sbcs	r1, r1
    2572:	8ae0      	ldrh	r0, [r4, #22]
    2574:	4249      	negs	r1, r1
    2576:	3004      	adds	r0, #4
    2578:	0600      	lsls	r0, r0, #24
    257a:	0049      	lsls	r1, r1, #1
    257c:	0e00      	lsrs	r0, r0, #24
    257e:	f010 fdf8 	bl	13172 <co_ble_pkt_dur_in_us>
    2582:	8b63      	ldrh	r3, [r4, #26]
    2584:	4283      	cmp	r3, r0
    2586:	d014      	beq.n	25b2 <llc_dl_chg_check+0xa6>
    2588:	8360      	strh	r0, [r4, #26]
    258a:	230c      	movs	r3, #12
    258c:	223e      	movs	r2, #62	; 0x3e
    258e:	0031      	movs	r1, r6
    2590:	480d      	ldr	r0, [pc, #52]	; (25c8 <llc_dl_chg_check+0xbc>)
    2592:	f011 f927 	bl	137e4 <ke_msg_alloc>
    2596:	2307      	movs	r3, #7
    2598:	8046      	strh	r6, [r0, #2]
    259a:	7003      	strb	r3, [r0, #0]
    259c:	8ae3      	ldrh	r3, [r4, #22]
    259e:	8103      	strh	r3, [r0, #8]
    25a0:	8b63      	ldrh	r3, [r4, #26]
    25a2:	8143      	strh	r3, [r0, #10]
    25a4:	8aa3      	ldrh	r3, [r4, #20]
    25a6:	8083      	strh	r3, [r0, #4]
    25a8:	8b23      	ldrh	r3, [r4, #24]
    25aa:	80c3      	strh	r3, [r0, #6]
    25ac:	f012 feb8 	bl	15320 <hci_send_2_host>
    25b0:	e001      	b.n	25b6 <llc_dl_chg_check+0xaa>
    25b2:	2f00      	cmp	r7, #0
    25b4:	d1e9      	bne.n	258a <llc_dl_chg_check+0x7e>
    25b6:	bdf7      	pop	{r0, r1, r2, r4, r5, r6, r7, pc}
    25b8:	9b00      	ldr	r3, [sp, #0]
    25ba:	9a01      	ldr	r2, [sp, #4]
    25bc:	2700      	movs	r7, #0
    25be:	4293      	cmp	r3, r2
    25c0:	d1d1      	bne.n	2566 <llc_dl_chg_check+0x5a>
    25c2:	e7f8      	b.n	25b6 <llc_dl_chg_check+0xaa>
    25c4:	00400ebc 	.word	0x00400ebc
    25c8:	00001104 	.word	0x00001104

000025cc <lld_adv_ext_pkt_prepare>:
    25cc:	b5f0      	push	{r4, r5, r6, r7, lr}
    25ce:	b097      	sub	sp, #92	; 0x5c
    25d0:	930f      	str	r3, [sp, #60]	; 0x3c
    25d2:	ab1c      	add	r3, sp, #112	; 0x70
    25d4:	781b      	ldrb	r3, [r3, #0]
    25d6:	0080      	lsls	r0, r0, #2
    25d8:	9308      	str	r3, [sp, #32]
    25da:	ab1d      	add	r3, sp, #116	; 0x74
    25dc:	781b      	ldrb	r3, [r3, #0]
    25de:	920e      	str	r2, [sp, #56]	; 0x38
    25e0:	9307      	str	r3, [sp, #28]
    25e2:	ab1e      	add	r3, sp, #120	; 0x78
    25e4:	781b      	ldrb	r3, [r3, #0]
    25e6:	9106      	str	r1, [sp, #24]
    25e8:	9304      	str	r3, [sp, #16]
    25ea:	ab1f      	add	r3, sp, #124	; 0x7c
    25ec:	781b      	ldrb	r3, [r3, #0]
    25ee:	9302      	str	r3, [sp, #8]
    25f0:	ab20      	add	r3, sp, #128	; 0x80
    25f2:	781b      	ldrb	r3, [r3, #0]
    25f4:	9309      	str	r3, [sp, #36]	; 0x24
    25f6:	ab21      	add	r3, sp, #132	; 0x84
    25f8:	781e      	ldrb	r6, [r3, #0]
    25fa:	4b1f      	ldr	r3, [pc, #124]	; (2678 <lld_adv_ext_pkt_prepare+0xac>)
    25fc:	58c7      	ldr	r7, [r0, r3]
    25fe:	003b      	movs	r3, r7
    2600:	338f      	adds	r3, #143	; 0x8f
    2602:	781b      	ldrb	r3, [r3, #0]
    2604:	009b      	lsls	r3, r3, #2
    2606:	930a      	str	r3, [sp, #40]	; 0x28
    2608:	010b      	lsls	r3, r1, #4
    260a:	9303      	str	r3, [sp, #12]
    260c:	9a03      	ldr	r2, [sp, #12]
    260e:	4b1b      	ldr	r3, [pc, #108]	; (267c <lld_adv_ext_pkt_prepare+0xb0>)
    2610:	4694      	mov	ip, r2
    2612:	4463      	add	r3, ip
    2614:	9305      	str	r3, [sp, #20]
    2616:	881b      	ldrh	r3, [r3, #0]
    2618:	9a05      	ldr	r2, [sp, #20]
    261a:	0b9b      	lsrs	r3, r3, #14
    261c:	039b      	lsls	r3, r3, #14
    261e:	8013      	strh	r3, [r2, #0]
    2620:	2300      	movs	r3, #0
    2622:	9a08      	ldr	r2, [sp, #32]
    2624:	429a      	cmp	r2, r3
    2626:	d000      	beq.n	262a <lld_adv_ext_pkt_prepare+0x5e>
    2628:	3306      	adds	r3, #6
    262a:	9a07      	ldr	r2, [sp, #28]
    262c:	001d      	movs	r5, r3
    262e:	2a00      	cmp	r2, #0
    2630:	d000      	beq.n	2634 <lld_adv_ext_pkt_prepare+0x68>
    2632:	1d9d      	adds	r5, r3, #6
    2634:	9a04      	ldr	r2, [sp, #16]
    2636:	9501      	str	r5, [sp, #4]
    2638:	2a00      	cmp	r2, #0
    263a:	d003      	beq.n	2644 <lld_adv_ext_pkt_prepare+0x78>
    263c:	1caa      	adds	r2, r5, #2
    263e:	0612      	lsls	r2, r2, #24
    2640:	0e12      	lsrs	r2, r2, #24
    2642:	9201      	str	r2, [sp, #4]
    2644:	9a02      	ldr	r2, [sp, #8]
    2646:	9c01      	ldr	r4, [sp, #4]
    2648:	2a00      	cmp	r2, #0
    264a:	d002      	beq.n	2652 <lld_adv_ext_pkt_prepare+0x86>
    264c:	3403      	adds	r4, #3
    264e:	0624      	lsls	r4, r4, #24
    2650:	0e24      	lsrs	r4, r4, #24
    2652:	9a09      	ldr	r2, [sp, #36]	; 0x24
    2654:	2a00      	cmp	r2, #0
    2656:	d008      	beq.n	266a <lld_adv_ext_pkt_prepare+0x9e>
    2658:	3412      	adds	r4, #18
    265a:	0624      	lsls	r4, r4, #24
    265c:	0e24      	lsrs	r4, r4, #24
    265e:	2e00      	cmp	r6, #0
    2660:	d105      	bne.n	266e <lld_adv_ext_pkt_prepare+0xa2>
    2662:	3401      	adds	r4, #1
    2664:	0624      	lsls	r4, r4, #24
    2666:	0e24      	lsrs	r4, r4, #24
    2668:	e00c      	b.n	2684 <lld_adv_ext_pkt_prepare+0xb8>
    266a:	2e00      	cmp	r6, #0
    266c:	d008      	beq.n	2680 <lld_adv_ext_pkt_prepare+0xb4>
    266e:	3401      	adds	r4, #1
    2670:	0624      	lsls	r4, r4, #24
    2672:	0e24      	lsrs	r4, r4, #24
    2674:	e7f5      	b.n	2662 <lld_adv_ext_pkt_prepare+0x96>
    2676:	46c0      	nop			; (mov r8, r8)
    2678:	00400ec8 	.word	0x00400ec8
    267c:	008104b8 	.word	0x008104b8
    2680:	2c00      	cmp	r4, #0
    2682:	d1ee      	bne.n	2662 <lld_adv_ext_pkt_prepare+0x96>
    2684:	9a24      	ldr	r2, [sp, #144]	; 0x90
    2686:	8812      	ldrh	r2, [r2, #0]
    2688:	1912      	adds	r2, r2, r4
    268a:	2afe      	cmp	r2, #254	; 0xfe
    268c:	dd0c      	ble.n	26a8 <lld_adv_ext_pkt_prepare+0xdc>
    268e:	9a02      	ldr	r2, [sp, #8]
    2690:	2a00      	cmp	r2, #0
    2692:	d109      	bne.n	26a8 <lld_adv_ext_pkt_prepare+0xdc>
    2694:	1c22      	adds	r2, r4, #0
    2696:	0624      	lsls	r4, r4, #24
    2698:	0e24      	lsrs	r4, r4, #24
    269a:	d100      	bne.n	269e <lld_adv_ext_pkt_prepare+0xd2>
    269c:	2201      	movs	r2, #1
    269e:	3203      	adds	r2, #3
    26a0:	0614      	lsls	r4, r2, #24
    26a2:	2201      	movs	r2, #1
    26a4:	0e24      	lsrs	r4, r4, #24
    26a6:	9202      	str	r2, [sp, #8]
    26a8:	9a07      	ldr	r2, [sp, #28]
    26aa:	2a00      	cmp	r2, #0
    26ac:	d00b      	beq.n	26c6 <lld_adv_ext_pkt_prepare+0xfa>
    26ae:	0039      	movs	r1, r7
    26b0:	9a22      	ldr	r2, [sp, #136]	; 0x88
    26b2:	3130      	adds	r1, #48	; 0x30
    26b4:	8810      	ldrh	r0, [r2, #0]
    26b6:	2206      	movs	r2, #6
    26b8:	18c0      	adds	r0, r0, r3
    26ba:	0400      	lsls	r0, r0, #16
    26bc:	4bb5      	ldr	r3, [pc, #724]	; (2994 <lld_adv_ext_pkt_prepare+0x3c8>)
    26be:	0c00      	lsrs	r0, r0, #16
    26c0:	18c0      	adds	r0, r0, r3
    26c2:	f01a f81f 	bl	1c704 <memcpy>
    26c6:	9b04      	ldr	r3, [sp, #16]
    26c8:	2b00      	cmp	r3, #0
    26ca:	d00b      	beq.n	26e4 <lld_adv_ext_pkt_prepare+0x118>
    26cc:	0039      	movs	r1, r7
    26ce:	9b22      	ldr	r3, [sp, #136]	; 0x88
    26d0:	2202      	movs	r2, #2
    26d2:	8818      	ldrh	r0, [r3, #0]
    26d4:	4baf      	ldr	r3, [pc, #700]	; (2994 <lld_adv_ext_pkt_prepare+0x3c8>)
    26d6:	1940      	adds	r0, r0, r5
    26d8:	0400      	lsls	r0, r0, #16
    26da:	0c00      	lsrs	r0, r0, #16
    26dc:	18c0      	adds	r0, r0, r3
    26de:	317e      	adds	r1, #126	; 0x7e
    26e0:	f01a f810 	bl	1c704 <memcpy>
    26e4:	9b02      	ldr	r3, [sp, #8]
    26e6:	2b00      	cmp	r3, #0
    26e8:	d004      	beq.n	26f4 <lld_adv_ext_pkt_prepare+0x128>
    26ea:	9b01      	ldr	r3, [sp, #4]
    26ec:	3303      	adds	r3, #3
    26ee:	061b      	lsls	r3, r3, #24
    26f0:	0e1b      	lsrs	r3, r3, #24
    26f2:	9301      	str	r3, [sp, #4]
    26f4:	9b09      	ldr	r3, [sp, #36]	; 0x24
    26f6:	2b00      	cmp	r3, #0
    26f8:	d053      	beq.n	27a2 <lld_adv_ext_pkt_prepare+0x1d6>
    26fa:	4ba7      	ldr	r3, [pc, #668]	; (2998 <lld_adv_ext_pkt_prepare+0x3cc>)
    26fc:	ad11      	add	r5, sp, #68	; 0x44
    26fe:	33c6      	adds	r3, #198	; 0xc6
    2700:	781b      	ldrb	r3, [r3, #0]
    2702:	2212      	movs	r2, #18
    2704:	2100      	movs	r1, #0
    2706:	0028      	movs	r0, r5
    2708:	930b      	str	r3, [sp, #44]	; 0x2c
    270a:	f01a f8ad 	bl	1c868 <memset>
    270e:	6f3b      	ldr	r3, [r7, #112]	; 0x70
    2710:	806b      	strh	r3, [r5, #2]
    2712:	003b      	movs	r3, r7
    2714:	3390      	adds	r3, #144	; 0x90
    2716:	781d      	ldrb	r5, [r3, #0]
    2718:	f021 feca 	bl	244b0 <____disable_fiq_from_thumb>
    271c:	900c      	str	r0, [sp, #48]	; 0x30
    271e:	f021 fe71 	bl	24404 <____disable_irq_from_thumb>
    2722:	4b9e      	ldr	r3, [pc, #632]	; (299c <lld_adv_ext_pkt_prepare+0x3d0>)
    2724:	00ad      	lsls	r5, r5, #2
    2726:	58ed      	ldr	r5, [r5, r3]
    2728:	900d      	str	r0, [sp, #52]	; 0x34
    272a:	2d00      	cmp	r5, #0
    272c:	d015      	beq.n	275a <lld_adv_ext_pkt_prepare+0x18e>
    272e:	0029      	movs	r1, r5
    2730:	200d      	movs	r0, #13
    2732:	ab10      	add	r3, sp, #64	; 0x40
    2734:	2204      	movs	r2, #4
    2736:	312c      	adds	r1, #44	; 0x2c
    2738:	18c0      	adds	r0, r0, r3
    273a:	f019 ffe3 	bl	1c704 <memcpy>
    273e:	0029      	movs	r1, r5
    2740:	2011      	movs	r0, #17
    2742:	ab10      	add	r3, sp, #64	; 0x40
    2744:	2203      	movs	r2, #3
    2746:	3130      	adds	r1, #48	; 0x30
    2748:	18c0      	adds	r0, r0, r3
    274a:	f019 ffdb 	bl	1c704 <memcpy>
    274e:	0029      	movs	r1, r5
    2750:	2205      	movs	r2, #5
    2752:	3133      	adds	r1, #51	; 0x33
    2754:	a812      	add	r0, sp, #72	; 0x48
    2756:	f019 ffd5 	bl	1c704 <memcpy>
    275a:	9b0c      	ldr	r3, [sp, #48]	; 0x30
    275c:	2b00      	cmp	r3, #0
    275e:	d101      	bne.n	2764 <lld_adv_ext_pkt_prepare+0x198>
    2760:	f021 fe80 	bl	24464 <____enable_fiq_from_thumb>
    2764:	9b0d      	ldr	r3, [sp, #52]	; 0x34
    2766:	2b00      	cmp	r3, #0
    2768:	d101      	bne.n	276e <lld_adv_ext_pkt_prepare+0x1a2>
    276a:	f021 fe8d 	bl	24488 <____enable_irq_from_thumb>
    276e:	221f      	movs	r2, #31
    2770:	ab10      	add	r3, sp, #64	; 0x40
    2772:	7b1b      	ldrb	r3, [r3, #12]
    2774:	a911      	add	r1, sp, #68	; 0x44
    2776:	4013      	ands	r3, r2
    2778:	9a0b      	ldr	r2, [sp, #44]	; 0x2c
    277a:	0152      	lsls	r2, r2, #5
    277c:	4313      	orrs	r3, r2
    277e:	aa10      	add	r2, sp, #64	; 0x40
    2780:	7313      	strb	r3, [r2, #12]
    2782:	9b22      	ldr	r3, [sp, #136]	; 0x88
    2784:	2212      	movs	r2, #18
    2786:	8818      	ldrh	r0, [r3, #0]
    2788:	9b01      	ldr	r3, [sp, #4]
    278a:	18c0      	adds	r0, r0, r3
    278c:	0400      	lsls	r0, r0, #16
    278e:	4b81      	ldr	r3, [pc, #516]	; (2994 <lld_adv_ext_pkt_prepare+0x3c8>)
    2790:	0c00      	lsrs	r0, r0, #16
    2792:	18c0      	adds	r0, r0, r3
    2794:	f019 ffb6 	bl	1c704 <memcpy>
    2798:	9b01      	ldr	r3, [sp, #4]
    279a:	3312      	adds	r3, #18
    279c:	061b      	lsls	r3, r3, #24
    279e:	0e1b      	lsrs	r3, r3, #24
    27a0:	9301      	str	r3, [sp, #4]
    27a2:	2e00      	cmp	r6, #0
    27a4:	d017      	beq.n	27d6 <lld_adv_ext_pkt_prepare+0x20a>
    27a6:	9b22      	ldr	r3, [sp, #136]	; 0x88
    27a8:	4a7d      	ldr	r2, [pc, #500]	; (29a0 <lld_adv_ext_pkt_prepare+0x3d4>)
    27aa:	881d      	ldrh	r5, [r3, #0]
    27ac:	9b01      	ldr	r3, [sp, #4]
    27ae:	210a      	movs	r1, #10
    27b0:	18ed      	adds	r5, r5, r3
    27b2:	23d7      	movs	r3, #215	; 0xd7
    27b4:	005b      	lsls	r3, r3, #1
    27b6:	5ed0      	ldrsh	r0, [r2, r3]
    27b8:	f021 fe6e 	bl	24498 <____aeabi_idiv_from_thumb>
    27bc:	003b      	movs	r3, r7
    27be:	3395      	adds	r3, #149	; 0x95
    27c0:	781b      	ldrb	r3, [r3, #0]
    27c2:	042d      	lsls	r5, r5, #16
    27c4:	18c0      	adds	r0, r0, r3
    27c6:	4b73      	ldr	r3, [pc, #460]	; (2994 <lld_adv_ext_pkt_prepare+0x3c8>)
    27c8:	0c2d      	lsrs	r5, r5, #16
    27ca:	54e8      	strb	r0, [r5, r3]
    27cc:	9b01      	ldr	r3, [sp, #4]
    27ce:	3301      	adds	r3, #1
    27d0:	061b      	lsls	r3, r3, #24
    27d2:	0e1b      	lsrs	r3, r3, #24
    27d4:	9301      	str	r3, [sp, #4]
    27d6:	2500      	movs	r5, #0
    27d8:	9b24      	ldr	r3, [sp, #144]	; 0x90
    27da:	881b      	ldrh	r3, [r3, #0]
    27dc:	42ab      	cmp	r3, r5
    27de:	d00a      	beq.n	27f6 <lld_adv_ext_pkt_prepare+0x22a>
    27e0:	3d02      	subs	r5, #2
    27e2:	1b2d      	subs	r5, r5, r4
    27e4:	062d      	lsls	r5, r5, #24
    27e6:	0e2d      	lsrs	r5, r5, #24
    27e8:	42ab      	cmp	r3, r5
    27ea:	d201      	bcs.n	27f0 <lld_adv_ext_pkt_prepare+0x224>
    27ec:	061d      	lsls	r5, r3, #24
    27ee:	0e2d      	lsrs	r5, r5, #24
    27f0:	9a24      	ldr	r2, [sp, #144]	; 0x90
    27f2:	1b5b      	subs	r3, r3, r5
    27f4:	8013      	strh	r3, [r2, #0]
    27f6:	9a0f      	ldr	r2, [sp, #60]	; 0x3c
    27f8:	03b3      	lsls	r3, r6, #14
    27fa:	0192      	lsls	r2, r2, #6
    27fc:	4313      	orrs	r3, r2
    27fe:	9a09      	ldr	r2, [sp, #36]	; 0x24
    2800:	4968      	ldr	r1, [pc, #416]	; (29a4 <lld_adv_ext_pkt_prepare+0x3d8>)
    2802:	0352      	lsls	r2, r2, #13
    2804:	4313      	orrs	r3, r2
    2806:	9a04      	ldr	r2, [sp, #16]
    2808:	02d2      	lsls	r2, r2, #11
    280a:	4313      	orrs	r3, r2
    280c:	9a07      	ldr	r2, [sp, #28]
    280e:	0252      	lsls	r2, r2, #9
    2810:	4313      	orrs	r3, r2
    2812:	9a08      	ldr	r2, [sp, #32]
    2814:	0212      	lsls	r2, r2, #8
    2816:	4313      	orrs	r3, r2
    2818:	9a02      	ldr	r2, [sp, #8]
    281a:	4323      	orrs	r3, r4
    281c:	0312      	lsls	r2, r2, #12
    281e:	4313      	orrs	r3, r2
    2820:	9a03      	ldr	r2, [sp, #12]
    2822:	041b      	lsls	r3, r3, #16
    2824:	3401      	adds	r4, #1
    2826:	0c1b      	lsrs	r3, r3, #16
    2828:	1852      	adds	r2, r2, r1
    282a:	192c      	adds	r4, r5, r4
    282c:	8013      	strh	r3, [r2, #0]
    282e:	0623      	lsls	r3, r4, #24
    2830:	0e1b      	lsrs	r3, r3, #24
    2832:	9304      	str	r3, [sp, #16]
    2834:	9a0a      	ldr	r2, [sp, #40]	; 0x28
    2836:	9b06      	ldr	r3, [sp, #24]
    2838:	4293      	cmp	r3, r2
    283a:	d000      	beq.n	283e <lld_adv_ext_pkt_prepare+0x272>
    283c:	e08d      	b.n	295a <lld_adv_ext_pkt_prepare+0x38e>
    283e:	003b      	movs	r3, r7
    2840:	3396      	adds	r3, #150	; 0x96
    2842:	7819      	ldrb	r1, [r3, #0]
    2844:	9804      	ldr	r0, [sp, #16]
    2846:	f010 fc94 	bl	13172 <co_ble_pkt_dur_in_us>
    284a:	003b      	movs	r3, r7
    284c:	339b      	adds	r3, #155	; 0x9b
    284e:	781e      	ldrb	r6, [r3, #0]
    2850:	3096      	adds	r0, #150	; 0x96
    2852:	4346      	muls	r6, r0
    2854:	2000      	movs	r0, #0
    2856:	9b02      	ldr	r3, [sp, #8]
    2858:	4283      	cmp	r3, r0
    285a:	d020      	beq.n	289e <lld_adv_ext_pkt_prepare+0x2d2>
    285c:	362d      	adds	r6, #45	; 0x2d
    285e:	4b52      	ldr	r3, [pc, #328]	; (29a8 <lld_adv_ext_pkt_prepare+0x3dc>)
    2860:	36ff      	adds	r6, #255	; 0xff
    2862:	429e      	cmp	r6, r3
    2864:	d900      	bls.n	2868 <lld_adv_ext_pkt_prepare+0x29c>
    2866:	e092      	b.n	298e <lld_adv_ext_pkt_prepare+0x3c2>
    2868:	4b50      	ldr	r3, [pc, #320]	; (29ac <lld_adv_ext_pkt_prepare+0x3e0>)
    286a:	211e      	movs	r1, #30
    286c:	429e      	cmp	r6, r3
    286e:	d901      	bls.n	2874 <lld_adv_ext_pkt_prepare+0x2a8>
    2870:	2196      	movs	r1, #150	; 0x96
    2872:	0049      	lsls	r1, r1, #1
    2874:	0030      	movs	r0, r6
    2876:	f021 fda3 	bl	243c0 <____aeabi_uidiv_from_thumb>
    287a:	9a06      	ldr	r2, [sp, #24]
    287c:	3001      	adds	r0, #1
    287e:	990a      	ldr	r1, [sp, #40]	; 0x28
    2880:	0403      	lsls	r3, r0, #16
    2882:	0c1b      	lsrs	r3, r3, #16
    2884:	428a      	cmp	r2, r1
    2886:	d000      	beq.n	288a <lld_adv_ext_pkt_prepare+0x2be>
    2888:	e079      	b.n	297e <lld_adv_ext_pkt_prepare+0x3b2>
    288a:	003a      	movs	r2, r7
    288c:	3282      	adds	r2, #130	; 0x82
    288e:	8013      	strh	r3, [r2, #0]
    2890:	4b46      	ldr	r3, [pc, #280]	; (29ac <lld_adv_ext_pkt_prepare+0x3e0>)
    2892:	429e      	cmp	r6, r3
    2894:	d800      	bhi.n	2898 <lld_adv_ext_pkt_prepare+0x2cc>
    2896:	e075      	b.n	2984 <lld_adv_ext_pkt_prepare+0x3b8>
    2898:	2696      	movs	r6, #150	; 0x96
    289a:	0076      	lsls	r6, r6, #1
    289c:	4346      	muls	r6, r0
    289e:	2100      	movs	r1, #0
    28a0:	2232      	movs	r2, #50	; 0x32
    28a2:	000c      	movs	r4, r1
    28a4:	4b3c      	ldr	r3, [pc, #240]	; (2998 <lld_adv_ext_pkt_prepare+0x3cc>)
    28a6:	33c4      	adds	r3, #196	; 0xc4
    28a8:	881b      	ldrh	r3, [r3, #0]
    28aa:	429a      	cmp	r2, r3
    28ac:	414c      	adcs	r4, r1
    28ae:	003b      	movs	r3, r7
    28b0:	3399      	adds	r3, #153	; 0x99
    28b2:	781b      	ldrb	r3, [r3, #0]
    28b4:	01a2      	lsls	r2, r4, #6
    28b6:	4313      	orrs	r3, r2
    28b8:	0202      	lsls	r2, r0, #8
    28ba:	4313      	orrs	r3, r2
    28bc:	9a02      	ldr	r2, [sp, #8]
    28be:	4c3c      	ldr	r4, [pc, #240]	; (29b0 <lld_adv_ext_pkt_prepare+0x3e4>)
    28c0:	01d2      	lsls	r2, r2, #7
    28c2:	4313      	orrs	r3, r2
    28c4:	9a03      	ldr	r2, [sp, #12]
    28c6:	041b      	lsls	r3, r3, #16
    28c8:	0c1b      	lsrs	r3, r3, #16
    28ca:	1912      	adds	r2, r2, r4
    28cc:	8013      	strh	r3, [r2, #0]
    28ce:	003b      	movs	r3, r7
    28d0:	3398      	adds	r3, #152	; 0x98
    28d2:	781b      	ldrb	r3, [r3, #0]
    28d4:	0a00      	lsrs	r0, r0, #8
    28d6:	015b      	lsls	r3, r3, #5
    28d8:	4a36      	ldr	r2, [pc, #216]	; (29b4 <lld_adv_ext_pkt_prepare+0x3e8>)
    28da:	4318      	orrs	r0, r3
    28dc:	9b03      	ldr	r3, [sp, #12]
    28de:	0400      	lsls	r0, r0, #16
    28e0:	189b      	adds	r3, r3, r2
    28e2:	0c00      	lsrs	r0, r0, #16
    28e4:	8018      	strh	r0, [r3, #0]
    28e6:	9b22      	ldr	r3, [sp, #136]	; 0x88
    28e8:	9a03      	ldr	r2, [sp, #12]
    28ea:	4833      	ldr	r0, [pc, #204]	; (29b8 <lld_adv_ext_pkt_prepare+0x3ec>)
    28ec:	881b      	ldrh	r3, [r3, #0]
    28ee:	1812      	adds	r2, r2, r0
    28f0:	8013      	strh	r3, [r2, #0]
    28f2:	9a01      	ldr	r2, [sp, #4]
    28f4:	189b      	adds	r3, r3, r2
    28f6:	9a22      	ldr	r2, [sp, #136]	; 0x88
    28f8:	8013      	strh	r3, [r2, #0]
    28fa:	9b07      	ldr	r3, [sp, #28]
    28fc:	428b      	cmp	r3, r1
    28fe:	d004      	beq.n	290a <lld_adv_ext_pkt_prepare+0x33e>
    2900:	003b      	movs	r3, r7
    2902:	3394      	adds	r3, #148	; 0x94
    2904:	7819      	ldrb	r1, [r3, #0]
    2906:	2301      	movs	r3, #1
    2908:	4019      	ands	r1, r3
    290a:	2000      	movs	r0, #0
    290c:	9b08      	ldr	r3, [sp, #32]
    290e:	4283      	cmp	r3, r0
    2910:	d004      	beq.n	291c <lld_adv_ext_pkt_prepare+0x350>
    2912:	003b      	movs	r3, r7
    2914:	3393      	adds	r3, #147	; 0x93
    2916:	7818      	ldrb	r0, [r3, #0]
    2918:	2301      	movs	r3, #1
    291a:	4018      	ands	r0, r3
    291c:	9b03      	ldr	r3, [sp, #12]
    291e:	4a27      	ldr	r2, [pc, #156]	; (29bc <lld_adv_ext_pkt_prepare+0x3f0>)
    2920:	9c0e      	ldr	r4, [sp, #56]	; 0x38
    2922:	189b      	adds	r3, r3, r2
    2924:	9a04      	ldr	r2, [sp, #16]
    2926:	01c9      	lsls	r1, r1, #7
    2928:	0212      	lsls	r2, r2, #8
    292a:	4322      	orrs	r2, r4
    292c:	430a      	orrs	r2, r1
    292e:	4924      	ldr	r1, [pc, #144]	; (29c0 <lld_adv_ext_pkt_prepare+0x3f4>)
    2930:	0180      	lsls	r0, r0, #6
    2932:	468c      	mov	ip, r1
    2934:	4302      	orrs	r2, r0
    2936:	0030      	movs	r0, r6
    2938:	801a      	strh	r2, [r3, #0]
    293a:	9b23      	ldr	r3, [sp, #140]	; 0x8c
    293c:	881a      	ldrh	r2, [r3, #0]
    293e:	9b03      	ldr	r3, [sp, #12]
    2940:	4463      	add	r3, ip
    2942:	801a      	strh	r2, [r3, #0]
    2944:	9b23      	ldr	r3, [sp, #140]	; 0x8c
    2946:	1952      	adds	r2, r2, r5
    2948:	801a      	strh	r2, [r3, #0]
    294a:	9b05      	ldr	r3, [sp, #20]
    294c:	9a05      	ldr	r2, [sp, #20]
    294e:	881b      	ldrh	r3, [r3, #0]
    2950:	045b      	lsls	r3, r3, #17
    2952:	0c5b      	lsrs	r3, r3, #17
    2954:	8013      	strh	r3, [r2, #0]
    2956:	b017      	add	sp, #92	; 0x5c
    2958:	bdf0      	pop	{r4, r5, r6, r7, pc}
    295a:	003b      	movs	r3, r7
    295c:	3398      	adds	r3, #152	; 0x98
    295e:	7819      	ldrb	r1, [r3, #0]
    2960:	9804      	ldr	r0, [sp, #16]
    2962:	f010 fc06 	bl	13172 <co_ble_pkt_dur_in_us>
    2966:	003b      	movs	r3, r7
    2968:	338f      	adds	r3, #143	; 0x8f
    296a:	781b      	ldrb	r3, [r3, #0]
    296c:	9a06      	ldr	r2, [sp, #24]
    296e:	009b      	lsls	r3, r3, #2
    2970:	3301      	adds	r3, #1
    2972:	0006      	movs	r6, r0
    2974:	429a      	cmp	r2, r3
    2976:	d000      	beq.n	297a <lld_adv_ext_pkt_prepare+0x3ae>
    2978:	e76c      	b.n	2854 <lld_adv_ext_pkt_prepare+0x288>
    297a:	67b8      	str	r0, [r7, #120]	; 0x78
    297c:	e76a      	b.n	2854 <lld_adv_ext_pkt_prepare+0x288>
    297e:	003a      	movs	r2, r7
    2980:	3284      	adds	r2, #132	; 0x84
    2982:	e784      	b.n	288e <lld_adv_ext_pkt_prepare+0x2c2>
    2984:	261e      	movs	r6, #30
    2986:	2300      	movs	r3, #0
    2988:	4346      	muls	r6, r0
    298a:	9302      	str	r3, [sp, #8]
    298c:	e787      	b.n	289e <lld_adv_ext_pkt_prepare+0x2d2>
    298e:	9002      	str	r0, [sp, #8]
    2990:	e785      	b.n	289e <lld_adv_ext_pkt_prepare+0x2d2>
    2992:	46c0      	nop			; (mov r8, r8)
    2994:	00814000 	.word	0x00814000
    2998:	00400ed8 	.word	0x00400ed8
    299c:	00400fd4 	.word	0x00400fd4
    29a0:	00400ff4 	.word	0x00400ff4
    29a4:	008104be 	.word	0x008104be
    29a8:	00257ed4 	.word	0x00257ed4
    29ac:	0003bfc3 	.word	0x0003bfc3
    29b0:	008104c0 	.word	0x008104c0
    29b4:	008104c2 	.word	0x008104c2
    29b8:	008104c4 	.word	0x008104c4
    29bc:	008104ba 	.word	0x008104ba
    29c0:	008104bc 	.word	0x008104bc

000029c4 <lld_rpa_renew_evt_canceled_cbk>:
    29c4:	b510      	push	{r4, lr}
    29c6:	4b05      	ldr	r3, [pc, #20]	; (29dc <lld_rpa_renew_evt_canceled_cbk+0x18>)
    29c8:	681b      	ldr	r3, [r3, #0]
    29ca:	2b00      	cmp	r3, #0
    29cc:	d004      	beq.n	29d8 <lld_rpa_renew_evt_canceled_cbk+0x14>
    29ce:	7d83      	ldrb	r3, [r0, #22]
    29d0:	3301      	adds	r3, #1
    29d2:	7583      	strb	r3, [r0, #22]
    29d4:	f015 fa86 	bl	17ee4 <sch_arb_insert>
    29d8:	bd10      	pop	{r4, pc}
    29da:	46c0      	nop			; (mov r8, r8)
    29dc:	00400fdc 	.word	0x00400fdc

000029e0 <lld_adv_aux_evt_canceled_cbk>:
    29e0:	b5f8      	push	{r3, r4, r5, r6, r7, lr}
    29e2:	1e04      	subs	r4, r0, #0
    29e4:	d03f      	beq.n	2a66 <lld_adv_aux_evt_canceled_cbk+0x86>
    29e6:	0005      	movs	r5, r0
    29e8:	6841      	ldr	r1, [r0, #4]
    29ea:	6b2b      	ldr	r3, [r5, #48]	; 0x30
    29ec:	6b6a      	ldr	r2, [r5, #52]	; 0x34
    29ee:	1acb      	subs	r3, r1, r3
    29f0:	011b      	lsls	r3, r3, #4
    29f2:	3d38      	subs	r5, #56	; 0x38
    29f4:	091b      	lsrs	r3, r3, #4
    29f6:	0052      	lsls	r2, r2, #1
    29f8:	4293      	cmp	r3, r2
    29fa:	d303      	bcc.n	2a04 <lld_adv_aux_evt_canceled_cbk+0x24>
    29fc:	7d83      	ldrb	r3, [r0, #22]
    29fe:	3301      	adds	r3, #1
    2a00:	7583      	strb	r3, [r0, #22]
    2a02:	66a9      	str	r1, [r5, #104]	; 0x68
    2a04:	0020      	movs	r0, r4
    2a06:	f015 fa6d 	bl	17ee4 <sch_arb_insert>
    2a0a:	2800      	cmp	r0, #0
    2a0c:	d02b      	beq.n	2a66 <lld_adv_aux_evt_canceled_cbk+0x86>
    2a0e:	6e2b      	ldr	r3, [r5, #96]	; 0x60
    2a10:	3301      	adds	r3, #1
    2a12:	d028      	beq.n	2a66 <lld_adv_aux_evt_canceled_cbk+0x86>
    2a14:	2100      	movs	r1, #0
    2a16:	0023      	movs	r3, r4
    2a18:	2032      	movs	r0, #50	; 0x32
    2a1a:	000f      	movs	r7, r1
    2a1c:	3357      	adds	r3, #87	; 0x57
    2a1e:	781b      	ldrb	r3, [r3, #0]
    2a20:	4a11      	ldr	r2, [pc, #68]	; (2a68 <lld_adv_aux_evt_canceled_cbk+0x88>)
    2a22:	069b      	lsls	r3, r3, #26
    2a24:	0d1b      	lsrs	r3, r3, #20
    2a26:	189e      	adds	r6, r3, r2
    2a28:	4a10      	ldr	r2, [pc, #64]	; (2a6c <lld_adv_aux_evt_canceled_cbk+0x8c>)
    2a2a:	32c4      	adds	r2, #196	; 0xc4
    2a2c:	8812      	ldrh	r2, [r2, #0]
    2a2e:	4290      	cmp	r0, r2
    2a30:	414f      	adcs	r7, r1
    2a32:	0022      	movs	r2, r4
    2a34:	3261      	adds	r2, #97	; 0x61
    2a36:	7812      	ldrb	r2, [r2, #0]
    2a38:	01b8      	lsls	r0, r7, #6
    2a3a:	4302      	orrs	r2, r0
    2a3c:	0020      	movs	r0, r4
    2a3e:	304a      	adds	r0, #74	; 0x4a
    2a40:	7807      	ldrb	r7, [r0, #0]
    2a42:	023f      	lsls	r7, r7, #8
    2a44:	433a      	orrs	r2, r7
    2a46:	8032      	strh	r2, [r6, #0]
    2a48:	4a09      	ldr	r2, [pc, #36]	; (2a70 <lld_adv_aux_evt_canceled_cbk+0x90>)
    2a4a:	8800      	ldrh	r0, [r0, #0]
    2a4c:	189b      	adds	r3, r3, r2
    2a4e:	0022      	movs	r2, r4
    2a50:	3260      	adds	r2, #96	; 0x60
    2a52:	7812      	ldrb	r2, [r2, #0]
    2a54:	0a00      	lsrs	r0, r0, #8
    2a56:	0152      	lsls	r2, r2, #5
    2a58:	4302      	orrs	r2, r0
    2a5a:	801a      	strh	r2, [r3, #0]
    2a5c:	0023      	movs	r3, r4
    2a5e:	3366      	adds	r3, #102	; 0x66
    2a60:	7019      	strb	r1, [r3, #0]
    2a62:	6923      	ldr	r3, [r4, #16]
    2a64:	612b      	str	r3, [r5, #16]
    2a66:	bdf8      	pop	{r3, r4, r5, r6, r7, pc}
    2a68:	008104c0 	.word	0x008104c0
    2a6c:	00400ed8 	.word	0x00400ed8
    2a70:	008104c2 	.word	0x008104c2

00002a74 <lld_adv_end>:
    2a74:	b5f7      	push	{r0, r1, r2, r4, r5, r6, r7, lr}
    2a76:	4f28      	ldr	r7, [pc, #160]	; (2b18 <lld_adv_end+0xa4>)
    2a78:	0086      	lsls	r6, r0, #2
    2a7a:	59f4      	ldr	r4, [r6, r7]
    2a7c:	0015      	movs	r5, r2
    2a7e:	9000      	str	r0, [sp, #0]
    2a80:	9101      	str	r1, [sp, #4]
    2a82:	2c00      	cmp	r4, #0
    2a84:	d046      	beq.n	2b14 <lld_adv_end+0xa0>
    2a86:	2100      	movs	r1, #0
    2a88:	0020      	movs	r0, r4
    2a8a:	f018 fe3f 	bl	1b70c <sch_arb_remove.isra.0>
    2a8e:	0023      	movs	r3, r4
    2a90:	339e      	adds	r3, #158	; 0x9e
    2a92:	781b      	ldrb	r3, [r3, #0]
    2a94:	2b00      	cmp	r3, #0
    2a96:	d004      	beq.n	2aa2 <lld_adv_end+0x2e>
    2a98:	0020      	movs	r0, r4
    2a9a:	2100      	movs	r1, #0
    2a9c:	3038      	adds	r0, #56	; 0x38
    2a9e:	f018 fe35 	bl	1b70c <sch_arb_remove.isra.0>
    2aa2:	0023      	movs	r3, r4
    2aa4:	337c      	adds	r3, #124	; 0x7c
    2aa6:	881b      	ldrh	r3, [r3, #0]
    2aa8:	071b      	lsls	r3, r3, #28
    2aaa:	d50f      	bpl.n	2acc <lld_adv_end+0x58>
    2aac:	2104      	movs	r1, #4
    2aae:	4b1b      	ldr	r3, [pc, #108]	; (2b1c <lld_adv_end+0xa8>)
    2ab0:	781a      	ldrb	r2, [r3, #0]
    2ab2:	438a      	bics	r2, r1
    2ab4:	701a      	strb	r2, [r3, #0]
    2ab6:	2201      	movs	r2, #1
    2ab8:	4252      	negs	r2, r2
    2aba:	605a      	str	r2, [r3, #4]
    2abc:	f010 f82c 	bl	12b18 <sch_slice_compute>
    2ac0:	4b17      	ldr	r3, [pc, #92]	; (2b20 <lld_adv_end+0xac>)
    2ac2:	681b      	ldr	r3, [r3, #0]
    2ac4:	3301      	adds	r3, #1
    2ac6:	d101      	bne.n	2acc <lld_adv_end+0x58>
    2ac8:	f019 f80e 	bl	1bae8 <lld_scan_restart.isra.0>
    2acc:	9b01      	ldr	r3, [sp, #4]
    2ace:	2b00      	cmp	r3, #0
    2ad0:	d01b      	beq.n	2b0a <lld_adv_end+0x96>
    2ad2:	233c      	movs	r3, #60	; 0x3c
    2ad4:	22ff      	movs	r2, #255	; 0xff
    2ad6:	2100      	movs	r1, #0
    2ad8:	4812      	ldr	r0, [pc, #72]	; (2b24 <lld_adv_end+0xb0>)
    2ada:	f010 fe83 	bl	137e4 <ke_msg_alloc>
    2ade:	9b00      	ldr	r3, [sp, #0]
    2ae0:	0002      	movs	r2, r0
    2ae2:	7003      	strb	r3, [r0, #0]
    2ae4:	2300      	movs	r3, #0
    2ae6:	3235      	adds	r2, #53	; 0x35
    2ae8:	7045      	strb	r5, [r0, #1]
    2aea:	7013      	strb	r3, [r2, #0]
    2aec:	429d      	cmp	r5, r3
    2aee:	d007      	beq.n	2b00 <lld_adv_end+0x8c>
    2af0:	0022      	movs	r2, r4
    2af2:	3280      	adds	r2, #128	; 0x80
    2af4:	8812      	ldrh	r2, [r2, #0]
    2af6:	001d      	movs	r5, r3
    2af8:	429a      	cmp	r2, r3
    2afa:	d001      	beq.n	2b00 <lld_adv_end+0x8c>
    2afc:	348e      	adds	r4, #142	; 0x8e
    2afe:	7825      	ldrb	r5, [r4, #0]
    2b00:	0003      	movs	r3, r0
    2b02:	3338      	adds	r3, #56	; 0x38
    2b04:	701d      	strb	r5, [r3, #0]
    2b06:	f010 fecf 	bl	138a8 <ke_msg_send>
    2b0a:	59b8      	ldr	r0, [r7, r6]
    2b0c:	f010 fd92 	bl	13634 <ke_free>
    2b10:	2300      	movs	r3, #0
    2b12:	51bb      	str	r3, [r7, r6]
    2b14:	bdf7      	pop	{r0, r1, r2, r4, r5, r6, r7, pc}
    2b16:	46c0      	nop			; (mov r8, r8)
    2b18:	00400ec8 	.word	0x00400ec8
    2b1c:	004034b0 	.word	0x004034b0
    2b20:	004034d0 	.word	0x004034d0
    2b24:	00000207 	.word	0x00000207

00002b28 <lld_adv_evt_canceled_cbk>:
    2b28:	b510      	push	{r4, lr}
    2b2a:	1e04      	subs	r4, r0, #0
    2b2c:	d01a      	beq.n	2b64 <lld_adv_evt_canceled_cbk+0x3c>
    2b2e:	0003      	movs	r3, r0
    2b30:	337c      	adds	r3, #124	; 0x7c
    2b32:	881b      	ldrh	r3, [r3, #0]
    2b34:	071b      	lsls	r3, r3, #28
    2b36:	d516      	bpl.n	2b66 <lld_adv_evt_canceled_cbk+0x3e>
    2b38:	7d83      	ldrb	r3, [r0, #22]
    2b3a:	3301      	adds	r3, #1
    2b3c:	7583      	strb	r3, [r0, #22]
    2b3e:	0020      	movs	r0, r4
    2b40:	f015 f9d0 	bl	17ee4 <sch_arb_insert>
    2b44:	2800      	cmp	r0, #0
    2b46:	d00d      	beq.n	2b64 <lld_adv_evt_canceled_cbk+0x3c>
    2b48:	0023      	movs	r3, r4
    2b4a:	339e      	adds	r3, #158	; 0x9e
    2b4c:	781b      	ldrb	r3, [r3, #0]
    2b4e:	2b00      	cmp	r3, #0
    2b50:	d108      	bne.n	2b64 <lld_adv_evt_canceled_cbk+0x3c>
    2b52:	6e23      	ldr	r3, [r4, #96]	; 0x60
    2b54:	3301      	adds	r3, #1
    2b56:	d005      	beq.n	2b64 <lld_adv_evt_canceled_cbk+0x3c>
    2b58:	348f      	adds	r4, #143	; 0x8f
    2b5a:	223c      	movs	r2, #60	; 0x3c
    2b5c:	2101      	movs	r1, #1
    2b5e:	7820      	ldrb	r0, [r4, #0]
    2b60:	f7ff ff88 	bl	2a74 <lld_adv_end>
    2b64:	bd10      	pop	{r4, pc}
    2b66:	6841      	ldr	r1, [r0, #4]
    2b68:	6e43      	ldr	r3, [r0, #100]	; 0x64
    2b6a:	6ec2      	ldr	r2, [r0, #108]	; 0x6c
    2b6c:	1acb      	subs	r3, r1, r3
    2b6e:	011b      	lsls	r3, r3, #4
    2b70:	091b      	lsrs	r3, r3, #4
    2b72:	0052      	lsls	r2, r2, #1
    2b74:	4293      	cmp	r3, r2
    2b76:	d3e2      	bcc.n	2b3e <lld_adv_evt_canceled_cbk+0x16>
    2b78:	7d83      	ldrb	r3, [r0, #22]
    2b7a:	6641      	str	r1, [r0, #100]	; 0x64
    2b7c:	3301      	adds	r3, #1
    2b7e:	7583      	strb	r3, [r0, #22]
    2b80:	f019 fd7e 	bl	1c680 <rand>
    2b84:	2111      	movs	r1, #17
    2b86:	f021 fc51 	bl	2442c <____aeabi_uidivmod_from_thumb>
    2b8a:	0023      	movs	r3, r4
    2b8c:	339e      	adds	r3, #158	; 0x9e
    2b8e:	781b      	ldrb	r3, [r3, #0]
    2b90:	0449      	lsls	r1, r1, #17
    2b92:	0c09      	lsrs	r1, r1, #16
    2b94:	2b00      	cmp	r3, #0
    2b96:	d004      	beq.n	2ba2 <lld_adv_evt_canceled_cbk+0x7a>
    2b98:	2900      	cmp	r1, #0
    2b9a:	d008      	beq.n	2bae <lld_adv_evt_canceled_cbk+0x86>
    2b9c:	2920      	cmp	r1, #32
    2b9e:	d100      	bne.n	2ba2 <lld_adv_evt_canceled_cbk+0x7a>
    2ba0:	3901      	subs	r1, #1
    2ba2:	6863      	ldr	r3, [r4, #4]
    2ba4:	18c9      	adds	r1, r1, r3
    2ba6:	0109      	lsls	r1, r1, #4
    2ba8:	0909      	lsrs	r1, r1, #4
    2baa:	6061      	str	r1, [r4, #4]
    2bac:	e7c7      	b.n	2b3e <lld_adv_evt_canceled_cbk+0x16>
    2bae:	2101      	movs	r1, #1
    2bb0:	e7f7      	b.n	2ba2 <lld_adv_evt_canceled_cbk+0x7a>
	...

00002bb4 <lld_adv_evt_start_cbk>:
    2bb4:	b5f0      	push	{r4, r5, r6, r7, lr}
    2bb6:	0004      	movs	r4, r0
    2bb8:	b08d      	sub	sp, #52	; 0x34
    2bba:	2800      	cmp	r0, #0
    2bbc:	d100      	bne.n	2bc0 <lld_adv_evt_start_cbk+0xc>
    2bbe:	e096      	b.n	2cee <lld_adv_evt_start_cbk+0x13a>
    2bc0:	0005      	movs	r5, r0
    2bc2:	358f      	adds	r5, #143	; 0x8f
    2bc4:	782b      	ldrb	r3, [r5, #0]
    2bc6:	0006      	movs	r6, r0
    2bc8:	9301      	str	r3, [sp, #4]
    2bca:	0003      	movs	r3, r0
    2bcc:	337c      	adds	r3, #124	; 0x7c
    2bce:	881a      	ldrh	r2, [r3, #0]
    2bd0:	2313      	movs	r3, #19
    2bd2:	369e      	adds	r6, #158	; 0x9e
    2bd4:	421a      	tst	r2, r3
    2bd6:	d10d      	bne.n	2bf4 <lld_adv_evt_start_cbk+0x40>
    2bd8:	6f03      	ldr	r3, [r0, #112]	; 0x70
    2bda:	2b00      	cmp	r3, #0
    2bdc:	d00a      	beq.n	2bf4 <lld_adv_evt_start_cbk+0x40>
    2bde:	0003      	movs	r3, r0
    2be0:	339d      	adds	r3, #157	; 0x9d
    2be2:	781b      	ldrb	r3, [r3, #0]
    2be4:	2b00      	cmp	r3, #0
    2be6:	d105      	bne.n	2bf4 <lld_adv_evt_start_cbk+0x40>
    2be8:	7833      	ldrb	r3, [r6, #0]
    2bea:	2b00      	cmp	r3, #0
    2bec:	d102      	bne.n	2bf4 <lld_adv_evt_start_cbk+0x40>
    2bee:	9801      	ldr	r0, [sp, #4]
    2bf0:	f7ff f81c 	bl	1c2c <lld_adv_sync_info_set>
    2bf4:	6e23      	ldr	r3, [r4, #96]	; 0x60
    2bf6:	1c5a      	adds	r2, r3, #1
    2bf8:	d00a      	beq.n	2c10 <lld_adv_evt_start_cbk+0x5c>
    2bfa:	6862      	ldr	r2, [r4, #4]
    2bfc:	9901      	ldr	r1, [sp, #4]
    2bfe:	1a9b      	subs	r3, r3, r2
    2c00:	226c      	movs	r2, #108	; 0x6c
    2c02:	4351      	muls	r1, r2
    2c04:	000a      	movs	r2, r1
    2c06:	493c      	ldr	r1, [pc, #240]	; (2cf8 <lld_adv_evt_start_cbk+0x144>)
    2c08:	03db      	lsls	r3, r3, #15
    2c0a:	0c1b      	lsrs	r3, r3, #16
    2c0c:	1852      	adds	r2, r2, r1
    2c0e:	8013      	strh	r3, [r2, #0]
    2c10:	2300      	movs	r3, #0
    2c12:	7832      	ldrb	r2, [r6, #0]
    2c14:	429a      	cmp	r2, r3
    2c16:	d04d      	beq.n	2cb4 <lld_adv_evt_start_cbk+0x100>
    2c18:	782a      	ldrb	r2, [r5, #0]
    2c1a:	6861      	ldr	r1, [r4, #4]
    2c1c:	0692      	lsls	r2, r2, #26
    2c1e:	0e12      	lsrs	r2, r2, #24
    2c20:	9203      	str	r2, [sp, #12]
    2c22:	6be2      	ldr	r2, [r4, #60]	; 0x3c
    2c24:	4e35      	ldr	r6, [pc, #212]	; (2cfc <lld_adv_evt_start_cbk+0x148>)
    2c26:	1a52      	subs	r2, r2, r1
    2c28:	0112      	lsls	r2, r2, #4
    2c2a:	0912      	lsrs	r2, r2, #4
    2c2c:	4356      	muls	r6, r2
    2c2e:	0022      	movs	r2, r4
    2c30:	211e      	movs	r1, #30
    2c32:	3282      	adds	r2, #130	; 0x82
    2c34:	8812      	ldrh	r2, [r2, #0]
    2c36:	0876      	lsrs	r6, r6, #1
    2c38:	434a      	muls	r2, r1
    2c3a:	18b6      	adds	r6, r6, r2
    2c3c:	4a30      	ldr	r2, [pc, #192]	; (2d00 <lld_adv_evt_start_cbk+0x14c>)
    2c3e:	001d      	movs	r5, r3
    2c40:	9302      	str	r3, [sp, #8]
    2c42:	4296      	cmp	r6, r2
    2c44:	d815      	bhi.n	2c72 <lld_adv_evt_start_cbk+0xbe>
    2c46:	4f2f      	ldr	r7, [pc, #188]	; (2d04 <lld_adv_evt_start_cbk+0x150>)
    2c48:	42be      	cmp	r6, r7
    2c4a:	d852      	bhi.n	2cf2 <lld_adv_evt_start_cbk+0x13e>
    2c4c:	0030      	movs	r0, r6
    2c4e:	f021 fbb7 	bl	243c0 <____aeabi_uidiv_from_thumb>
    2c52:	42b7      	cmp	r7, r6
    2c54:	419b      	sbcs	r3, r3
    2c56:	0405      	lsls	r5, r0, #16
    2c58:	425b      	negs	r3, r3
    2c5a:	211e      	movs	r1, #30
    2c5c:	0c2d      	lsrs	r5, r5, #16
    2c5e:	9302      	str	r3, [sp, #8]
    2c60:	42be      	cmp	r6, r7
    2c62:	d901      	bls.n	2c68 <lld_adv_evt_start_cbk+0xb4>
    2c64:	2196      	movs	r1, #150	; 0x96
    2c66:	0049      	lsls	r1, r1, #1
    2c68:	0030      	movs	r0, r6
    2c6a:	f021 fbdf 	bl	2442c <____aeabi_uidivmod_from_thumb>
    2c6e:	040b      	lsls	r3, r1, #16
    2c70:	0c1b      	lsrs	r3, r3, #16
    2c72:	9a03      	ldr	r2, [sp, #12]
    2c74:	4924      	ldr	r1, [pc, #144]	; (2d08 <lld_adv_evt_start_cbk+0x154>)
    2c76:	0112      	lsls	r2, r2, #4
    2c78:	1857      	adds	r7, r2, r1
    2c7a:	4924      	ldr	r1, [pc, #144]	; (2d0c <lld_adv_evt_start_cbk+0x158>)
    2c7c:	2632      	movs	r6, #50	; 0x32
    2c7e:	31c4      	adds	r1, #196	; 0xc4
    2c80:	8808      	ldrh	r0, [r1, #0]
    2c82:	2100      	movs	r1, #0
    2c84:	4286      	cmp	r6, r0
    2c86:	4149      	adcs	r1, r1
    2c88:	0188      	lsls	r0, r1, #6
    2c8a:	0021      	movs	r1, r4
    2c8c:	3199      	adds	r1, #153	; 0x99
    2c8e:	7809      	ldrb	r1, [r1, #0]
    2c90:	4301      	orrs	r1, r0
    2c92:	9802      	ldr	r0, [sp, #8]
    2c94:	01c0      	lsls	r0, r0, #7
    2c96:	4301      	orrs	r1, r0
    2c98:	0628      	lsls	r0, r5, #24
    2c9a:	0e00      	lsrs	r0, r0, #24
    2c9c:	0200      	lsls	r0, r0, #8
    2c9e:	4301      	orrs	r1, r0
    2ca0:	8039      	strh	r1, [r7, #0]
    2ca2:	491b      	ldr	r1, [pc, #108]	; (2d10 <lld_adv_evt_start_cbk+0x15c>)
    2ca4:	0a2d      	lsrs	r5, r5, #8
    2ca6:	1852      	adds	r2, r2, r1
    2ca8:	0021      	movs	r1, r4
    2caa:	3198      	adds	r1, #152	; 0x98
    2cac:	7808      	ldrb	r0, [r1, #0]
    2cae:	0140      	lsls	r0, r0, #5
    2cb0:	4305      	orrs	r5, r0
    2cb2:	8015      	strh	r5, [r2, #0]
    2cb4:	4a17      	ldr	r2, [pc, #92]	; (2d14 <lld_adv_evt_start_cbk+0x160>)
    2cb6:	005b      	lsls	r3, r3, #1
    2cb8:	9204      	str	r2, [sp, #16]
    2cba:	6862      	ldr	r2, [r4, #4]
    2cbc:	9306      	str	r3, [sp, #24]
    2cbe:	9205      	str	r2, [sp, #20]
    2cc0:	9a01      	ldr	r2, [sp, #4]
    2cc2:	ab04      	add	r3, sp, #16
    2cc4:	761a      	strb	r2, [r3, #24]
    2cc6:	6923      	ldr	r3, [r4, #16]
    2cc8:	9208      	str	r2, [sp, #32]
    2cca:	9307      	str	r3, [sp, #28]
    2ccc:	7da3      	ldrb	r3, [r4, #22]
    2cce:	aa04      	add	r2, sp, #16
    2cd0:	7513      	strb	r3, [r2, #20]
    2cd2:	2300      	movs	r3, #0
    2cd4:	7553      	strb	r3, [r2, #21]
    2cd6:	4a10      	ldr	r2, [pc, #64]	; (2d18 <lld_adv_evt_start_cbk+0x164>)
    2cd8:	a904      	add	r1, sp, #16
    2cda:	0008      	movs	r0, r1
    2cdc:	82ca      	strh	r2, [r1, #22]
    2cde:	768b      	strb	r3, [r1, #26]
    2ce0:	770b      	strb	r3, [r1, #28]
    2ce2:	764b      	strb	r3, [r1, #25]
    2ce4:	f018 f85e 	bl	1ada4 <sch_prog_push.constprop.0>
    2ce8:	2301      	movs	r3, #1
    2cea:	3491      	adds	r4, #145	; 0x91
    2cec:	7023      	strb	r3, [r4, #0]
    2cee:	b00d      	add	sp, #52	; 0x34
    2cf0:	bdf0      	pop	{r4, r5, r6, r7, pc}
    2cf2:	2196      	movs	r1, #150	; 0x96
    2cf4:	0049      	lsls	r1, r1, #1
    2cf6:	e7a9      	b.n	2c4c <lld_adv_evt_start_cbk+0x98>
    2cf8:	0081017c 	.word	0x0081017c
    2cfc:	00000271 	.word	0x00000271
    2d00:	00257ed4 	.word	0x00257ed4
    2d04:	0003bfc3 	.word	0x0003bfc3
    2d08:	008104c0 	.word	0x008104c0
    2d0c:	00400ed8 	.word	0x00400ed8
    2d10:	008104c2 	.word	0x008104c2
    2d14:	00008541 	.word	0x00008541
    2d18:	00000f0c 	.word	0x00000f0c

00002d1c <lld_adv_aux_evt_start_cbk>:
    2d1c:	b5f0      	push	{r4, r5, r6, r7, lr}
    2d1e:	0004      	movs	r4, r0
    2d20:	b089      	sub	sp, #36	; 0x24
    2d22:	2800      	cmp	r0, #0
    2d24:	d05c      	beq.n	2de0 <lld_adv_aux_evt_start_cbk+0xc4>
    2d26:	0003      	movs	r3, r0
    2d28:	3357      	adds	r3, #87	; 0x57
    2d2a:	781e      	ldrb	r6, [r3, #0]
    2d2c:	3b13      	subs	r3, #19
    2d2e:	0007      	movs	r7, r0
    2d30:	881a      	ldrh	r2, [r3, #0]
    2d32:	2313      	movs	r3, #19
    2d34:	06b5      	lsls	r5, r6, #26
    2d36:	3f38      	subs	r7, #56	; 0x38
    2d38:	0e2d      	lsrs	r5, r5, #24
    2d3a:	421a      	tst	r2, r3
    2d3c:	d10a      	bne.n	2d54 <lld_adv_aux_evt_start_cbk+0x38>
    2d3e:	6f3b      	ldr	r3, [r7, #112]	; 0x70
    2d40:	2b00      	cmp	r3, #0
    2d42:	d007      	beq.n	2d54 <lld_adv_aux_evt_start_cbk+0x38>
    2d44:	0003      	movs	r3, r0
    2d46:	3365      	adds	r3, #101	; 0x65
    2d48:	781b      	ldrb	r3, [r3, #0]
    2d4a:	2b00      	cmp	r3, #0
    2d4c:	d102      	bne.n	2d54 <lld_adv_aux_evt_start_cbk+0x38>
    2d4e:	0030      	movs	r0, r6
    2d50:	f7fe ff6c 	bl	1c2c <lld_adv_sync_info_set>
    2d54:	6e3b      	ldr	r3, [r7, #96]	; 0x60
    2d56:	1c5a      	adds	r2, r3, #1
    2d58:	d008      	beq.n	2d6c <lld_adv_aux_evt_start_cbk+0x50>
    2d5a:	6862      	ldr	r2, [r4, #4]
    2d5c:	4921      	ldr	r1, [pc, #132]	; (2de4 <lld_adv_aux_evt_start_cbk+0xc8>)
    2d5e:	1a9b      	subs	r3, r3, r2
    2d60:	226c      	movs	r2, #108	; 0x6c
    2d62:	4372      	muls	r2, r6
    2d64:	03db      	lsls	r3, r3, #15
    2d66:	0c1b      	lsrs	r3, r3, #16
    2d68:	1852      	adds	r2, r2, r1
    2d6a:	8013      	strh	r3, [r2, #0]
    2d6c:	4b1e      	ldr	r3, [pc, #120]	; (2de8 <lld_adv_aux_evt_start_cbk+0xcc>)
    2d6e:	012d      	lsls	r5, r5, #4
    2d70:	18e8      	adds	r0, r5, r3
    2d72:	4b1e      	ldr	r3, [pc, #120]	; (2dec <lld_adv_aux_evt_start_cbk+0xd0>)
    2d74:	2132      	movs	r1, #50	; 0x32
    2d76:	33c4      	adds	r3, #196	; 0xc4
    2d78:	881a      	ldrh	r2, [r3, #0]
    2d7a:	2300      	movs	r3, #0
    2d7c:	001f      	movs	r7, r3
    2d7e:	4291      	cmp	r1, r2
    2d80:	415f      	adcs	r7, r3
    2d82:	0022      	movs	r2, r4
    2d84:	3261      	adds	r2, #97	; 0x61
    2d86:	7812      	ldrb	r2, [r2, #0]
    2d88:	01b9      	lsls	r1, r7, #6
    2d8a:	430a      	orrs	r2, r1
    2d8c:	0021      	movs	r1, r4
    2d8e:	314a      	adds	r1, #74	; 0x4a
    2d90:	780f      	ldrb	r7, [r1, #0]
    2d92:	023f      	lsls	r7, r7, #8
    2d94:	433a      	orrs	r2, r7
    2d96:	8002      	strh	r2, [r0, #0]
    2d98:	4a15      	ldr	r2, [pc, #84]	; (2df0 <lld_adv_aux_evt_start_cbk+0xd4>)
    2d9a:	8809      	ldrh	r1, [r1, #0]
    2d9c:	18ad      	adds	r5, r5, r2
    2d9e:	0022      	movs	r2, r4
    2da0:	3260      	adds	r2, #96	; 0x60
    2da2:	7812      	ldrb	r2, [r2, #0]
    2da4:	0a09      	lsrs	r1, r1, #8
    2da6:	0152      	lsls	r2, r2, #5
    2da8:	430a      	orrs	r2, r1
    2daa:	802a      	strh	r2, [r5, #0]
    2dac:	4a11      	ldr	r2, [pc, #68]	; (2df4 <lld_adv_aux_evt_start_cbk+0xd8>)
    2dae:	4669      	mov	r1, sp
    2db0:	9200      	str	r2, [sp, #0]
    2db2:	6862      	ldr	r2, [r4, #4]
    2db4:	9302      	str	r3, [sp, #8]
    2db6:	9201      	str	r2, [sp, #4]
    2db8:	466a      	mov	r2, sp
    2dba:	7616      	strb	r6, [r2, #24]
    2dbc:	6922      	ldr	r2, [r4, #16]
    2dbe:	9604      	str	r6, [sp, #16]
    2dc0:	9203      	str	r2, [sp, #12]
    2dc2:	7da2      	ldrb	r2, [r4, #22]
    2dc4:	4668      	mov	r0, sp
    2dc6:	750a      	strb	r2, [r1, #20]
    2dc8:	758a      	strb	r2, [r1, #22]
    2dca:	220f      	movs	r2, #15
    2dcc:	754b      	strb	r3, [r1, #21]
    2dce:	768b      	strb	r3, [r1, #26]
    2dd0:	770b      	strb	r3, [r1, #28]
    2dd2:	764b      	strb	r3, [r1, #25]
    2dd4:	75ca      	strb	r2, [r1, #23]
    2dd6:	f017 ffe5 	bl	1ada4 <sch_prog_push.constprop.0>
    2dda:	2301      	movs	r3, #1
    2ddc:	3459      	adds	r4, #89	; 0x59
    2dde:	7023      	strb	r3, [r4, #0]
    2de0:	b009      	add	sp, #36	; 0x24
    2de2:	bdf0      	pop	{r4, r5, r6, r7, pc}
    2de4:	0081017c 	.word	0x0081017c
    2de8:	008104c0 	.word	0x008104c0
    2dec:	00400ed8 	.word	0x00400ed8
    2df0:	008104c2 	.word	0x008104c2
    2df4:	00008541 	.word	0x00008541

00002df8 <Undefined_Exception>:
    2df8:	4770      	bx	lr

00002dfa <SoftwareInterrupt_Exception>:
    2dfa:	4770      	bx	lr

00002dfc <PrefetchAbort_Exception>:
    2dfc:	4770      	bx	lr

00002dfe <DataAbort_Exception>:
    2dfe:	4770      	bx	lr

00002e00 <Reserved_Exception>:
    2e00:	4770      	bx	lr
	...

00002e04 <SYSirq_IRQ_Handler>:
    2e04:	b5f0      	push	{r4, r5, r6, r7, lr}
    2e06:	4bb8      	ldr	r3, [pc, #736]	; (30e8 <SYSirq_IRQ_Handler+0x2e4>)
    2e08:	b08b      	sub	sp, #44	; 0x2c
    2e0a:	681e      	ldr	r6, [r3, #0]
    2e0c:	2310      	movs	r3, #16
    2e0e:	0034      	movs	r4, r6
    2e10:	401c      	ands	r4, r3
    2e12:	421e      	tst	r6, r3
    2e14:	d034      	beq.n	2e80 <SYSirq_IRQ_Handler+0x7c>
    2e16:	4bb5      	ldr	r3, [pc, #724]	; (30ec <SYSirq_IRQ_Handler+0x2e8>)
    2e18:	681b      	ldr	r3, [r3, #0]
    2e1a:	9301      	str	r3, [sp, #4]
    2e1c:	2342      	movs	r3, #66	; 0x42
    2e1e:	9a01      	ldr	r2, [sp, #4]
    2e20:	421a      	tst	r2, r3
    2e22:	d029      	beq.n	2e78 <SYSirq_IRQ_Handler+0x74>
    2e24:	2201      	movs	r2, #1
    2e26:	4bb2      	ldr	r3, [pc, #712]	; (30f0 <SYSirq_IRQ_Handler+0x2ec>)
    2e28:	701a      	strb	r2, [r3, #0]
    2e2a:	2280      	movs	r2, #128	; 0x80
    2e2c:	2180      	movs	r1, #128	; 0x80
    2e2e:	4bb1      	ldr	r3, [pc, #708]	; (30f4 <SYSirq_IRQ_Handler+0x2f0>)
    2e30:	0392      	lsls	r2, r2, #14
    2e32:	681b      	ldr	r3, [r3, #0]
    2e34:	0389      	lsls	r1, r1, #14
    2e36:	401a      	ands	r2, r3
    2e38:	420b      	tst	r3, r1
    2e3a:	d000      	beq.n	2e3e <SYSirq_IRQ_Handler+0x3a>
    2e3c:	e07e      	b.n	2f3c <SYSirq_IRQ_Handler+0x138>
    2e3e:	9b01      	ldr	r3, [sp, #4]
    2e40:	065b      	lsls	r3, r3, #25
    2e42:	d519      	bpl.n	2e78 <SYSirq_IRQ_Handler+0x74>
    2e44:	49ac      	ldr	r1, [pc, #688]	; (30f8 <SYSirq_IRQ_Handler+0x2f4>)
    2e46:	4dad      	ldr	r5, [pc, #692]	; (30fc <SYSirq_IRQ_Handler+0x2f8>)
    2e48:	780b      	ldrb	r3, [r1, #0]
    2e4a:	2b01      	cmp	r3, #1
    2e4c:	d10e      	bne.n	2e6c <SYSirq_IRQ_Handler+0x68>
    2e4e:	78cb      	ldrb	r3, [r1, #3]
    2e50:	6828      	ldr	r0, [r5, #0]
    2e52:	3304      	adds	r3, #4
    2e54:	4283      	cmp	r3, r0
    2e56:	d109      	bne.n	2e6c <SYSirq_IRQ_Handler+0x68>
    2e58:	4fa9      	ldr	r7, [pc, #676]	; (3100 <SYSirq_IRQ_Handler+0x2fc>)
    2e5a:	682c      	ldr	r4, [r5, #0]
    2e5c:	0038      	movs	r0, r7
    2e5e:	0424      	lsls	r4, r4, #16
    2e60:	0c24      	lsrs	r4, r4, #16
    2e62:	c004      	stmia	r0!, {r2}
    2e64:	0022      	movs	r2, r4
    2e66:	f019 fc4d 	bl	1c704 <memcpy>
    2e6a:	647c      	str	r4, [r7, #68]	; 0x44
    2e6c:	682b      	ldr	r3, [r5, #0]
    2e6e:	2300      	movs	r3, #0
    2e70:	2201      	movs	r2, #1
    2e72:	602b      	str	r3, [r5, #0]
    2e74:	4ba3      	ldr	r3, [pc, #652]	; (3104 <SYSirq_IRQ_Handler+0x300>)
    2e76:	701a      	strb	r2, [r3, #0]
    2e78:	2410      	movs	r4, #16
    2e7a:	4b9c      	ldr	r3, [pc, #624]	; (30ec <SYSirq_IRQ_Handler+0x2e8>)
    2e7c:	9a01      	ldr	r2, [sp, #4]
    2e7e:	601a      	str	r2, [r3, #0]
    2e80:	2320      	movs	r3, #32
    2e82:	421e      	tst	r6, r3
    2e84:	d015      	beq.n	2eb2 <SYSirq_IRQ_Handler+0xae>
    2e86:	48a0      	ldr	r0, [pc, #640]	; (3108 <SYSirq_IRQ_Handler+0x304>)
    2e88:	431c      	orrs	r4, r3
    2e8a:	6802      	ldr	r2, [r0, #0]
    2e8c:	3322      	adds	r3, #34	; 0x22
    2e8e:	421a      	tst	r2, r3
    2e90:	d00e      	beq.n	2eb0 <SYSirq_IRQ_Handler+0xac>
    2e92:	4b9e      	ldr	r3, [pc, #632]	; (310c <SYSirq_IRQ_Handler+0x308>)
    2e94:	2580      	movs	r5, #128	; 0x80
    2e96:	469c      	mov	ip, r3
    2e98:	4f9d      	ldr	r7, [pc, #628]	; (3110 <SYSirq_IRQ_Handler+0x30c>)
    2e9a:	03ad      	lsls	r5, r5, #14
    2e9c:	4b9d      	ldr	r3, [pc, #628]	; (3114 <SYSirq_IRQ_Handler+0x310>)
    2e9e:	6839      	ldr	r1, [r7, #0]
    2ea0:	4229      	tst	r1, r5
    2ea2:	d000      	beq.n	2ea6 <SYSirq_IRQ_Handler+0xa2>
    2ea4:	e113      	b.n	30ce <SYSirq_IRQ_Handler+0x2ca>
    2ea6:	0653      	lsls	r3, r2, #25
    2ea8:	d502      	bpl.n	2eb0 <SYSirq_IRQ_Handler+0xac>
    2eaa:	2101      	movs	r1, #1
    2eac:	4b9a      	ldr	r3, [pc, #616]	; (3118 <SYSirq_IRQ_Handler+0x314>)
    2eae:	7019      	strb	r1, [r3, #0]
    2eb0:	6002      	str	r2, [r0, #0]
    2eb2:	2380      	movs	r3, #128	; 0x80
    2eb4:	015b      	lsls	r3, r3, #5
    2eb6:	421e      	tst	r6, r3
    2eb8:	d00c      	beq.n	2ed4 <SYSirq_IRQ_Handler+0xd0>
    2eba:	431c      	orrs	r4, r3
    2ebc:	2320      	movs	r3, #32
    2ebe:	4a97      	ldr	r2, [pc, #604]	; (311c <SYSirq_IRQ_Handler+0x318>)
    2ec0:	4897      	ldr	r0, [pc, #604]	; (3120 <SYSirq_IRQ_Handler+0x31c>)
    2ec2:	6811      	ldr	r1, [r2, #0]
    2ec4:	430b      	orrs	r3, r1
    2ec6:	6013      	str	r3, [r2, #0]
    2ec8:	4b96      	ldr	r3, [pc, #600]	; (3124 <SYSirq_IRQ_Handler+0x320>)
    2eca:	6819      	ldr	r1, [r3, #0]
    2ecc:	1c4a      	adds	r2, r1, #1
    2ece:	601a      	str	r2, [r3, #0]
    2ed0:	f7ff f872 	bl	1fb8 <uart2_printf>
    2ed4:	2240      	movs	r2, #64	; 0x40
    2ed6:	4216      	tst	r6, r2
    2ed8:	d02c      	beq.n	2f34 <SYSirq_IRQ_Handler+0x130>
    2eda:	4993      	ldr	r1, [pc, #588]	; (3128 <SYSirq_IRQ_Handler+0x324>)
    2edc:	4314      	orrs	r4, r2
    2ede:	680b      	ldr	r3, [r1, #0]
    2ee0:	4d92      	ldr	r5, [pc, #584]	; (312c <SYSirq_IRQ_Handler+0x328>)
    2ee2:	4393      	bics	r3, r2
    2ee4:	600b      	str	r3, [r1, #0]
    2ee6:	2301      	movs	r3, #1
    2ee8:	4a91      	ldr	r2, [pc, #580]	; (3130 <SYSirq_IRQ_Handler+0x32c>)
    2eea:	7053      	strb	r3, [r2, #1]
    2eec:	2380      	movs	r3, #128	; 0x80
    2eee:	6829      	ldr	r1, [r5, #0]
    2ef0:	019b      	lsls	r3, r3, #6
    2ef2:	4219      	tst	r1, r3
    2ef4:	d006      	beq.n	2f04 <SYSirq_IRQ_Handler+0x100>
    2ef6:	6829      	ldr	r1, [r5, #0]
    2ef8:	430b      	orrs	r3, r1
    2efa:	602b      	str	r3, [r5, #0]
    2efc:	6853      	ldr	r3, [r2, #4]
    2efe:	2b00      	cmp	r3, #0
    2f00:	d000      	beq.n	2f04 <SYSirq_IRQ_Handler+0x100>
    2f02:	4798      	blx	r3
    2f04:	2380      	movs	r3, #128	; 0x80
    2f06:	682a      	ldr	r2, [r5, #0]
    2f08:	01db      	lsls	r3, r3, #7
    2f0a:	421a      	tst	r2, r3
    2f0c:	d002      	beq.n	2f14 <SYSirq_IRQ_Handler+0x110>
    2f0e:	682a      	ldr	r2, [r5, #0]
    2f10:	4313      	orrs	r3, r2
    2f12:	602b      	str	r3, [r5, #0]
    2f14:	2380      	movs	r3, #128	; 0x80
    2f16:	682a      	ldr	r2, [r5, #0]
    2f18:	015b      	lsls	r3, r3, #5
    2f1a:	421a      	tst	r2, r3
    2f1c:	d002      	beq.n	2f24 <SYSirq_IRQ_Handler+0x120>
    2f1e:	682a      	ldr	r2, [r5, #0]
    2f20:	4313      	orrs	r3, r2
    2f22:	602b      	str	r3, [r5, #0]
    2f24:	2380      	movs	r3, #128	; 0x80
    2f26:	682a      	ldr	r2, [r5, #0]
    2f28:	009b      	lsls	r3, r3, #2
    2f2a:	421a      	tst	r2, r3
    2f2c:	d002      	beq.n	2f34 <SYSirq_IRQ_Handler+0x130>
    2f2e:	682a      	ldr	r2, [r5, #0]
    2f30:	4313      	orrs	r3, r2
    2f32:	602b      	str	r3, [r5, #0]
    2f34:	4b6c      	ldr	r3, [pc, #432]	; (30e8 <SYSirq_IRQ_Handler+0x2e4>)
    2f36:	601c      	str	r4, [r3, #0]
    2f38:	b00b      	add	sp, #44	; 0x2c
    2f3a:	bdf0      	pop	{r4, r5, r6, r7, pc}
    2f3c:	4b7d      	ldr	r3, [pc, #500]	; (3134 <SYSirq_IRQ_Handler+0x330>)
    2f3e:	4f6f      	ldr	r7, [pc, #444]	; (30fc <SYSirq_IRQ_Handler+0x2f8>)
    2f40:	681b      	ldr	r3, [r3, #0]
    2f42:	4a6d      	ldr	r2, [pc, #436]	; (30f8 <SYSirq_IRQ_Handler+0x2f4>)
    2f44:	6839      	ldr	r1, [r7, #0]
    2f46:	4d7c      	ldr	r5, [pc, #496]	; (3138 <SYSirq_IRQ_Handler+0x334>)
    2f48:	0a1b      	lsrs	r3, r3, #8
    2f4a:	5453      	strb	r3, [r2, r1]
    2f4c:	7828      	ldrb	r0, [r5, #0]
    2f4e:	683b      	ldr	r3, [r7, #0]
    2f50:	5cd3      	ldrb	r3, [r2, r3]
    2f52:	2804      	cmp	r0, #4
    2f54:	d819      	bhi.n	2f8a <SYSirq_IRQ_Handler+0x186>
    2f56:	f7fd fb81 	bl	65c <__gnu_thumb1_case_uqi>
    2f5a:	0703      	.short	0x0703
    2f5c:	0f0b      	.short	0x0f0b
    2f5e:	22          	.byte	0x22
    2f5f:	00          	.byte	0x00
    2f60:	2b01      	cmp	r3, #1
    2f62:	d112      	bne.n	2f8a <SYSirq_IRQ_Handler+0x186>
    2f64:	702b      	strb	r3, [r5, #0]
    2f66:	e010      	b.n	2f8a <SYSirq_IRQ_Handler+0x186>
    2f68:	2be0      	cmp	r3, #224	; 0xe0
    2f6a:	d148      	bne.n	2ffe <SYSirq_IRQ_Handler+0x1fa>
    2f6c:	3bde      	subs	r3, #222	; 0xde
    2f6e:	e7f9      	b.n	2f64 <SYSirq_IRQ_Handler+0x160>
    2f70:	2bfc      	cmp	r3, #252	; 0xfc
    2f72:	d144      	bne.n	2ffe <SYSirq_IRQ_Handler+0x1fa>
    2f74:	3bf9      	subs	r3, #249	; 0xf9
    2f76:	e7f5      	b.n	2f64 <SYSirq_IRQ_Handler+0x160>
    2f78:	4a70      	ldr	r2, [pc, #448]	; (313c <SYSirq_IRQ_Handler+0x338>)
    2f7a:	8013      	strh	r3, [r2, #0]
    2f7c:	2b00      	cmp	r3, #0
    2f7e:	d03e      	beq.n	2ffe <SYSirq_IRQ_Handler+0x1fa>
    2f80:	2304      	movs	r3, #4
    2f82:	2200      	movs	r2, #0
    2f84:	702b      	strb	r3, [r5, #0]
    2f86:	4b6e      	ldr	r3, [pc, #440]	; (3140 <SYSirq_IRQ_Handler+0x33c>)
    2f88:	801a      	strh	r2, [r3, #0]
    2f8a:	683b      	ldr	r3, [r7, #0]
    2f8c:	3301      	adds	r3, #1
    2f8e:	603b      	str	r3, [r7, #0]
    2f90:	683b      	ldr	r3, [r7, #0]
    2f92:	2b80      	cmp	r3, #128	; 0x80
    2f94:	d000      	beq.n	2f98 <SYSirq_IRQ_Handler+0x194>
    2f96:	e748      	b.n	2e2a <SYSirq_IRQ_Handler+0x26>
    2f98:	2300      	movs	r3, #0
    2f9a:	603b      	str	r3, [r7, #0]
    2f9c:	e745      	b.n	2e2a <SYSirq_IRQ_Handler+0x26>
    2f9e:	4868      	ldr	r0, [pc, #416]	; (3140 <SYSirq_IRQ_Handler+0x33c>)
    2fa0:	8802      	ldrh	r2, [r0, #0]
    2fa2:	1c54      	adds	r4, r2, #1
    2fa4:	0424      	lsls	r4, r4, #16
    2fa6:	0c24      	lsrs	r4, r4, #16
    2fa8:	8004      	strh	r4, [r0, #0]
    2faa:	4866      	ldr	r0, [pc, #408]	; (3144 <SYSirq_IRQ_Handler+0x340>)
    2fac:	5483      	strb	r3, [r0, r2]
    2fae:	4b63      	ldr	r3, [pc, #396]	; (313c <SYSirq_IRQ_Handler+0x338>)
    2fb0:	881b      	ldrh	r3, [r3, #0]
    2fb2:	429c      	cmp	r4, r3
    2fb4:	d1e9      	bne.n	2f8a <SYSirq_IRQ_Handler+0x186>
    2fb6:	7803      	ldrb	r3, [r0, #0]
    2fb8:	0624      	lsls	r4, r4, #24
    2fba:	0e24      	lsrs	r4, r4, #24
    2fbc:	2b03      	cmp	r3, #3
    2fbe:	d066      	beq.n	308e <SYSirq_IRQ_Handler+0x28a>
    2fc0:	d81f      	bhi.n	3002 <SYSirq_IRQ_Handler+0x1fe>
    2fc2:	2b00      	cmp	r3, #0
    2fc4:	d03d      	beq.n	3042 <SYSirq_IRQ_Handler+0x23e>
    2fc6:	2b01      	cmp	r3, #1
    2fc8:	d043      	beq.n	3052 <SYSirq_IRQ_Handler+0x24e>
    2fca:	2204      	movs	r2, #4
    2fcc:	ab02      	add	r3, sp, #8
    2fce:	701a      	strb	r2, [r3, #0]
    2fd0:	230e      	movs	r3, #14
    2fd2:	aa02      	add	r2, sp, #8
    2fd4:	7053      	strb	r3, [r2, #1]
    2fd6:	1d23      	adds	r3, r4, #4
    2fd8:	7093      	strb	r3, [r2, #2]
    2fda:	2301      	movs	r3, #1
    2fdc:	70d3      	strb	r3, [r2, #3]
    2fde:	33df      	adds	r3, #223	; 0xdf
    2fe0:	7113      	strb	r3, [r2, #4]
    2fe2:	331c      	adds	r3, #28
    2fe4:	7153      	strb	r3, [r2, #5]
    2fe6:	0013      	movs	r3, r2
    2fe8:	4956      	ldr	r1, [pc, #344]	; (3144 <SYSirq_IRQ_Handler+0x340>)
    2fea:	7194      	strb	r4, [r2, #6]
    2fec:	3101      	adds	r1, #1
    2fee:	0022      	movs	r2, r4
    2ff0:	1dd8      	adds	r0, r3, #7
    2ff2:	f019 fb87 	bl	1c704 <memcpy>
    2ff6:	1de1      	adds	r1, r4, #7
    2ff8:	a802      	add	r0, sp, #8
    2ffa:	f7fe fc89 	bl	1910 <uart_send>
    2ffe:	2300      	movs	r3, #0
    3000:	e7b0      	b.n	2f64 <SYSirq_IRQ_Handler+0x160>
    3002:	2bfe      	cmp	r3, #254	; 0xfe
    3004:	d1e1      	bne.n	2fca <SYSirq_IRQ_Handler+0x1c6>
    3006:	2c05      	cmp	r4, #5
    3008:	d117      	bne.n	303a <SYSirq_IRQ_Handler+0x236>
    300a:	7843      	ldrb	r3, [r0, #1]
    300c:	7882      	ldrb	r2, [r0, #2]
    300e:	061b      	lsls	r3, r3, #24
    3010:	0412      	lsls	r2, r2, #16
    3012:	4313      	orrs	r3, r2
    3014:	7902      	ldrb	r2, [r0, #4]
    3016:	4313      	orrs	r3, r2
    3018:	78c2      	ldrb	r2, [r0, #3]
    301a:	0212      	lsls	r2, r2, #8
    301c:	4313      	orrs	r3, r2
    301e:	4a4a      	ldr	r2, [pc, #296]	; (3148 <SYSirq_IRQ_Handler+0x344>)
    3020:	4293      	cmp	r3, r2
    3022:	d10a      	bne.n	303a <SYSirq_IRQ_Handler+0x236>
    3024:	2380      	movs	r3, #128	; 0x80
    3026:	4a49      	ldr	r2, [pc, #292]	; (314c <SYSirq_IRQ_Handler+0x348>)
    3028:	021b      	lsls	r3, r3, #8
    302a:	6811      	ldr	r1, [r2, #0]
    302c:	430b      	orrs	r3, r1
    302e:	6013      	str	r3, [r2, #0]
    3030:	2301      	movs	r3, #1
    3032:	4a47      	ldr	r2, [pc, #284]	; (3150 <SYSirq_IRQ_Handler+0x34c>)
    3034:	6811      	ldr	r1, [r2, #0]
    3036:	430b      	orrs	r3, r1
    3038:	6013      	str	r3, [r2, #0]
    303a:	3c01      	subs	r4, #1
    303c:	0624      	lsls	r4, r4, #24
    303e:	0e24      	lsrs	r4, r4, #24
    3040:	e7c3      	b.n	2fca <SYSirq_IRQ_Handler+0x1c6>
    3042:	2c01      	cmp	r4, #1
    3044:	d1c1      	bne.n	2fca <SYSirq_IRQ_Handler+0x1c6>
    3046:	4943      	ldr	r1, [pc, #268]	; (3154 <SYSirq_IRQ_Handler+0x350>)
    3048:	7043      	strb	r3, [r0, #1]
    304a:	780a      	ldrb	r2, [r1, #0]
    304c:	3201      	adds	r2, #1
    304e:	700a      	strb	r2, [r1, #0]
    3050:	e7bb      	b.n	2fca <SYSirq_IRQ_Handler+0x1c6>
    3052:	7882      	ldrb	r2, [r0, #2]
    3054:	7843      	ldrb	r3, [r0, #1]
    3056:	0212      	lsls	r2, r2, #8
    3058:	18d2      	adds	r2, r2, r3
    305a:	78c3      	ldrb	r3, [r0, #3]
    305c:	7941      	ldrb	r1, [r0, #5]
    305e:	041b      	lsls	r3, r3, #16
    3060:	18d2      	adds	r2, r2, r3
    3062:	7903      	ldrb	r3, [r0, #4]
    3064:	061b      	lsls	r3, r3, #24
    3066:	18d2      	adds	r2, r2, r3
    3068:	7983      	ldrb	r3, [r0, #6]
    306a:	021b      	lsls	r3, r3, #8
    306c:	185b      	adds	r3, r3, r1
    306e:	79c1      	ldrb	r1, [r0, #7]
    3070:	0409      	lsls	r1, r1, #16
    3072:	185b      	adds	r3, r3, r1
    3074:	7a01      	ldrb	r1, [r0, #8]
    3076:	0609      	lsls	r1, r1, #24
    3078:	185b      	adds	r3, r3, r1
    307a:	4937      	ldr	r1, [pc, #220]	; (3158 <SYSirq_IRQ_Handler+0x354>)
    307c:	6013      	str	r3, [r2, #0]
    307e:	1851      	adds	r1, r2, r1
    3080:	297f      	cmp	r1, #127	; 0x7f
    3082:	d8a2      	bhi.n	2fca <SYSirq_IRQ_Handler+0x1c6>
    3084:	4a35      	ldr	r2, [pc, #212]	; (315c <SYSirq_IRQ_Handler+0x358>)
    3086:	0889      	lsrs	r1, r1, #2
    3088:	0089      	lsls	r1, r1, #2
    308a:	508b      	str	r3, [r1, r2]
    308c:	e79d      	b.n	2fca <SYSirq_IRQ_Handler+0x1c6>
    308e:	7883      	ldrb	r3, [r0, #2]
    3090:	7842      	ldrb	r2, [r0, #1]
    3092:	021b      	lsls	r3, r3, #8
    3094:	189b      	adds	r3, r3, r2
    3096:	78c2      	ldrb	r2, [r0, #3]
    3098:	0412      	lsls	r2, r2, #16
    309a:	189b      	adds	r3, r3, r2
    309c:	7902      	ldrb	r2, [r0, #4]
    309e:	0612      	lsls	r2, r2, #24
    30a0:	189b      	adds	r3, r3, r2
    30a2:	4a2d      	ldr	r2, [pc, #180]	; (3158 <SYSirq_IRQ_Handler+0x354>)
    30a4:	1899      	adds	r1, r3, r2
    30a6:	088a      	lsrs	r2, r1, #2
    30a8:	293f      	cmp	r1, #63	; 0x3f
    30aa:	d80a      	bhi.n	30c2 <SYSirq_IRQ_Handler+0x2be>
    30ac:	4b2b      	ldr	r3, [pc, #172]	; (315c <SYSirq_IRQ_Handler+0x358>)
    30ae:	0092      	lsls	r2, r2, #2
    30b0:	58d3      	ldr	r3, [r2, r3]
    30b2:	2204      	movs	r2, #4
    30b4:	3005      	adds	r0, #5
    30b6:	a902      	add	r1, sp, #8
    30b8:	9302      	str	r3, [sp, #8]
    30ba:	3403      	adds	r4, #3
    30bc:	f019 fb22 	bl	1c704 <memcpy>
    30c0:	e7bc      	b.n	303c <SYSirq_IRQ_Handler+0x238>
    30c2:	0011      	movs	r1, r2
    30c4:	391c      	subs	r1, #28
    30c6:	2903      	cmp	r1, #3
    30c8:	d9f0      	bls.n	30ac <SYSirq_IRQ_Handler+0x2a8>
    30ca:	681b      	ldr	r3, [r3, #0]
    30cc:	e7f1      	b.n	30b2 <SYSirq_IRQ_Handler+0x2ae>
    30ce:	4661      	mov	r1, ip
    30d0:	6809      	ldr	r1, [r1, #0]
    30d2:	6819      	ldr	r1, [r3, #0]
    30d4:	3101      	adds	r1, #1
    30d6:	6019      	str	r1, [r3, #0]
    30d8:	6819      	ldr	r1, [r3, #0]
    30da:	2980      	cmp	r1, #128	; 0x80
    30dc:	d000      	beq.n	30e0 <SYSirq_IRQ_Handler+0x2dc>
    30de:	e6de      	b.n	2e9e <SYSirq_IRQ_Handler+0x9a>
    30e0:	2100      	movs	r1, #0
    30e2:	6019      	str	r1, [r3, #0]
    30e4:	e6da      	b.n	2e9c <SYSirq_IRQ_Handler+0x98>
    30e6:	46c0      	nop			; (mov r8, r8)
    30e8:	00800048 	.word	0x00800048
    30ec:	00806314 	.word	0x00806314
    30f0:	004035b5 	.word	0x004035b5
    30f4:	00806308 	.word	0x00806308
    30f8:	00403534 	.word	0x00403534
    30fc:	004035b8 	.word	0x004035b8
    3100:	00400dc8 	.word	0x00400dc8
    3104:	004035b4 	.word	0x004035b4
    3108:	00806a14 	.word	0x00806a14
    310c:	00806a0c 	.word	0x00806a0c
    3110:	00806a08 	.word	0x00806a08
    3114:	004034e8 	.word	0x004034e8
    3118:	004034e6 	.word	0x004034e6
    311c:	00800900 	.word	0x00800900
    3120:	00024535 	.word	0x00024535
    3124:	00401248 	.word	0x00401248
    3128:	00800040 	.word	0x00800040
    312c:	00806208 	.word	0x00806208
    3130:	004034d8 	.word	0x004034d8
    3134:	0080630c 	.word	0x0080630c
    3138:	00400d98 	.word	0x00400d98
    313c:	00400eb8 	.word	0x00400eb8
    3140:	00400e58 	.word	0x00400e58
    3144:	004034ec 	.word	0x004034ec
    3148:	95279527 	.word	0x95279527
    314c:	00800804 	.word	0x00800804
    3150:	00800800 	.word	0x00800800
    3154:	00403344 	.word	0x00403344
    3158:	ff7f9200 	.word	0xff7f9200
    315c:	00400c50 	.word	0x00400c50

00003160 <SYSirq_FIQ_Handler>:
    3160:	b5f0      	push	{r4, r5, r6, r7, lr}
    3162:	4bc9      	ldr	r3, [pc, #804]	; (3488 <SYSirq_FIQ_Handler+0x328>)
    3164:	b085      	sub	sp, #20
    3166:	681b      	ldr	r3, [r3, #0]
    3168:	9300      	str	r3, [sp, #0]
    316a:	2380      	movs	r3, #128	; 0x80
    316c:	9c00      	ldr	r4, [sp, #0]
    316e:	9a00      	ldr	r2, [sp, #0]
    3170:	03db      	lsls	r3, r3, #15
    3172:	401c      	ands	r4, r3
    3174:	421a      	tst	r2, r3
    3176:	d100      	bne.n	317a <SYSirq_FIQ_Handler+0x1a>
    3178:	e13d      	b.n	33f6 <SYSirq_FIQ_Handler+0x296>
    317a:	4bc4      	ldr	r3, [pc, #784]	; (348c <SYSirq_FIQ_Handler+0x32c>)
    317c:	681f      	ldr	r7, [r3, #0]
    317e:	2310      	movs	r3, #16
    3180:	421f      	tst	r7, r3
    3182:	d003      	beq.n	318c <SYSirq_FIQ_Handler+0x2c>
    3184:	4ac2      	ldr	r2, [pc, #776]	; (3490 <SYSirq_FIQ_Handler+0x330>)
    3186:	6013      	str	r3, [r2, #0]
    3188:	f7fe ff58 	bl	203c <rwip_timer_hs_handler>
    318c:	2320      	movs	r3, #32
    318e:	421f      	tst	r7, r3
    3190:	d003      	beq.n	319a <SYSirq_FIQ_Handler+0x3a>
