build/BK3633_RC.elf
SYMBOL TABLE:
00025b00 l    d  .vectors	00000000 .vectors
00025e00 l    d  FAST_CALL_SEG	00000000 FAST_CALL_SEG
00025e50 l    d  .text	00000000 .text
000361d8 l    d  .rodata	00000000 .rodata
00038230 l    d  .ARM.exidx	00000000 .ARM.exidx
00400f00 l    d  .data	00000000 .data
004018ac l    d  ke_heap	00000000 ke_heap
00402754 l    d  .bss	00000000 .bss
00405558 l    d  .stack	00000000 .stack
00000000 l    d  .comment	00000000 .comment
00000000 l    d  .ARM.attributes	00000000 .ARM.attributes
00000000 l    d  .debug_frame	00000000 .debug_frame
00000000 l    d  .stab	00000000 .stab
00000000 l    d  .stabstr	00000000 .stabstr
00000000 l    df *ABS*	00000000 build/dd2/src/system/startup_boot.o
00025b20 l       .vectors	00000000 _reset_handler
00025d80 l       .vectors	00000000 _STACK_SIZE_UND
00025d7c l       .vectors	00000000 _STACK_ADDR_UND
00025d70 l       .vectors	00000000 _STACK_SIZE_IRQ
00025d6c l       .vectors	00000000 _STACK_ADDR_IRQ
00025d68 l       .vectors	00000000 _STACK_SIZE_FIQ
00025d64 l       .vectors	00000000 _STACK_ADDR_FIQ
00025d78 l       .vectors	00000000 _STACK_SIZE_SVC
00025d74 l       .vectors	00000000 _STACK_ADDR_SVC
00025cb8 l       .vectors	00000000 _data_init
00025cd8 l       .vectors	00000000 _zi_init
00000000 l    df *ABS*	00000000 
00027024 l     F .text	0000002c gpio_set
00027050 l     F .text	0000002c gpio_config
0002707c l     F .text	00000004 rf_rpl_reg_rd
00027080 l     F .text	00000004 rf_rpl_reg_wr
00027084 l     F .text	00000004 rf_txpwr_dbm_get
00027088 l     F .text	00000010 rf_sleep
00027098 l     F .text	00000024 rf_force_agc_enable
000270bc l     F .text	0000000a rf_rssi_convert
000270c8 l     F .text	00000034 rf_txpwr_cs_get
000270fc l     F .text	00000002 app_dis_init
000270fc l     F .text	00000002 uart_flow_on
00027100 l     F .text	00000034 prf_get_id_from_task
004029fc l     O .bss	000000f0 prf_env
00027134 l     F .text	00000034 prf_get_task_from_id
00027168 l     F .text	00000014 rwble_sleep_wakeup_end
0002717c l     F .text	00000004 app_sec_msg_dflt_handler
00027180 l     F .text	00000004 bass_batt_level_ntf_cfg_ind_handler
00027184 l     F .text	00000004 batt_level_upd_handler
00027188 l     F .text	00000004 bass_enable_rsp_handler
0002718c l     F .text	00000004 app_batt_msg_dflt_handler
00027190 l     F .text	00000004 app_hid_msg_dflt_handler
00027194 l     F .text	00000004 oads_enable_rsp_handler
00027198 l     F .text	00000014 gapm_activity_created_ind_handler
000271ac l     F .text	0000003c nvds_walk_tag
000271e8 l     F .text	00000034 nvds_browse_tag
0002721c l     F .text	00000040 nvds_get
0002725c l     F .text	0000003c nvds_del
00027298 l     F .text	00000024 nvds_init_memory
000272bc l     F .text	0000004c prf_itf_get
00027308 l     F .text	00000028 prf_create
00027330 l     F .text	0000002c prf_cleanup
0002735c l     F .text	00000028 prf_env_get
00027384 l     F .text	00000020 cpu_reset
000273a4 l     F .text	00000034 uart_send
000273d8 l     F .text	00000004 uart_flow_off
000273dc l     F .text	00000018 uart_read
000273f4 l     F .text	00000018 uart_write
0002740c l     F .text	00000040 get_flash_ID
0002744c l     F .text	000000ac flash_write_sr
000274f8 l     F .text	00000058 flash_wp_256k
00027550 l     F .text	00000054 flash_wp_ALL
000275a4 l     F .text	00000002 rf_reset
000275a6 l     F .text	0000000a bass_create
000275b0 l     F .text	0000000a bass_cleanup
000275ba l     F .text	00000002 diss_create
000275bc l     F .text	00000002 diss_cleanup
000275be l     F .text	00000034 diss_value_to_handle
000275f4 l     F .text	00000014 fee0s_create
00027608 l     F .text	00000014 fee0s_cleanup
0002761c l     F .text	00000020 fee0s_get_att_idx
0002763c l     F .text	0000000e fcc0s_create
0002764a l     F .text	0000000e fcc0s_cleanup
00027658 l     F .text	0000001e fcc0s_get_att_idx
00027676 l     F .text	00000002 hogpd_create
00027678 l     F .text	00000020 hogpd_cleanup
00027698 l     F .text	00000104 hogpd_get_att_handle
0002779c l     F .text	00000116 hogpd_get_att_idx
000278b2 l     F .text	00000014 oads_create
000278c6 l     F .text	00000014 oads_cleanup
000278da l     F .text	00000076 bass_get_att_idx.constprop.0
00027950 l     F .text	00000012 prf_dst_task_get.isra.0
00027962 l     F .text	00000012 prf_src_task_get.isra.0
00027974 l     F .text	000000c4 flash_erase.constprop.0.isra.0
00027a38 l     F .text	00000008 nvds_erase
00027a40 l     F .text	00000028 gapm_gen_rand_nb_ind_handler
00027a68 l     F .text	00000130 flash_write_data
00027b98 l     F .text	000000b8 flash_read_data.part.0
00027c50 l     F .text	00000040 flash_read.constprop.0.isra.0
00027c90 l     F .text	00000008 nvds_read
00027c98 l     F .text	00000024 oad_save_reciveData
00402818 l     O .bss	000000c0 bsec
00027cbc l     F .text	0000002c appm_disconnect
00027ce8 l     F .text	00000044 appm_update_param
00027d2c l     F .text	0000002c app_batt_add_bas
00027d58 l     F .text	00000054 diss_value_req_ind_handler
00027dac l     F .text	0000002c app_dis_add_dis
00027dd8 l     F .text	0000007c gapc_get_dev_info_req_ind_handler
00027e54 l     F .text	00000024 gapc_set_dev_info_req_ind_handler
00027e78 l     F .text	0000006e bass_notify_batt_lvl
00027ee8 l     F .text	00000054 gattc_att_info_req_ind_handler.lto_priv.0
00027f3c l     F .text	000000b4 gattc_write_req_ind_handler.lto_priv.0
00027ff0 l     F .text	000000d4 gattc_read_req_ind_handler.lto_priv.0
000280c4 l     F .text	00000080 gattc_att_info_req_ind_handler.lto_priv.3
00028144 l     F .text	0000004a oadImgBlockReq.constprop.0
00028190 l     F .text	00000158 nvds_put
000282e8 l     F .text	000000e0 gattc_read_req_ind_handler.lto_priv.1
000283c8 l     F .text	0000007c diss_value_cfm_handler
00028444 l     F .text	0000008c fee0s_fee4_val_upd_req_handler
000284d0 l     F .text	000000d0 hogpd_report_cfm_handler
000285a0 l     F .text	000000b4 hogpd_proto_mode_cfm_handler
00028654 l     F .text	00000250 gattc_write_req_ind_handler.lto_priv.3
000288a4 l     F .text	0000017c gattc_read_req_ind_handler.lto_priv.4
00028a20 l     F .text	0000004c gattc_cmp_evt_handler.lto_priv.3
00028a6c l     F .text	00000044 uart2_printf
00028ab0 l     F .text	0000001c platform_reset
00028acc l     F .text	00000068 prf_init
00028b34 l     F .text	000000ac prf_add_profile
00028be0 l     F .text	00000058 app_sec_send_security_req
00028c38 l     F .text	00000014 app_send_security_req_handler
00028c4c l     F .text	00000088 gapc_encrypt_req_ind_handler
00028cd4 l     F .text	00000014 gapc_encrypt_ind_handler
00028ce8 l     F .text	0000003c appm_add_svc
00028d24 l     F .text	00000030 appm_delete_advertising
00028d54 l     F .text	00000208 appm_adv_fsm_next
00028f5c l     F .text	0000007c app_gpio_int_cb
00028fd8 l     F .text	0000001c gapm_activity_stopped_ind_handler
00028ff4 l     F .text	0000007c app_hid_add_hids
00029070 l     F .text	00000060 hogpd_ctnl_pt_ind_handler
000290d0 l     F .text	00000054 hogpd_ntf_cfg_ind_handler
00029124 l     F .text	0000011c hogpd_report_req_ind_handler
0003769c l     O .rodata	000000ec gHIDReportDescriptor
00029240 l     F .text	00000078 hogpd_proto_mode_req_ind_handler
000292b8 l     F .text	0000003c hogpd_report_upd_handler
000292f4 l     F .text	0000001c hogpd_enable_rsp_handler
00029310 l     F .text	00000044 app_oad_add_oads
00029354 l     F .text	0000002c app_oads_msg_dflt_handler
00029380 l     F .text	00000018 app_ffc2_writer_req_handler
00029398 l     F .text	00000018 oads_ffc1_upd_rsp_handler
000293b0 l     F .text	00000018 oads_ffc2_upd_rsp_handler
000293c8 l     F .text	00000054 app_get_handler
0002941c l     F .text	00000074 appm_msg_handler
00029490 l     F .text	00000028 gapm_profile_added_ind_handler
000294b8 l     F .text	000000b0 gapc_cmp_evt_handler
00029568 l     F .text	0000003c gapc_param_updated_ind_handler
000295a4 l     F .text	00000034 gattc_mtu_changed_ind_handler
000295d8 l     F .text	0000002c app_update_conn_param_req_ind_handler
00029604 l     F .text	00000018 app_ancs_req_handler
0002961c l     F .text	00000040 app_mtu_exchange_req_handler
0002965c l     F .text	0000009c fee0s_fee5_val_upd_req_handler
000296f8 l     F .text	00000070 gattc_att_info_req_ind_handler.lto_priv.1
00029768 l     F .text	0000013c gattc_write_req_ind_handler.lto_priv.1
000298a4 l     F .text	00000124 gattc_read_req_ind_handler.lto_priv.2
000299c8 l     F .text	00000078 gattc_cmp_evt_handler.lto_priv.1
00029a40 l     F .text	00000098 fcc0s_fcc2_val_upd_req_handler
00029ad8 l     F .text	00000068 gattc_att_info_req_ind_handler.lto_priv.2
00029b40 l     F .text	000000d8 gattc_write_req_ind_handler.lto_priv.2
00029c18 l     F .text	000000d0 gattc_read_req_ind_handler.lto_priv.3
00029ce8 l     F .text	0000005c gattc_cmp_evt_handler.lto_priv.2
00029d44 l     F .text	00000010 oads_ffc1_upd_req_handler
00029d54 l     F .text	00000018 oads_ffc2_upd_req_handler
00029d6c l     F .text	00000100 gattc_read_req_ind_handler.lto_priv.5
00029e6c l     F .text	00000018 gattc_cmp_evt_handler.lto_priv.4
00029e84 l     F .text	00000034 appm_update_adv_state.constprop.0
00029eb8 l     F .text	00000048 gapc_param_update_req_ind_handler
00029f00 l     F .text	00000034 gapc_disconnect_ind_handler
00029f34 l     F .text	00000080 flash_write.constprop.0.isra.0
00029fb4 l     F .text	00000008 nvds_write
00029fbc l     F .text	00000268 oadImgIdentifyWrite.constprop.0.isra.0
0002a224 l     F .text	00000020 app_ffc1_writer_req_handler
0002a244 l     F .text	000002dc gattc_write_req_ind_handler.lto_priv.4
0002a520 l     F .text	000000e0 gapc_bond_req_ind_handler
0002a600 l     F .text	000000e0 gapc_bond_ind_handler
0002a6e0 l     F .text	00000078 app_hid_mouse_timeout_timer_handler
0002a758 l     F .text	0000021c gapm_cmp_evt_handler
0002a974 l     F .text	000001cc gapc_connection_req_ind_handler
0002ab40 l     F .text	00000024 rwip_timer_10ms_handler
0002ab64 l     F .text	00000024 rwip_crypt_evt_handler
0002ab88 l     F .text	00000198 rwip_driver_init
0002ad20 l     F .text	00000094 rwip_reset
0002adb4 l     F .text	0000001c bass_destroy
0002add0 l     F .text	000000d4 bass_exe_operation
0002aea4 l     F .text	00000064 bass_batt_level_upd_req_handler
0002af08 l     F .text	00000024 gattc_cmp_evt_handler.lto_priv.0
0002af2c l     F .text	0000001c fee0s_destroy
0002af48 l     F .text	0000001c fcc0s_destroy
0002af64 l     F .text	00000010 hogpd_destroy
0002af74 l     F .text	0000001c oads_destroy
0002af90 l     F .text	00000160 bass_init
0002b0f0 l     F .text	00000080 bass_enable_req_handler
0002b170 l     F .text	00000074 hogpd_enable_req_handler
0002b1e4 l     F .text	00000170 hogpd_report_upd_req_handler
0002b354 l     F .text	00000088 oads_enable_req_handler
0002b3dc l     F .text	000000b4 diss_init
00037470 l     O .rodata	00000098 diss_att_db
0002b490 l     F .text	00000108 fee0s_init
0002b598 l     F .text	00000022 diss_destroy
0002b5bc l     F .text	000000b0 diss_set_value_req_handler
0002b66c l     F .text	000000dc fcc0s_init
00037530 l     O .rodata	00000084 fcc0_att_db
0002b748 l     F .text	0000040c hogpd_init
00037790 l     O .rodata	000000b8 hids_att_db
0002bb54 l     F .text	000000d8 oads_init
00402afc l     O .bss	000002ec rwip_heap_env
00401b48 l     O ke_heap	00000c0c rwip_heap_db
00402de8 l     O .bss	00002604 rwip_heap_msg
004018ac l     O ke_heap	0000029c rwip_heap_non_ret
00402754 l     O .bss	00000080 XVR_ANALOG_REG_BAK
00405468 l     O .bss	00000080 uart_rx_buf
004027d4 l     O .bss	00000002 app_batt_env
004027d6 l     O .bss	00000001 app_clear_bond_flag
004027d8 l     O .bss	0000002e app_env
00402806 l     O .bss	00000008 app_hid_env
0040280e l     O .bss	00000001 app_oads_env
0040280f l     O .bss	00000005 app_sec_env
00402814 l     O .bss	00000001 appm_state
004028d8 l     O .bss	00000030 bt_tx_buff
00402908 l     O .bss	00000001 c_key
00402909 l     O .bss	00000001 cmd_status.3
0040290a l     O .bss	00000004 cow
0040290e l     O .bss	00000001 data_upload_status
0040290f l     O .bss	00000001 default_sleep_mode
00402910 l     O .bss	00000001 detect_key_start
00402911 l     O .bss	00000001 flash_enable_erase_flag1
00402912 l     O .bss	00000001 flash_enable_erase_flag2
00402913 l     O .bss	00000001 flash_enable_write_flag1
00402914 l     O .bss	00000001 flash_enable_write_flag2
00402915 l     O .bss	00000001 flash_enable_write_flag3
00402916 l     O .bss	00000001 flash_enable_write_flag4
00402918 l     O .bss	00000004 flash_mid
0040291c l     O .bss	00000004 gpio_int_cb
00402920 l     O .bss	00000048 host_cmd_data
00402968 l     O .bss	00000048 host_event_data
004029b0 l     O .bss	00000002 index.1
004029b2 l     O .bss	00000001 key_down_status.0
004029b3 l     O .bss	00000001 key_err_time
004029b4 l     O .bss	00000010 key_flag
004029c4 l     O .bss	00000002 key_free_dalay_cnt.6
004029c6 l     O .bss	00000001 key_status
004029c8 l     O .bss	00000002 length.2
004029ca l     O .bss	00000001 m_key
004029cb l     O .bss	00000001 need_delete_current_adv_activity
004029cc l     O .bss	00000018 nvds_env
004029e4 l     O .bss	00000002 oadBlkNum
004029e6 l     O .bss	00000001 oad_firmware_type
004029e7 l     O .bss	00000001 oad_uid_check_status
004029e8 l     O .bss	00000004 oad_uuid
004029ec l     O .bss	00000008 old_key
004029f4 l     O .bss	00000001 old_key_len
004029f5 l     O .bss	00000001 old_voice_key_press_status
004029f6 l     O .bss	00000001 p_key
004029f8 l     O .bss	00000004 power_key_delay
00402aec l     O .bss	00000004 real_key_value
00402af0 l     O .bss	00000001 reduce_voltage_set
00402af1 l     O .bss	00000004 row
00402af8 l     O .bss	00000004 rwble_env
004053ec l     O .bss	00000001 rx_cmd_count.4
004053ed l     O .bss	00000001 s_key
004053ee l     O .bss	00000008 stan_key
004053f6 l     O .bss	00000001 stan_key_len
004053f8 l     O .bss	00000004 sys_flag
004053fc l     O .bss	00000004 sys_media_key
00405400 l     O .bss	00000001 sys_power_key
00405401 l     O .bss	00000008 sys_standard_key
00405409 l     O .bss	00000001 system_clk
0040540a l     O .bss	00000001 system_mode
0040540c l     O .bss	00000004 time_count
00405410 l     O .bss	00000001 tx_buff_count
00405411 l     O .bss	00000001 tx_buff_head
00405412 l     O .bss	00000006 tx_buff_len
00405418 l     O .bss	00000001 tx_buff_tail
00405419 l     O .bss	00000001 uLedDutyCnt.7
0040541a l     O .bss	00000001 uart2_rx_done
0040541c l     O .bss	00000004 uart2_rx_index
00405420 l     O .bss	00000020 uart_cmd.0
00405440 l     O .bss	00000028 uart_env
004054e8 l     O .bss	00000001 uart_rx_done
004054ec l     O .bss	00000004 uart_rx_index
004054f0 l     O .bss	00000002 validBlockCnt.0
004054f2 l     O .bss	00000001 voice_key_press_status
00400f00 l     O .data	00000002 oadBlkTot
00036e08 l     O .rodata	0000002c Bond_event_type_str
00036e34 l     O .rodata	00000009 CSWTCH.1
00036e40 l     O .rodata	00000024 CSWTCH.2
00036e64 l     O .rodata	00000005 CSWTCH.29
00036e69 l     O .rodata	00000004 CSWTCH.3
00036e6d l     O .rodata	0000000f RF_RPL_TX_PW_CONV_TBL
00036e7c l     O .rodata	0000000c TASK_DESC_APP
00037378 l     O .rodata	00000090 appm_msg_handler_tab
00036e88 l     O .rodata	00000010 USER_FCC0_SERV_UUID_128
00036e98 l     O .rodata	0000001a __func__.0.lto_priv.0
00036eb2 l     O .rodata	00000012 __func__.0.lto_priv.1
00036ec4 l     O .rodata	00000019 __func__.0.lto_priv.2
00036edd l     O .rodata	0000001a __func__.0.lto_priv.3
00036ef7 l     O .rodata	0000001f __func__.0.lto_priv.4
00036f16 l     O .rodata	0000000a __func__.0.lto_priv.5
00036f20 l     O .rodata	00000016 __func__.0.lto_priv.6
00036f36 l     O .rodata	0000001f __func__.0.lto_priv.7
00036f55 l     O .rodata	0000001f __func__.0.lto_priv.8
00036f74 l     O .rodata	00000018 __func__.0.lto_priv.9
00036f8c l     O .rodata	0000000d __func__.1.lto_priv.0
00036f99 l     O .rodata	0000001a __func__.1.lto_priv.1
00036fb3 l     O .rodata	0000001c __func__.1.lto_priv.2
00036fcf l     O .rodata	00000015 __func__.1.lto_priv.3
00036fe4 l     O .rodata	0000001f __func__.1.lto_priv.4
00037003 l     O .rodata	0000001f __func__.1.lto_priv.5
00037022 l     O .rodata	00000012 __func__.1.lto_priv.6
00037034 l     O .rodata	0000001a __func__.1.lto_priv.7
0003704e l     O .rodata	00000021 __func__.2.lto_priv.0
0003706f l     O .rodata	0000001a __func__.2.lto_priv.1
00037089 l     O .rodata	00000020 __func__.2.lto_priv.2
000370a9 l     O .rodata	0000001c __func__.2.lto_priv.3
000370c5 l     O .rodata	0000001c __func__.2.lto_priv.4
000370e1 l     O .rodata	00000014 __func__.2.lto_priv.5
000370f5 l     O .rodata	00000016 __func__.2.lto_priv.6
0003710b l     O .rodata	0000001a __func__.3.lto_priv.0
00037125 l     O .rodata	00000009 __func__.3.lto_priv.1
0003712e l     O .rodata	0000001c __func__.3.lto_priv.2
0003714a l     O .rodata	0000001f __func__.3.lto_priv.3
00037169 l     O .rodata	0000001b __func__.3.lto_priv.4
00037184 l     O .rodata	0000001b __func__.3.lto_priv.5
0003719f l     O .rodata	00000020 __func__.3.lto_priv.6
000371bf l     O .rodata	00000019 __func__.4.lto_priv.0
000371d8 l     O .rodata	0000001a __func__.4.lto_priv.1
000371f2 l     O .rodata	0000001e __func__.4.lto_priv.2
00037210 l     O .rodata	00000016 __func__.4.lto_priv.3
00037226 l     O .rodata	00000016 __func__.4.lto_priv.4
0003723c l     O .rodata	00000014 __func__.5.lto_priv.0
00037250 l     O .rodata	0000001d __func__.5.lto_priv.1
0003726d l     O .rodata	00000011 __func__.6
00037280 l     O .rodata	00000008 app_batt_handlers
00037288 l     O .rodata	00000020 app_batt_msg_handler_list
000372a8 l     O .rodata	00000008 app_dis_handlers
000372b0 l     O .rodata	00000008 app_dis_msg_handler_list
000372b8 l     O .rodata	00000008 app_hid_handlers
000372c0 l     O .rodata	00000040 app_hid_msg_handler_list
00037300 l     O .rodata	00000008 app_oads_handler
00037308 l     O .rodata	00000030 app_oads_msg_handler_list
00037338 l     O .rodata	00000008 app_sec_handlers
00037340 l     O .rodata	00000028 app_sec_msg_handler_list
00037368 l     O .rodata	00000010 appm_add_svc_func_list
00037408 l     O .rodata	00000028 bas_att_db
00037430 l     O .rodata	00000010 bass_itf
00037440 l     O .rodata	00000030 bass_msg_handler_tab
00037508 l     O .rodata	00000010 diss_itf
00037518 l     O .rodata	00000018 diss_msg_handler_tab
000375b4 l     O .rodata	00000010 fcc0s_itf
000375c4 l     O .rodata	00000028 fcc0s_msg_handler_tab
000375ec l     O .rodata	00000070 fee0_att_db
0003765c l     O .rodata	00000010 fee0s_itf
0003766c l     O .rodata	00000030 fee0s_msg_handler_tab
00037788 l     O .rodata	00000004 gpio_buff_c
0003778c l     O .rodata	00000004 gpio_buff_r
00037848 l     O .rodata	00000010 hogpd_itf
00037858 l     O .rodata	00000040 hogpd_msg_handler_tab
00037898 l     O .rodata	0000005e media_key
000378f6 l     O .rodata	00000004 nvds_magic_number
000378fa l     O .rodata	00000048 oads_att_db
00037944 l     O .rodata	00000010 oads_itf
00037954 l     O .rodata	00000030 oads_msg_handler_tab
00037984 l     O .rodata	00000003 power_key
00037987 l     O .rodata	00000010 stand_key_map
00037998 l     O .rodata	00000010 uart_api
00000000 l    df *ABS*	00000000 _thumb1_case_uqi.o
00000000 l    df *ABS*	00000000 _thumb1_case_shi.o
00000000 l    df *ABS*	00000000 _thumb1_case_uhi.o
00000000 l    df *ABS*	00000000 _arm_muldf3.o
00000000 l    df *ABS*	00000000 _arm_addsubdf3.o
00000000 l    df *ABS*	00000000 _arm_muldivdf3.o
00000000 l    df *ABS*	00000000 _arm_cmpdf2.o
00000000 l    df *ABS*	00000000 _arm_unorddf2.o
00000000 l    df *ABS*	00000000 _arm_fixdfsi.o
00000000 l    df *ABS*	00000000 _aeabi_uldivmod.o
00000000 l    df *ABS*	00000000 libgcc2.c
00000000 l    df *ABS*	00000000 _dvmd_tls.o
00000000 l    df *ABS*	00000000 _clzdi2.o
00000000 l    df *ABS*	00000000 _clzsi2.o
00000000 l    df *ABS*	00000000 memcpy-stub.c
00000000 l    df *ABS*	00000000 memset.c
00000000 l    df *ABS*	00000000 vsprintf.c
00000000 l    df *ABS*	00000000 impure.c
00400f08 l     O .data	00000428 impure_data
00000000 l    df *ABS*	00000000 vfprintf.c
00037b5c l     O .rodata	00000010 blanks.1
00037b6c l     O .rodata	00000010 zeroes.0
00000000 l    df *ABS*	00000000 dtoa.c
000301ac l     F .text	0000014a quorem
00000000 l    df *ABS*	00000000 mallocr.c
00000000 l    df *ABS*	00000000 localeconv.c
00000000 l    df *ABS*	00000000 mallocr.c
00000000 l    df *ABS*	00000000 memchr-stub.c
00000000 l    df *ABS*	00000000 mlock.c
00000000 l    df *ABS*	00000000 mprec.c
00037db8 l     O .rodata	0000000c p05.0
00000000 l    df *ABS*	00000000 s_frexp.c
00000000 l    df *ABS*	00000000 sbrkr.c
00000000 l    df *ABS*	00000000 strlen-stub.c
00000000 l    df *ABS*	00000000 strncpy.c
00000000 l    df *ABS*	00000000 vfprintf.c
00037f30 l     O .rodata	00000010 blanks.1
00037f40 l     O .rodata	00000010 zeroes.0
00000000 l    df *ABS*	00000000 assert.c
00000000 l    df *ABS*	00000000 mallocr.c
00000000 l    df *ABS*	00000000 fiprintf.c
00000000 l    df *ABS*	00000000 locale.c
00000000 l    df *ABS*	00000000 lock.c
00000000 l    df *ABS*	00000000 mbtowc_r.c
00000000 l    df *ABS*	00000000 memmove.c
00000000 l    df *ABS*	00000000 mallocr.c
00000000 l    df *ABS*	00000000 reent.c
00000000 l    df *ABS*	00000000 lib_a-strcmp.o
00000000 l    df *ABS*	00000000 vfprintf.c
00033c98 l     F .text	0000008a __sprint_r.part.0
00034b2c l     F .text	00000090 __sbprintf
0003810c l     O .rodata	00000010 blanks.1
0003811c l     O .rodata	00000010 zeroes.0
00000000 l    df *ABS*	00000000 wctomb_r.c
00000000 l    df *ABS*	00000000 wsetup.c
00000000 l    df *ABS*	00000000 abort.c
00000000 l    df *ABS*	00000000 ctype_.c
00000000 l    df *ABS*	00000000 fflush.c
00000000 l    df *ABS*	00000000 findfp.c
00034f58 l     F .text	0000001e __fp_lock
00034f78 l     F .text	0000001e __fp_unlock
00000000 l    df *ABS*	00000000 fputwc.c
00000000 l    df *ABS*	00000000 fvwrite.c
00000000 l    df *ABS*	00000000 fwalk.c
00000000 l    df *ABS*	00000000 makebuf.c
00000000 l    df *ABS*	00000000 signal.c
00000000 l    df *ABS*	00000000 signalr.c
00000000 l    df *ABS*	00000000 stdio.c
00000000 l    df *ABS*	00000000 wbuf.c
00000000 l    df *ABS*	00000000 wcrtomb.c
00000000 l    df *ABS*	00000000 writer.c
00000000 l    df *ABS*	00000000 closer.c
00000000 l    df *ABS*	00000000 fclose.c
00000000 l    df *ABS*	00000000 fstatr.c
00000000 l    df *ABS*	00000000 isattyr.c
00000000 l    df *ABS*	00000000 lseekr.c
00000000 l    df *ABS*	00000000 readr.c
00000000 l    df *ABS*	00000000 close.c
00000000 l    df *ABS*	00000000 fstat.c
00000000 l    df *ABS*	00000000 getpid.c
00000000 l    df *ABS*	00000000 isatty.c
00000000 l    df *ABS*	00000000 kill.c
00000000 l    df *ABS*	00000000 lseek.c
00000000 l    df *ABS*	00000000 read.c
00000000 l    df *ABS*	00000000 sbrk.c
00405554 l     O .bss	00000004 heap_end.0
00000000 l    df *ABS*	00000000 write.c
00000000 l    df *ABS*	00000000 _exit.c
00025dd0 l     F .vectors	0000000c __main_from_arm
00025e30 l     F FAST_CALL_SEG	0000000c __IRQ_Exception_from_arm
00025e3c l     F FAST_CALL_SEG	0000000c __FIQ_Exception_from_arm
00036100 l     F .text	00000008 ____aeabi_uidivmod_from_thumb
00036108 l     F .text	00000008 ____enable_irq_from_thumb
00036110 l     F .text	00000008 ____aeabi_uidiv_from_thumb
00036118 l     F .text	0000000c ____udivmoddi4_from_arm
00036124 l     F .text	00000008 ____aeabi_dcmpgt_from_thumb
0003612c l     F .text	00000008 ____aeabi_uldivmod_from_thumb
00036134 l     F .text	00000008 ____aeabi_dadd_from_thumb
0003613c l     F .text	00000008 ____aeabi_dcmplt_from_thumb
00036144 l     F .text	00000008 ____clzdi2_from_thumb
0003614c l     F .text	00000008 ____aeabi_dcmpun_from_thumb
00036154 l     F .text	00000008 ____aeabi_dmul_from_thumb
0003615c l     F .text	00000008 ____aeabi_d2iz_from_thumb
00036164 l     F .text	00000008 ____aeabi_idivmod_from_thumb
0003616c l     F .text	00000008 ____aeabi_idiv_from_thumb
00036174 l     F .text	00000008 ____aeabi_ui2d_from_thumb
0003617c l     F .text	00000008 ____aeabi_ddiv_from_thumb
00036184 l     F .text	00000008 __strcmp_from_thumb
0003618c l     F .text	00000008 ____aeabi_dcmple_from_thumb
00036194 l     F .text	00000008 ____disable_fiq_from_thumb
0003619c l     F .text	00000008 ____disable_irq_from_thumb
000361a4 l     F .text	00000008 ____aeabi_i2d_from_thumb
000361ac l     F .text	00000008 ____aeabi_dcmpeq_from_thumb
000361b4 l     F .text	0000000c ____aeabi_ldiv0_from_arm
000361c0 l     F .text	00000008 ____enable_fiq_from_thumb
000361c8 l     F .text	00000008 ____aeabi_dsub_from_thumb
000200d4 g     F *ABS*	0000002c ke_state_get
0001f2fc g     F *ABS*	00000044 ke_mem_is_empty
00032624 g     F .text	00000038 _mprec_log10
0001eb6c g     F *ABS*	00000030 co_list_extract
00026b20 g     F .text	00000038 .hidden __aeabi_dcmpun
000326a0 g     F .text	00000054 __any_on
00035fe0 g     F .text	00000028 _isatty_r
00037d90 g     O .rodata	00000028 __mprec_tinytens
00026ad8 g     F .text	00000018 .hidden __aeabi_dcmple
00033b98 g     F .text	00000052 cleanup_glue
00018408 g     F *ABS*	00000012 hci_cmd_get_max_param_size
00036080 g     F .text	00000010 _getpid
000269ec g     F .text	00000088 .hidden __cmpdf2
00023d04 g     O *ABS*	00000030 hci_cmd_desc_root_tab
00036008 g     F .text	0000002c _lseek_r
00009cf8 g     F *ABS*	000000c4 attm_att_set_permission
0000a294 g     F *ABS*	000000dc attc_send_read_ind
00002646 g     F *ABS*	00000002 PrefetchAbort_Exception
000269ec g     F .text	00000088 .hidden __eqdf2
00002794 g     F *ABS*	00000010 gapc_set_operation_ptr
0001f340 g     F *ABS*	0000009c ke_check_malloc
000094e0 g     F *ABS*	0000007c l2cc_lecb_pdu_unpack
00400f00 g       .data	00000000 _data_addr_begin
00018274 g     F *ABS*	00000014 hci_fc_init
00008c30 g     F *ABS*	00000044 attmdb_uuid16_comp
000112b8 g     F *ABS*	00000314 lld_init
000264e0 g     F .text	00000060 .hidden __floatdidf
0001e9e8 g     F *ABS*	00000018 sch_plan_init
00035bec g     F .text	0000002c _kill_r
00025d20 g     F .vectors	00000000 __disable_irq
00008f14 g     F *ABS*	00000198 attm_get_value
00405534 g     O .bss	00000001 __lock___atexit_recursive_mutex
0002e59c g     F .text	0000003c vsprintf
00035dc8 g     F .text	0000004a _wcrtomb_r
0040045c g     O *ABS*	00000001 gapc_state
00035950 g     F .text	0000005c _signal_r
00035c98 g     F .text	00000030 __sseek
00034fe8 g     F .text	00000124 __sinit
004009a0 g     O *ABS*	00000001 latency_disable
00035cd8 g     F .text	000000d4 __swbuf_r
0000e7e0 g     F *ABS*	000000a8 l2cc_lecb_free
00008984 g     F *ABS*	00000052 attm_uuid_comp
0001f4bc g     F *ABS*	000000d8 ke_free
000335dc g     F .text	00000048 _setlocale_r
00034f98 g     F .text	00000032 __sfmoreglue
0000cc84 g     F *ABS*	00000008 gattm_create
00031ba8 g     F .text	00000014 __malloc_unlock
000182d8 g     F *ABS*	00000028 hci_fc_check_host_available_nb_acl_packets
0002018c g     F *ABS*	00000018 ke_timer_adjust_all
0000cd50 g     F *ABS*	00000068 gattc_send_complete_evt
000091f0 g     F *ABS*	00000018 gattc_get_operation
000183c8 g     F *ABS*	00000040 hci_init
00002930 g     F *ABS*	0000000c gapm_get_irk
0040552c g     O .bss	00000001 __lock___arc4random_mutex
0001feb8 g     F *ABS*	0000000e ke_msg_send_basic
000336f4 g     F .text	000000ba memmove
000233ac g     O *ABS*	00000068 atts_handlers
00009a84 g     F *ABS*	00000030 l2cc_pdu_alloc
00034fcc g     F .text	0000001c _cleanup
00031bbc g     F .text	00000052 _Balloc
0001ff94 g     F *ABS*	00000048 ke_init
00018364 g     F *ABS*	00000024 hci_look_for_evt_desc
0000e2d4 g     F *ABS*	00000008 l2cm_create
004004b0 g     O *ABS*	00000001 gapm_state
0002079c g     F *ABS*	00000030 rwip_prevent_sleep_set
00002958 g     F *ABS*	00000010 gapm_is_legacy_pairing_supp
000269dc g     F .text	00000098 .hidden __gtdf2
00033684 g     F .text	00000002 __retarget_lock_close
0001ebe2 g     F *ABS*	0000002c co_list_insert_before
00031580 g     F .text	00000004 __localeconv_l
000029d8 g     F *ABS*	00000020 gapm_dle_val_check
00002824 g     F *ABS*	0000001c gapc_enc_keysize_get
00035fb4 g     F .text	0000002c _fstat_r
0001842c g     F *ABS*	00000014 sch_arb_init
0000856c g     F *ABS*	00000038 gapm_get_task_from_id
0000264a g     F *ABS*	00000002 Reserved_Exception
00002b90 g     F *ABS*	0000002c gapc_update_state
00405550 g     O .bss	00000004 errno
00035c50 g     F .text	00000004 __seofread
0001822c g     F *ABS*	00000034 hci_evt_mask_set
0001ec0e g     F *ABS*	0000002e co_list_insert_after
00024250 g     O *ABS*	00000030 hci_cmd_desc_tab_vs
00400564 g     O *ABS*	00000004 l2cc_env
0001f608 g     F *ABS*	00000008 ke_msg_free
00018260 g     F *ABS*	00000014 hci_fc_acl_buf_size_set
00026a90 g     F .text	00000018 .hidden __aeabi_cdcmple
00400640 g     O *ABS*	00000008 llc_env
00008a50 g     F *ABS*	0000003c attm_convert_to128_ti
00002840 g     F *ABS*	00000054 gapc_auth_set
0000f500 g     F *ABS*	0000003c l2cm_init
00020144 g     F *ABS*	00000024 ke_task_check
0000310c g     F *ABS*	00000088 gapc_process_op
0000aa18 g     F *ABS*	0000004c attc_l2cc_pdu_recv_handler
00008bbc g     F *ABS*	00000074 attmdb_get_next_att
0001ebb6 g     F *ABS*	00000012 co_list_find
000207cc g     F *ABS*	00000040 h4tl_write
00018f74 g     F *ABS*	00000050 hci_tl_send
00009394 g     F *ABS*	00000010 gattc_set_operation_ptr
00025d10 g     F .vectors	00000000 __enable_irq
0002e444 g     F .text	000000a6 memcpy
00026a74 g     F .text	00000034 .hidden __aeabi_cdrcmple
00009a74 g     F *ABS*	00000010 l2cm_set_link_layer_buff_size
0001855c g     F *ABS*	00000078 hci_send_2_controller
000093d8 g     F *ABS*	00000010 l2cc_get_operation_ptr
00020168 g     F *ABS*	00000024 ke_timer_active
0001f19c g     F *ABS*	00000014 ke_event_init
0000a14c g     F *ABS*	0000003c l2cc_sig_pdu_recv_handler
00034f44 g     F .text	00000014 _cleanup_r
0002e604 g     F .text	00001ba8 _svfprintf_r
0002645c g     F .text	00000028 .hidden __floatsidf
00018388 g     F *ABS*	00000020 hci_look_for_le_evt_desc
00025d00 g       .vectors	00000000 _swi_handler
00009c1c g     F *ABS*	00000030 gattc_reschedule_operation
000269e4 g     F .text	00000090 .hidden __ltdf2
00020d3c g     F *ABS*	000000a4 sch_arb_event_start_isr
00012fe0 g     F *ABS*	00000604 llc_start
0000a0a6 g     F *ABS*	00000026 l2cc_lecb_send_disc_rsp
0000a0cc g     F *ABS*	00000026 l2cc_lecb_send_credit_add
00002e04 g     F *ABS*	00000038 gapc_init
0001ec50 g     F *ABS*	0000001a co_bdaddr_compare
00026bb4 g     F .text	00000000 .hidden __aeabi_uldivmod
000093e8 g     F *ABS*	00000010 l2cc_set_operation_ptr
0000f5c0 g     F *ABS*	0000002c hci_command_handler
00025cfc g       .vectors	00000000 _undefined_handler
000186c0 g     F *ABS*	00000064 lld_con_stop
00400625 g     O *ABS*	0000001a hci_env
000325b8 g     F .text	0000006c __ratio
00023b18 g     O *ABS*	00000014 rwip_priority
00400b18 g     O *ABS*	00000001 uart_rx_en
0001f264 g     F *ABS*	0000002c ke_event_schedule
00002524 g     F *ABS*	00000068 gapc_hci_handler
00022490 g     F *ABS*	00000012 __aeabi_memset
000359ac g     F .text	00000062 _raise_r
00036070 g     F .text	00000010 _fstat
000334f4 g     F .text	00000040 __assert_func
0001f610 g     F *ABS*	00000040 ke_flush
0000a3e0 g     F *ABS*	00000020 attm_init
00037cc8 g     O .rodata	000000c8 __mprec_tens
0001bd38 g     F *ABS*	00000040 sch_alarm_timer_isr
0001f144 g     F *ABS*	00000010 h4tl_start
000201e0 g     F *ABS*	00000030 rwip_time_get
00402754 g       .bss	00000000 _bss_start
000085a4 g     F *ABS*	0000001c gapm_le_psm_cleanup
00022484 g     F *ABS*	0000000c __aeabi_memcpy
00405524 g     O .bss	00000004 __malloc_top_pad
0000b15e g     F *ABS*	0000013e attm_svc_create_db128
00035c18 g     F .text	0000000c _getpid_r
0001f5bc g     F *ABS*	0000004c ecc_init
00026438 g     F .text	00000024 .hidden __aeabi_ui2d
00031584 g     F .text	00000008 _localeconv_r
00035414 g     F .text	0000031c __sfvwrite_r
00031e18 g     F .text	00000064 __i2b
00035a10 g     F .text	00000068 __sigtramp_r
00002658 g     F *ABS*	00000024 gapc_get_conidx
00026bf0 g     F .text	0000019a .hidden __udivmoddi4
0002611c g     F .text	00000000 .hidden __aeabi_drsub
0003275c g     F .text	00000028 _sbrk_r
00002cfc g     F *ABS*	00000024 gapc_send_disconect_ind
00020a98 g     F *ABS*	00000030 rwip_prevent_sleep_clear
00036034 g     F .text	0000002c _read_r
0001ea08 g     F *ABS*	00000030 sch_prog_init
00025d84 g       .vectors	00000000 boot_stack_base_FIQ
0000f0b0 g     F *ABS*	00000020 l2cm_tx_status
00025e50 g     F .text	00000012 .hidden __gnu_thumb1_case_uqi
0001f154 g     F *ABS*	0000001c h4tl_stop
00026ac0 g     F .text	00000018 .hidden __aeabi_dcmplt
0000294c g     F *ABS*	0000000c gapm_get_bdaddr
00035eb8 g     F .text	000000e2 _fclose_r
00034ec8 g     F .text	0000007c fflush
0001eb10 g     F *ABS*	00000024 co_list_pool_init
0040551c g     O .bss	00000004 __malloc_max_sbrked_mem
0001ff00 g     F *ABS*	00000040 ke_queue_extract
00026484 g     F .text	00000048 .hidden __extendsfdf2
000267d0 g     F .text	0000020c .hidden __aeabi_ddiv
0001f170 g     F *ABS*	00000010 ke_timer_init
00026128 g     F .text	00000310 .hidden __adddf3
00400534 g     O *ABS*	00000001 gattm_state
00032410 g     F .text	000000cc __b2d
0040553c g     O .bss	00000001 __lock___env_recursive_mutex
00026540 g     F .text	00000290 .hidden __aeabi_dmul
00022484 g     F *ABS*	0000000c __aeabi_memcpy4
00022eac g     O *ABS*	00000018 gapc_sig_handlers
00036090 g     F .text	00000010 _isatty
000181c4 g     F *ABS*	00000020 ble_addr_add1
000187d4 g     F *ABS*	0000005c hci_acl_tx_data_received
00008e58 g     F *ABS*	000000bc attmdb_get_uuid
00405548 g     O .bss	00000001 __lock___sinit_recursive_mutex
000379a8 g     O .rodata	00000004 _global_impure_ptr
000337b0 g     F .text	000003e6 _realloc_r
00002ab4 g     F *ABS*	00000010 gapm_is_pref_con_param_pres
000026a0 g     F *ABS*	00000020 gapc_get_conhdl
00035334 g     F .text	00000064 _fputwc_r
00037ca0 g     O .rodata	00000028 __mprec_bigtens
00031cd0 g     F .text	000000b4 __s2b
00034cdc g     F .text	0000000e abort
0001feee g     F *ABS*	00000006 ke_msg_src_id_get
00026438 g     F .text	00000024 .hidden __floatunsidf
000084d8 g     F *ABS*	0000003c gapm_con_cleanup
000360d0 g     F .text	0000001c _sbrk
00032200 g     F .text	00000038 __mcmp
00002d20 g     F *ABS*	00000060 gapc_send_complete_evt
000093c0 g     F *ABS*	00000018 l2cc_get_operation
00035238 g     F .text	00000024 __fp_lock_all
0001eb34 g     F *ABS*	00000016 co_list_push_back
0000a1d8 g     F *ABS*	00000024 attc_send_execute
0001f190 g     F *ABS*	0000000c ke_event_get_all
00008db4 g     F *ABS*	00000078 attmdb_get_max_len
000090ac g     F *ABS*	00000128 attmdb_att_get_permission
00003ed4 g     F *ABS*	00000020 gapm_send_error_evt
00023c88 g     O *ABS*	00000003 LLM_AA_CT1
00002a8c g     F *ABS*	00000028 gapm_lecb_unregister
0001f3dc g     F *ABS*	000000e0 ke_malloc
00405558 g       .bss	00000000 _bss_end
0001ebc8 g     F *ABS*	0000001a co_list_merge
0001841c g     F *ABS*	00000010 sch_alarm_init
0000a0f2 g     F *ABS*	0000005a l2cc_sig_send_cmd_reject
00025d88 g       .vectors	00000000 boot_stack_base_IRQ
0000a1fc g     F *ABS*	0000005c l2cc_lecb_send_con_req
0000a4a4 g     F *ABS*	000002c4 l2cc_pdu_header_check
00033bec g     F .text	000000aa _reclaim_reent
0000a400 g     F *ABS*	00000020 atts_clear_read_cache
00031d84 g     F .text	00000036 __hi0bits
000089e8 g     F *ABS*	00000034 attm_is_bt16_uuid
0001f12c g     F *ABS*	00000018 ke_event_callback_set
00026b58 g     F .text	0000005c .hidden __fixdfsi
0000d688 g     F *ABS*	00000098 atts_l2cc_pdu_recv_handler
00405540 g     O .bss	00000001 __lock___malloc_recursive_mutex
00008b82 g     F *ABS*	00000038 attmdb_get_attribute
00008928 g     F *ABS*	00000010 gattc_get_operation_ptr
00022474 g     F *ABS*	0000000e __aeabi_memclr8
00025d04 g       .vectors	00000000 _pabort_handler
000182ac g     F *ABS*	00000014 hci_fc_acl_packet_sent
0001eb58 g     F *ABS*	00000014 co_list_pop_front
0000afd8 g     F *ABS*	00000038 gattm_init_attr
00008434 g     F *ABS*	00000034 gapm_init_attr
00002c80 g     F *ABS*	00000030 gapc_reschedule_operation
00009fb2 g     F *ABS*	00000026 atts_send_error
00018b6c g     F *ABS*	00000154 llm_init
000097e0 g     F *ABS*	00000288 l2cc_pdu_unpack
00026128 g     F .text	00000310 .hidden __aeabi_dadd
00400458 g     O *ABS*	00000004 gapc_env
000269e4 g     F .text	00000090 .hidden __ledf2
0000f328 g     F *ABS*	00000014 l2cm_cleanup
00020c38 g     F *ABS*	0000004c h4tl_init
00020020 g     F *ABS*	00000038 ke_task_delete
00003e68 g     F *ABS*	00000044 gapm_send_complete_evt
00032024 g     F .text	000000dc __pow5mult
000264cc g     F .text	00000074 .hidden __aeabi_ul2d
00020688 g     F *ABS*	000000a8 ke_timer_set
00405558 g       .bss	00000000 end
000022e4 g     F *ABS*	00000000 .hidden __aeabi_idiv
000028c8 g     F *ABS*	0000003c gapc_param_update_sanity
00018300 g     F *ABS*	00000064 hci_look_for_cmd_desc
000336a0 g     F .text	00000002 __retarget_lock_release_recursive
000027c0 g     F *ABS*	00000044 gapc_is_sec_set
00002784 g     F *ABS*	00000010 gapc_get_operation_ptr
00025d44 g     F .vectors	00000000 __disable_fiq
00020058 g     F *ABS*	0000007c ke_state_set
00033698 g     F .text	00000004 __retarget_lock_try_acquire_recursive
00008afc g     F *ABS*	00000048 attmdb_get_service
004009a4 g     O *ABS*	0000001c rwip_env
0000aea4 g     F *ABS*	00000134 attm_svc_create_db
0000937c g     F *ABS*	00000018 gattc_get_op_seq_num
00026b08 g     F .text	00000018 .hidden __aeabi_dcmpgt
00026db8 g     F .text	00000048 .hidden __clzsi2
000351e8 g     F .text	00000014 __sfp_lock_acquire
00031b1c g     F .text	00000078 memchr
000313b8 g     F .text	000001c8 _free_r
00025e64 g     F .text	00000014 .hidden __gnu_thumb1_case_shi
00033624 g     F .text	00000010 __locale_mb_cur_max
00026af0 g     F .text	00000018 .hidden __aeabi_dcmpge
00002e3c g     F *ABS*	00000010 gapc_con_cleanup
00026124 g     F .text	00000314 .hidden __aeabi_dsub
00401738 g     O .data	00000004 __malloc_sbrk_base
00020a3c g     F *ABS*	0000005c aes_result_handler
00025b00 g       *ABS*	00000000 _vector_start
0000cc8c g     F *ABS*	000000c4 gattc_con_enable
00033694 g     F .text	00000004 __retarget_lock_try_acquire
00008a1c g     F *ABS*	00000034 attm_is_bt32_uuid
000264cc g     F .text	00000074 .hidden __floatundidf
0002265c g     F *ABS*	00000038 rand
000360b0 g     F .text	00000010 _lseek
00032100 g     F .text	00000100 __lshift
00002994 g     F *ABS*	0000002c gapm_get_id_from_task
00020104 g     F *ABS*	00000040 ke_task_msg_flush
00035ae0 g     F .text	00000058 signal
00032858 g     F .text	00000118 __ssprint_r
00023dd0 g     O *ABS*	0000045c hci_cmd_desc_tab_le
00025e20 g     F FAST_CALL_SEG	00000000 _irq_handler
00031e7c g     F .text	000001a8 __multiply
0001ff74 g     F *ABS*	00000020 ke_task_init
00020100 g     F *ABS*	00000004 ke_msg_save
000327e4 g     F .text	00000074 strncpy
004054f4 g     O .bss	00000028 __malloc_current_mallinfo
00009f28 g     F *ABS*	00000034 l2cc_lecb_init_disconnect
00022474 g     F *ABS*	0000000e __aeabi_memclr
000324dc g     F .text	000000dc __d2b
00020ac8 g     F *ABS*	00000150 sch_prog_fifo_isr
0001fee8 g     F *ABS*	00000006 ke_msg_dest_id_get
00010824 g     F *ABS*	00000128 ble_util_buf_init
0001fef4 g     F *ABS*	0000000c ke_msg_in_queue
0000a3b0 g     F *ABS*	00000030 attmdb_destroy
000237b4 g     O *ABS*	00000010 co_sca2ppm
00008c74 g     F *ABS*	000000c8 attm_att_set_value
0001ff40 g     F *ABS*	00000032 ke_queue_insert
00023b08 g     O *ABS*	00000010 one_bits
0000cc24 g     F *ABS*	00000060 gattc_create
00035e90 g     F .text	00000028 _close_r
00018288 g     F *ABS*	00000024 hci_fc_acl_en
0002e1f8 g     F .text	0000024c FIQ_Exception
0002645c g     F .text	00000028 .hidden __aeabi_i2d
0000946c g     F *ABS*	00000074 l2cc_lecb_pdu_pack
0000a064 g     F *ABS*	00000042 l2cc_lecb_send_con_rsp
00002644 g     F *ABS*	00000002 SoftwareInterrupt_Exception
00400b54 g     O *ABS*	00000030 ke_env
000224a4 g     F *ABS*	0000004a memcmp
004004f8 g     O *ABS*	00000001 gattc_state
00033688 g     F .text	00000002 __retarget_lock_close_recursive
0002379c g     O *ABS*	00000006 co_null_bdaddr
000182c0 g     F *ABS*	00000018 hci_fc_host_nb_acl_pkts_complete
00034bf4 g     F .text	000000e8 __swsetup_r
000093f8 g     F *ABS*	0000003e l2cc_lecb_h2l_err
00026d8c  w    F .text	00000002 .hidden __aeabi_ldiv0
000093a4 g     F *ABS*	0000001c gattc_get_requester
000267d0 g     F .text	0000020c .hidden __divdf3
0003510c g     F .text	000000dc __sfp
0003265c g     F .text	00000042 __copybits
00024288 g     O *ABS*	00000048 hci_evt_desc_tab
00401330 g     O .data	00000408 __malloc_av_
00035224 g     F .text	00000014 __sinit_lock_release
0000f53c g     F *ABS*	0000001c rwble_hl_init
00026540 g     F .text	00000290 .hidden __muldf3
00002ac4 g     F *ABS*	00000028 gapm_get_att_handle
00035c24 g     F .text	0000002c __sread
00400568 g     O *ABS*	00000001 l2cc_state
00031b94 g     F .text	00000014 __malloc_lock
0000a1b8 g     F *ABS*	00000020 attc_send_hdl_cfm
00034e58 g     F .text	00000070 _fflush_r
00033540 g     F .text	0000005e _calloc_r
0001fed6 g     F *ABS*	00000012 ke_msg_forward_new_id
00033690 g     F .text	00000002 __retarget_lock_acquire_recursive
000029cc g     F *ABS*	0000000c gapm_get_max_mps
0000d838 g     F *ABS*	0000003c gattc_init
000201a4 g     F *ABS*	0000003c rwip_sw_int_handler
0002e4ec g     F .text	000000ae memset
0002bc2c g     F .text	000023a0 main
0000f0d0 g     F *ABS*	00000258 l2cc_data_send
00004afc g     F *ABS*	00000138 gapc_con_create
00405520 g     O .bss	00000004 __malloc_max_total_mem
00025e00 g     F FAST_CALL_SEG	00000000 _fiq_handler
00033680 g     F .text	00000002 __retarget_lock_init_recursive
00035dac g     F .text	0000001c __swbuf
00022648 g     F *ABS*	00000014 srand
000029c0 g     F *ABS*	0000000c gapm_get_max_mtu
000021c8 g     F *ABS*	00000000 .hidden __aeabi_uidiv
00035cc8 g     F .text	00000010 __sclose
0000b010 g     F *ABS*	0000014e attm_svc_create_db_128
0001eb9c g     F *ABS*	0000001a co_list_extract_after
00402754 g       .bss	00000000 _data_addr_end
00035f9c g     F .text	00000018 fclose
00020730 g     F *ABS*	0000006c ke_timer_clear
0001ea00 g     F *ABS*	00000008 co_list_init
000302f8 g     F .text	0000101e _dtoa_r
00031594 g     F .text	00000588 _malloc_r
00034bd8 g     F .text	0000001c __ascii_wctomb
000264e0 g     F .text	00000060 .hidden __aeabi_l2d
00025d90 g       .vectors	00000000 boot_stack_base_UNUSED
000335a0 g     F .text	00000018 _fiprintf_r
00035b38 g     F .text	00000040 _init_signal
00035730 g     F .text	00000048 _fwalk
00009fd8 g     F *ABS*	00000028 atts_write_rsp_send
000089d6 g     F *ABS*	00000012 attm_uuid16_comp
0000a258 g     F *ABS*	0000003c l2cc_lecb_send_disc_req
000336a4 g     F .text	00000022 _mbtowc_r
000029f8 g     F *ABS*	00000010 gapm_is_sec_con_pairing_supp
00031318 g     F .text	000000a0 _malloc_trim_r
00025d0c g       .vectors	00000000 _reserved_handler
000236b0 g     O *ABS*	00000040 l2cc_sig_handlers
00026e00 g     F .text	00000224 strcmp
0000e304 g     F *ABS*	00000090 l2cc_process_op
00034b10 g     F .text	0000001c vfiprintf
0003367c g     F .text	00000002 __retarget_lock_init
00002748 g     F *ABS*	00000024 gapc_get_bdaddr
00008a8c g     F *ABS*	00000050 attmdb_svc_check_hdl
00023d34 g     O *ABS*	0000006c hci_cmd_desc_tab_ctrl_bb
000269ec g     F .text	00000088 .hidden __nedf2
0000e2dc g     F *ABS*	00000028 l2cc_update_state
00011f40 g     F *ABS*	00000078 lld_adv_stop
00405528 g     O .bss	00000004 _PathLocale
0000264c g     F *ABS*	0000000c stack_main
00400624 g     O *ABS*	00000001 enable_phy_2m
00002968 g     F *ABS*	00000014 gapm_get_operation
00035e64 g     F .text	0000002c _write_r
00009438 g     F *ABS*	00000034 l2cc_lecb_find
0002e5d8 g     F .text	0000002c _vsprintf_r
00033634 g     F .text	00000048 setlocale
004004b4 g     O *ABS*	0000000c l2cm_env
004004f4 g     O *ABS*	00000004 gattc_env
00023c8b g     O *ABS*	00000002 LLM_AA_CT2
00025d08 g       .vectors	00000000 _dabort_handler
0000a958 g     F *ABS*	00000064 atts_process_pdu
00400f04 g     O .data	00000004 _impure_ptr
0000aa64 g     F *ABS*	00000440 attmdb_add_service
0001ffdc g     F *ABS*	00000044 ke_task_create
00034cec g     F .text	0000016c __sflush_r
0001f1b0 g     F *ABS*	00000038 ke_event_set
000242d0 g     O *ABS*	000000c0 hci_evt_le_desc_tab
00032970 g     F .text	00000b84 _svfiprintf_r
0001f290 g     F *ABS*	0000006c ke_mem_init
0000263c g     F *ABS*	00000002 uart_stack_register
000336c8 g     F .text	0000002c __ascii_mbtowc
000323c8 g     F .text	00000048 __ulp
0002422c g     O *ABS*	00000018 hci_cmd_desc_tab_lk_ctrl
0003525c g     F .text	00000024 __fp_unlock_all
0000d874 g     F *ABS*	0000000a gattm_cleanup
00025d34 g     F .vectors	00000000 __enable_fiq
00400910 g     O *ABS*	00000034 rwip_rf
00002c20 g     F *ABS*	00000032 gapm_update_state
004004c0 g     O *ABS*	00000028 rom_env
0001f258 g     F *ABS*	0000000c ke_event_flush
00013948 g     F *ABS*	00000034 llc_stop
00010e64 g     F *ABS*	00000040 llc_init
00016168 g     F *ABS*	00000690 lld_adv_start
00002a58 g     F *ABS*	00000034 gapm_lecb_register
00009fa8 g     F *ABS*	0000000a l2cc_pdu_send
0001f73c g     F *ABS*	00000032 ke_msg_alloc
0003158c g     F .text	00000008 localeconv
000358b4 g     F .text	00000064 __swhatbuf_r
0002332c g     O *ABS*	00000070 attc_handlers
000022c4 g     F *ABS*	00000020 .hidden __aeabi_uidivmod
00026aa8 g     F .text	00000018 .hidden __aeabi_dcmpeq
0000e298 g     F *ABS*	0000003c l2cc_create
000360ec g     F .text	00000010 _write
0002dfcc g     F .text	0000022c IRQ_Exception
0000276c g     F *ABS*	00000018 gapc_get_operation
00009bf4 g     F *ABS*	00000028 gattc_send_error_evt
0001ec3c g     F *ABS*	00000014 co_list_size
00035280 g     F .text	000000b4 __fputwc
00002648 g     F *ABS*	00000002 DataAbort_Exception
0001bc54 g     F *ABS*	00000058 hci_acl_tx_data_alloc
00405530 g     O .bss	00000001 __lock___at_quick_exit_mutex
00024244 g     O *ABS*	0000000c hci_cmd_desc_tab_stat_par
0000e270 g     F *ABS*	00000028 gattm_init
00038238 g       .data	00000000 data_load_begin
0001f770 g     F *ABS*	00000038 ke_msg_send
0000293c g     F *ABS*	00000010 gapm_get_address_type
0000a188 g     F *ABS*	00000030 attc_send_att_req
00022474 g     F *ABS*	0000000e __aeabi_memclr4
00035c54 g     F .text	00000044 __swrite
0040173c g     O .data	00000004 __malloc_trim_threshold
00008d3c g     F *ABS*	00000078 attm_att_update_perm
0001f728 g     F *ABS*	00000014 ke_is_free
000335b8 g     F .text	00000024 fiprintf
00033d3c g     F .text	00000dd4 _vfiprintf_r
00035778 g     F .text	00000050 _fwalk_reent
00032238 g     F .text	00000190 __mdiff
0000c5e0 g     F *ABS*	000000bc atts_send_event
00026b58 g     F .text	0000005c .hidden __aeabi_d2iz
000360a0 g     F .text	00000010 _kill
00008948 g     F *ABS*	0000003c attm_convert_to128
00023da0 g     O *ABS*	00000030 hci_cmd_desc_tab_info_par
0001bb10 g     F *ABS*	00000144 hci_cmd_received
00400460 g     O *ABS*	00000050 gapm_env
000026c0 g     F *ABS*	00000020 gapc_get_role
00038238 g       *ABS*	00000000 _data_load_begin
000351fc g     F .text	00000014 __sfp_lock_release
00400020 g     O *ABS*	00000006 co_default_bdaddr
004004e8 g     O *ABS*	0000000c rwip_param
0003812c g     O .rodata	00000101 _ctype_
00025d58 g     F .vectors	00000000 WFI
000360c0 g     F .text	00000010 _read
00026d8c  w    F .text	00000002 .hidden __aeabi_idiv0
0003368c g     F .text	00000002 __retarget_lock_acquire
00026b20 g     F .text	00000038 .hidden __unorddf2
0003369c g     F .text	00000002 __retarget_lock_release
00009b84 g     F *ABS*	00000070 gattc_set_mtu
00002804 g     F *ABS*	00000020 gapc_lk_sec_lvl_get
000360fc g     F .text	00000002 _exit
0000cbfc g     F *ABS*	00000028 gattc_update_state
0000d794 g     F *ABS*	000000a4 gattc_cleanup
00405538 g     O .bss	00000001 __lock___dd_hash_mutex
0000c5a4 g     F *ABS*	0000003c atts_write_signed_cfm
000357c8 g     F .text	000000ec __smakebuf_r
0040554c g     O .bss	00000001 __lock___tz_mutex
00032784 g     F .text	00000060 strlen
00035918 g     F .text	00000036 _init_signal_r
0000a7bc g     F *ABS*	00000024 atts_clear_rsp_data
00026a90 g     F .text	00000018 .hidden __aeabi_cdcmpeq
0001eb4a g     F *ABS*	0000000e co_list_push_front
000269dc g     F .text	00000098 .hidden __gedf2
00002a08 g     F *ABS*	0000001c gapm_le_psm_find
0001fec6 g     F *ABS*	00000010 ke_msg_forward
00008938 g     F *ABS*	00000010 gattc_get_mtu
00002fe6 g     F *ABS*	00000022 gapc_send_error_evt
0000a798 g     F *ABS*	00000024 atts_clear_prep_data
0001f220 g     F *ABS*	00000038 ke_event_get
00002642 g     F *ABS*	00000002 Undefined_Exception
00002a24 g     F *ABS*	00000034 gapm_le_psm_get_info
00033534 g     F .text	0000000a __assert
00008b44 g     F *ABS*	00000022 attm_svc_set_permission
00009a68 g     F *ABS*	0000000c l2cm_get_nb_buffer_available
00033d24 g     F .text	00000018 __sprint_r
0000955c g     F *ABS*	00000284 l2cc_pdu_pack
00026484 g     F .text	00000048 .hidden __aeabi_f2d
000085c0 g     F *ABS*	000000b4 gapm_init
00018fc4 g     F *ABS*	00000148 hci_send_2_host
00034bbc g     F .text	0000001a _wctomb_r
00026d90 g     F .text	00000028 .hidden __clzdi2
00026124 g     F .text	00000314 .hidden __subdf3
00008b66 g     F *ABS*	0000001c attm_svc_get_permission
00025e78 g     F .text	00000014 .hidden __gnu_thumb1_case_uhi
0001de76 g     F *ABS*	00000004 ke_msg_discard
00031dbc g     F .text	0000005a __lo0bits
00002414 g     F *ABS*	00000020 .hidden __aeabi_idivmod
00035b78 g     F .text	00000072 __sigtramp
00035e14 g     F .text	0000004e wcrtomb
000326f4 g     F .text	00000068 frexp
000027a4 g     F *ABS*	0000001c gapc_get_requester
000183a8 g     F *ABS*	00000020 hci_tl_init
0001f594 g     F *ABS*	00000028 aes_init
00401740 g     O .data	0000016c __global_locale
00008adc g     F *ABS*	00000020 attm_reserve_handle_range
00002894 g     F *ABS*	00000034 gapc_auth_get
0000e888 g     F *ABS*	000000c4 l2cc_cleanup
0001eac4 g     F *ABS*	0000004c sch_slice_init
00008468 g     F *ABS*	0000004c gapm_con_create
0000297c g     F *ABS*	00000018 gapm_get_requester
00405544 g     O .bss	00000001 __lock___sfp_recursive_mutex
0001f1e8 g     F *ABS*	00000038 ke_event_clear
0001f180 g     F *ABS*	00000010 ke_sleep_check
00035398 g     F .text	0000007c fputwc
00036060 g     F .text	00000010 _close
00035a78 g     F .text	00000066 raise
0000e94c g     F *ABS*	0000003c l2cc_init
00035210 g     F .text	00000014 __sinit_lock_acquire
00031c24 g     F .text	000000ac __multadd
00002904 g     F *ABS*	0000002c gapc_sig_pdu_recv_handler
00031c10 g     F .text	00000014 _Bfree
00025d8c g       .vectors	00000000 boot_stack_base_SVC
004004fc g     O *ABS*	00000038 gattm_env



Disassembly of section .vectors:

00025b00 <_reset_handler-0x20>:
   25b00:	ea000006 	b	25b20 <_reset_handler>
   25b04:	e59ff1f0 	ldr	pc, [pc, #496]	; 25cfc <_undefined_handler>
   25b08:	e59ff1f0 	ldr	pc, [pc, #496]	; 25d00 <_swi_handler>
   25b0c:	e59ff1f0 	ldr	pc, [pc, #496]	; 25d04 <_pabort_handler>
   25b10:	e59ff1f0 	ldr	pc, [pc, #496]	; 25d08 <_dabort_handler>
   25b14:	e59ff1f0 	ldr	pc, [pc, #496]	; 25d0c <_reserved_handler>
   25b18:	e59ff280 	ldr	pc, [pc, #640]	; 25da0 <boot_stack_base_UNUSED+0x10>
   25b1c:	e59ff280 	ldr	pc, [pc, #640]	; 25da4 <boot_stack_base_UNUSED+0x14>

00025b20 <_reset_handler>:
   25b20:	e10f0000 	mrs	r0, CPSR
   25b24:	e38000c0 	orr	r0, r0, #192	; 0xc0
   25b28:	e121f000 	msr	CPSR_c, r0
   25b2c:	e10f0000 	mrs	r0, CPSR
   25b30:	e3c0001f 	bic	r0, r0, #31
   25b34:	e380001f 	orr	r0, r0, #31
   25b38:	e121f000 	msr	CPSR_c, r0
   25b3c:	e59f023c 	ldr	r0, [pc, #572]	; 25d80 <_STACK_SIZE_UND>
   25b40:	e59f1234 	ldr	r1, [pc, #564]	; 25d7c <_STACK_ADDR_UND>
   25b44:	e59f225c 	ldr	r2, [pc, #604]	; 25da8 <boot_stack_base_UNUSED+0x18>
   25b48:	e1a0d001 	mov	sp, r1
   25b4c:	e0410000 	sub	r0, r1, r0
   25b50:	e1500001 	cmp	r0, r1
   25b54:	b5802000 	strlt	r2, [r0]
   25b58:	b2800004 	addlt	r0, r0, #4
   25b5c:	bafffffb 	blt	25b50 <_reset_handler+0x30>
   25b60:	e10f0000 	mrs	r0, CPSR
   25b64:	e3c0001f 	bic	r0, r0, #31
   25b68:	e3800017 	orr	r0, r0, #23
   25b6c:	e121f000 	msr	CPSR_c, r0
   25b70:	e59f0208 	ldr	r0, [pc, #520]	; 25d80 <_STACK_SIZE_UND>
   25b74:	e59f1200 	ldr	r1, [pc, #512]	; 25d7c <_STACK_ADDR_UND>
   25b78:	e59f2228 	ldr	r2, [pc, #552]	; 25da8 <boot_stack_base_UNUSED+0x18>
   25b7c:	e1a0d001 	mov	sp, r1
   25b80:	e0410000 	sub	r0, r1, r0
   25b84:	e1500001 	cmp	r0, r1
   25b88:	b5802000 	strlt	r2, [r0]
   25b8c:	b2800004 	addlt	r0, r0, #4
   25b90:	bafffffb 	blt	25b84 <_reset_handler+0x64>
   25b94:	e10f0000 	mrs	r0, CPSR
   25b98:	e3c0001f 	bic	r0, r0, #31
   25b9c:	e380001b 	orr	r0, r0, #27
   25ba0:	e121f000 	msr	CPSR_c, r0
   25ba4:	e59f01d4 	ldr	r0, [pc, #468]	; 25d80 <_STACK_SIZE_UND>
   25ba8:	e59f11cc 	ldr	r1, [pc, #460]	; 25d7c <_STACK_ADDR_UND>
   25bac:	e59f21f4 	ldr	r2, [pc, #500]	; 25da8 <boot_stack_base_UNUSED+0x18>
   25bb0:	e1a0d001 	mov	sp, r1
   25bb4:	e0410000 	sub	r0, r1, r0
   25bb8:	e1500001 	cmp	r0, r1
   25bbc:	b5802000 	strlt	r2, [r0]
   25bc0:	b2800004 	addlt	r0, r0, #4
   25bc4:	bafffffb 	blt	25bb8 <_reset_handler+0x98>
   25bc8:	e10f0000 	mrs	r0, CPSR
   25bcc:	e3c0001f 	bic	r0, r0, #31
   25bd0:	e3800012 	orr	r0, r0, #18
   25bd4:	e121f000 	msr	CPSR_c, r0
   25bd8:	e59f0190 	ldr	r0, [pc, #400]	; 25d70 <_STACK_SIZE_IRQ>
   25bdc:	e59f1188 	ldr	r1, [pc, #392]	; 25d6c <_STACK_ADDR_IRQ>
   25be0:	e59f21c4 	ldr	r2, [pc, #452]	; 25dac <boot_stack_base_UNUSED+0x1c>
   25be4:	e1a0d001 	mov	sp, r1
   25be8:	e0410000 	sub	r0, r1, r0
   25bec:	e1500001 	cmp	r0, r1
   25bf0:	b5802000 	strlt	r2, [r0]
   25bf4:	b2800004 	addlt	r0, r0, #4
   25bf8:	bafffffb 	blt	25bec <_reset_handler+0xcc>
   25bfc:	e10f0000 	mrs	r0, CPSR
   25c00:	e3c0001f 	bic	r0, r0, #31
   25c04:	e3800011 	orr	r0, r0, #17
   25c08:	e121f000 	msr	CPSR_c, r0
   25c0c:	e59f0154 	ldr	r0, [pc, #340]	; 25d68 <_STACK_SIZE_FIQ>
   25c10:	e59f114c 	ldr	r1, [pc, #332]	; 25d64 <_STACK_ADDR_FIQ>
   25c14:	e59f2194 	ldr	r2, [pc, #404]	; 25db0 <boot_stack_base_UNUSED+0x20>
   25c18:	e1a0d001 	mov	sp, r1
   25c1c:	e0410000 	sub	r0, r1, r0
   25c20:	e1500001 	cmp	r0, r1
   25c24:	b5802000 	strlt	r2, [r0]
   25c28:	b2800004 	addlt	r0, r0, #4
   25c2c:	bafffffb 	blt	25c20 <_reset_handler+0x100>
   25c30:	e3a08000 	mov	r8, #0
   25c34:	e3a09000 	mov	r9, #0
   25c38:	e3a0a000 	mov	sl, #0
   25c3c:	e3a0b000 	mov	fp, #0
   25c40:	e3a0c000 	mov	ip, #0
   25c44:	e10f0000 	mrs	r0, CPSR
   25c48:	e3c0001f 	bic	r0, r0, #31
   25c4c:	e3800013 	orr	r0, r0, #19
   25c50:	e121f000 	msr	CPSR_c, r0
   25c54:	e59f011c 	ldr	r0, [pc, #284]	; 25d78 <_STACK_SIZE_SVC>
   25c58:	e59f1114 	ldr	r1, [pc, #276]	; 25d74 <_STACK_ADDR_SVC>
   25c5c:	e59f2150 	ldr	r2, [pc, #336]	; 25db4 <boot_stack_base_UNUSED+0x24>
   25c60:	e1a0d001 	mov	sp, r1
   25c64:	e0410000 	sub	r0, r1, r0
   25c68:	e1500001 	cmp	r0, r1
   25c6c:	b5802000 	strlt	r2, [r0]
   25c70:	b2800004 	addlt	r0, r0, #4
   25c74:	bafffffb 	blt	25c68 <_reset_handler+0x148>
   25c78:	eb00000e 	bl	25cb8 <_data_init>
   25c7c:	eb000015 	bl	25cd8 <_zi_init>
   25c80:	e3a00000 	mov	r0, #0
   25c84:	e3a01000 	mov	r1, #0
   25c88:	e3a02000 	mov	r2, #0
   25c8c:	e3a03000 	mov	r3, #0
   25c90:	e3a04000 	mov	r4, #0
   25c94:	e3a05000 	mov	r5, #0
   25c98:	e3a06000 	mov	r6, #0
   25c9c:	e3a07000 	mov	r7, #0
   25ca0:	e3a08000 	mov	r8, #0
   25ca4:	e3a09000 	mov	r9, #0
   25ca8:	e3a0a000 	mov	sl, #0
   25cac:	e3a0b000 	mov	fp, #0
   25cb0:	e3a0c000 	mov	ip, #0
   25cb4:	ea000045 	b	25dd0 <__main_from_arm>

00025cb8 <_data_init>:
   25cb8:	e59f00f8 	ldr	r0, [pc, #248]	; 25db8 <boot_stack_base_UNUSED+0x28>
   25cbc:	e59f10f8 	ldr	r1, [pc, #248]	; 25dbc <boot_stack_base_UNUSED+0x2c>
   25cc0:	e59f20f8 	ldr	r2, [pc, #248]	; 25dc0 <boot_stack_base_UNUSED+0x30>
   25cc4:	e1510002 	cmp	r1, r2
   25cc8:	34904004 	ldrcc	r4, [r0], #4
   25ccc:	34814004 	strcc	r4, [r1], #4
   25cd0:	3afffffb 	bcc	25cc4 <_data_init+0xc>
   25cd4:	e12fff1e 	bx	lr

00025cd8 <_zi_init>:
   25cd8:	e59f00e4 	ldr	r0, [pc, #228]	; 25dc4 <boot_stack_base_UNUSED+0x34>
   25cdc:	e59f10e4 	ldr	r1, [pc, #228]	; 25dc8 <boot_stack_base_UNUSED+0x38>
   25ce0:	e1a03001 	mov	r3, r1
   25ce4:	e1a04000 	mov	r4, r0
   25ce8:	e3a02000 	mov	r2, #0
   25cec:	e1540003 	cmp	r4, r3
   25cf0:	34842004 	strcc	r2, [r4], #4
   25cf4:	3afffffc 	bcc	25cec <_zi_init+0x14>
   25cf8:	e12fff1e 	bx	lr

00025cfc <_undefined_handler>:
   25cfc:	00002643 	.word	0x00002643

00025d00 <_swi_handler>:
   25d00:	00002645 	.word	0x00002645

00025d04 <_pabort_handler>:
   25d04:	00002647 	.word	0x00002647

00025d08 <_dabort_handler>:
   25d08:	00002649 	.word	0x00002649

00025d0c <_reserved_handler>:
   25d0c:	0000264b 	.word	0x0000264b

00025d10 <__enable_irq>:
   25d10:	e10f0000 	mrs	r0, CPSR
   25d14:	e3c00080 	bic	r0, r0, #128	; 0x80
   25d18:	e121f000 	msr	CPSR_c, r0
   25d1c:	e12fff1e 	bx	lr

00025d20 <__disable_irq>:
   25d20:	e10f0000 	mrs	r0, CPSR
   25d24:	e3801080 	orr	r1, r0, #128	; 0x80
   25d28:	e121f001 	msr	CPSR_c, r1
   25d2c:	e2000080 	and	r0, r0, #128	; 0x80
   25d30:	e12fff1e 	bx	lr

00025d34 <__enable_fiq>:
   25d34:	e10f0000 	mrs	r0, CPSR
   25d38:	e3c00040 	bic	r0, r0, #64	; 0x40
   25d3c:	e121f000 	msr	CPSR_c, r0
   25d40:	e12fff1e 	bx	lr

00025d44 <__disable_fiq>:
   25d44:	e10f0000 	mrs	r0, CPSR
   25d48:	e3801040 	orr	r1, r0, #64	; 0x40
   25d4c:	e121f001 	msr	CPSR_c, r1
   25d50:	e2000040 	and	r0, r0, #64	; 0x40
   25d54:	e12fff1e 	bx	lr

00025d58 <WFI>:
   25d58:	e3a00000 	mov	r0, #0
   25d5c:	ee070f90 	mcr	15, 0, r0, cr7, cr0, {4}
   25d60:	e12fff1e 	bx	lr

00025d64 <_STACK_ADDR_FIQ>:
   25d64:	0040fffc 	.word	0x0040fffc

00025d68 <_STACK_SIZE_FIQ>:
   25d68:	000002f0 	.word	0x000002f0

00025d6c <_STACK_ADDR_IRQ>:
   25d6c:	0040fd0c 	.word	0x0040fd0c

00025d70 <_STACK_SIZE_IRQ>:
   25d70:	000003f0 	.word	0x000003f0

00025d74 <_STACK_ADDR_SVC>:
   25d74:	0040f91c 	.word	0x0040f91c

00025d78 <_STACK_SIZE_SVC>:
   25d78:	000006f0 	.word	0x000006f0

00025d7c <_STACK_ADDR_UND>:
   25d7c:	0040f22c 	.word	0x0040f22c

00025d80 <_STACK_SIZE_UND>:
   25d80:	00000100 	.word	0x00000100

00025d84 <boot_stack_base_FIQ>:
   25d84:	0040fd0c 	.word	0x0040fd0c

00025d88 <boot_stack_base_IRQ>:
   25d88:	0040f91c 	.word	0x0040f91c

00025d8c <boot_stack_base_SVC>:
   25d8c:	0040f22c 	.word	0x0040f22c

00025d90 <boot_stack_base_UNUSED>:
   25d90:	0040f12c 	.word	0x0040f12c
   25d94:	deadbeef 	.word	0xdeadbeef
   25d98:	deadbeef 	.word	0xdeadbeef
   25d9c:	deadbeef 	.word	0xdeadbeef
   25da0:	00025e20 	.word	0x00025e20
   25da4:	00025e00 	.word	0x00025e00
   25da8:	aaaaaaaa 	.word	0xaaaaaaaa
   25dac:	cccccccc 	.word	0xcccccccc
   25db0:	dddddddd 	.word	0xdddddddd
   25db4:	bbbbbbbb 	.word	0xbbbbbbbb
   25db8:	00038238 	.word	0x00038238
   25dbc:	00400f00 	.word	0x00400f00
   25dc0:	00402754 	.word	0x00402754
   25dc4:	00402754 	.word	0x00402754
   25dc8:	00405558 	.word	0x00405558
   25dcc:	00000000 	.word	0x00000000

00025dd0 <__main_from_arm>:
   25dd0:	e59fc000 	ldr	ip, [pc]	; 25dd8 <__main_from_arm+0x8>
   25dd4:	e12fff1c 	bx	ip
   25dd8:	0002bc2d 	.word	0x0002bc2d
   25ddc:	00000000 	.word	0x00000000

Disassembly of section FAST_CALL_SEG:

00025e00 <_fiq_handler>:
   25e00:	e92d500f 	push	{r0, r1, r2, r3, ip, lr}
   25e04:	eb00000c 	bl	25e3c <__FIQ_Exception_from_arm>
   25e08:	e8bd500f 	pop	{r0, r1, r2, r3, ip, lr}
   25e0c:	e12fff1e 	bx	lr
	...

00025e20 <_irq_handler>:
   25e20:	e92d500f 	push	{r0, r1, r2, r3, ip, lr}
   25e24:	eb000001 	bl	25e30 <__IRQ_Exception_from_arm>
   25e28:	e8bd500f 	pop	{r0, r1, r2, r3, ip, lr}
   25e2c:	e12fff1e 	bx	lr

00025e30 <__IRQ_Exception_from_arm>:
   25e30:	e59fc000 	ldr	ip, [pc]	; 25e38 <__IRQ_Exception_from_arm+0x8>
   25e34:	e12fff1c 	bx	ip
   25e38:	0002dfcd 	.word	0x0002dfcd

00025e3c <__FIQ_Exception_from_arm>:
   25e3c:	e59fc000 	ldr	ip, [pc]	; 25e44 <__FIQ_Exception_from_arm+0x8>
   25e40:	e12fff1c 	bx	ip
   25e44:	0002e1f9 	.word	0x0002e1f9
	...

Disassembly of section .text:

00025e50 <__gnu_thumb1_case_uqi>:
   25e50:	b402      	push	{r1}
   25e52:	4671      	mov	r1, lr
   25e54:	0849      	lsrs	r1, r1, #1
   25e56:	0049      	lsls	r1, r1, #1
   25e58:	5c09      	ldrb	r1, [r1, r0]
   25e5a:	0049      	lsls	r1, r1, #1
   25e5c:	448e      	add	lr, r1
   25e5e:	bc02      	pop	{r1}
   25e60:	4770      	bx	lr
   25e62:	46c0      	nop			; (mov r8, r8)

00025e64 <__gnu_thumb1_case_shi>:
   25e64:	b403      	push	{r0, r1}
   25e66:	4671      	mov	r1, lr
   25e68:	0849      	lsrs	r1, r1, #1
   25e6a:	0040      	lsls	r0, r0, #1
   25e6c:	0049      	lsls	r1, r1, #1
   25e6e:	5e09      	ldrsh	r1, [r1, r0]
   25e70:	0049      	lsls	r1, r1, #1
   25e72:	448e      	add	lr, r1
   25e74:	bc03      	pop	{r0, r1}
   25e76:	4770      	bx	lr

00025e78 <__gnu_thumb1_case_uhi>:
   25e78:	b403      	push	{r0, r1}
   25e7a:	4671      	mov	r1, lr
   25e7c:	0849      	lsrs	r1, r1, #1
   25e7e:	0040      	lsls	r0, r0, #1
   25e80:	0049      	lsls	r1, r1, #1
   25e82:	5a09      	ldrh	r1, [r1, r0]
   25e84:	0049      	lsls	r1, r1, #1
   25e86:	448e      	add	lr, r1
   25e88:	bc03      	pop	{r0, r1}
   25e8a:	4770      	bx	lr
   25e8c:	e92d4070 	push	{r4, r5, r6, lr}
   25e90:	e3a0c0ff 	mov	ip, #255	; 0xff
   25e94:	e38ccc07 	orr	ip, ip, #1792	; 0x700
   25e98:	e01c4a21 	ands	r4, ip, r1, lsr #20
   25e9c:	101c5a23 	andsne	r5, ip, r3, lsr #20
   25ea0:	1134000c 	teqne	r4, ip
   25ea4:	1135000c 	teqne	r5, ip
   25ea8:	0b000075 	bleq	26084 <__gnu_thumb1_case_uhi+0x20c>
   25eac:	e0844005 	add	r4, r4, r5
   25eb0:	e0216003 	eor	r6, r1, r3
   25eb4:	e1c11a8c 	bic	r1, r1, ip, lsl #21
   25eb8:	e1c33a8c 	bic	r3, r3, ip, lsl #21
   25ebc:	e1905601 	orrs	r5, r0, r1, lsl #12
   25ec0:	11925603 	orrsne	r5, r2, r3, lsl #12
   25ec4:	e3811601 	orr	r1, r1, #1048576	; 0x100000
   25ec8:	e3833601 	orr	r3, r3, #1048576	; 0x100000
   25ecc:	0a00001d 	beq	25f48 <__gnu_thumb1_case_uhi+0xd0>
   25ed0:	e08ec290 	umull	ip, lr, r0, r2
   25ed4:	e3a05000 	mov	r5, #0
   25ed8:	e0a5e291 	umlal	lr, r5, r1, r2
   25edc:	e2062102 	and	r2, r6, #-2147483648	; 0x80000000
   25ee0:	e0a5e390 	umlal	lr, r5, r0, r3
   25ee4:	e3a06000 	mov	r6, #0
   25ee8:	e0a65391 	umlal	r5, r6, r1, r3
   25eec:	e33c0000 	teq	ip, #0
   25ef0:	138ee001 	orrne	lr, lr, #1
   25ef4:	e24440ff 	sub	r4, r4, #255	; 0xff
   25ef8:	e3560c02 	cmp	r6, #512	; 0x200
   25efc:	e2c44c03 	sbc	r4, r4, #768	; 0x300
   25f00:	2a000002 	bcs	25f10 <__gnu_thumb1_case_uhi+0x98>
   25f04:	e1b0e08e 	lsls	lr, lr, #1
   25f08:	e0b55005 	adcs	r5, r5, r5
   25f0c:	e0a66006 	adc	r6, r6, r6
   25f10:	e1821586 	orr	r1, r2, r6, lsl #11
   25f14:	e1811aa5 	orr	r1, r1, r5, lsr #21
   25f18:	e1a00585 	lsl	r0, r5, #11
   25f1c:	e1800aae 	orr	r0, r0, lr, lsr #21
   25f20:	e1a0e58e 	lsl	lr, lr, #11
   25f24:	e254c0fd 	subs	ip, r4, #253	; 0xfd
   25f28:	835c0c07 	cmphi	ip, #1792	; 0x700
   25f2c:	8a000011 	bhi	25f78 <__gnu_thumb1_case_uhi+0x100>
   25f30:	e35e0102 	cmp	lr, #-2147483648	; 0x80000000
   25f34:	01b0e0a0 	lsrseq	lr, r0, #1
   25f38:	e2b00000 	adcs	r0, r0, #0
   25f3c:	e0a11a04 	adc	r1, r1, r4, lsl #20
   25f40:	e8bd4070 	pop	{r4, r5, r6, lr}
   25f44:	e12fff1e 	bx	lr
   25f48:	e2066102 	and	r6, r6, #-2147483648	; 0x80000000
   25f4c:	e1861001 	orr	r1, r6, r1
   25f50:	e1800002 	orr	r0, r0, r2
   25f54:	e0211003 	eor	r1, r1, r3
   25f58:	e05440ac 	subs	r4, r4, ip, lsr #1
   25f5c:	c074500c 	rsbsgt	r5, r4, ip
   25f60:	c1811a04 	orrgt	r1, r1, r4, lsl #20
   25f64:	c8bd4070 	popgt	{r4, r5, r6, lr}
   25f68:	c12fff1e 	bxgt	lr
   25f6c:	e3811601 	orr	r1, r1, #1048576	; 0x100000
   25f70:	e3a0e000 	mov	lr, #0
   25f74:	e2544001 	subs	r4, r4, #1
   25f78:	ca00005d 	bgt	260f4 <__gnu_thumb1_case_uhi+0x27c>
   25f7c:	e3740036 	cmn	r4, #54	; 0x36
   25f80:	d3a00000 	movle	r0, #0
   25f84:	d2011102 	andle	r1, r1, #-2147483648	; 0x80000000
   25f88:	d8bd4070 	pople	{r4, r5, r6, lr}
   25f8c:	d12fff1e 	bxle	lr
   25f90:	e2644000 	rsb	r4, r4, #0
   25f94:	e2544020 	subs	r4, r4, #32
   25f98:	aa00001a 	bge	26008 <__gnu_thumb1_case_uhi+0x190>
   25f9c:	e294400c 	adds	r4, r4, #12
   25fa0:	ca00000c 	bgt	25fd8 <__gnu_thumb1_case_uhi+0x160>
   25fa4:	e2844014 	add	r4, r4, #20
   25fa8:	e2645020 	rsb	r5, r4, #32
   25fac:	e1a03510 	lsl	r3, r0, r5
   25fb0:	e1a00430 	lsr	r0, r0, r4
   25fb4:	e1800511 	orr	r0, r0, r1, lsl r5
   25fb8:	e2012102 	and	r2, r1, #-2147483648	; 0x80000000
   25fbc:	e3c11102 	bic	r1, r1, #-2147483648	; 0x80000000
   25fc0:	e0900fa3 	adds	r0, r0, r3, lsr #31
   25fc4:	e0a21431 	adc	r1, r2, r1, lsr r4
   25fc8:	e19ee083 	orrs	lr, lr, r3, lsl #1
   25fcc:	01c00fa3 	biceq	r0, r0, r3, lsr #31
   25fd0:	e8bd4070 	pop	{r4, r5, r6, lr}
   25fd4:	e12fff1e 	bx	lr
   25fd8:	e264400c 	rsb	r4, r4, #12
   25fdc:	e2645020 	rsb	r5, r4, #32
   25fe0:	e1a03410 	lsl	r3, r0, r4
   25fe4:	e1a00530 	lsr	r0, r0, r5
   25fe8:	e1800411 	orr	r0, r0, r1, lsl r4
   25fec:	e2011102 	and	r1, r1, #-2147483648	; 0x80000000
   25ff0:	e0900fa3 	adds	r0, r0, r3, lsr #31
   25ff4:	e2a11000 	adc	r1, r1, #0
   25ff8:	e19ee083 	orrs	lr, lr, r3, lsl #1
   25ffc:	01c00fa3 	biceq	r0, r0, r3, lsr #31
   26000:	e8bd4070 	pop	{r4, r5, r6, lr}
   26004:	e12fff1e 	bx	lr
   26008:	e2645020 	rsb	r5, r4, #32
   2600c:	e18ee510 	orr	lr, lr, r0, lsl r5
   26010:	e1a03430 	lsr	r3, r0, r4
   26014:	e1833511 	orr	r3, r3, r1, lsl r5
   26018:	e1a00431 	lsr	r0, r1, r4
   2601c:	e2011102 	and	r1, r1, #-2147483648	; 0x80000000
   26020:	e1c00431 	bic	r0, r0, r1, lsr r4
   26024:	e0800fa3 	add	r0, r0, r3, lsr #31
   26028:	e19ee083 	orrs	lr, lr, r3, lsl #1
   2602c:	01c00fa3 	biceq	r0, r0, r3, lsr #31
   26030:	e8bd4070 	pop	{r4, r5, r6, lr}
   26034:	e12fff1e 	bx	lr
   26038:	e3340000 	teq	r4, #0
   2603c:	1a000008 	bne	26064 <__gnu_thumb1_case_uhi+0x1ec>
   26040:	e2016102 	and	r6, r1, #-2147483648	; 0x80000000
   26044:	e1b00080 	lsls	r0, r0, #1
   26048:	e0a11001 	adc	r1, r1, r1
   2604c:	e3110601 	tst	r1, #1048576	; 0x100000
   26050:	02444001 	subeq	r4, r4, #1
   26054:	0afffffa 	beq	26044 <__gnu_thumb1_case_uhi+0x1cc>
   26058:	e1811006 	orr	r1, r1, r6
   2605c:	e3350000 	teq	r5, #0
   26060:	112fff1e 	bxne	lr
   26064:	e2036102 	and	r6, r3, #-2147483648	; 0x80000000
   26068:	e1b02082 	lsls	r2, r2, #1
   2606c:	e0a33003 	adc	r3, r3, r3
   26070:	e3130601 	tst	r3, #1048576	; 0x100000
   26074:	02455001 	subeq	r5, r5, #1
   26078:	0afffffa 	beq	26068 <__gnu_thumb1_case_uhi+0x1f0>
   2607c:	e1833006 	orr	r3, r3, r6
   26080:	e12fff1e 	bx	lr
   26084:	e134000c 	teq	r4, ip
   26088:	e00c5a23 	and	r5, ip, r3, lsr #20
   2608c:	1135000c 	teqne	r5, ip
   26090:	0a000007 	beq	260b4 <__gnu_thumb1_case_uhi+0x23c>
   26094:	e1906081 	orrs	r6, r0, r1, lsl #1
   26098:	11926083 	orrsne	r6, r2, r3, lsl #1
   2609c:	1affffe5 	bne	26038 <__gnu_thumb1_case_uhi+0x1c0>
   260a0:	e0211003 	eor	r1, r1, r3
   260a4:	e2011102 	and	r1, r1, #-2147483648	; 0x80000000
   260a8:	e3a00000 	mov	r0, #0
   260ac:	e8bd4070 	pop	{r4, r5, r6, lr}
   260b0:	e12fff1e 	bx	lr
   260b4:	e1906081 	orrs	r6, r0, r1, lsl #1
   260b8:	01a00002 	moveq	r0, r2
   260bc:	01a01003 	moveq	r1, r3
   260c0:	11926083 	orrsne	r6, r2, r3, lsl #1
   260c4:	0a000010 	beq	2610c <__gnu_thumb1_case_uhi+0x294>
   260c8:	e134000c 	teq	r4, ip
   260cc:	1a000001 	bne	260d8 <__gnu_thumb1_case_uhi+0x260>
   260d0:	e1906601 	orrs	r6, r0, r1, lsl #12
   260d4:	1a00000c 	bne	2610c <__gnu_thumb1_case_uhi+0x294>
   260d8:	e135000c 	teq	r5, ip
   260dc:	1a000003 	bne	260f0 <__gnu_thumb1_case_uhi+0x278>
   260e0:	e1926603 	orrs	r6, r2, r3, lsl #12
   260e4:	11a00002 	movne	r0, r2
   260e8:	11a01003 	movne	r1, r3
   260ec:	1a000006 	bne	2610c <__gnu_thumb1_case_uhi+0x294>
   260f0:	e0211003 	eor	r1, r1, r3
   260f4:	e2011102 	and	r1, r1, #-2147483648	; 0x80000000
   260f8:	e381147f 	orr	r1, r1, #2130706432	; 0x7f000000
   260fc:	e381160f 	orr	r1, r1, #15728640	; 0xf00000
   26100:	e3a00000 	mov	r0, #0
   26104:	e8bd4070 	pop	{r4, r5, r6, lr}
   26108:	e12fff1e 	bx	lr
   2610c:	e381147f 	orr	r1, r1, #2130706432	; 0x7f000000
   26110:	e381173e 	orr	r1, r1, #16252928	; 0xf80000
   26114:	e8bd4070 	pop	{r4, r5, r6, lr}
   26118:	e12fff1e 	bx	lr

0002611c <__aeabi_drsub>:
   2611c:	e2211102 	eor	r1, r1, #-2147483648	; 0x80000000
   26120:	ea000000 	b	26128 <__adddf3>

00026124 <__aeabi_dsub>:
   26124:	e2233102 	eor	r3, r3, #-2147483648	; 0x80000000

00026128 <__adddf3>:
   26128:	e92d4030 	push	{r4, r5, lr}
   2612c:	e1a04081 	lsl	r4, r1, #1
   26130:	e1a05083 	lsl	r5, r3, #1
   26134:	e1340005 	teq	r4, r5
   26138:	01300002 	teqeq	r0, r2
   2613c:	1194c000 	orrsne	ip, r4, r0
   26140:	1195c002 	orrsne	ip, r5, r2
   26144:	11f0cac4 	mvnsne	ip, r4, asr #21
   26148:	11f0cac5 	mvnsne	ip, r5, asr #21
   2614c:	0a00008c 	beq	26384 <__adddf3+0x25c>
   26150:	e1a04aa4 	lsr	r4, r4, #21
   26154:	e0745aa5 	rsbs	r5, r4, r5, lsr #21
   26158:	b2655000 	rsblt	r5, r5, #0
   2615c:	da000006 	ble	2617c <__adddf3+0x54>
   26160:	e0844005 	add	r4, r4, r5
   26164:	e0202002 	eor	r2, r0, r2
   26168:	e0213003 	eor	r3, r1, r3
   2616c:	e0220000 	eor	r0, r2, r0
   26170:	e0231001 	eor	r1, r3, r1
   26174:	e0202002 	eor	r2, r0, r2
   26178:	e0213003 	eor	r3, r1, r3
   2617c:	e3550036 	cmp	r5, #54	; 0x36
   26180:	88bd4030 	pophi	{r4, r5, lr}
   26184:	812fff1e 	bxhi	lr
   26188:	e3110102 	tst	r1, #-2147483648	; 0x80000000
   2618c:	e1a01601 	lsl	r1, r1, #12
   26190:	e3a0c601 	mov	ip, #1048576	; 0x100000
   26194:	e18c1621 	orr	r1, ip, r1, lsr #12
   26198:	0a000001 	beq	261a4 <__adddf3+0x7c>
   2619c:	e2700000 	rsbs	r0, r0, #0
   261a0:	e2e11000 	rsc	r1, r1, #0
   261a4:	e3130102 	tst	r3, #-2147483648	; 0x80000000
   261a8:	e1a03603 	lsl	r3, r3, #12
   261ac:	e18c3623 	orr	r3, ip, r3, lsr #12
   261b0:	0a000001 	beq	261bc <__adddf3+0x94>
   261b4:	e2722000 	rsbs	r2, r2, #0
   261b8:	e2e33000 	rsc	r3, r3, #0
   261bc:	e1340005 	teq	r4, r5
   261c0:	0a000069 	beq	2636c <__adddf3+0x244>
   261c4:	e2444001 	sub	r4, r4, #1
   261c8:	e275e020 	rsbs	lr, r5, #32
   261cc:	ba000005 	blt	261e8 <__adddf3+0xc0>
   261d0:	e1a0ce12 	lsl	ip, r2, lr
   261d4:	e0900532 	adds	r0, r0, r2, lsr r5
   261d8:	e2a11000 	adc	r1, r1, #0
   261dc:	e0900e13 	adds	r0, r0, r3, lsl lr
   261e0:	e0b11553 	adcs	r1, r1, r3, asr r5
   261e4:	ea000006 	b	26204 <__adddf3+0xdc>
   261e8:	e2455020 	sub	r5, r5, #32
   261ec:	e28ee020 	add	lr, lr, #32
   261f0:	e3520001 	cmp	r2, #1
   261f4:	e1a0ce13 	lsl	ip, r3, lr
   261f8:	238cc002 	orrcs	ip, ip, #2
   261fc:	e0900553 	adds	r0, r0, r3, asr r5
   26200:	e0b11fc3 	adcs	r1, r1, r3, asr #31
   26204:	e2015102 	and	r5, r1, #-2147483648	; 0x80000000
   26208:	5a000002 	bpl	26218 <__adddf3+0xf0>
   2620c:	e27cc000 	rsbs	ip, ip, #0
   26210:	e2f00000 	rscs	r0, r0, #0
   26214:	e2e11000 	rsc	r1, r1, #0
   26218:	e3510601 	cmp	r1, #1048576	; 0x100000
   2621c:	3a00000f 	bcc	26260 <__adddf3+0x138>
   26220:	e3510602 	cmp	r1, #2097152	; 0x200000
   26224:	3a000006 	bcc	26244 <__adddf3+0x11c>
   26228:	e1b010a1 	lsrs	r1, r1, #1
   2622c:	e1b00060 	rrxs	r0, r0
   26230:	e1a0c06c 	rrx	ip, ip
   26234:	e2844001 	add	r4, r4, #1
   26238:	e1a02a84 	lsl	r2, r4, #21
   2623c:	e3720501 	cmn	r2, #4194304	; 0x400000
   26240:	2a00006b 	bcs	263f4 <__adddf3+0x2cc>
   26244:	e35c0102 	cmp	ip, #-2147483648	; 0x80000000
   26248:	01b0c0a0 	lsrseq	ip, r0, #1
   2624c:	e2b00000 	adcs	r0, r0, #0
   26250:	e0a11a04 	adc	r1, r1, r4, lsl #20
   26254:	e1811005 	orr	r1, r1, r5
   26258:	e8bd4030 	pop	{r4, r5, lr}
   2625c:	e12fff1e 	bx	lr
   26260:	e1b0c08c 	lsls	ip, ip, #1
   26264:	e0b00000 	adcs	r0, r0, r0
   26268:	e0a11001 	adc	r1, r1, r1
   2626c:	e2544001 	subs	r4, r4, #1
   26270:	23510601 	cmpcs	r1, #1048576	; 0x100000
   26274:	2afffff2 	bcs	26244 <__adddf3+0x11c>
   26278:	e3310000 	teq	r1, #0
   2627c:	13a03014 	movne	r3, #20
   26280:	03a03034 	moveq	r3, #52	; 0x34
   26284:	01a01000 	moveq	r1, r0
   26288:	03a00000 	moveq	r0, #0
   2628c:	e1a02001 	mov	r2, r1
   26290:	e3520801 	cmp	r2, #65536	; 0x10000
   26294:	21a02822 	lsrcs	r2, r2, #16
   26298:	22433010 	subcs	r3, r3, #16
   2629c:	e3520c01 	cmp	r2, #256	; 0x100
   262a0:	21a02422 	lsrcs	r2, r2, #8
   262a4:	22433008 	subcs	r3, r3, #8
   262a8:	e3520010 	cmp	r2, #16
   262ac:	21a02222 	lsrcs	r2, r2, #4
   262b0:	22433004 	subcs	r3, r3, #4
   262b4:	e3520004 	cmp	r2, #4
   262b8:	22433002 	subcs	r3, r3, #2
   262bc:	304330a2 	subcc	r3, r3, r2, lsr #1
   262c0:	e04331a2 	sub	r3, r3, r2, lsr #3
   262c4:	e2532020 	subs	r2, r3, #32
   262c8:	aa000007 	bge	262ec <__adddf3+0x1c4>
   262cc:	e292200c 	adds	r2, r2, #12
   262d0:	da000004 	ble	262e8 <__adddf3+0x1c0>
   262d4:	e282c014 	add	ip, r2, #20
   262d8:	e262200c 	rsb	r2, r2, #12
   262dc:	e1a00c11 	lsl	r0, r1, ip
   262e0:	e1a01231 	lsr	r1, r1, r2
   262e4:	ea000004 	b	262fc <__adddf3+0x1d4>
   262e8:	e2822014 	add	r2, r2, #20
   262ec:	d262c020 	rsble	ip, r2, #32
   262f0:	e1a01211 	lsl	r1, r1, r2
   262f4:	d1811c30 	orrle	r1, r1, r0, lsr ip
   262f8:	d1a00210 	lslle	r0, r0, r2
   262fc:	e0544003 	subs	r4, r4, r3
   26300:	a0811a04 	addge	r1, r1, r4, lsl #20
   26304:	a1811005 	orrge	r1, r1, r5
   26308:	a8bd4030 	popge	{r4, r5, lr}
   2630c:	a12fff1e 	bxge	lr
   26310:	e1e04004 	mvn	r4, r4
   26314:	e254401f 	subs	r4, r4, #31
   26318:	aa00000f 	bge	2635c <__adddf3+0x234>
   2631c:	e294400c 	adds	r4, r4, #12
   26320:	ca000006 	bgt	26340 <__adddf3+0x218>
   26324:	e2844014 	add	r4, r4, #20
   26328:	e2642020 	rsb	r2, r4, #32
   2632c:	e1a00430 	lsr	r0, r0, r4
   26330:	e1800211 	orr	r0, r0, r1, lsl r2
   26334:	e1851431 	orr	r1, r5, r1, lsr r4
   26338:	e8bd4030 	pop	{r4, r5, lr}
   2633c:	e12fff1e 	bx	lr
   26340:	e264400c 	rsb	r4, r4, #12
   26344:	e2642020 	rsb	r2, r4, #32
   26348:	e1a00230 	lsr	r0, r0, r2
   2634c:	e1800411 	orr	r0, r0, r1, lsl r4
   26350:	e1a01005 	mov	r1, r5
   26354:	e8bd4030 	pop	{r4, r5, lr}
   26358:	e12fff1e 	bx	lr
   2635c:	e1a00431 	lsr	r0, r1, r4
   26360:	e1a01005 	mov	r1, r5
   26364:	e8bd4030 	pop	{r4, r5, lr}
   26368:	e12fff1e 	bx	lr
   2636c:	e3340000 	teq	r4, #0
   26370:	e2233601 	eor	r3, r3, #1048576	; 0x100000
   26374:	02211601 	eoreq	r1, r1, #1048576	; 0x100000
   26378:	02844001 	addeq	r4, r4, #1
   2637c:	12455001 	subne	r5, r5, #1
   26380:	eaffff8f 	b	261c4 <__adddf3+0x9c>
   26384:	e1f0cac4 	mvns	ip, r4, asr #21
   26388:	11f0cac5 	mvnsne	ip, r5, asr #21
   2638c:	0a00001d 	beq	26408 <__adddf3+0x2e0>
   26390:	e1340005 	teq	r4, r5
   26394:	01300002 	teqeq	r0, r2
   26398:	0a000004 	beq	263b0 <__adddf3+0x288>
   2639c:	e194c000 	orrs	ip, r4, r0
   263a0:	01a01003 	moveq	r1, r3
   263a4:	01a00002 	moveq	r0, r2
   263a8:	e8bd4030 	pop	{r4, r5, lr}
   263ac:	e12fff1e 	bx	lr
   263b0:	e1310003 	teq	r1, r3
   263b4:	13a01000 	movne	r1, #0
   263b8:	13a00000 	movne	r0, #0
   263bc:	18bd4030 	popne	{r4, r5, lr}
   263c0:	112fff1e 	bxne	lr
   263c4:	e1b0caa4 	lsrs	ip, r4, #21
   263c8:	1a000004 	bne	263e0 <__adddf3+0x2b8>
   263cc:	e1b00080 	lsls	r0, r0, #1
   263d0:	e0b11001 	adcs	r1, r1, r1
   263d4:	23811102 	orrcs	r1, r1, #-2147483648	; 0x80000000
   263d8:	e8bd4030 	pop	{r4, r5, lr}
   263dc:	e12fff1e 	bx	lr
   263e0:	e2944501 	adds	r4, r4, #4194304	; 0x400000
   263e4:	32811601 	addcc	r1, r1, #1048576	; 0x100000
   263e8:	38bd4030 	popcc	{r4, r5, lr}
   263ec:	312fff1e 	bxcc	lr
   263f0:	e2015102 	and	r5, r1, #-2147483648	; 0x80000000
   263f4:	e385147f 	orr	r1, r5, #2130706432	; 0x7f000000
   263f8:	e381160f 	orr	r1, r1, #15728640	; 0xf00000
   263fc:	e3a00000 	mov	r0, #0
   26400:	e8bd4030 	pop	{r4, r5, lr}
   26404:	e12fff1e 	bx	lr
   26408:	e1f0cac4 	mvns	ip, r4, asr #21
   2640c:	11a01003 	movne	r1, r3
   26410:	11a00002 	movne	r0, r2
   26414:	01f0cac5 	mvnseq	ip, r5, asr #21
   26418:	11a03001 	movne	r3, r1
   2641c:	11a02000 	movne	r2, r0
   26420:	e1904601 	orrs	r4, r0, r1, lsl #12
   26424:	01925603 	orrseq	r5, r2, r3, lsl #12
   26428:	01310003 	teqeq	r1, r3
   2642c:	13811702 	orrne	r1, r1, #524288	; 0x80000
   26430:	e8bd4030 	pop	{r4, r5, lr}
   26434:	e12fff1e 	bx	lr

00026438 <__aeabi_ui2d>:
   26438:	e3300000 	teq	r0, #0
   2643c:	03a01000 	moveq	r1, #0
   26440:	012fff1e 	bxeq	lr
   26444:	e92d4030 	push	{r4, r5, lr}
   26448:	e3a04b01 	mov	r4, #1024	; 0x400
   2644c:	e2844032 	add	r4, r4, #50	; 0x32
   26450:	e3a05000 	mov	r5, #0
   26454:	e3a01000 	mov	r1, #0
   26458:	eaffff86 	b	26278 <__adddf3+0x150>

0002645c <__aeabi_i2d>:
   2645c:	e3300000 	teq	r0, #0
   26460:	03a01000 	moveq	r1, #0
   26464:	012fff1e 	bxeq	lr
   26468:	e92d4030 	push	{r4, r5, lr}
   2646c:	e3a04b01 	mov	r4, #1024	; 0x400
   26470:	e2844032 	add	r4, r4, #50	; 0x32
   26474:	e2105102 	ands	r5, r0, #-2147483648	; 0x80000000
   26478:	42600000 	rsbmi	r0, r0, #0
   2647c:	e3a01000 	mov	r1, #0
   26480:	eaffff7c 	b	26278 <__adddf3+0x150>

00026484 <__aeabi_f2d>:
   26484:	e1b02080 	lsls	r2, r0, #1
   26488:	e1a011c2 	asr	r1, r2, #3
   2648c:	e1a01061 	rrx	r1, r1
   26490:	e1a00e02 	lsl	r0, r2, #28
   26494:	121234ff 	andsne	r3, r2, #-16777216	; 0xff000000
   26498:	133304ff 	teqne	r3, #-16777216	; 0xff000000
   2649c:	1221130e 	eorne	r1, r1, #939524096	; 0x38000000
   264a0:	112fff1e 	bxne	lr
   264a4:	e3d224ff 	bics	r2, r2, #-16777216	; 0xff000000
   264a8:	012fff1e 	bxeq	lr
   264ac:	e33304ff 	teq	r3, #-16777216	; 0xff000000
   264b0:	03811702 	orreq	r1, r1, #524288	; 0x80000
   264b4:	012fff1e 	bxeq	lr
   264b8:	e92d4030 	push	{r4, r5, lr}
   264bc:	e3a04d0e 	mov	r4, #896	; 0x380
   264c0:	e2015102 	and	r5, r1, #-2147483648	; 0x80000000
   264c4:	e3c11102 	bic	r1, r1, #-2147483648	; 0x80000000
   264c8:	eaffff6a 	b	26278 <__adddf3+0x150>

000264cc <__aeabi_ul2d>:
   264cc:	e1902001 	orrs	r2, r0, r1
   264d0:	012fff1e 	bxeq	lr
   264d4:	e92d4030 	push	{r4, r5, lr}
   264d8:	e3a05000 	mov	r5, #0
   264dc:	ea000006 	b	264fc <__aeabi_l2d+0x1c>

000264e0 <__aeabi_l2d>:
   264e0:	e1902001 	orrs	r2, r0, r1
   264e4:	012fff1e 	bxeq	lr
   264e8:	e92d4030 	push	{r4, r5, lr}
   264ec:	e2115102 	ands	r5, r1, #-2147483648	; 0x80000000
   264f0:	5a000001 	bpl	264fc <__aeabi_l2d+0x1c>
   264f4:	e2700000 	rsbs	r0, r0, #0
   264f8:	e2e11000 	rsc	r1, r1, #0
   264fc:	e3a04b01 	mov	r4, #1024	; 0x400
   26500:	e2844032 	add	r4, r4, #50	; 0x32
   26504:	e1b0cb21 	lsrs	ip, r1, #22
   26508:	0affff42 	beq	26218 <__adddf3+0xf0>
   2650c:	e3a02003 	mov	r2, #3
   26510:	e1b0c1ac 	lsrs	ip, ip, #3
   26514:	12822003 	addne	r2, r2, #3
   26518:	e1b0c1ac 	lsrs	ip, ip, #3
   2651c:	12822003 	addne	r2, r2, #3
   26520:	e08221ac 	add	r2, r2, ip, lsr #3
   26524:	e2623020 	rsb	r3, r2, #32
   26528:	e1a0c310 	lsl	ip, r0, r3
   2652c:	e1a00230 	lsr	r0, r0, r2
   26530:	e1800311 	orr	r0, r0, r1, lsl r3
   26534:	e1a01231 	lsr	r1, r1, r2
   26538:	e0844002 	add	r4, r4, r2
   2653c:	eaffff35 	b	26218 <__adddf3+0xf0>

00026540 <__aeabi_dmul>:
   26540:	e92d4070 	push	{r4, r5, r6, lr}
   26544:	e3a0c0ff 	mov	ip, #255	; 0xff
   26548:	e38ccc07 	orr	ip, ip, #1792	; 0x700
   2654c:	e01c4a21 	ands	r4, ip, r1, lsr #20
   26550:	101c5a23 	andsne	r5, ip, r3, lsr #20
   26554:	1134000c 	teqne	r4, ip
   26558:	1135000c 	teqne	r5, ip
   2655c:	0b000075 	bleq	26738 <__aeabi_dmul+0x1f8>
   26560:	e0844005 	add	r4, r4, r5
   26564:	e0216003 	eor	r6, r1, r3
   26568:	e1c11a8c 	bic	r1, r1, ip, lsl #21
   2656c:	e1c33a8c 	bic	r3, r3, ip, lsl #21
   26570:	e1905601 	orrs	r5, r0, r1, lsl #12
   26574:	11925603 	orrsne	r5, r2, r3, lsl #12
   26578:	e3811601 	orr	r1, r1, #1048576	; 0x100000
   2657c:	e3833601 	orr	r3, r3, #1048576	; 0x100000
   26580:	0a00001d 	beq	265fc <__aeabi_dmul+0xbc>
   26584:	e08ec290 	umull	ip, lr, r0, r2
   26588:	e3a05000 	mov	r5, #0
   2658c:	e0a5e291 	umlal	lr, r5, r1, r2
   26590:	e2062102 	and	r2, r6, #-2147483648	; 0x80000000
   26594:	e0a5e390 	umlal	lr, r5, r0, r3
   26598:	e3a06000 	mov	r6, #0
   2659c:	e0a65391 	umlal	r5, r6, r1, r3
   265a0:	e33c0000 	teq	ip, #0
   265a4:	138ee001 	orrne	lr, lr, #1
   265a8:	e24440ff 	sub	r4, r4, #255	; 0xff
   265ac:	e3560c02 	cmp	r6, #512	; 0x200
   265b0:	e2c44c03 	sbc	r4, r4, #768	; 0x300
   265b4:	2a000002 	bcs	265c4 <__aeabi_dmul+0x84>
   265b8:	e1b0e08e 	lsls	lr, lr, #1
   265bc:	e0b55005 	adcs	r5, r5, r5
   265c0:	e0a66006 	adc	r6, r6, r6
   265c4:	e1821586 	orr	r1, r2, r6, lsl #11
   265c8:	e1811aa5 	orr	r1, r1, r5, lsr #21
   265cc:	e1a00585 	lsl	r0, r5, #11
   265d0:	e1800aae 	orr	r0, r0, lr, lsr #21
   265d4:	e1a0e58e 	lsl	lr, lr, #11
   265d8:	e254c0fd 	subs	ip, r4, #253	; 0xfd
   265dc:	835c0c07 	cmphi	ip, #1792	; 0x700
   265e0:	8a000011 	bhi	2662c <__aeabi_dmul+0xec>
   265e4:	e35e0102 	cmp	lr, #-2147483648	; 0x80000000
   265e8:	01b0e0a0 	lsrseq	lr, r0, #1
   265ec:	e2b00000 	adcs	r0, r0, #0
   265f0:	e0a11a04 	adc	r1, r1, r4, lsl #20
   265f4:	e8bd4070 	pop	{r4, r5, r6, lr}
   265f8:	e12fff1e 	bx	lr
   265fc:	e2066102 	and	r6, r6, #-2147483648	; 0x80000000
   26600:	e1861001 	orr	r1, r6, r1
   26604:	e1800002 	orr	r0, r0, r2
   26608:	e0211003 	eor	r1, r1, r3
   2660c:	e05440ac 	subs	r4, r4, ip, lsr #1
   26610:	c074500c 	rsbsgt	r5, r4, ip
   26614:	c1811a04 	orrgt	r1, r1, r4, lsl #20
   26618:	c8bd4070 	popgt	{r4, r5, r6, lr}
   2661c:	c12fff1e 	bxgt	lr
   26620:	e3811601 	orr	r1, r1, #1048576	; 0x100000
   26624:	e3a0e000 	mov	lr, #0
   26628:	e2544001 	subs	r4, r4, #1
   2662c:	ca00005d 	bgt	267a8 <__aeabi_dmul+0x268>
   26630:	e3740036 	cmn	r4, #54	; 0x36
   26634:	d3a00000 	movle	r0, #0
   26638:	d2011102 	andle	r1, r1, #-2147483648	; 0x80000000
   2663c:	d8bd4070 	pople	{r4, r5, r6, lr}
   26640:	d12fff1e 	bxle	lr
   26644:	e2644000 	rsb	r4, r4, #0
   26648:	e2544020 	subs	r4, r4, #32
   2664c:	aa00001a 	bge	266bc <__aeabi_dmul+0x17c>
   26650:	e294400c 	adds	r4, r4, #12
   26654:	ca00000c 	bgt	2668c <__aeabi_dmul+0x14c>
   26658:	e2844014 	add	r4, r4, #20
   2665c:	e2645020 	rsb	r5, r4, #32
   26660:	e1a03510 	lsl	r3, r0, r5
   26664:	e1a00430 	lsr	r0, r0, r4
   26668:	e1800511 	orr	r0, r0, r1, lsl r5
   2666c:	e2012102 	and	r2, r1, #-2147483648	; 0x80000000
   26670:	e3c11102 	bic	r1, r1, #-2147483648	; 0x80000000
   26674:	e0900fa3 	adds	r0, r0, r3, lsr #31
   26678:	e0a21431 	adc	r1, r2, r1, lsr r4
   2667c:	e19ee083 	orrs	lr, lr, r3, lsl #1
   26680:	01c00fa3 	biceq	r0, r0, r3, lsr #31
   26684:	e8bd4070 	pop	{r4, r5, r6, lr}
   26688:	e12fff1e 	bx	lr
   2668c:	e264400c 	rsb	r4, r4, #12
   26690:	e2645020 	rsb	r5, r4, #32
   26694:	e1a03410 	lsl	r3, r0, r4
   26698:	e1a00530 	lsr	r0, r0, r5
   2669c:	e1800411 	orr	r0, r0, r1, lsl r4
   266a0:	e2011102 	and	r1, r1, #-2147483648	; 0x80000000
   266a4:	e0900fa3 	adds	r0, r0, r3, lsr #31
   266a8:	e2a11000 	adc	r1, r1, #0
   266ac:	e19ee083 	orrs	lr, lr, r3, lsl #1
   266b0:	01c00fa3 	biceq	r0, r0, r3, lsr #31
   266b4:	e8bd4070 	pop	{r4, r5, r6, lr}
   266b8:	e12fff1e 	bx	lr
   266bc:	e2645020 	rsb	r5, r4, #32
   266c0:	e18ee510 	orr	lr, lr, r0, lsl r5
   266c4:	e1a03430 	lsr	r3, r0, r4
   266c8:	e1833511 	orr	r3, r3, r1, lsl r5
   266cc:	e1a00431 	lsr	r0, r1, r4
   266d0:	e2011102 	and	r1, r1, #-2147483648	; 0x80000000
   266d4:	e1c00431 	bic	r0, r0, r1, lsr r4
   266d8:	e0800fa3 	add	r0, r0, r3, lsr #31
   266dc:	e19ee083 	orrs	lr, lr, r3, lsl #1
   266e0:	01c00fa3 	biceq	r0, r0, r3, lsr #31
   266e4:	e8bd4070 	pop	{r4, r5, r6, lr}
   266e8:	e12fff1e 	bx	lr
   266ec:	e3340000 	teq	r4, #0
   266f0:	1a000008 	bne	26718 <__aeabi_dmul+0x1d8>
   266f4:	e2016102 	and	r6, r1, #-2147483648	; 0x80000000
   266f8:	e1b00080 	lsls	r0, r0, #1
   266fc:	e0a11001 	adc	r1, r1, r1
   26700:	e3110601 	tst	r1, #1048576	; 0x100000
   26704:	02444001 	subeq	r4, r4, #1
   26708:	0afffffa 	beq	266f8 <__aeabi_dmul+0x1b8>
   2670c:	e1811006 	orr	r1, r1, r6
   26710:	e3350000 	teq	r5, #0
   26714:	112fff1e 	bxne	lr
   26718:	e2036102 	and	r6, r3, #-2147483648	; 0x80000000
   2671c:	e1b02082 	lsls	r2, r2, #1
   26720:	e0a33003 	adc	r3, r3, r3
   26724:	e3130601 	tst	r3, #1048576	; 0x100000
   26728:	02455001 	subeq	r5, r5, #1
   2672c:	0afffffa 	beq	2671c <__aeabi_dmul+0x1dc>
   26730:	e1833006 	orr	r3, r3, r6
   26734:	e12fff1e 	bx	lr
   26738:	e134000c 	teq	r4, ip
   2673c:	e00c5a23 	and	r5, ip, r3, lsr #20
   26740:	1135000c 	teqne	r5, ip
   26744:	0a000007 	beq	26768 <__aeabi_dmul+0x228>
   26748:	e1906081 	orrs	r6, r0, r1, lsl #1
   2674c:	11926083 	orrsne	r6, r2, r3, lsl #1
   26750:	1affffe5 	bne	266ec <__aeabi_dmul+0x1ac>
   26754:	e0211003 	eor	r1, r1, r3
   26758:	e2011102 	and	r1, r1, #-2147483648	; 0x80000000
   2675c:	e3a00000 	mov	r0, #0
   26760:	e8bd4070 	pop	{r4, r5, r6, lr}
   26764:	e12fff1e 	bx	lr
   26768:	e1906081 	orrs	r6, r0, r1, lsl #1
   2676c:	01a00002 	moveq	r0, r2
   26770:	01a01003 	moveq	r1, r3
   26774:	11926083 	orrsne	r6, r2, r3, lsl #1
   26778:	0a000010 	beq	267c0 <__aeabi_dmul+0x280>
   2677c:	e134000c 	teq	r4, ip
   26780:	1a000001 	bne	2678c <__aeabi_dmul+0x24c>
   26784:	e1906601 	orrs	r6, r0, r1, lsl #12
   26788:	1a00000c 	bne	267c0 <__aeabi_dmul+0x280>
   2678c:	e135000c 	teq	r5, ip
   26790:	1a000003 	bne	267a4 <__aeabi_dmul+0x264>
   26794:	e1926603 	orrs	r6, r2, r3, lsl #12
   26798:	11a00002 	movne	r0, r2
   2679c:	11a01003 	movne	r1, r3
   267a0:	1a000006 	bne	267c0 <__aeabi_dmul+0x280>
   267a4:	e0211003 	eor	r1, r1, r3
   267a8:	e2011102 	and	r1, r1, #-2147483648	; 0x80000000
   267ac:	e381147f 	orr	r1, r1, #2130706432	; 0x7f000000
   267b0:	e381160f 	orr	r1, r1, #15728640	; 0xf00000
   267b4:	e3a00000 	mov	r0, #0
   267b8:	e8bd4070 	pop	{r4, r5, r6, lr}
   267bc:	e12fff1e 	bx	lr
   267c0:	e381147f 	orr	r1, r1, #2130706432	; 0x7f000000
   267c4:	e381173e 	orr	r1, r1, #16252928	; 0xf80000
   267c8:	e8bd4070 	pop	{r4, r5, r6, lr}
   267cc:	e12fff1e 	bx	lr

000267d0 <__aeabi_ddiv>:
   267d0:	e92d4070 	push	{r4, r5, r6, lr}
   267d4:	e3a0c0ff 	mov	ip, #255	; 0xff
   267d8:	e38ccc07 	orr	ip, ip, #1792	; 0x700
   267dc:	e01c4a21 	ands	r4, ip, r1, lsr #20
   267e0:	101c5a23 	andsne	r5, ip, r3, lsr #20
   267e4:	1134000c 	teqne	r4, ip
   267e8:	1135000c 	teqne	r5, ip
   267ec:	0b00005e 	bleq	2696c <__aeabi_ddiv+0x19c>
   267f0:	e0444005 	sub	r4, r4, r5
   267f4:	e021e003 	eor	lr, r1, r3
   267f8:	e1925603 	orrs	r5, r2, r3, lsl #12
   267fc:	e1a01601 	lsl	r1, r1, #12
   26800:	0a00004c 	beq	26938 <__aeabi_ddiv+0x168>
   26804:	e1a03603 	lsl	r3, r3, #12
   26808:	e3a05201 	mov	r5, #268435456	; 0x10000000
   2680c:	e1853223 	orr	r3, r5, r3, lsr #4
   26810:	e1833c22 	orr	r3, r3, r2, lsr #24
   26814:	e1a02402 	lsl	r2, r2, #8
   26818:	e1855221 	orr	r5, r5, r1, lsr #4
   2681c:	e1855c20 	orr	r5, r5, r0, lsr #24
   26820:	e1a06400 	lsl	r6, r0, #8
   26824:	e20e1102 	and	r1, lr, #-2147483648	; 0x80000000
   26828:	e1550003 	cmp	r5, r3
   2682c:	01560002 	cmpeq	r6, r2
   26830:	e2a440fd 	adc	r4, r4, #253	; 0xfd
   26834:	e2844c03 	add	r4, r4, #768	; 0x300
   26838:	2a000001 	bcs	26844 <__aeabi_ddiv+0x74>
   2683c:	e1b030a3 	lsrs	r3, r3, #1
   26840:	e1a02062 	rrx	r2, r2
   26844:	e0566002 	subs	r6, r6, r2
   26848:	e0c55003 	sbc	r5, r5, r3
   2684c:	e1b030a3 	lsrs	r3, r3, #1
   26850:	e1a02062 	rrx	r2, r2
   26854:	e3a00601 	mov	r0, #1048576	; 0x100000
   26858:	e3a0c702 	mov	ip, #524288	; 0x80000
   2685c:	e056e002 	subs	lr, r6, r2
   26860:	e0d5e003 	sbcs	lr, r5, r3
   26864:	20466002 	subcs	r6, r6, r2
   26868:	21a0500e 	movcs	r5, lr
   2686c:	2180000c 	orrcs	r0, r0, ip
   26870:	e1b030a3 	lsrs	r3, r3, #1
   26874:	e1a02062 	rrx	r2, r2
   26878:	e056e002 	subs	lr, r6, r2
   2687c:	e0d5e003 	sbcs	lr, r5, r3
   26880:	20466002 	subcs	r6, r6, r2
   26884:	21a0500e 	movcs	r5, lr
   26888:	218000ac 	orrcs	r0, r0, ip, lsr #1
   2688c:	e1b030a3 	lsrs	r3, r3, #1
   26890:	e1a02062 	rrx	r2, r2
   26894:	e056e002 	subs	lr, r6, r2
   26898:	e0d5e003 	sbcs	lr, r5, r3
   2689c:	20466002 	subcs	r6, r6, r2
   268a0:	21a0500e 	movcs	r5, lr
   268a4:	2180012c 	orrcs	r0, r0, ip, lsr #2
   268a8:	e1b030a3 	lsrs	r3, r3, #1
   268ac:	e1a02062 	rrx	r2, r2
   268b0:	e056e002 	subs	lr, r6, r2
   268b4:	e0d5e003 	sbcs	lr, r5, r3
   268b8:	20466002 	subcs	r6, r6, r2
   268bc:	21a0500e 	movcs	r5, lr
   268c0:	218001ac 	orrcs	r0, r0, ip, lsr #3
   268c4:	e195e006 	orrs	lr, r5, r6
   268c8:	0a00000d 	beq	26904 <__aeabi_ddiv+0x134>
   268cc:	e1a05205 	lsl	r5, r5, #4
   268d0:	e1855e26 	orr	r5, r5, r6, lsr #28
   268d4:	e1a06206 	lsl	r6, r6, #4
   268d8:	e1a03183 	lsl	r3, r3, #3
   268dc:	e1833ea2 	orr	r3, r3, r2, lsr #29
   268e0:	e1a02182 	lsl	r2, r2, #3
   268e4:	e1b0c22c 	lsrs	ip, ip, #4
   268e8:	1affffdb 	bne	2685c <__aeabi_ddiv+0x8c>
   268ec:	e3110601 	tst	r1, #1048576	; 0x100000
   268f0:	1a000006 	bne	26910 <__aeabi_ddiv+0x140>
   268f4:	e1811000 	orr	r1, r1, r0
   268f8:	e3a00000 	mov	r0, #0
   268fc:	e3a0c102 	mov	ip, #-2147483648	; 0x80000000
   26900:	eaffffd5 	b	2685c <__aeabi_ddiv+0x8c>
   26904:	e3110601 	tst	r1, #1048576	; 0x100000
   26908:	01811000 	orreq	r1, r1, r0
   2690c:	03a00000 	moveq	r0, #0
   26910:	e254c0fd 	subs	ip, r4, #253	; 0xfd
   26914:	835c0c07 	cmphi	ip, #1792	; 0x700
   26918:	8affff43 	bhi	2662c <__aeabi_dmul+0xec>
   2691c:	e055c003 	subs	ip, r5, r3
   26920:	0056c002 	subseq	ip, r6, r2
   26924:	01b0c0a0 	lsrseq	ip, r0, #1
   26928:	e2b00000 	adcs	r0, r0, #0
   2692c:	e0a11a04 	adc	r1, r1, r4, lsl #20
   26930:	e8bd4070 	pop	{r4, r5, r6, lr}
   26934:	e12fff1e 	bx	lr
   26938:	e20ee102 	and	lr, lr, #-2147483648	; 0x80000000
   2693c:	e18e1621 	orr	r1, lr, r1, lsr #12
   26940:	e09440ac 	adds	r4, r4, ip, lsr #1
   26944:	c074500c 	rsbsgt	r5, r4, ip
   26948:	c1811a04 	orrgt	r1, r1, r4, lsl #20
   2694c:	c8bd4070 	popgt	{r4, r5, r6, lr}
   26950:	c12fff1e 	bxgt	lr
   26954:	e3811601 	orr	r1, r1, #1048576	; 0x100000
   26958:	e3a0e000 	mov	lr, #0
   2695c:	e2544001 	subs	r4, r4, #1
   26960:	eaffff31 	b	2662c <__aeabi_dmul+0xec>
   26964:	e185e006 	orr	lr, r5, r6
   26968:	eaffff2f 	b	2662c <__aeabi_dmul+0xec>
   2696c:	e00c5a23 	and	r5, ip, r3, lsr #20
   26970:	e134000c 	teq	r4, ip
   26974:	0135000c 	teqeq	r5, ip
   26978:	0affff90 	beq	267c0 <__aeabi_dmul+0x280>
   2697c:	e134000c 	teq	r4, ip
   26980:	1a000006 	bne	269a0 <__aeabi_ddiv+0x1d0>
   26984:	e1904601 	orrs	r4, r0, r1, lsl #12
   26988:	1affff8c 	bne	267c0 <__aeabi_dmul+0x280>
   2698c:	e135000c 	teq	r5, ip
   26990:	1affff83 	bne	267a4 <__aeabi_dmul+0x264>
   26994:	e1a00002 	mov	r0, r2
   26998:	e1a01003 	mov	r1, r3
   2699c:	eaffff87 	b	267c0 <__aeabi_dmul+0x280>
   269a0:	e135000c 	teq	r5, ip
   269a4:	1a000004 	bne	269bc <__aeabi_ddiv+0x1ec>
   269a8:	e1925603 	orrs	r5, r2, r3, lsl #12
   269ac:	0affff68 	beq	26754 <__aeabi_dmul+0x214>
   269b0:	e1a00002 	mov	r0, r2
   269b4:	e1a01003 	mov	r1, r3
   269b8:	eaffff80 	b	267c0 <__aeabi_dmul+0x280>
   269bc:	e1906081 	orrs	r6, r0, r1, lsl #1
   269c0:	11926083 	orrsne	r6, r2, r3, lsl #1
   269c4:	1affff48 	bne	266ec <__aeabi_dmul+0x1ac>
   269c8:	e1904081 	orrs	r4, r0, r1, lsl #1
   269cc:	1affff74 	bne	267a4 <__aeabi_dmul+0x264>
   269d0:	e1925083 	orrs	r5, r2, r3, lsl #1
   269d4:	1affff5e 	bne	26754 <__aeabi_dmul+0x214>
   269d8:	eaffff78 	b	267c0 <__aeabi_dmul+0x280>

000269dc <__gedf2>:
   269dc:	e3e0c000 	mvn	ip, #0
   269e0:	ea000002 	b	269f0 <__cmpdf2+0x4>

000269e4 <__ledf2>:
   269e4:	e3a0c001 	mov	ip, #1
   269e8:	ea000000 	b	269f0 <__cmpdf2+0x4>

000269ec <__cmpdf2>:
   269ec:	e3a0c001 	mov	ip, #1
   269f0:	e52dc004 	push	{ip}		; (str ip, [sp, #-4]!)
   269f4:	e1a0c081 	lsl	ip, r1, #1
   269f8:	e1f0cacc 	mvns	ip, ip, asr #21
   269fc:	e1a0c083 	lsl	ip, r3, #1
   26a00:	11f0cacc 	mvnsne	ip, ip, asr #21
   26a04:	0a00000e 	beq	26a44 <__cmpdf2+0x58>
   26a08:	e28dd004 	add	sp, sp, #4
   26a0c:	e190c081 	orrs	ip, r0, r1, lsl #1
   26a10:	0192c083 	orrseq	ip, r2, r3, lsl #1
   26a14:	11310003 	teqne	r1, r3
   26a18:	01300002 	teqeq	r0, r2
   26a1c:	03a00000 	moveq	r0, #0
   26a20:	012fff1e 	bxeq	lr
   26a24:	e3700000 	cmn	r0, #0
   26a28:	e1310003 	teq	r1, r3
   26a2c:	51510003 	cmppl	r1, r3
   26a30:	01500002 	cmpeq	r0, r2
   26a34:	21a00fc3 	asrcs	r0, r3, #31
   26a38:	31e00fc3 	mvncc	r0, r3, asr #31
   26a3c:	e3800001 	orr	r0, r0, #1
   26a40:	e12fff1e 	bx	lr
   26a44:	e1a0c081 	lsl	ip, r1, #1
   26a48:	e1f0cacc 	mvns	ip, ip, asr #21
   26a4c:	1a000001 	bne	26a58 <__cmpdf2+0x6c>
   26a50:	e190c601 	orrs	ip, r0, r1, lsl #12
   26a54:	1a000004 	bne	26a6c <__cmpdf2+0x80>
   26a58:	e1a0c083 	lsl	ip, r3, #1
   26a5c:	e1f0cacc 	mvns	ip, ip, asr #21
   26a60:	1affffe8 	bne	26a08 <__cmpdf2+0x1c>
   26a64:	e192c603 	orrs	ip, r2, r3, lsl #12
   26a68:	0affffe6 	beq	26a08 <__cmpdf2+0x1c>
   26a6c:	e49d0004 	pop	{r0}		; (ldr r0, [sp], #4)
   26a70:	e12fff1e 	bx	lr

00026a74 <__aeabi_cdrcmple>:
   26a74:	e1a0c000 	mov	ip, r0
   26a78:	e1a00002 	mov	r0, r2
   26a7c:	e1a0200c 	mov	r2, ip
   26a80:	e1a0c001 	mov	ip, r1
   26a84:	e1a01003 	mov	r1, r3
   26a88:	e1a0300c 	mov	r3, ip
   26a8c:	eaffffff 	b	26a90 <__aeabi_cdcmpeq>

00026a90 <__aeabi_cdcmpeq>:
   26a90:	e92d4001 	push	{r0, lr}
   26a94:	ebffffd4 	bl	269ec <__cmpdf2>
   26a98:	e3500000 	cmp	r0, #0
   26a9c:	43700000 	cmnmi	r0, #0
   26aa0:	e8bd4001 	pop	{r0, lr}
   26aa4:	e12fff1e 	bx	lr

00026aa8 <__aeabi_dcmpeq>:
   26aa8:	e52de008 	str	lr, [sp, #-8]!
   26aac:	ebfffff7 	bl	26a90 <__aeabi_cdcmpeq>
   26ab0:	03a00001 	moveq	r0, #1
   26ab4:	13a00000 	movne	r0, #0
   26ab8:	e49de008 	ldr	lr, [sp], #8
   26abc:	e12fff1e 	bx	lr

00026ac0 <__aeabi_dcmplt>:
   26ac0:	e52de008 	str	lr, [sp, #-8]!
   26ac4:	ebfffff1 	bl	26a90 <__aeabi_cdcmpeq>
   26ac8:	33a00001 	movcc	r0, #1
   26acc:	23a00000 	movcs	r0, #0
   26ad0:	e49de008 	ldr	lr, [sp], #8
   26ad4:	e12fff1e 	bx	lr

00026ad8 <__aeabi_dcmple>:
   26ad8:	e52de008 	str	lr, [sp, #-8]!
   26adc:	ebffffeb 	bl	26a90 <__aeabi_cdcmpeq>
   26ae0:	93a00001 	movls	r0, #1
   26ae4:	83a00000 	movhi	r0, #0
   26ae8:	e49de008 	ldr	lr, [sp], #8
   26aec:	e12fff1e 	bx	lr

00026af0 <__aeabi_dcmpge>:
   26af0:	e52de008 	str	lr, [sp, #-8]!
   26af4:	ebffffde 	bl	26a74 <__aeabi_cdrcmple>
   26af8:	93a00001 	movls	r0, #1
   26afc:	83a00000 	movhi	r0, #0
   26b00:	e49de008 	ldr	lr, [sp], #8
   26b04:	e12fff1e 	bx	lr

00026b08 <__aeabi_dcmpgt>:
   26b08:	e52de008 	str	lr, [sp, #-8]!
   26b0c:	ebffffd8 	bl	26a74 <__aeabi_cdrcmple>
   26b10:	33a00001 	movcc	r0, #1
   26b14:	23a00000 	movcs	r0, #0
   26b18:	e49de008 	ldr	lr, [sp], #8
   26b1c:	e12fff1e 	bx	lr

00026b20 <__aeabi_dcmpun>:
   26b20:	e1a0c081 	lsl	ip, r1, #1
   26b24:	e1f0cacc 	mvns	ip, ip, asr #21
   26b28:	1a000001 	bne	26b34 <__aeabi_dcmpun+0x14>
   26b2c:	e190c601 	orrs	ip, r0, r1, lsl #12
   26b30:	1a000006 	bne	26b50 <__aeabi_dcmpun+0x30>
   26b34:	e1a0c083 	lsl	ip, r3, #1
   26b38:	e1f0cacc 	mvns	ip, ip, asr #21
   26b3c:	1a000001 	bne	26b48 <__aeabi_dcmpun+0x28>
   26b40:	e192c603 	orrs	ip, r2, r3, lsl #12
   26b44:	1a000001 	bne	26b50 <__aeabi_dcmpun+0x30>
   26b48:	e3a00000 	mov	r0, #0
   26b4c:	e12fff1e 	bx	lr
   26b50:	e3a00001 	mov	r0, #1
   26b54:	e12fff1e 	bx	lr

00026b58 <__aeabi_d2iz>:
   26b58:	e1a02081 	lsl	r2, r1, #1
   26b5c:	e2922602 	adds	r2, r2, #2097152	; 0x200000
   26b60:	2a00000c 	bcs	26b98 <__aeabi_d2iz+0x40>
   26b64:	5a000009 	bpl	26b90 <__aeabi_d2iz+0x38>
   26b68:	e3e03e3e 	mvn	r3, #992	; 0x3e0
   26b6c:	e0532ac2 	subs	r2, r3, r2, asr #21
   26b70:	9a00000a 	bls	26ba0 <__aeabi_d2iz+0x48>
   26b74:	e1a03581 	lsl	r3, r1, #11
   26b78:	e3833102 	orr	r3, r3, #-2147483648	; 0x80000000
   26b7c:	e1833aa0 	orr	r3, r3, r0, lsr #21
   26b80:	e3110102 	tst	r1, #-2147483648	; 0x80000000
   26b84:	e1a00233 	lsr	r0, r3, r2
   26b88:	12600000 	rsbne	r0, r0, #0
   26b8c:	e12fff1e 	bx	lr
   26b90:	e3a00000 	mov	r0, #0
   26b94:	e12fff1e 	bx	lr
   26b98:	e1900601 	orrs	r0, r0, r1, lsl #12
   26b9c:	1a000002 	bne	26bac <__aeabi_d2iz+0x54>
   26ba0:	e2110102 	ands	r0, r1, #-2147483648	; 0x80000000
   26ba4:	03e00102 	mvneq	r0, #-2147483648	; 0x80000000
   26ba8:	e12fff1e 	bx	lr
   26bac:	e3a00000 	mov	r0, #0
   26bb0:	e12fff1e 	bx	lr

00026bb4 <__aeabi_uldivmod>:
   26bb4:	e3530000 	cmp	r3, #0
   26bb8:	03520000 	cmpeq	r2, #0
   26bbc:	1a000004 	bne	26bd4 <__aeabi_uldivmod+0x20>
   26bc0:	e3510000 	cmp	r1, #0
   26bc4:	03500000 	cmpeq	r0, #0
   26bc8:	13e01000 	mvnne	r1, #0
   26bcc:	13e00000 	mvnne	r0, #0
   26bd0:	ea003d77 	b	361b4 <____aeabi_ldiv0_from_arm>
   26bd4:	e24dd008 	sub	sp, sp, #8
   26bd8:	e92d6000 	push	{sp, lr}
   26bdc:	eb003d4d 	bl	36118 <____udivmoddi4_from_arm>
   26be0:	e59de004 	ldr	lr, [sp, #4]
   26be4:	e28dd008 	add	sp, sp, #8
   26be8:	e8bd000c 	pop	{r2, r3}
   26bec:	e12fff1e 	bx	lr

00026bf0 <__udivmoddi4>:
   26bf0:	b5f0      	push	{r4, r5, r6, r7, lr}
   26bf2:	4657      	mov	r7, sl
   26bf4:	464e      	mov	r6, r9
   26bf6:	4645      	mov	r5, r8
   26bf8:	46de      	mov	lr, fp
   26bfa:	b5e0      	push	{r5, r6, r7, lr}
   26bfc:	0004      	movs	r4, r0
   26bfe:	000d      	movs	r5, r1
   26c00:	4692      	mov	sl, r2
   26c02:	4699      	mov	r9, r3
   26c04:	b083      	sub	sp, #12
   26c06:	428b      	cmp	r3, r1
   26c08:	d830      	bhi.n	26c6c <__udivmoddi4+0x7c>
   26c0a:	d02d      	beq.n	26c68 <__udivmoddi4+0x78>
   26c0c:	4649      	mov	r1, r9
   26c0e:	4650      	mov	r0, sl
   26c10:	f00f fa98 	bl	36144 <____clzdi2_from_thumb>
   26c14:	0029      	movs	r1, r5
   26c16:	0006      	movs	r6, r0
   26c18:	0020      	movs	r0, r4
   26c1a:	f00f fa93 	bl	36144 <____clzdi2_from_thumb>
   26c1e:	1a33      	subs	r3, r6, r0
   26c20:	4698      	mov	r8, r3
   26c22:	3b20      	subs	r3, #32
   26c24:	469b      	mov	fp, r3
   26c26:	d435      	bmi.n	26c94 <__udivmoddi4+0xa4>
   26c28:	465a      	mov	r2, fp
   26c2a:	4653      	mov	r3, sl
   26c2c:	4093      	lsls	r3, r2
   26c2e:	4642      	mov	r2, r8
   26c30:	001f      	movs	r7, r3
   26c32:	4653      	mov	r3, sl
   26c34:	4093      	lsls	r3, r2
   26c36:	001e      	movs	r6, r3
   26c38:	42af      	cmp	r7, r5
   26c3a:	d83c      	bhi.n	26cb6 <__udivmoddi4+0xc6>
   26c3c:	42af      	cmp	r7, r5
   26c3e:	d100      	bne.n	26c42 <__udivmoddi4+0x52>
   26c40:	e07a      	b.n	26d38 <__udivmoddi4+0x148>
   26c42:	465b      	mov	r3, fp
   26c44:	1ba4      	subs	r4, r4, r6
   26c46:	41bd      	sbcs	r5, r7
   26c48:	2b00      	cmp	r3, #0
   26c4a:	da00      	bge.n	26c4e <__udivmoddi4+0x5e>
   26c4c:	e077      	b.n	26d3e <__udivmoddi4+0x14e>
   26c4e:	2200      	movs	r2, #0
   26c50:	2300      	movs	r3, #0
   26c52:	9200      	str	r2, [sp, #0]
   26c54:	9301      	str	r3, [sp, #4]
   26c56:	2301      	movs	r3, #1
   26c58:	465a      	mov	r2, fp
   26c5a:	4093      	lsls	r3, r2
   26c5c:	9301      	str	r3, [sp, #4]
   26c5e:	2301      	movs	r3, #1
   26c60:	4642      	mov	r2, r8
   26c62:	4093      	lsls	r3, r2
   26c64:	9300      	str	r3, [sp, #0]
   26c66:	e02a      	b.n	26cbe <__udivmoddi4+0xce>
   26c68:	4282      	cmp	r2, r0
   26c6a:	d9cf      	bls.n	26c0c <__udivmoddi4+0x1c>
   26c6c:	2200      	movs	r2, #0
   26c6e:	2300      	movs	r3, #0
   26c70:	9200      	str	r2, [sp, #0]
   26c72:	9301      	str	r3, [sp, #4]
   26c74:	9b0c      	ldr	r3, [sp, #48]	; 0x30
   26c76:	2b00      	cmp	r3, #0
   26c78:	d001      	beq.n	26c7e <__udivmoddi4+0x8e>
   26c7a:	601c      	str	r4, [r3, #0]
   26c7c:	605d      	str	r5, [r3, #4]
   26c7e:	9800      	ldr	r0, [sp, #0]
   26c80:	9901      	ldr	r1, [sp, #4]
   26c82:	b003      	add	sp, #12
   26c84:	bcf0      	pop	{r4, r5, r6, r7}
   26c86:	46bb      	mov	fp, r7
   26c88:	46b2      	mov	sl, r6
   26c8a:	46a9      	mov	r9, r5
   26c8c:	46a0      	mov	r8, r4
   26c8e:	bcf0      	pop	{r4, r5, r6, r7}
   26c90:	bc04      	pop	{r2}
   26c92:	4710      	bx	r2
   26c94:	4642      	mov	r2, r8
   26c96:	2320      	movs	r3, #32
   26c98:	1a9b      	subs	r3, r3, r2
   26c9a:	4652      	mov	r2, sl
   26c9c:	40da      	lsrs	r2, r3
   26c9e:	4641      	mov	r1, r8
   26ca0:	0013      	movs	r3, r2
   26ca2:	464a      	mov	r2, r9
   26ca4:	408a      	lsls	r2, r1
   26ca6:	0017      	movs	r7, r2
   26ca8:	4642      	mov	r2, r8
   26caa:	431f      	orrs	r7, r3
   26cac:	4653      	mov	r3, sl
   26cae:	4093      	lsls	r3, r2
   26cb0:	001e      	movs	r6, r3
   26cb2:	42af      	cmp	r7, r5
   26cb4:	d9c2      	bls.n	26c3c <__udivmoddi4+0x4c>
   26cb6:	2200      	movs	r2, #0
   26cb8:	2300      	movs	r3, #0
   26cba:	9200      	str	r2, [sp, #0]
   26cbc:	9301      	str	r3, [sp, #4]
   26cbe:	4643      	mov	r3, r8
   26cc0:	2b00      	cmp	r3, #0
   26cc2:	d0d7      	beq.n	26c74 <__udivmoddi4+0x84>
   26cc4:	07fb      	lsls	r3, r7, #31
   26cc6:	0872      	lsrs	r2, r6, #1
   26cc8:	431a      	orrs	r2, r3
   26cca:	4646      	mov	r6, r8
   26ccc:	087b      	lsrs	r3, r7, #1
   26cce:	e00e      	b.n	26cee <__udivmoddi4+0xfe>
   26cd0:	42ab      	cmp	r3, r5
   26cd2:	d101      	bne.n	26cd8 <__udivmoddi4+0xe8>
   26cd4:	42a2      	cmp	r2, r4
   26cd6:	d80c      	bhi.n	26cf2 <__udivmoddi4+0x102>
   26cd8:	1aa4      	subs	r4, r4, r2
   26cda:	419d      	sbcs	r5, r3
   26cdc:	2001      	movs	r0, #1
   26cde:	1924      	adds	r4, r4, r4
   26ce0:	416d      	adcs	r5, r5
   26ce2:	2100      	movs	r1, #0
   26ce4:	3e01      	subs	r6, #1
   26ce6:	1824      	adds	r4, r4, r0
   26ce8:	414d      	adcs	r5, r1
   26cea:	2e00      	cmp	r6, #0
   26cec:	d006      	beq.n	26cfc <__udivmoddi4+0x10c>
   26cee:	42ab      	cmp	r3, r5
   26cf0:	d9ee      	bls.n	26cd0 <__udivmoddi4+0xe0>
   26cf2:	3e01      	subs	r6, #1
   26cf4:	1924      	adds	r4, r4, r4
   26cf6:	416d      	adcs	r5, r5
   26cf8:	2e00      	cmp	r6, #0
   26cfa:	d1f8      	bne.n	26cee <__udivmoddi4+0xfe>
   26cfc:	465b      	mov	r3, fp
   26cfe:	9800      	ldr	r0, [sp, #0]
   26d00:	9901      	ldr	r1, [sp, #4]
   26d02:	1900      	adds	r0, r0, r4
   26d04:	4169      	adcs	r1, r5
   26d06:	2b00      	cmp	r3, #0
   26d08:	db24      	blt.n	26d54 <__udivmoddi4+0x164>
   26d0a:	002b      	movs	r3, r5
   26d0c:	465a      	mov	r2, fp
   26d0e:	4644      	mov	r4, r8
   26d10:	40d3      	lsrs	r3, r2
   26d12:	002a      	movs	r2, r5
   26d14:	40e2      	lsrs	r2, r4
   26d16:	001c      	movs	r4, r3
   26d18:	465b      	mov	r3, fp
   26d1a:	0015      	movs	r5, r2
   26d1c:	2b00      	cmp	r3, #0
   26d1e:	db2a      	blt.n	26d76 <__udivmoddi4+0x186>
   26d20:	0026      	movs	r6, r4
   26d22:	409e      	lsls	r6, r3
   26d24:	0033      	movs	r3, r6
   26d26:	0026      	movs	r6, r4
   26d28:	4647      	mov	r7, r8
   26d2a:	40be      	lsls	r6, r7
   26d2c:	0032      	movs	r2, r6
   26d2e:	1a80      	subs	r0, r0, r2
   26d30:	4199      	sbcs	r1, r3
   26d32:	9000      	str	r0, [sp, #0]
   26d34:	9101      	str	r1, [sp, #4]
   26d36:	e79d      	b.n	26c74 <__udivmoddi4+0x84>
   26d38:	42a3      	cmp	r3, r4
   26d3a:	d8bc      	bhi.n	26cb6 <__udivmoddi4+0xc6>
   26d3c:	e781      	b.n	26c42 <__udivmoddi4+0x52>
   26d3e:	4642      	mov	r2, r8
   26d40:	2320      	movs	r3, #32
   26d42:	2100      	movs	r1, #0
   26d44:	1a9b      	subs	r3, r3, r2
   26d46:	2200      	movs	r2, #0
   26d48:	9100      	str	r1, [sp, #0]
   26d4a:	9201      	str	r2, [sp, #4]
   26d4c:	2201      	movs	r2, #1
   26d4e:	40da      	lsrs	r2, r3
   26d50:	9201      	str	r2, [sp, #4]
   26d52:	e784      	b.n	26c5e <__udivmoddi4+0x6e>
   26d54:	4642      	mov	r2, r8
   26d56:	2320      	movs	r3, #32
   26d58:	1a9b      	subs	r3, r3, r2
   26d5a:	002a      	movs	r2, r5
   26d5c:	4646      	mov	r6, r8
   26d5e:	409a      	lsls	r2, r3
   26d60:	0023      	movs	r3, r4
   26d62:	40f3      	lsrs	r3, r6
   26d64:	4644      	mov	r4, r8
   26d66:	4313      	orrs	r3, r2
   26d68:	002a      	movs	r2, r5
   26d6a:	40e2      	lsrs	r2, r4
   26d6c:	001c      	movs	r4, r3
   26d6e:	465b      	mov	r3, fp
   26d70:	0015      	movs	r5, r2
   26d72:	2b00      	cmp	r3, #0
   26d74:	dad4      	bge.n	26d20 <__udivmoddi4+0x130>
   26d76:	4642      	mov	r2, r8
   26d78:	002f      	movs	r7, r5
   26d7a:	2320      	movs	r3, #32
   26d7c:	0026      	movs	r6, r4
   26d7e:	4097      	lsls	r7, r2
   26d80:	1a9b      	subs	r3, r3, r2
   26d82:	40de      	lsrs	r6, r3
   26d84:	003b      	movs	r3, r7
   26d86:	4333      	orrs	r3, r6
   26d88:	e7cd      	b.n	26d26 <__udivmoddi4+0x136>
   26d8a:	46c0      	nop			; (mov r8, r8)

00026d8c <__aeabi_idiv0>:
   26d8c:	4770      	bx	lr
   26d8e:	46c0      	nop			; (mov r8, r8)

00026d90 <__clzdi2>:
   26d90:	e92d4010 	push	{r4, lr}
   26d94:	e3510000 	cmp	r1, #0
   26d98:	1a000002 	bne	26da8 <__clzdi2+0x18>
   26d9c:	eb000005 	bl	26db8 <__clzsi2>
   26da0:	e2800020 	add	r0, r0, #32
   26da4:	ea000001 	b	26db0 <__clzdi2+0x20>
   26da8:	e1a00001 	mov	r0, r1
   26dac:	eb000001 	bl	26db8 <__clzsi2>
   26db0:	e8bd4010 	pop	{r4, lr}
   26db4:	e12fff1e 	bx	lr

00026db8 <__clzsi2>:
   26db8:	e3a0101c 	mov	r1, #28
   26dbc:	e3500801 	cmp	r0, #65536	; 0x10000
   26dc0:	21a00820 	lsrcs	r0, r0, #16
   26dc4:	22411010 	subcs	r1, r1, #16
   26dc8:	e3500c01 	cmp	r0, #256	; 0x100
   26dcc:	21a00420 	lsrcs	r0, r0, #8
   26dd0:	22411008 	subcs	r1, r1, #8
   26dd4:	e3500010 	cmp	r0, #16
   26dd8:	21a00220 	lsrcs	r0, r0, #4
   26ddc:	22411004 	subcs	r1, r1, #4
   26de0:	e28f2008 	add	r2, pc, #8
   26de4:	e7d20000 	ldrb	r0, [r2, r0]
   26de8:	e0800001 	add	r0, r0, r1
   26dec:	e12fff1e 	bx	lr
   26df0:	02020304 	.word	0x02020304
   26df4:	01010101 	.word	0x01010101
	...

00026e00 <strcmp>:
   26e00:	e020c001 	eor	ip, r0, r1
   26e04:	e31c0003 	tst	ip, #3
   26e08:	1a000021 	bne	26e94 <strcmp+0x94>
   26e0c:	e210c003 	ands	ip, r0, #3
   26e10:	e3c00003 	bic	r0, r0, #3
   26e14:	e3c11003 	bic	r1, r1, #3
   26e18:	e4902004 	ldr	r2, [r0], #4
   26e1c:	04913004 	ldreq	r3, [r1], #4
   26e20:	0a000006 	beq	26e40 <strcmp+0x40>
   26e24:	e22cc003 	eor	ip, ip, #3
   26e28:	e3e034ff 	mvn	r3, #-16777216	; 0xff000000
   26e2c:	e1a0c18c 	lsl	ip, ip, #3
   26e30:	e1a0cc33 	lsr	ip, r3, ip
   26e34:	e4913004 	ldr	r3, [r1], #4
   26e38:	e182200c 	orr	r2, r2, ip
   26e3c:	e183300c 	orr	r3, r3, ip
   26e40:	e52d4004 	push	{r4}		; (str r4, [sp, #-4]!)
   26e44:	e3a04001 	mov	r4, #1
   26e48:	e1844404 	orr	r4, r4, r4, lsl #8
   26e4c:	e1844804 	orr	r4, r4, r4, lsl #16
   26e50:	e042c004 	sub	ip, r2, r4
   26e54:	e1520003 	cmp	r2, r3
   26e58:	01ccc002 	biceq	ip, ip, r2
   26e5c:	011c0384 	tsteq	ip, r4, lsl #7
   26e60:	04902004 	ldreq	r2, [r0], #4
   26e64:	04913004 	ldreq	r3, [r1], #4
   26e68:	0afffff8 	beq	26e50 <strcmp+0x50>
   26e6c:	e1a00c02 	lsl	r0, r2, #24
   26e70:	e1a02422 	lsr	r2, r2, #8
   26e74:	e3500001 	cmp	r0, #1
   26e78:	21500c03 	cmpcs	r0, r3, lsl #24
   26e7c:	01a03423 	lsreq	r3, r3, #8
   26e80:	0afffff9 	beq	26e6c <strcmp+0x6c>
   26e84:	e20330ff 	and	r3, r3, #255	; 0xff
   26e88:	e0630c20 	rsb	r0, r3, r0, lsr #24
   26e8c:	e49d4004 	pop	{r4}		; (ldr r4, [sp], #4)
   26e90:	e12fff1e 	bx	lr
   26e94:	e3100003 	tst	r0, #3
   26e98:	0a000006 	beq	26eb8 <strcmp+0xb8>
   26e9c:	e4d02001 	ldrb	r2, [r0], #1
   26ea0:	e4d13001 	ldrb	r3, [r1], #1
   26ea4:	e3520001 	cmp	r2, #1
   26ea8:	21520003 	cmpcs	r2, r3
   26eac:	0afffff8 	beq	26e94 <strcmp+0x94>
   26eb0:	e0420003 	sub	r0, r2, r3
   26eb4:	e12fff1e 	bx	lr
   26eb8:	e92d0030 	push	{r4, r5}
   26ebc:	e3a04001 	mov	r4, #1
   26ec0:	e1844404 	orr	r4, r4, r4, lsl #8
   26ec4:	e1844804 	orr	r4, r4, r4, lsl #16
   26ec8:	e4902004 	ldr	r2, [r0], #4
   26ecc:	e2015003 	and	r5, r1, #3
   26ed0:	e3c11003 	bic	r1, r1, #3
   26ed4:	e4913004 	ldr	r3, [r1], #4
   26ed8:	e3550002 	cmp	r5, #2
   26edc:	0a000017 	beq	26f40 <strcmp+0x140>
   26ee0:	8a00002d 	bhi	26f9c <strcmp+0x19c>
   26ee4:	e3c254ff 	bic	r5, r2, #-16777216	; 0xff000000
   26ee8:	e1550423 	cmp	r5, r3, lsr #8
   26eec:	e042c004 	sub	ip, r2, r4
   26ef0:	e1ccc002 	bic	ip, ip, r2
   26ef4:	1a000007 	bne	26f18 <strcmp+0x118>
   26ef8:	e01cc384 	ands	ip, ip, r4, lsl #7
   26efc:	04913004 	ldreq	r3, [r1], #4
   26f00:	1a000006 	bne	26f20 <strcmp+0x120>
   26f04:	e0255002 	eor	r5, r5, r2
   26f08:	e1550c03 	cmp	r5, r3, lsl #24
   26f0c:	1a000008 	bne	26f34 <strcmp+0x134>
   26f10:	e4902004 	ldr	r2, [r0], #4
   26f14:	eafffff2 	b	26ee4 <strcmp+0xe4>
   26f18:	e1a03423 	lsr	r3, r3, #8
   26f1c:	ea000036 	b	26ffc <strcmp+0x1fc>
   26f20:	e3dcc4ff 	bics	ip, ip, #-16777216	; 0xff000000
   26f24:	1a000031 	bne	26ff0 <strcmp+0x1f0>
   26f28:	e5d13000 	ldrb	r3, [r1]
   26f2c:	e1a05c22 	lsr	r5, r2, #24
   26f30:	ea000031 	b	26ffc <strcmp+0x1fc>
   26f34:	e1a05c22 	lsr	r5, r2, #24
   26f38:	e20330ff 	and	r3, r3, #255	; 0xff
   26f3c:	ea00002e 	b	26ffc <strcmp+0x1fc>
   26f40:	e1a05802 	lsl	r5, r2, #16
   26f44:	e042c004 	sub	ip, r2, r4
   26f48:	e1a05825 	lsr	r5, r5, #16
   26f4c:	e1ccc002 	bic	ip, ip, r2
   26f50:	e1550823 	cmp	r5, r3, lsr #16
   26f54:	1a00000e 	bne	26f94 <strcmp+0x194>
   26f58:	e01cc384 	ands	ip, ip, r4, lsl #7
   26f5c:	04913004 	ldreq	r3, [r1], #4
   26f60:	1a000004 	bne	26f78 <strcmp+0x178>
   26f64:	e0255002 	eor	r5, r5, r2
   26f68:	e1550803 	cmp	r5, r3, lsl #16
   26f6c:	1a000006 	bne	26f8c <strcmp+0x18c>
   26f70:	e4902004 	ldr	r2, [r0], #4
   26f74:	eafffff1 	b	26f40 <strcmp+0x140>
   26f78:	e1b0c80c 	lsls	ip, ip, #16
   26f7c:	1a00001b 	bne	26ff0 <strcmp+0x1f0>
   26f80:	e1d130b0 	ldrh	r3, [r1]
   26f84:	e1a05822 	lsr	r5, r2, #16
   26f88:	ea00001b 	b	26ffc <strcmp+0x1fc>
   26f8c:	e1a03803 	lsl	r3, r3, #16
   26f90:	e1a05822 	lsr	r5, r2, #16
   26f94:	e1a03823 	lsr	r3, r3, #16
   26f98:	ea000017 	b	26ffc <strcmp+0x1fc>
   26f9c:	e20250ff 	and	r5, r2, #255	; 0xff
   26fa0:	e1550c23 	cmp	r5, r3, lsr #24
   26fa4:	e042c004 	sub	ip, r2, r4
   26fa8:	e1ccc002 	bic	ip, ip, r2
   26fac:	1a000007 	bne	26fd0 <strcmp+0x1d0>
   26fb0:	e01cc384 	ands	ip, ip, r4, lsl #7
   26fb4:	04913004 	ldreq	r3, [r1], #4
   26fb8:	1a000006 	bne	26fd8 <strcmp+0x1d8>
   26fbc:	e0255002 	eor	r5, r5, r2
   26fc0:	e1550403 	cmp	r5, r3, lsl #8
   26fc4:	1a000006 	bne	26fe4 <strcmp+0x1e4>
   26fc8:	e4902004 	ldr	r2, [r0], #4
   26fcc:	eafffff2 	b	26f9c <strcmp+0x19c>
   26fd0:	e1a03c23 	lsr	r3, r3, #24
   26fd4:	ea000008 	b	26ffc <strcmp+0x1fc>
   26fd8:	e31200ff 	tst	r2, #255	; 0xff
   26fdc:	0a000003 	beq	26ff0 <strcmp+0x1f0>
   26fe0:	e4913004 	ldr	r3, [r1], #4
   26fe4:	e1a05422 	lsr	r5, r2, #8
   26fe8:	e3c334ff 	bic	r3, r3, #-16777216	; 0xff000000
   26fec:	ea000002 	b	26ffc <strcmp+0x1fc>
   26ff0:	e3a00000 	mov	r0, #0
   26ff4:	e8bd0030 	pop	{r4, r5}
   26ff8:	e12fff1e 	bx	lr
   26ffc:	e20520ff 	and	r2, r5, #255	; 0xff
   27000:	e20300ff 	and	r0, r3, #255	; 0xff
   27004:	e3500001 	cmp	r0, #1
   27008:	21500002 	cmpcs	r0, r2
   2700c:	01a05425 	lsreq	r5, r5, #8
   27010:	01a03423 	lsreq	r3, r3, #8
   27014:	0afffff8 	beq	26ffc <strcmp+0x1fc>
   27018:	e0420000 	sub	r0, r2, r0
   2701c:	e8bd0030 	pop	{r4, r5}
   27020:	e12fff1e 	bx	lr

00027024 <gpio_set>:
   27024:	220f      	movs	r2, #15
   27026:	b510      	push	{r4, lr}
   27028:	0903      	lsrs	r3, r0, #4
   2702a:	00db      	lsls	r3, r3, #3
   2702c:	4010      	ands	r0, r2
   2702e:	4a07      	ldr	r2, [pc, #28]	; (2704c <gpio_set+0x28>)
   27030:	181b      	adds	r3, r3, r0
   27032:	189b      	adds	r3, r3, r2
   27034:	009b      	lsls	r3, r3, #2
   27036:	6818      	ldr	r0, [r3, #0]
   27038:	2402      	movs	r4, #2
   2703a:	0002      	movs	r2, r0
   2703c:	43a2      	bics	r2, r4
   2703e:	2900      	cmp	r1, #0
   27040:	d001      	beq.n	27046 <gpio_set+0x22>
   27042:	0022      	movs	r2, r4
   27044:	4302      	orrs	r2, r0
   27046:	601a      	str	r2, [r3, #0]
   27048:	bd10      	pop	{r4, pc}
   2704a:	46c0      	nop			; (mov r8, r8)
   2704c:	00200280 	.word	0x00200280

00027050 <gpio_config>:
   27050:	b510      	push	{r4, lr}
   27052:	240f      	movs	r4, #15
   27054:	0903      	lsrs	r3, r0, #4
   27056:	4020      	ands	r0, r4
   27058:	4c06      	ldr	r4, [pc, #24]	; (27074 <gpio_config+0x24>)
   2705a:	5c61      	ldrb	r1, [r4, r1]
   2705c:	2a00      	cmp	r2, #0
   2705e:	d101      	bne.n	27064 <gpio_config+0x14>
   27060:	3230      	adds	r2, #48	; 0x30
   27062:	4311      	orrs	r1, r2
   27064:	4a04      	ldr	r2, [pc, #16]	; (27078 <gpio_config+0x28>)
   27066:	00db      	lsls	r3, r3, #3
   27068:	181b      	adds	r3, r3, r0
   2706a:	189b      	adds	r3, r3, r2
   2706c:	009b      	lsls	r3, r3, #2
   2706e:	6019      	str	r1, [r3, #0]
   27070:	bd10      	pop	{r4, pc}
   27072:	46c0      	nop			; (mov r8, r8)
   27074:	00036e69 	.word	0x00036e69
   27078:	00200280 	.word	0x00200280

0002707c <rf_rpl_reg_rd>:
   2707c:	6800      	ldr	r0, [r0, #0]
   2707e:	4770      	bx	lr

00027080 <rf_rpl_reg_wr>:
   27080:	6001      	str	r1, [r0, #0]
   27082:	4770      	bx	lr

00027084 <rf_txpwr_dbm_get>:
   27084:	2000      	movs	r0, #0
   27086:	4770      	bx	lr

00027088 <rf_sleep>:
   27088:	2307      	movs	r3, #7
   2708a:	4a02      	ldr	r2, [pc, #8]	; (27094 <rf_sleep+0xc>)
   2708c:	6811      	ldr	r1, [r2, #0]
   2708e:	430b      	orrs	r3, r1
   27090:	6013      	str	r3, [r2, #0]
   27092:	4770      	bx	lr
   27094:	00820030 	.word	0x00820030

00027098 <rf_force_agc_enable>:
   27098:	4906      	ldr	r1, [pc, #24]	; (270b4 <rf_force_agc_enable+0x1c>)
   2709a:	07c2      	lsls	r2, r0, #31
   2709c:	680b      	ldr	r3, [r1, #0]
   2709e:	005b      	lsls	r3, r3, #1
   270a0:	085b      	lsrs	r3, r3, #1
   270a2:	4313      	orrs	r3, r2
   270a4:	600b      	str	r3, [r1, #0]
   270a6:	4904      	ldr	r1, [pc, #16]	; (270b8 <rf_force_agc_enable+0x20>)
   270a8:	680b      	ldr	r3, [r1, #0]
   270aa:	005b      	lsls	r3, r3, #1
   270ac:	0858      	lsrs	r0, r3, #1
   270ae:	4310      	orrs	r0, r2
   270b0:	6008      	str	r0, [r1, #0]
   270b2:	4770      	bx	lr
   270b4:	00820074 	.word	0x00820074
   270b8:	00820874 	.word	0x00820874

000270bc <rf_rssi_convert>:
   270bc:	0840      	lsrs	r0, r0, #1
   270be:	3876      	subs	r0, #118	; 0x76
   270c0:	0600      	lsls	r0, r0, #24
   270c2:	1600      	asrs	r0, r0, #24
   270c4:	4770      	bx	lr
	...

000270c8 <rf_txpwr_cs_get>:
   270c8:	0002      	movs	r2, r0
   270ca:	2301      	movs	r3, #1
   270cc:	b530      	push	{r4, r5, lr}
   270ce:	4c0a      	ldr	r4, [pc, #40]	; (270f8 <rf_txpwr_cs_get+0x30>)
   270d0:	571d      	ldrsb	r5, [r3, r4]
   270d2:	0618      	lsls	r0, r3, #24
   270d4:	0e00      	lsrs	r0, r0, #24
   270d6:	4295      	cmp	r5, r2
   270d8:	da03      	bge.n	270e2 <rf_txpwr_cs_get+0x1a>
   270da:	3301      	adds	r3, #1
   270dc:	2b0d      	cmp	r3, #13
   270de:	d1f7      	bne.n	270d0 <rf_txpwr_cs_get+0x8>
   270e0:	0018      	movs	r0, r3
   270e2:	5623      	ldrsb	r3, [r4, r0]
   270e4:	4293      	cmp	r3, r2
   270e6:	d006      	beq.n	270f6 <rf_txpwr_cs_get+0x2e>
   270e8:	2900      	cmp	r1, #0
   270ea:	d104      	bne.n	270f6 <rf_txpwr_cs_get+0x2e>
   270ec:	2801      	cmp	r0, #1
   270ee:	d002      	beq.n	270f6 <rf_txpwr_cs_get+0x2e>
   270f0:	3801      	subs	r0, #1
   270f2:	0600      	lsls	r0, r0, #24
   270f4:	0e00      	lsrs	r0, r0, #24
   270f6:	bd30      	pop	{r4, r5, pc}
   270f8:	00036e6d 	.word	0x00036e6d

000270fc <app_dis_init>:
   270fc:	4770      	bx	lr
	...

00027100 <prf_get_id_from_task>:
   27100:	490b      	ldr	r1, [pc, #44]	; (27130 <prf_get_id_from_task+0x30>)
   27102:	b530      	push	{r4, r5, lr}
   27104:	2200      	movs	r2, #0
   27106:	000c      	movs	r4, r1
   27108:	0a03      	lsrs	r3, r0, #8
   2710a:	0600      	lsls	r0, r0, #24
   2710c:	0e00      	lsrs	r0, r0, #24
   2710e:	8a0d      	ldrh	r5, [r1, #16]
   27110:	4285      	cmp	r5, r0
   27112:	d106      	bne.n	27122 <prf_get_id_from_task+0x22>
   27114:	2118      	movs	r1, #24
   27116:	434a      	muls	r2, r1
   27118:	18a4      	adds	r4, r4, r2
   2711a:	8a62      	ldrh	r2, [r4, #18]
   2711c:	0218      	lsls	r0, r3, #8
   2711e:	4310      	orrs	r0, r2
   27120:	bd30      	pop	{r4, r5, pc}
   27122:	3201      	adds	r2, #1
   27124:	3118      	adds	r1, #24
   27126:	2a0a      	cmp	r2, #10
   27128:	d1f1      	bne.n	2710e <prf_get_id_from_task+0xe>
   2712a:	32f5      	adds	r2, #245	; 0xf5
   2712c:	e7f6      	b.n	2711c <prf_get_id_from_task+0x1c>
   2712e:	46c0      	nop			; (mov r8, r8)
   27130:	004029fc 	.word	0x004029fc

00027134 <prf_get_task_from_id>:
   27134:	490b      	ldr	r1, [pc, #44]	; (27164 <prf_get_task_from_id+0x30>)
   27136:	b530      	push	{r4, r5, lr}
   27138:	2200      	movs	r2, #0
   2713a:	000c      	movs	r4, r1
   2713c:	0a03      	lsrs	r3, r0, #8
   2713e:	0600      	lsls	r0, r0, #24
   27140:	0e00      	lsrs	r0, r0, #24
   27142:	8a4d      	ldrh	r5, [r1, #18]
   27144:	4285      	cmp	r5, r0
   27146:	d106      	bne.n	27156 <prf_get_task_from_id+0x22>
   27148:	2118      	movs	r1, #24
   2714a:	434a      	muls	r2, r1
   2714c:	18a4      	adds	r4, r4, r2
   2714e:	8a22      	ldrh	r2, [r4, #16]
   27150:	0218      	lsls	r0, r3, #8
   27152:	4310      	orrs	r0, r2
   27154:	bd30      	pop	{r4, r5, pc}
   27156:	3201      	adds	r2, #1
   27158:	3118      	adds	r1, #24
   2715a:	2a0a      	cmp	r2, #10
   2715c:	d1f1      	bne.n	27142 <prf_get_task_from_id+0xe>
   2715e:	32f5      	adds	r2, #245	; 0xf5
   27160:	e7f6      	b.n	27150 <prf_get_task_from_id+0x1c>
   27162:	46c0      	nop			; (mov r8, r8)
   27164:	004029fc 	.word	0x004029fc

00027168 <rwble_sleep_wakeup_end>:
   27168:	4b02      	ldr	r3, [pc, #8]	; (27174 <rwble_sleep_wakeup_end+0xc>)
   2716a:	681a      	ldr	r2, [r3, #0]
   2716c:	4b02      	ldr	r3, [pc, #8]	; (27178 <rwble_sleep_wakeup_end+0x10>)
   2716e:	601a      	str	r2, [r3, #0]
   27170:	4770      	bx	lr
   27172:	46c0      	nop			; (mov r8, r8)
   27174:	00402af8 	.word	0x00402af8
   27178:	0082080c 	.word	0x0082080c

0002717c <app_sec_msg_dflt_handler>:
   2717c:	2000      	movs	r0, #0
   2717e:	4770      	bx	lr

00027180 <bass_batt_level_ntf_cfg_ind_handler>:
   27180:	2000      	movs	r0, #0
   27182:	4770      	bx	lr

00027184 <batt_level_upd_handler>:
   27184:	2000      	movs	r0, #0
   27186:	4770      	bx	lr

00027188 <bass_enable_rsp_handler>:
   27188:	2000      	movs	r0, #0
   2718a:	4770      	bx	lr

0002718c <app_batt_msg_dflt_handler>:
   2718c:	2000      	movs	r0, #0
   2718e:	4770      	bx	lr

00027190 <app_hid_msg_dflt_handler>:
   27190:	2000      	movs	r0, #0
   27192:	4770      	bx	lr

00027194 <oads_enable_rsp_handler>:
   27194:	2000      	movs	r0, #0
   27196:	4770      	bx	lr

00027198 <gapm_activity_created_ind_handler>:
   27198:	4b03      	ldr	r3, [pc, #12]	; (271a8 <gapm_activity_created_ind_handler+0x10>)
   2719a:	791a      	ldrb	r2, [r3, #4]
   2719c:	2a01      	cmp	r2, #1
   2719e:	d101      	bne.n	271a4 <gapm_activity_created_ind_handler+0xc>
   271a0:	780a      	ldrb	r2, [r1, #0]
   271a2:	70da      	strb	r2, [r3, #3]
   271a4:	2000      	movs	r0, #0
   271a6:	4770      	bx	lr
   271a8:	004027d8 	.word	0x004027d8

000271ac <nvds_walk_tag>:
   271ac:	b5f8      	push	{r3, r4, r5, r6, r7, lr}
   271ae:	000f      	movs	r7, r1
   271b0:	4c0b      	ldr	r4, [pc, #44]	; (271e0 <nvds_walk_tag+0x34>)
   271b2:	0015      	movs	r5, r2
   271b4:	6823      	ldr	r3, [r4, #0]
   271b6:	000a      	movs	r2, r1
   271b8:	2103      	movs	r1, #3
   271ba:	0006      	movs	r6, r0
   271bc:	4798      	blx	r3
   271be:	783b      	ldrb	r3, [r7, #0]
   271c0:	2002      	movs	r0, #2
   271c2:	2bff      	cmp	r3, #255	; 0xff
   271c4:	d00b      	beq.n	271de <nvds_walk_tag+0x32>
   271c6:	78b8      	ldrb	r0, [r7, #2]
   271c8:	6922      	ldr	r2, [r4, #16]
   271ca:	1980      	adds	r0, r0, r6
   271cc:	1cc3      	adds	r3, r0, #3
   271ce:	602b      	str	r3, [r5, #0]
   271d0:	4b04      	ldr	r3, [pc, #16]	; (271e4 <nvds_walk_tag+0x38>)
   271d2:	3a01      	subs	r2, #1
   271d4:	18c3      	adds	r3, r0, r3
   271d6:	2000      	movs	r0, #0
   271d8:	4293      	cmp	r3, r2
   271da:	d900      	bls.n	271de <nvds_walk_tag+0x32>
   271dc:	3006      	adds	r0, #6
   271de:	bdf8      	pop	{r3, r4, r5, r6, r7, pc}
   271e0:	004029cc 	.word	0x004029cc
   271e4:	fff81003 	.word	0xfff81003

000271e8 <nvds_browse_tag>:
   271e8:	b5f7      	push	{r0, r1, r2, r4, r5, r6, r7, lr}
   271ea:	0006      	movs	r6, r0
   271ec:	000c      	movs	r4, r1
   271ee:	0015      	movs	r5, r2
   271f0:	4b09      	ldr	r3, [pc, #36]	; (27218 <nvds_browse_tag+0x30>)
   271f2:	9301      	str	r3, [sp, #4]
   271f4:	9f01      	ldr	r7, [sp, #4]
   271f6:	0021      	movs	r1, r4
   271f8:	0038      	movs	r0, r7
   271fa:	aa01      	add	r2, sp, #4
   271fc:	f7ff ffd6 	bl	271ac <nvds_walk_tag>
   27200:	2800      	cmp	r0, #0
   27202:	d107      	bne.n	27214 <nvds_browse_tag+0x2c>
   27204:	7823      	ldrb	r3, [r4, #0]
   27206:	42b3      	cmp	r3, r6
   27208:	d1f4      	bne.n	271f4 <nvds_browse_tag+0xc>
   2720a:	2205      	movs	r2, #5
   2720c:	7863      	ldrb	r3, [r4, #1]
   2720e:	4013      	ands	r3, r2
   27210:	2b04      	cmp	r3, #4
   27212:	d1ef      	bne.n	271f4 <nvds_browse_tag+0xc>
   27214:	602f      	str	r7, [r5, #0]
   27216:	bdfe      	pop	{r1, r2, r3, r4, r5, r6, r7, pc}
   27218:	0007f004 	.word	0x0007f004

0002721c <nvds_get>:
   2721c:	b573      	push	{r0, r1, r4, r5, r6, lr}
   2721e:	000d      	movs	r5, r1
   27220:	0016      	movs	r6, r2
   27222:	4669      	mov	r1, sp
   27224:	aa01      	add	r2, sp, #4
   27226:	f7ff ffdf 	bl	271e8 <nvds_browse_tag>
   2722a:	1e04      	subs	r4, r0, #0
   2722c:	d10f      	bne.n	2724e <nvds_get+0x32>
   2722e:	466b      	mov	r3, sp
   27230:	7899      	ldrb	r1, [r3, #2]
   27232:	782b      	ldrb	r3, [r5, #0]
   27234:	428b      	cmp	r3, r1
   27236:	d30c      	bcc.n	27252 <nvds_get+0x36>
   27238:	9b01      	ldr	r3, [sp, #4]
   2723a:	0032      	movs	r2, r6
   2723c:	1cd8      	adds	r0, r3, #3
   2723e:	4b06      	ldr	r3, [pc, #24]	; (27258 <nvds_get+0x3c>)
   27240:	681b      	ldr	r3, [r3, #0]
   27242:	4798      	blx	r3
   27244:	466b      	mov	r3, sp
   27246:	789b      	ldrb	r3, [r3, #2]
   27248:	702b      	strb	r3, [r5, #0]
   2724a:	0020      	movs	r0, r4
   2724c:	bd76      	pop	{r1, r2, r4, r5, r6, pc}
   2724e:	2300      	movs	r3, #0
   27250:	e7fa      	b.n	27248 <nvds_get+0x2c>
   27252:	2404      	movs	r4, #4
   27254:	e7f9      	b.n	2724a <nvds_get+0x2e>
   27256:	46c0      	nop			; (mov r8, r8)
   27258:	004029cc 	.word	0x004029cc

0002725c <nvds_del>:
   2725c:	b530      	push	{r4, r5, lr}
   2725e:	b085      	sub	sp, #20
   27260:	ad02      	add	r5, sp, #8
   27262:	0029      	movs	r1, r5
   27264:	aa03      	add	r2, sp, #12
   27266:	f7ff ffbf 	bl	271e8 <nvds_browse_tag>
   2726a:	1e04      	subs	r4, r0, #0
   2726c:	d10d      	bne.n	2728a <nvds_del+0x2e>
   2726e:	786b      	ldrb	r3, [r5, #1]
   27270:	079a      	lsls	r2, r3, #30
   27272:	d50d      	bpl.n	27290 <nvds_del+0x34>
   27274:	466a      	mov	r2, sp
   27276:	2104      	movs	r1, #4
   27278:	3207      	adds	r2, #7
   2727a:	438b      	bics	r3, r1
   2727c:	7013      	strb	r3, [r2, #0]
   2727e:	9b03      	ldr	r3, [sp, #12]
   27280:	3903      	subs	r1, #3
   27282:	1c58      	adds	r0, r3, #1
   27284:	4b03      	ldr	r3, [pc, #12]	; (27294 <nvds_del+0x38>)
   27286:	685b      	ldr	r3, [r3, #4]
   27288:	4798      	blx	r3
   2728a:	0020      	movs	r0, r4
   2728c:	b005      	add	sp, #20
   2728e:	bd30      	pop	{r4, r5, pc}
   27290:	2405      	movs	r4, #5
   27292:	e7fa      	b.n	2728a <nvds_del+0x2e>
   27294:	004029cc 	.word	0x004029cc

00027298 <nvds_init_memory>:
   27298:	b570      	push	{r4, r5, r6, lr}
   2729a:	25fe      	movs	r5, #254	; 0xfe
   2729c:	4c05      	ldr	r4, [pc, #20]	; (272b4 <nvds_init_memory+0x1c>)
   2729e:	02ed      	lsls	r5, r5, #11
   272a0:	0028      	movs	r0, r5
   272a2:	6921      	ldr	r1, [r4, #16]
   272a4:	68a3      	ldr	r3, [r4, #8]
   272a6:	4798      	blx	r3
   272a8:	0028      	movs	r0, r5
   272aa:	2104      	movs	r1, #4
   272ac:	6863      	ldr	r3, [r4, #4]
   272ae:	4a02      	ldr	r2, [pc, #8]	; (272b8 <nvds_init_memory+0x20>)
   272b0:	4798      	blx	r3
   272b2:	bd70      	pop	{r4, r5, r6, pc}
   272b4:	004029cc 	.word	0x004029cc
   272b8:	000378f6 	.word	0x000378f6

000272bc <prf_itf_get>:
   272bc:	0603      	lsls	r3, r0, #24
   272be:	0e1b      	lsrs	r3, r3, #24
   272c0:	480b      	ldr	r0, [pc, #44]	; (272f0 <prf_itf_get+0x34>)
   272c2:	2b47      	cmp	r3, #71	; 0x47
   272c4:	d00a      	beq.n	272dc <prf_itf_get+0x20>
   272c6:	d80a      	bhi.n	272de <prf_itf_get+0x22>
   272c8:	480a      	ldr	r0, [pc, #40]	; (272f4 <prf_itf_get+0x38>)
   272ca:	2b24      	cmp	r3, #36	; 0x24
   272cc:	d006      	beq.n	272dc <prf_itf_get+0x20>
   272ce:	480a      	ldr	r0, [pc, #40]	; (272f8 <prf_itf_get+0x3c>)
   272d0:	2b26      	cmp	r3, #38	; 0x26
   272d2:	d003      	beq.n	272dc <prf_itf_get+0x20>
   272d4:	2000      	movs	r0, #0
   272d6:	2b14      	cmp	r3, #20
   272d8:	d100      	bne.n	272dc <prf_itf_get+0x20>
   272da:	4808      	ldr	r0, [pc, #32]	; (272fc <prf_itf_get+0x40>)
   272dc:	4770      	bx	lr
   272de:	4808      	ldr	r0, [pc, #32]	; (27300 <prf_itf_get+0x44>)
   272e0:	2b48      	cmp	r3, #72	; 0x48
   272e2:	d0fb      	beq.n	272dc <prf_itf_get+0x20>
   272e4:	2000      	movs	r0, #0
   272e6:	2b49      	cmp	r3, #73	; 0x49
   272e8:	d1f8      	bne.n	272dc <prf_itf_get+0x20>
   272ea:	4806      	ldr	r0, [pc, #24]	; (27304 <prf_itf_get+0x48>)
   272ec:	e7f6      	b.n	272dc <prf_itf_get+0x20>
   272ee:	46c0      	nop			; (mov r8, r8)
   272f0:	0003765c 	.word	0x0003765c
   272f4:	00037430 	.word	0x00037430
   272f8:	00037848 	.word	0x00037848
   272fc:	00037508 	.word	0x00037508
   27300:	000375b4 	.word	0x000375b4
   27304:	00037944 	.word	0x00037944

00027308 <prf_create>:
   27308:	b570      	push	{r4, r5, r6, lr}
   2730a:	4c08      	ldr	r4, [pc, #32]	; (2732c <prf_create+0x24>)
   2730c:	0005      	movs	r5, r0
   2730e:	0026      	movs	r6, r4
   27310:	36f0      	adds	r6, #240	; 0xf0
   27312:	8a60      	ldrh	r0, [r4, #18]
   27314:	f7ff ffd2 	bl	272bc <prf_itf_get>
   27318:	2800      	cmp	r0, #0
   2731a:	d003      	beq.n	27324 <prf_create+0x1c>
   2731c:	6883      	ldr	r3, [r0, #8]
   2731e:	0029      	movs	r1, r5
   27320:	0020      	movs	r0, r4
   27322:	4798      	blx	r3
   27324:	3418      	adds	r4, #24
   27326:	42b4      	cmp	r4, r6
   27328:	d1f3      	bne.n	27312 <prf_create+0xa>
   2732a:	bd70      	pop	{r4, r5, r6, pc}
   2732c:	004029fc 	.word	0x004029fc

00027330 <prf_cleanup>:
   27330:	b5f8      	push	{r3, r4, r5, r6, r7, lr}
   27332:	4c09      	ldr	r4, [pc, #36]	; (27358 <prf_cleanup+0x28>)
   27334:	0005      	movs	r5, r0
   27336:	0027      	movs	r7, r4
   27338:	000e      	movs	r6, r1
   2733a:	37f0      	adds	r7, #240	; 0xf0
   2733c:	8a60      	ldrh	r0, [r4, #18]
   2733e:	f7ff ffbd 	bl	272bc <prf_itf_get>
   27342:	2800      	cmp	r0, #0
   27344:	d004      	beq.n	27350 <prf_cleanup+0x20>
   27346:	68c3      	ldr	r3, [r0, #12]
   27348:	0032      	movs	r2, r6
   2734a:	0029      	movs	r1, r5
   2734c:	0020      	movs	r0, r4
   2734e:	4798      	blx	r3
   27350:	3418      	adds	r4, #24
   27352:	42bc      	cmp	r4, r7
   27354:	d1f2      	bne.n	2733c <prf_cleanup+0xc>
   27356:	bdf8      	pop	{r3, r4, r5, r6, r7, pc}
   27358:	004029fc 	.word	0x004029fc

0002735c <prf_env_get>:
   2735c:	4a08      	ldr	r2, [pc, #32]	; (27380 <prf_env_get+0x24>)
   2735e:	2300      	movs	r3, #0
   27360:	0011      	movs	r1, r2
   27362:	b510      	push	{r4, lr}
   27364:	8a54      	ldrh	r4, [r2, #18]
   27366:	4284      	cmp	r4, r0
   27368:	d104      	bne.n	27374 <prf_env_get+0x18>
   2736a:	2218      	movs	r2, #24
   2736c:	4353      	muls	r3, r2
   2736e:	18c9      	adds	r1, r1, r3
   27370:	68c8      	ldr	r0, [r1, #12]
   27372:	bd10      	pop	{r4, pc}
   27374:	3301      	adds	r3, #1
   27376:	3218      	adds	r2, #24
   27378:	2b0a      	cmp	r3, #10
   2737a:	d1f3      	bne.n	27364 <prf_env_get+0x8>
   2737c:	2000      	movs	r0, #0
   2737e:	e7f8      	b.n	27372 <prf_env_get+0x16>
   27380:	004029fc 	.word	0x004029fc

00027384 <cpu_reset>:
   27384:	2380      	movs	r3, #128	; 0x80
   27386:	4a05      	ldr	r2, [pc, #20]	; (2739c <cpu_reset+0x18>)
   27388:	021b      	lsls	r3, r3, #8
   2738a:	6811      	ldr	r1, [r2, #0]
   2738c:	430b      	orrs	r3, r1
   2738e:	6013      	str	r3, [r2, #0]
   27390:	2301      	movs	r3, #1
   27392:	4a03      	ldr	r2, [pc, #12]	; (273a0 <cpu_reset+0x1c>)
   27394:	6811      	ldr	r1, [r2, #0]
   27396:	430b      	orrs	r3, r1
   27398:	6013      	str	r3, [r2, #0]
   2739a:	4770      	bx	lr
   2739c:	00800804 	.word	0x00800804
   273a0:	00800800 	.word	0x00800800

000273a4 <uart_send>:
   273a4:	b5f0      	push	{r4, r5, r6, r7, lr}
   273a6:	2480      	movs	r4, #128	; 0x80
   273a8:	4b08      	ldr	r3, [pc, #32]	; (273cc <uart_send+0x28>)
   273aa:	4a09      	ldr	r2, [pc, #36]	; (273d0 <uart_send+0x2c>)
   273ac:	4d09      	ldr	r5, [pc, #36]	; (273d4 <uart_send+0x30>)
   273ae:	0364      	lsls	r4, r4, #13
   273b0:	3901      	subs	r1, #1
   273b2:	0409      	lsls	r1, r1, #16
   273b4:	0c09      	lsrs	r1, r1, #16
   273b6:	4299      	cmp	r1, r3
   273b8:	d100      	bne.n	273bc <uart_send+0x18>
   273ba:	bdf0      	pop	{r4, r5, r6, r7, pc}
   273bc:	7806      	ldrb	r6, [r0, #0]
   273be:	6817      	ldr	r7, [r2, #0]
   273c0:	4227      	tst	r7, r4
   273c2:	d0fc      	beq.n	273be <uart_send+0x1a>
   273c4:	602e      	str	r6, [r5, #0]
   273c6:	3001      	adds	r0, #1
   273c8:	e7f2      	b.n	273b0 <uart_send+0xc>
   273ca:	46c0      	nop			; (mov r8, r8)
   273cc:	0000ffff 	.word	0x0000ffff
   273d0:	00806308 	.word	0x00806308
   273d4:	0080630c 	.word	0x0080630c

000273d8 <uart_flow_off>:
   273d8:	2001      	movs	r0, #1
   273da:	4770      	bx	lr

000273dc <uart_read>:
   273dc:	b510      	push	{r4, lr}
   273de:	4c04      	ldr	r4, [pc, #16]	; (273f0 <uart_read+0x14>)
   273e0:	60a2      	str	r2, [r4, #8]
   273e2:	60e3      	str	r3, [r4, #12]
   273e4:	2301      	movs	r3, #1
   273e6:	61a0      	str	r0, [r4, #24]
   273e8:	6221      	str	r1, [r4, #32]
   273ea:	3406      	adds	r4, #6
   273ec:	77e3      	strb	r3, [r4, #31]
   273ee:	bd10      	pop	{r4, pc}
   273f0:	00405440 	.word	0x00405440

000273f4 <uart_write>:
   273f4:	b510      	push	{r4, lr}
   273f6:	4c04      	ldr	r4, [pc, #16]	; (27408 <uart_write+0x14>)
   273f8:	6022      	str	r2, [r4, #0]
   273fa:	6063      	str	r3, [r4, #4]
   273fc:	2301      	movs	r3, #1
   273fe:	6160      	str	r0, [r4, #20]
   27400:	61e1      	str	r1, [r4, #28]
   27402:	3405      	adds	r4, #5
   27404:	77e3      	strb	r3, [r4, #31]
   27406:	bd10      	pop	{r4, pc}
   27408:	00405440 	.word	0x00405440

0002740c <get_flash_ID>:
   2740c:	4b0b      	ldr	r3, [pc, #44]	; (2743c <get_flash_ID+0x30>)
   2740e:	681a      	ldr	r2, [r3, #0]
   27410:	2a00      	cmp	r2, #0
   27412:	dbfc      	blt.n	2740e <get_flash_ID+0x2>
   27414:	4a0a      	ldr	r2, [pc, #40]	; (27440 <get_flash_ID+0x34>)
   27416:	601a      	str	r2, [r3, #0]
   27418:	681a      	ldr	r2, [r3, #0]
   2741a:	2a00      	cmp	r2, #0
   2741c:	dbfc      	blt.n	27418 <get_flash_ID+0xc>
   2741e:	2201      	movs	r2, #1
   27420:	4b08      	ldr	r3, [pc, #32]	; (27444 <get_flash_ID+0x38>)
   27422:	4252      	negs	r2, r2
   27424:	601a      	str	r2, [r3, #0]
   27426:	601a      	str	r2, [r3, #0]
   27428:	601a      	str	r2, [r3, #0]
   2742a:	601a      	str	r2, [r3, #0]
   2742c:	601a      	str	r2, [r3, #0]
   2742e:	601a      	str	r2, [r3, #0]
   27430:	601a      	str	r2, [r3, #0]
   27432:	601a      	str	r2, [r3, #0]
   27434:	4b04      	ldr	r3, [pc, #16]	; (27448 <get_flash_ID+0x3c>)
   27436:	6818      	ldr	r0, [r3, #0]
   27438:	4770      	bx	lr
   2743a:	46c0      	nop			; (mov r8, r8)
   2743c:	00802000 	.word	0x00802000
   27440:	3407d000 	.word	0x3407d000
   27444:	00802004 	.word	0x00802004
   27448:	00802010 	.word	0x00802010

0002744c <flash_write_sr>:
   2744c:	b570      	push	{r4, r5, r6, lr}
   2744e:	0005      	movs	r5, r0
   27450:	000c      	movs	r4, r1
   27452:	f7ff ffdb 	bl	2740c <get_flash_ID>
   27456:	4e1d      	ldr	r6, [pc, #116]	; (274cc <flash_write_sr+0x80>)
   27458:	6833      	ldr	r3, [r6, #0]
   2745a:	4298      	cmp	r0, r3
   2745c:	d133      	bne.n	274c6 <flash_write_sr+0x7a>
   2745e:	4a1c      	ldr	r2, [pc, #112]	; (274d0 <flash_write_sr+0x84>)
   27460:	4b1c      	ldr	r3, [pc, #112]	; (274d4 <flash_write_sr+0x88>)
   27462:	4290      	cmp	r0, r2
   27464:	d00b      	beq.n	2747e <flash_write_sr+0x32>
   27466:	d806      	bhi.n	27476 <flash_write_sr+0x2a>
   27468:	4a1b      	ldr	r2, [pc, #108]	; (274d8 <flash_write_sr+0x8c>)
   2746a:	1880      	adds	r0, r0, r2
   2746c:	2801      	cmp	r0, #1
   2746e:	d909      	bls.n	27484 <flash_write_sr+0x38>
   27470:	681a      	ldr	r2, [r3, #0]
   27472:	491a      	ldr	r1, [pc, #104]	; (274dc <flash_write_sr+0x90>)
   27474:	e008      	b.n	27488 <flash_write_sr+0x3c>
   27476:	4a1a      	ldr	r2, [pc, #104]	; (274e0 <flash_write_sr+0x94>)
   27478:	1880      	adds	r0, r0, r2
   2747a:	2801      	cmp	r0, #1
   2747c:	d8f8      	bhi.n	27470 <flash_write_sr+0x24>
   2747e:	681a      	ldr	r2, [r3, #0]
   27480:	4918      	ldr	r1, [pc, #96]	; (274e4 <flash_write_sr+0x98>)
   27482:	e001      	b.n	27488 <flash_write_sr+0x3c>
   27484:	681a      	ldr	r2, [r3, #0]
   27486:	4918      	ldr	r1, [pc, #96]	; (274e8 <flash_write_sr+0x9c>)
   27488:	400a      	ands	r2, r1
   2748a:	601a      	str	r2, [r3, #0]
   2748c:	6819      	ldr	r1, [r3, #0]
   2748e:	02a4      	lsls	r4, r4, #10
   27490:	430c      	orrs	r4, r1
   27492:	2180      	movs	r1, #128	; 0x80
   27494:	0089      	lsls	r1, r1, #2
   27496:	430c      	orrs	r4, r1
   27498:	601c      	str	r4, [r3, #0]
   2749a:	4c14      	ldr	r4, [pc, #80]	; (274ec <flash_write_sr+0xa0>)
   2749c:	6823      	ldr	r3, [r4, #0]
   2749e:	2b00      	cmp	r3, #0
   274a0:	dbfc      	blt.n	2749c <flash_write_sr+0x50>
   274a2:	f7ff ffb3 	bl	2740c <get_flash_ID>
   274a6:	6833      	ldr	r3, [r6, #0]
   274a8:	4298      	cmp	r0, r3
   274aa:	d10c      	bne.n	274c6 <flash_write_sr+0x7a>
   274ac:	2d01      	cmp	r5, #1
   274ae:	d10b      	bne.n	274c8 <flash_write_sr+0x7c>
   274b0:	4b0f      	ldr	r3, [pc, #60]	; (274f0 <flash_write_sr+0xa4>)
   274b2:	6023      	str	r3, [r4, #0]
   274b4:	6823      	ldr	r3, [r4, #0]
   274b6:	2b00      	cmp	r3, #0
   274b8:	dbfc      	blt.n	274b4 <flash_write_sr+0x68>
   274ba:	23fa      	movs	r3, #250	; 0xfa
   274bc:	02db      	lsls	r3, r3, #11
   274be:	6023      	str	r3, [r4, #0]
   274c0:	6823      	ldr	r3, [r4, #0]
   274c2:	2b00      	cmp	r3, #0
   274c4:	dbfc      	blt.n	274c0 <flash_write_sr+0x74>
   274c6:	bd70      	pop	{r4, r5, r6, pc}
   274c8:	4b0a      	ldr	r3, [pc, #40]	; (274f4 <flash_write_sr+0xa8>)
   274ca:	e7f2      	b.n	274b2 <flash_write_sr+0x66>
   274cc:	00402918 	.word	0x00402918
   274d0:	00c84013 	.word	0x00c84013
   274d4:	0080201c 	.word	0x0080201c
   274d8:	ff3ddced 	.word	0xff3ddced
   274dc:	ffff0fff 	.word	0xffff0fff
   274e0:	ff1fbfed 	.word	0xff1fbfed
   274e4:	fefe0fff 	.word	0xfefe0fff
   274e8:	ffdf0fff 	.word	0xffdf0fff
   274ec:	00802000 	.word	0x00802000
   274f0:	6407d000 	.word	0x6407d000
   274f4:	6707d000 	.word	0x6707d000

000274f8 <flash_wp_256k>:
   274f8:	b510      	push	{r4, lr}
   274fa:	4b0e      	ldr	r3, [pc, #56]	; (27534 <flash_wp_256k+0x3c>)
   274fc:	4a0e      	ldr	r2, [pc, #56]	; (27538 <flash_wp_256k+0x40>)
   274fe:	681b      	ldr	r3, [r3, #0]
   27500:	4293      	cmp	r3, r2
   27502:	d809      	bhi.n	27518 <flash_wp_256k+0x20>
   27504:	4a0d      	ldr	r2, [pc, #52]	; (2753c <flash_wp_256k+0x44>)
   27506:	4293      	cmp	r3, r2
   27508:	d80f      	bhi.n	2752a <flash_wp_256k+0x32>
   2750a:	4a0d      	ldr	r2, [pc, #52]	; (27540 <flash_wp_256k+0x48>)
   2750c:	21ac      	movs	r1, #172	; 0xac
   2750e:	4293      	cmp	r3, r2
   27510:	d000      	beq.n	27514 <flash_wp_256k+0x1c>
   27512:	2198      	movs	r1, #152	; 0x98
   27514:	2001      	movs	r0, #1
   27516:	e00a      	b.n	2752e <flash_wp_256k+0x36>
   27518:	4a0a      	ldr	r2, [pc, #40]	; (27544 <flash_wp_256k+0x4c>)
   2751a:	4293      	cmp	r3, r2
   2751c:	d003      	beq.n	27526 <flash_wp_256k+0x2e>
   2751e:	4a0a      	ldr	r2, [pc, #40]	; (27548 <flash_wp_256k+0x50>)
   27520:	189b      	adds	r3, r3, r2
   27522:	2b01      	cmp	r3, #1
   27524:	d8f5      	bhi.n	27512 <flash_wp_256k+0x1a>
   27526:	21ac      	movs	r1, #172	; 0xac
   27528:	e000      	b.n	2752c <flash_wp_256k+0x34>
   2752a:	4908      	ldr	r1, [pc, #32]	; (2754c <flash_wp_256k+0x54>)
   2752c:	2002      	movs	r0, #2
   2752e:	f7ff ff8d 	bl	2744c <flash_write_sr>
   27532:	bd10      	pop	{r4, pc}
   27534:	00402918 	.word	0x00402918
   27538:	00c22314 	.word	0x00c22314
   2753c:	00c22312 	.word	0x00c22312
   27540:	001c3113 	.word	0x001c3113
   27544:	00c84013 	.word	0x00c84013
   27548:	ff1fbfed 	.word	0xff1fbfed
   2754c:	0000088c 	.word	0x0000088c

00027550 <flash_wp_ALL>:
   27550:	b510      	push	{r4, lr}
   27552:	4b0e      	ldr	r3, [pc, #56]	; (2758c <flash_wp_ALL+0x3c>)
   27554:	4a0e      	ldr	r2, [pc, #56]	; (27590 <flash_wp_ALL+0x40>)
   27556:	681b      	ldr	r3, [r3, #0]
   27558:	4293      	cmp	r3, r2
   2755a:	d809      	bhi.n	27570 <flash_wp_ALL+0x20>
   2755c:	4a0d      	ldr	r2, [pc, #52]	; (27594 <flash_wp_ALL+0x44>)
   2755e:	4293      	cmp	r3, r2
   27560:	d80f      	bhi.n	27582 <flash_wp_ALL+0x32>
   27562:	4a0d      	ldr	r2, [pc, #52]	; (27598 <flash_wp_ALL+0x48>)
   27564:	21bc      	movs	r1, #188	; 0xbc
   27566:	4293      	cmp	r3, r2
   27568:	d000      	beq.n	2756c <flash_wp_ALL+0x1c>
   2756a:	219c      	movs	r1, #156	; 0x9c
   2756c:	2001      	movs	r0, #1
   2756e:	e00a      	b.n	27586 <flash_wp_ALL+0x36>
   27570:	4a0a      	ldr	r2, [pc, #40]	; (2759c <flash_wp_ALL+0x4c>)
   27572:	4293      	cmp	r3, r2
   27574:	d003      	beq.n	2757e <flash_wp_ALL+0x2e>
   27576:	4a0a      	ldr	r2, [pc, #40]	; (275a0 <flash_wp_ALL+0x50>)
   27578:	189b      	adds	r3, r3, r2
   2757a:	2b01      	cmp	r3, #1
   2757c:	d8f5      	bhi.n	2756a <flash_wp_ALL+0x1a>
   2757e:	2194      	movs	r1, #148	; 0x94
   27580:	e000      	b.n	27584 <flash_wp_ALL+0x34>
   27582:	21bc      	movs	r1, #188	; 0xbc
   27584:	2002      	movs	r0, #2
   27586:	f7ff ff61 	bl	2744c <flash_write_sr>
   2758a:	bd10      	pop	{r4, pc}
   2758c:	00402918 	.word	0x00402918
   27590:	00c22314 	.word	0x00c22314
   27594:	00c22312 	.word	0x00c22312
   27598:	001c3113 	.word	0x001c3113
   2759c:	00c84013 	.word	0x00c84013
   275a0:	ff1fbfed 	.word	0xff1fbfed

000275a4 <rf_reset>:
   275a4:	4770      	bx	lr

000275a6 <bass_create>:
   275a6:	2200      	movs	r2, #0
   275a8:	68c3      	ldr	r3, [r0, #12]
   275aa:	185b      	adds	r3, r3, r1
   275ac:	775a      	strb	r2, [r3, #29]
   275ae:	4770      	bx	lr

000275b0 <bass_cleanup>:
   275b0:	2200      	movs	r2, #0
   275b2:	68c3      	ldr	r3, [r0, #12]
   275b4:	185b      	adds	r3, r3, r1
   275b6:	775a      	strb	r2, [r3, #29]
   275b8:	4770      	bx	lr

000275ba <diss_create>:
   275ba:	4770      	bx	lr

000275bc <diss_cleanup>:
   275bc:	4770      	bx	lr

000275be <diss_value_to_handle>:
   275be:	b530      	push	{r4, r5, lr}
   275c0:	2200      	movs	r2, #0
   275c2:	2401      	movs	r4, #1
   275c4:	8983      	ldrh	r3, [r0, #12]
   275c6:	89c0      	ldrh	r0, [r0, #14]
   275c8:	3301      	adds	r3, #1
   275ca:	041b      	lsls	r3, r3, #16
   275cc:	0c1b      	lsrs	r3, r3, #16
   275ce:	0005      	movs	r5, r0
   275d0:	4115      	asrs	r5, r2
   275d2:	4225      	tst	r5, r4
   275d4:	d008      	beq.n	275e8 <diss_value_to_handle+0x2a>
   275d6:	428a      	cmp	r2, r1
   275d8:	d103      	bne.n	275e2 <diss_value_to_handle+0x24>
   275da:	3301      	adds	r3, #1
   275dc:	0418      	lsls	r0, r3, #16
   275de:	0c00      	lsrs	r0, r0, #16
   275e0:	bd30      	pop	{r4, r5, pc}
   275e2:	3302      	adds	r3, #2
   275e4:	041b      	lsls	r3, r3, #16
   275e6:	0c1b      	lsrs	r3, r3, #16
   275e8:	3201      	adds	r2, #1
   275ea:	2a09      	cmp	r2, #9
   275ec:	d1ef      	bne.n	275ce <diss_value_to_handle+0x10>
   275ee:	2000      	movs	r0, #0
   275f0:	e7f6      	b.n	275e0 <diss_value_to_handle+0x22>
	...

000275f4 <fee0s_create>:
   275f4:	4a03      	ldr	r2, [pc, #12]	; (27604 <fee0s_create+0x10>)
   275f6:	68c3      	ldr	r3, [r0, #12]
   275f8:	1889      	adds	r1, r1, r2
   275fa:	0049      	lsls	r1, r1, #1
   275fc:	1859      	adds	r1, r3, r1
   275fe:	2300      	movs	r3, #0
   27600:	808b      	strh	r3, [r1, #4]
   27602:	4770      	bx	lr
   27604:	00000764 	.word	0x00000764

00027608 <fee0s_cleanup>:
   27608:	4a03      	ldr	r2, [pc, #12]	; (27618 <fee0s_cleanup+0x10>)
   2760a:	68c3      	ldr	r3, [r0, #12]
   2760c:	1889      	adds	r1, r1, r2
   2760e:	0049      	lsls	r1, r1, #1
   27610:	1859      	adds	r1, r3, r1
   27612:	2300      	movs	r3, #0
   27614:	808b      	strh	r3, [r1, #4]
   27616:	4770      	bx	lr
   27618:	00000764 	.word	0x00000764

0002761c <fee0s_get_att_idx>:
   2761c:	b570      	push	{r4, r5, r6, lr}
   2761e:	0004      	movs	r4, r0
   27620:	2047      	movs	r0, #71	; 0x47
   27622:	000d      	movs	r5, r1
   27624:	f7ff fe9a 	bl	2735c <prf_env_get>
   27628:	8a03      	ldrh	r3, [r0, #16]
   2762a:	2080      	movs	r0, #128	; 0x80
   2762c:	001a      	movs	r2, r3
   2762e:	320d      	adds	r2, #13
   27630:	4294      	cmp	r4, r2
   27632:	dc02      	bgt.n	2763a <fee0s_get_att_idx+0x1e>
   27634:	2000      	movs	r0, #0
   27636:	1ae4      	subs	r4, r4, r3
   27638:	702c      	strb	r4, [r5, #0]
   2763a:	bd70      	pop	{r4, r5, r6, pc}

0002763c <fcc0s_create>:
   2763c:	68c3      	ldr	r3, [r0, #12]
   2763e:	3188      	adds	r1, #136	; 0x88
   27640:	0049      	lsls	r1, r1, #1
   27642:	1859      	adds	r1, r3, r1
   27644:	2300      	movs	r3, #0
   27646:	808b      	strh	r3, [r1, #4]
   27648:	4770      	bx	lr

0002764a <fcc0s_cleanup>:
   2764a:	68c3      	ldr	r3, [r0, #12]
   2764c:	3188      	adds	r1, #136	; 0x88
   2764e:	0049      	lsls	r1, r1, #1
   27650:	1859      	adds	r1, r3, r1
   27652:	2300      	movs	r3, #0
   27654:	808b      	strh	r3, [r1, #4]
   27656:	4770      	bx	lr

00027658 <fcc0s_get_att_idx>:
   27658:	b570      	push	{r4, r5, r6, lr}
   2765a:	0004      	movs	r4, r0
   2765c:	2048      	movs	r0, #72	; 0x48
   2765e:	000d      	movs	r5, r1
   27660:	f7ff fe7c 	bl	2735c <prf_env_get>
   27664:	8a03      	ldrh	r3, [r0, #16]
   27666:	2080      	movs	r0, #128	; 0x80
   27668:	1d5a      	adds	r2, r3, #5
   2766a:	4294      	cmp	r4, r2
   2766c:	dc02      	bgt.n	27674 <fcc0s_get_att_idx+0x1c>
   2766e:	2000      	movs	r0, #0
   27670:	1ae4      	subs	r4, r4, r3
   27672:	702c      	strb	r4, [r5, #0]
   27674:	bd70      	pop	{r4, r5, r6, pc}

00027676 <hogpd_create>:
   27676:	4770      	bx	lr

00027678 <hogpd_cleanup>:
   27678:	b510      	push	{r4, lr}
   2767a:	68c3      	ldr	r3, [r0, #12]
   2767c:	7edc      	ldrb	r4, [r3, #27]
   2767e:	2c00      	cmp	r4, #0
   27680:	d009      	beq.n	27696 <hogpd_cleanup+0x1e>
   27682:	2000      	movs	r0, #0
   27684:	004a      	lsls	r2, r1, #1
   27686:	189a      	adds	r2, r3, r2
   27688:	80d0      	strh	r0, [r2, #6]
   2768a:	2c01      	cmp	r4, #1
   2768c:	d003      	beq.n	27696 <hogpd_cleanup+0x1e>
   2768e:	3104      	adds	r1, #4
   27690:	0049      	lsls	r1, r1, #1
   27692:	1859      	adds	r1, r3, r1
   27694:	80c8      	strh	r0, [r1, #6]
   27696:	bd10      	pop	{r4, pc}

00027698 <hogpd_get_att_handle>:
   27698:	b5f0      	push	{r4, r5, r6, r7, lr}
   2769a:	7ec4      	ldrb	r4, [r0, #27]
   2769c:	0006      	movs	r6, r0
   2769e:	2000      	movs	r0, #0
   276a0:	428c      	cmp	r4, r1
   276a2:	d958      	bls.n	27756 <hogpd_get_att_handle+0xbe>
   276a4:	2a17      	cmp	r2, #23
   276a6:	d056      	beq.n	27756 <hogpd_get_att_handle+0xbe>
   276a8:	00cd      	lsls	r5, r1, #3
   276aa:	2a12      	cmp	r2, #18
   276ac:	d903      	bls.n	276b6 <hogpd_get_att_handle+0x1e>
   276ae:	1974      	adds	r4, r6, r5
   276b0:	7a64      	ldrb	r4, [r4, #9]
   276b2:	429c      	cmp	r4, r3
   276b4:	d94f      	bls.n	27756 <hogpd_get_att_handle+0xbe>
   276b6:	8ab4      	ldrh	r4, [r6, #20]
   276b8:	2900      	cmp	r1, #0
   276ba:	d009      	beq.n	276d0 <hogpd_get_att_handle+0x38>
   276bc:	7a30      	ldrb	r0, [r6, #8]
   276be:	1824      	adds	r4, r4, r0
   276c0:	0424      	lsls	r4, r4, #16
   276c2:	0c24      	lsrs	r4, r4, #16
   276c4:	2901      	cmp	r1, #1
   276c6:	d003      	beq.n	276d0 <hogpd_get_att_handle+0x38>
   276c8:	7c30      	ldrb	r0, [r6, #16]
   276ca:	1824      	adds	r4, r4, r0
   276cc:	0424      	lsls	r4, r4, #16
   276ce:	0c24      	lsrs	r4, r4, #16
   276d0:	2a12      	cmp	r2, #18
   276d2:	d841      	bhi.n	27758 <hogpd_get_att_handle+0xc0>
   276d4:	1975      	adds	r5, r6, r5
   276d6:	88ab      	ldrh	r3, [r5, #4]
   276d8:	18a4      	adds	r4, r4, r2
   276da:	0420      	lsls	r0, r4, #16
   276dc:	2101      	movs	r1, #1
   276de:	001c      	movs	r4, r3
   276e0:	0c00      	lsrs	r0, r0, #16
   276e2:	400c      	ands	r4, r1
   276e4:	420b      	tst	r3, r1
   276e6:	d104      	bne.n	276f2 <hogpd_get_att_handle+0x5a>
   276e8:	2a0f      	cmp	r2, #15
   276ea:	d921      	bls.n	27730 <hogpd_get_att_handle+0x98>
   276ec:	3805      	subs	r0, #5
   276ee:	0400      	lsls	r0, r0, #16
   276f0:	0c00      	lsrs	r0, r0, #16
   276f2:	2102      	movs	r1, #2
   276f4:	001c      	movs	r4, r3
   276f6:	400c      	ands	r4, r1
   276f8:	420b      	tst	r3, r1
   276fa:	d104      	bne.n	27706 <hogpd_get_att_handle+0x6e>
   276fc:	0011      	movs	r1, r2
   276fe:	3910      	subs	r1, #16
   27700:	2902      	cmp	r1, #2
   27702:	d800      	bhi.n	27706 <hogpd_get_att_handle+0x6e>
   27704:	0020      	movs	r0, r4
   27706:	2104      	movs	r1, #4
   27708:	001c      	movs	r4, r3
   2770a:	400c      	ands	r4, r1
   2770c:	420b      	tst	r3, r1
   2770e:	d104      	bne.n	2771a <hogpd_get_att_handle+0x82>
   27710:	2a0a      	cmp	r2, #10
   27712:	d913      	bls.n	2773c <hogpd_get_att_handle+0xa4>
   27714:	3802      	subs	r0, #2
   27716:	0400      	lsls	r0, r0, #16
   27718:	0c00      	lsrs	r0, r0, #16
   2771a:	2108      	movs	r1, #8
   2771c:	001c      	movs	r4, r3
   2771e:	400c      	ands	r4, r1
   27720:	420b      	tst	r3, r1
   27722:	d118      	bne.n	27756 <hogpd_get_att_handle+0xbe>
   27724:	428a      	cmp	r2, r1
   27726:	d90f      	bls.n	27748 <hogpd_get_att_handle+0xb0>
   27728:	3802      	subs	r0, #2
   2772a:	0400      	lsls	r0, r0, #16
   2772c:	0c00      	lsrs	r0, r0, #16
   2772e:	e012      	b.n	27756 <hogpd_get_att_handle+0xbe>
   27730:	0011      	movs	r1, r2
   27732:	390b      	subs	r1, #11
   27734:	2904      	cmp	r1, #4
   27736:	d8dc      	bhi.n	276f2 <hogpd_get_att_handle+0x5a>
   27738:	0020      	movs	r0, r4
   2773a:	e7da      	b.n	276f2 <hogpd_get_att_handle+0x5a>
   2773c:	0011      	movs	r1, r2
   2773e:	3909      	subs	r1, #9
   27740:	2901      	cmp	r1, #1
   27742:	d8ea      	bhi.n	2771a <hogpd_get_att_handle+0x82>
   27744:	0020      	movs	r0, r4
   27746:	e7e8      	b.n	2771a <hogpd_get_att_handle+0x82>
   27748:	2a01      	cmp	r2, #1
   2774a:	d901      	bls.n	27750 <hogpd_get_att_handle+0xb8>
   2774c:	3801      	subs	r0, #1
   2774e:	e7ec      	b.n	2772a <hogpd_get_att_handle+0x92>
   27750:	2a01      	cmp	r2, #1
   27752:	d100      	bne.n	27756 <hogpd_get_att_handle+0xbe>
   27754:	0020      	movs	r0, r4
   27756:	bdf0      	pop	{r4, r5, r6, r7, pc}
   27758:	1975      	adds	r5, r6, r5
   2775a:	2100      	movs	r1, #0
   2775c:	2640      	movs	r6, #64	; 0x40
   2775e:	7aa8      	ldrb	r0, [r5, #10]
   27760:	1824      	adds	r4, r4, r0
   27762:	0424      	lsls	r4, r4, #16
   27764:	0c24      	lsrs	r4, r4, #16
   27766:	0608      	lsls	r0, r1, #24
   27768:	0e00      	lsrs	r0, r0, #24
   2776a:	4283      	cmp	r3, r0
   2776c:	d80a      	bhi.n	27784 <hogpd_get_att_handle+0xec>
   2776e:	2a16      	cmp	r2, #22
   27770:	d105      	bne.n	2777e <hogpd_get_att_handle+0xe6>
   27772:	2140      	movs	r1, #64	; 0x40
   27774:	4099      	lsls	r1, r3
   27776:	88ad      	ldrh	r5, [r5, #4]
   27778:	2000      	movs	r0, #0
   2777a:	4229      	tst	r1, r5
   2777c:	d1eb      	bne.n	27756 <hogpd_get_att_handle+0xbe>
   2777e:	3a13      	subs	r2, #19
   27780:	18a0      	adds	r0, r4, r2
   27782:	e7d2      	b.n	2772a <hogpd_get_att_handle+0x92>
   27784:	0037      	movs	r7, r6
   27786:	408f      	lsls	r7, r1
   27788:	88a8      	ldrh	r0, [r5, #4]
   2778a:	4207      	tst	r7, r0
   2778c:	d104      	bne.n	27798 <hogpd_get_att_handle+0x100>
   2778e:	3403      	adds	r4, #3
   27790:	0424      	lsls	r4, r4, #16
   27792:	0c24      	lsrs	r4, r4, #16
   27794:	3101      	adds	r1, #1
   27796:	e7e6      	b.n	27766 <hogpd_get_att_handle+0xce>
   27798:	3404      	adds	r4, #4
   2779a:	e7f9      	b.n	27790 <hogpd_get_att_handle+0xf8>

0002779c <hogpd_get_att_idx>:
   2779c:	b5f7      	push	{r0, r1, r2, r4, r5, r6, r7, lr}
   2779e:	2517      	movs	r5, #23
   277a0:	8a84      	ldrh	r4, [r0, #20]
   277a2:	701d      	strb	r5, [r3, #0]
   277a4:	2500      	movs	r5, #0
   277a6:	7015      	strb	r5, [r2, #0]
   277a8:	7815      	ldrb	r5, [r2, #0]
   277aa:	7ec7      	ldrb	r7, [r0, #27]
   277ac:	42af      	cmp	r7, r5
   277ae:	d901      	bls.n	277b4 <hogpd_get_att_idx+0x18>
   277b0:	428c      	cmp	r4, r1
   277b2:	d901      	bls.n	277b8 <hogpd_get_att_idx+0x1c>
   277b4:	2080      	movs	r0, #128	; 0x80
   277b6:	e017      	b.n	277e8 <hogpd_get_att_idx+0x4c>
   277b8:	00ef      	lsls	r7, r5, #3
   277ba:	19c7      	adds	r7, r0, r7
   277bc:	7a3f      	ldrb	r7, [r7, #8]
   277be:	193f      	adds	r7, r7, r4
   277c0:	42b9      	cmp	r1, r7
   277c2:	db03      	blt.n	277cc <hogpd_get_att_idx+0x30>
   277c4:	043c      	lsls	r4, r7, #16
   277c6:	0c24      	lsrs	r4, r4, #16
   277c8:	3501      	adds	r5, #1
   277ca:	e7ec      	b.n	277a6 <hogpd_get_att_idx+0xa>
   277cc:	2700      	movs	r7, #0
   277ce:	9d08      	ldr	r5, [sp, #32]
   277d0:	702f      	strb	r7, [r5, #0]
   277d2:	7815      	ldrb	r5, [r2, #0]
   277d4:	00ed      	lsls	r5, r5, #3
   277d6:	1945      	adds	r5, r0, r5
   277d8:	7aae      	ldrb	r6, [r5, #10]
   277da:	1936      	adds	r6, r6, r4
   277dc:	42b1      	cmp	r1, r6
   277de:	da3e      	bge.n	2785e <hogpd_get_att_idx+0xc2>
   277e0:	428c      	cmp	r4, r1
   277e2:	d102      	bne.n	277ea <hogpd_get_att_idx+0x4e>
   277e4:	701f      	strb	r7, [r3, #0]
   277e6:	2000      	movs	r0, #0
   277e8:	bdfe      	pop	{r1, r2, r3, r4, r5, r6, r7, pc}
   277ea:	88ad      	ldrh	r5, [r5, #4]
   277ec:	2208      	movs	r2, #8
   277ee:	002e      	movs	r6, r5
   277f0:	4016      	ands	r6, r2
   277f2:	4215      	tst	r5, r2
   277f4:	d005      	beq.n	27802 <hogpd_get_att_idx+0x66>
   277f6:	3401      	adds	r4, #1
   277f8:	0424      	lsls	r4, r4, #16
   277fa:	0c24      	lsrs	r4, r4, #16
   277fc:	3a07      	subs	r2, #7
   277fe:	42a1      	cmp	r1, r4
   27800:	d010      	beq.n	27824 <hogpd_get_att_idx+0x88>
   27802:	1de2      	adds	r2, r4, #7
   27804:	0412      	lsls	r2, r2, #16
   27806:	0c12      	lsrs	r2, r2, #16
   27808:	4291      	cmp	r1, r2
   2780a:	d802      	bhi.n	27812 <hogpd_get_att_idx+0x76>
   2780c:	3108      	adds	r1, #8
   2780e:	1a8a      	subs	r2, r1, r2
   27810:	e008      	b.n	27824 <hogpd_get_att_idx+0x88>
   27812:	2e00      	cmp	r6, #0
   27814:	d008      	beq.n	27828 <hogpd_get_att_idx+0x8c>
   27816:	0022      	movs	r2, r4
   27818:	3208      	adds	r2, #8
   2781a:	0412      	lsls	r2, r2, #16
   2781c:	0c12      	lsrs	r2, r2, #16
   2781e:	4291      	cmp	r1, r2
   27820:	d102      	bne.n	27828 <hogpd_get_att_idx+0x8c>
   27822:	2208      	movs	r2, #8
   27824:	701a      	strb	r2, [r3, #0]
   27826:	e7de      	b.n	277e6 <hogpd_get_att_idx+0x4a>
   27828:	0768      	lsls	r0, r5, #29
   2782a:	d506      	bpl.n	2783a <hogpd_get_att_idx+0x9e>
   2782c:	3202      	adds	r2, #2
   2782e:	0412      	lsls	r2, r2, #16
   27830:	0c12      	lsrs	r2, r2, #16
   27832:	4291      	cmp	r1, r2
   27834:	d801      	bhi.n	2783a <hogpd_get_att_idx+0x9e>
   27836:	310b      	adds	r1, #11
   27838:	e7e9      	b.n	2780e <hogpd_get_att_idx+0x72>
   2783a:	07e8      	lsls	r0, r5, #31
   2783c:	d506      	bpl.n	2784c <hogpd_get_att_idx+0xb0>
   2783e:	3205      	adds	r2, #5
   27840:	0412      	lsls	r2, r2, #16
   27842:	0c12      	lsrs	r2, r2, #16
   27844:	4291      	cmp	r1, r2
   27846:	d801      	bhi.n	2784c <hogpd_get_att_idx+0xb0>
   27848:	3110      	adds	r1, #16
   2784a:	e7e0      	b.n	2780e <hogpd_get_att_idx+0x72>
   2784c:	07a8      	lsls	r0, r5, #30
   2784e:	d5ca      	bpl.n	277e6 <hogpd_get_att_idx+0x4a>
   27850:	3203      	adds	r2, #3
   27852:	0412      	lsls	r2, r2, #16
   27854:	0c12      	lsrs	r2, r2, #16
   27856:	4291      	cmp	r1, r2
   27858:	d8c5      	bhi.n	277e6 <hogpd_get_att_idx+0x4a>
   2785a:	3113      	adds	r1, #19
   2785c:	e7d7      	b.n	2780e <hogpd_get_att_idx+0x72>
   2785e:	0435      	lsls	r5, r6, #16
   27860:	0c2d      	lsrs	r5, r5, #16
   27862:	9c08      	ldr	r4, [sp, #32]
   27864:	7817      	ldrb	r7, [r2, #0]
   27866:	7824      	ldrb	r4, [r4, #0]
   27868:	00ff      	lsls	r7, r7, #3
   2786a:	9400      	str	r4, [sp, #0]
   2786c:	19c7      	adds	r7, r0, r7
   2786e:	7a7c      	ldrb	r4, [r7, #9]
   27870:	9e00      	ldr	r6, [sp, #0]
   27872:	42b4      	cmp	r4, r6
   27874:	d9b7      	bls.n	277e6 <hogpd_get_att_idx+0x4a>
   27876:	1cec      	adds	r4, r5, #3
   27878:	0424      	lsls	r4, r4, #16
   2787a:	0c24      	lsrs	r4, r4, #16
   2787c:	42a1      	cmp	r1, r4
   2787e:	d803      	bhi.n	27888 <hogpd_get_att_idx+0xec>
   27880:	3116      	adds	r1, #22
   27882:	1b0c      	subs	r4, r1, r4
   27884:	701c      	strb	r4, [r3, #0]
   27886:	e7ae      	b.n	277e6 <hogpd_get_att_idx+0x4a>
   27888:	88be      	ldrh	r6, [r7, #4]
   2788a:	2740      	movs	r7, #64	; 0x40
   2788c:	9601      	str	r6, [sp, #4]
   2788e:	9e00      	ldr	r6, [sp, #0]
   27890:	40b7      	lsls	r7, r6
   27892:	9e01      	ldr	r6, [sp, #4]
   27894:	4237      	tst	r7, r6
   27896:	d006      	beq.n	278a6 <hogpd_get_att_idx+0x10a>
   27898:	1d2c      	adds	r4, r5, #4
   2789a:	0424      	lsls	r4, r4, #16
   2789c:	0c24      	lsrs	r4, r4, #16
   2789e:	42a1      	cmp	r1, r4
   278a0:	d101      	bne.n	278a6 <hogpd_get_att_idx+0x10a>
   278a2:	2216      	movs	r2, #22
   278a4:	e7be      	b.n	27824 <hogpd_get_att_idx+0x88>
   278a6:	9e00      	ldr	r6, [sp, #0]
   278a8:	9d08      	ldr	r5, [sp, #32]
   278aa:	3601      	adds	r6, #1
   278ac:	702e      	strb	r6, [r5, #0]
   278ae:	0025      	movs	r5, r4
   278b0:	e7d7      	b.n	27862 <hogpd_get_att_idx+0xc6>

000278b2 <oads_create>:
   278b2:	68c3      	ldr	r3, [r0, #12]
   278b4:	2000      	movs	r0, #0
   278b6:	185a      	adds	r2, r3, r1
   278b8:	311c      	adds	r1, #28
   278ba:	0049      	lsls	r1, r1, #1
   278bc:	323d      	adds	r2, #61	; 0x3d
   278be:	1859      	adds	r1, r3, r1
   278c0:	7010      	strb	r0, [r2, #0]
   278c2:	80c8      	strh	r0, [r1, #6]
   278c4:	4770      	bx	lr

000278c6 <oads_cleanup>:
   278c6:	68c3      	ldr	r3, [r0, #12]
   278c8:	2000      	movs	r0, #0
   278ca:	185a      	adds	r2, r3, r1
   278cc:	311c      	adds	r1, #28
   278ce:	0049      	lsls	r1, r1, #1
   278d0:	323d      	adds	r2, #61	; 0x3d
   278d2:	1859      	adds	r1, r3, r1
   278d4:	7010      	strb	r0, [r2, #0]
   278d6:	80c8      	strh	r0, [r1, #6]
   278d8:	4770      	bx	lr

000278da <bass_get_att_idx.constprop.0>:
   278da:	b5f7      	push	{r0, r1, r2, r4, r5, r6, r7, lr}
   278dc:	0004      	movs	r4, r0
   278de:	2024      	movs	r0, #36	; 0x24
   278e0:	000d      	movs	r5, r1
   278e2:	0016      	movs	r6, r2
   278e4:	f7ff fd3a 	bl	2735c <prf_env_get>
   278e8:	2300      	movs	r3, #0
   278ea:	8b02      	ldrh	r2, [r0, #24]
   278ec:	702b      	strb	r3, [r5, #0]
   278ee:	7fc3      	ldrb	r3, [r0, #31]
   278f0:	7829      	ldrb	r1, [r5, #0]
   278f2:	469c      	mov	ip, r3
   278f4:	4299      	cmp	r1, r3
   278f6:	d201      	bcs.n	278fc <bass_get_att_idx.constprop.0+0x22>
   278f8:	4294      	cmp	r4, r2
   278fa:	d201      	bcs.n	27900 <bass_get_att_idx.constprop.0+0x26>
   278fc:	2080      	movs	r0, #128	; 0x80
   278fe:	e006      	b.n	2790e <bass_get_att_idx.constprop.0+0x34>
   27900:	1c93      	adds	r3, r2, #2
   27902:	9301      	str	r3, [sp, #4]
   27904:	429c      	cmp	r4, r3
   27906:	dc03      	bgt.n	27910 <bass_get_att_idx.constprop.0+0x36>
   27908:	1aa2      	subs	r2, r4, r2
   2790a:	7032      	strb	r2, [r6, #0]
   2790c:	2000      	movs	r0, #0
   2790e:	bdfe      	pop	{r1, r2, r3, r4, r5, r6, r7, pc}
   27910:	7f87      	ldrb	r7, [r0, #30]
   27912:	2301      	movs	r3, #1
   27914:	410f      	asrs	r7, r1
   27916:	421f      	tst	r7, r3
   27918:	d007      	beq.n	2792a <bass_get_att_idx.constprop.0+0x50>
   2791a:	3203      	adds	r2, #3
   2791c:	0412      	lsls	r2, r2, #16
   2791e:	0c12      	lsrs	r2, r2, #16
   27920:	4294      	cmp	r4, r2
   27922:	d105      	bne.n	27930 <bass_get_att_idx.constprop.0+0x56>
   27924:	3302      	adds	r3, #2
   27926:	7033      	strb	r3, [r6, #0]
   27928:	e7f0      	b.n	2790c <bass_get_att_idx.constprop.0+0x32>
   2792a:	9b01      	ldr	r3, [sp, #4]
   2792c:	041a      	lsls	r2, r3, #16
   2792e:	0c12      	lsrs	r2, r2, #16
   27930:	4663      	mov	r3, ip
   27932:	2b01      	cmp	r3, #1
   27934:	d906      	bls.n	27944 <bass_get_att_idx.constprop.0+0x6a>
   27936:	3201      	adds	r2, #1
   27938:	0412      	lsls	r2, r2, #16
   2793a:	0c12      	lsrs	r2, r2, #16
   2793c:	4294      	cmp	r4, r2
   2793e:	d101      	bne.n	27944 <bass_get_att_idx.constprop.0+0x6a>
   27940:	2304      	movs	r3, #4
   27942:	e7f0      	b.n	27926 <bass_get_att_idx.constprop.0+0x4c>
   27944:	3201      	adds	r2, #1
   27946:	0412      	lsls	r2, r2, #16
   27948:	3101      	adds	r1, #1
   2794a:	0c12      	lsrs	r2, r2, #16
   2794c:	7029      	strb	r1, [r5, #0]
   2794e:	e7ce      	b.n	278ee <bass_get_att_idx.constprop.0+0x14>

00027950 <prf_dst_task_get.isra.0>:
   27950:	0003      	movs	r3, r0
   27952:	0440      	lsls	r0, r0, #17
   27954:	041b      	lsls	r3, r3, #16
   27956:	0c40      	lsrs	r0, r0, #17
   27958:	141b      	asrs	r3, r3, #16
   2795a:	d501      	bpl.n	27960 <prf_dst_task_get.isra.0+0x10>
   2795c:	0209      	lsls	r1, r1, #8
   2795e:	4308      	orrs	r0, r1
   27960:	4770      	bx	lr

00027962 <prf_src_task_get.isra.0>:
   27962:	0003      	movs	r3, r0
   27964:	0440      	lsls	r0, r0, #17
   27966:	041b      	lsls	r3, r3, #16
   27968:	0c40      	lsrs	r0, r0, #17
   2796a:	141b      	asrs	r3, r3, #16
   2796c:	d501      	bpl.n	27972 <prf_src_task_get.isra.0+0x10>
   2796e:	0209      	lsls	r1, r1, #8
   27970:	4308      	orrs	r0, r1
   27972:	4770      	bx	lr

00027974 <flash_erase.constprop.0.isra.0>:
   27974:	23ab      	movs	r3, #171	; 0xab
   27976:	b5f0      	push	{r4, r5, r6, r7, lr}
   27978:	4e29      	ldr	r6, [pc, #164]	; (27a20 <flash_erase.constprop.0.isra.0+0xac>)
   2797a:	b085      	sub	sp, #20
   2797c:	7033      	strb	r3, [r6, #0]
   2797e:	0005      	movs	r5, r0
   27980:	000c      	movs	r4, r1
   27982:	f7ff fd43 	bl	2740c <get_flash_ID>
   27986:	4b27      	ldr	r3, [pc, #156]	; (27a24 <flash_erase.constprop.0.isra.0+0xb0>)
   27988:	681b      	ldr	r3, [r3, #0]
   2798a:	4298      	cmp	r0, r3
   2798c:	d11d      	bne.n	279ca <flash_erase.constprop.0.isra.0+0x56>
   2798e:	0b2d      	lsrs	r5, r5, #12
   27990:	032b      	lsls	r3, r5, #12
   27992:	9301      	str	r3, [sp, #4]
   27994:	4b24      	ldr	r3, [pc, #144]	; (27a28 <flash_erase.constprop.0.isra.0+0xb4>)
   27996:	4023      	ands	r3, r4
   27998:	d503      	bpl.n	279a2 <flash_erase.constprop.0.isra.0+0x2e>
   2799a:	4a24      	ldr	r2, [pc, #144]	; (27a2c <flash_erase.constprop.0.isra.0+0xb8>)
   2799c:	3b01      	subs	r3, #1
   2799e:	4313      	orrs	r3, r2
   279a0:	3301      	adds	r3, #1
   279a2:	17e1      	asrs	r1, r4, #31
   279a4:	0509      	lsls	r1, r1, #20
   279a6:	17da      	asrs	r2, r3, #31
   279a8:	0d09      	lsrs	r1, r1, #20
   279aa:	1ad3      	subs	r3, r2, r3
   279ac:	190c      	adds	r4, r1, r4
   279ae:	1324      	asrs	r4, r4, #12
   279b0:	0fdb      	lsrs	r3, r3, #31
   279b2:	191b      	adds	r3, r3, r4
   279b4:	9302      	str	r3, [sp, #8]
   279b6:	23bc      	movs	r3, #188	; 0xbc
   279b8:	2400      	movs	r4, #0
   279ba:	4d1d      	ldr	r5, [pc, #116]	; (27a30 <flash_erase.constprop.0.isra.0+0xbc>)
   279bc:	702b      	strb	r3, [r5, #0]
   279be:	9b02      	ldr	r3, [sp, #8]
   279c0:	42a3      	cmp	r3, r4
   279c2:	dc04      	bgt.n	279ce <flash_erase.constprop.0.isra.0+0x5a>
   279c4:	2300      	movs	r3, #0
   279c6:	7033      	strb	r3, [r6, #0]
   279c8:	702b      	strb	r3, [r5, #0]
   279ca:	b005      	add	sp, #20
   279cc:	bdf0      	pop	{r4, r5, r6, r7, pc}
   279ce:	f00e fbe1 	bl	36194 <____disable_fiq_from_thumb>
   279d2:	0007      	movs	r7, r0
   279d4:	f00e fbe2 	bl	3619c <____disable_irq_from_thumb>
   279d8:	7833      	ldrb	r3, [r6, #0]
   279da:	9003      	str	r0, [sp, #12]
   279dc:	2bab      	cmp	r3, #171	; 0xab
   279de:	d114      	bne.n	27a0a <flash_erase.constprop.0.isra.0+0x96>
   279e0:	782b      	ldrb	r3, [r5, #0]
   279e2:	2bbc      	cmp	r3, #188	; 0xbc
   279e4:	d111      	bne.n	27a0a <flash_erase.constprop.0.isra.0+0x96>
   279e6:	f7ff fd87 	bl	274f8 <flash_wp_256k>
   279ea:	4a12      	ldr	r2, [pc, #72]	; (27a34 <flash_erase.constprop.0.isra.0+0xc0>)
   279ec:	6813      	ldr	r3, [r2, #0]
   279ee:	2b00      	cmp	r3, #0
   279f0:	dbfc      	blt.n	279ec <flash_erase.constprop.0.isra.0+0x78>
   279f2:	9901      	ldr	r1, [sp, #4]
   279f4:	0323      	lsls	r3, r4, #12
   279f6:	185b      	adds	r3, r3, r1
   279f8:	21b4      	movs	r1, #180	; 0xb4
   279fa:	0589      	lsls	r1, r1, #22
   279fc:	430b      	orrs	r3, r1
   279fe:	6013      	str	r3, [r2, #0]
   27a00:	6813      	ldr	r3, [r2, #0]
   27a02:	2b00      	cmp	r3, #0
   27a04:	dbfc      	blt.n	27a00 <flash_erase.constprop.0.isra.0+0x8c>
   27a06:	f7ff fda3 	bl	27550 <flash_wp_ALL>
   27a0a:	2f00      	cmp	r7, #0
   27a0c:	d101      	bne.n	27a12 <flash_erase.constprop.0.isra.0+0x9e>
   27a0e:	f00e fbd7 	bl	361c0 <____enable_fiq_from_thumb>
   27a12:	9b03      	ldr	r3, [sp, #12]
   27a14:	2b00      	cmp	r3, #0
   27a16:	d101      	bne.n	27a1c <flash_erase.constprop.0.isra.0+0xa8>
   27a18:	f00e fb76 	bl	36108 <____enable_irq_from_thumb>
   27a1c:	3401      	adds	r4, #1
   27a1e:	e7ce      	b.n	279be <flash_erase.constprop.0.isra.0+0x4a>
   27a20:	00402911 	.word	0x00402911
   27a24:	00402918 	.word	0x00402918
   27a28:	80000fff 	.word	0x80000fff
   27a2c:	fffff000 	.word	0xfffff000
   27a30:	00402912 	.word	0x00402912
   27a34:	00802000 	.word	0x00802000

00027a38 <nvds_erase>:
   27a38:	b510      	push	{r4, lr}
   27a3a:	f7ff ff9b 	bl	27974 <flash_erase.constprop.0.isra.0>
   27a3e:	bd10      	pop	{r4, pc}

00027a40 <gapm_gen_rand_nb_ind_handler>:
   27a40:	4808      	ldr	r0, [pc, #32]	; (27a64 <gapm_gen_rand_nb_ind_handler+0x24>)
   27a42:	b510      	push	{r4, lr}
   27a44:	0003      	movs	r3, r0
   27a46:	332d      	adds	r3, #45	; 0x2d
   27a48:	781b      	ldrb	r3, [r3, #0]
   27a4a:	2b01      	cmp	r3, #1
   27a4c:	d105      	bne.n	27a5a <gapm_gen_rand_nb_ind_handler+0x1a>
   27a4e:	301c      	adds	r0, #28
   27a50:	2208      	movs	r2, #8
   27a52:	f006 fcf7 	bl	2e444 <memcpy>
   27a56:	2000      	movs	r0, #0
   27a58:	bd10      	pop	{r4, pc}
   27a5a:	2b02      	cmp	r3, #2
   27a5c:	d1fb      	bne.n	27a56 <gapm_gen_rand_nb_ind_handler+0x16>
   27a5e:	3024      	adds	r0, #36	; 0x24
   27a60:	e7f6      	b.n	27a50 <gapm_gen_rand_nb_ind_handler+0x10>
   27a62:	46c0      	nop			; (mov r8, r8)
   27a64:	004027d8 	.word	0x004027d8

00027a68 <flash_write_data>:
   27a68:	b5f0      	push	{r4, r5, r6, r7, lr}
   27a6a:	b091      	sub	sp, #68	; 0x44
   27a6c:	9007      	str	r0, [sp, #28]
   27a6e:	9103      	str	r1, [sp, #12]
   27a70:	9202      	str	r2, [sp, #8]
   27a72:	2a00      	cmp	r2, #0
   27a74:	d05d      	beq.n	27b32 <flash_write_data+0xca>
   27a76:	2380      	movs	r3, #128	; 0x80
   27a78:	02db      	lsls	r3, r3, #11
   27a7a:	4299      	cmp	r1, r3
   27a7c:	d359      	bcc.n	27b32 <flash_write_data+0xca>
   27a7e:	f00e fb89 	bl	36194 <____disable_fiq_from_thumb>
   27a82:	9004      	str	r0, [sp, #16]
   27a84:	f00e fb8a 	bl	3619c <____disable_irq_from_thumb>
   27a88:	4c3d      	ldr	r4, [pc, #244]	; (27b80 <flash_write_data+0x118>)
   27a8a:	9005      	str	r0, [sp, #20]
   27a8c:	6823      	ldr	r3, [r4, #0]
   27a8e:	2b00      	cmp	r3, #0
   27a90:	dbfc      	blt.n	27a8c <flash_write_data+0x24>
   27a92:	22c2      	movs	r2, #194	; 0xc2
   27a94:	4b3b      	ldr	r3, [pc, #236]	; (27b84 <flash_write_data+0x11c>)
   27a96:	701a      	strb	r2, [r3, #0]
   27a98:	f7ff fd2e 	bl	274f8 <flash_wp_256k>
   27a9c:	9b02      	ldr	r3, [sp, #8]
   27a9e:	9d03      	ldr	r5, [sp, #12]
   27aa0:	3b01      	subs	r3, #1
   27aa2:	095b      	lsrs	r3, r3, #5
   27aa4:	3301      	adds	r3, #1
   27aa6:	9306      	str	r3, [sp, #24]
   27aa8:	2300      	movs	r3, #0
   27aaa:	9301      	str	r3, [sp, #4]
   27aac:	9b07      	ldr	r3, [sp, #28]
   27aae:	9a03      	ldr	r2, [sp, #12]
   27ab0:	9e01      	ldr	r6, [sp, #4]
   27ab2:	1a9f      	subs	r7, r3, r2
   27ab4:	0033      	movs	r3, r6
   27ab6:	9a02      	ldr	r2, [sp, #8]
   27ab8:	3301      	adds	r3, #1
   27aba:	9301      	str	r3, [sp, #4]
   27abc:	197f      	adds	r7, r7, r5
   27abe:	015b      	lsls	r3, r3, #5
   27ac0:	429a      	cmp	r2, r3
   27ac2:	d938      	bls.n	27b36 <flash_write_data+0xce>
   27ac4:	2220      	movs	r2, #32
   27ac6:	0039      	movs	r1, r7
   27ac8:	a808      	add	r0, sp, #32
   27aca:	f006 fcbb 	bl	2e444 <memcpy>
   27ace:	22d1      	movs	r2, #209	; 0xd1
   27ad0:	4b2d      	ldr	r3, [pc, #180]	; (27b88 <flash_write_data+0x120>)
   27ad2:	4e2e      	ldr	r6, [pc, #184]	; (27b8c <flash_write_data+0x124>)
   27ad4:	701a      	strb	r2, [r3, #0]
   27ad6:	2300      	movs	r3, #0
   27ad8:	009a      	lsls	r2, r3, #2
   27ada:	a908      	add	r1, sp, #32
   27adc:	5852      	ldr	r2, [r2, r1]
   27ade:	3301      	adds	r3, #1
   27ae0:	6032      	str	r2, [r6, #0]
   27ae2:	2b08      	cmp	r3, #8
   27ae4:	d1f8      	bne.n	27ad8 <flash_write_data+0x70>
   27ae6:	4b2a      	ldr	r3, [pc, #168]	; (27b90 <flash_write_data+0x128>)
   27ae8:	781b      	ldrb	r3, [r3, #0]
   27aea:	2ba6      	cmp	r3, #166	; 0xa6
   27aec:	d02c      	beq.n	27b48 <flash_write_data+0xe0>
   27aee:	9b06      	ldr	r3, [sp, #24]
   27af0:	9a01      	ldr	r2, [sp, #4]
   27af2:	3520      	adds	r5, #32
   27af4:	4293      	cmp	r3, r2
   27af6:	d8d9      	bhi.n	27aac <flash_write_data+0x44>
   27af8:	f7ff fd2a 	bl	27550 <flash_wp_ALL>
   27afc:	23fa      	movs	r3, #250	; 0xfa
   27afe:	02db      	lsls	r3, r3, #11
   27b00:	6023      	str	r3, [r4, #0]
   27b02:	2300      	movs	r3, #0
   27b04:	4a1f      	ldr	r2, [pc, #124]	; (27b84 <flash_write_data+0x11c>)
   27b06:	7013      	strb	r3, [r2, #0]
   27b08:	4a1f      	ldr	r2, [pc, #124]	; (27b88 <flash_write_data+0x120>)
   27b0a:	7013      	strb	r3, [r2, #0]
   27b0c:	3b01      	subs	r3, #1
   27b0e:	6033      	str	r3, [r6, #0]
   27b10:	6033      	str	r3, [r6, #0]
   27b12:	6033      	str	r3, [r6, #0]
   27b14:	6033      	str	r3, [r6, #0]
   27b16:	6033      	str	r3, [r6, #0]
   27b18:	6033      	str	r3, [r6, #0]
   27b1a:	6033      	str	r3, [r6, #0]
   27b1c:	6033      	str	r3, [r6, #0]
   27b1e:	9b04      	ldr	r3, [sp, #16]
   27b20:	2b00      	cmp	r3, #0
   27b22:	d101      	bne.n	27b28 <flash_write_data+0xc0>
   27b24:	f00e fb4c 	bl	361c0 <____enable_fiq_from_thumb>
   27b28:	9b05      	ldr	r3, [sp, #20]
   27b2a:	2b00      	cmp	r3, #0
   27b2c:	d101      	bne.n	27b32 <flash_write_data+0xca>
   27b2e:	f00e faeb 	bl	36108 <____enable_irq_from_thumb>
   27b32:	b011      	add	sp, #68	; 0x44
   27b34:	bdf0      	pop	{r4, r5, r6, r7, pc}
   27b36:	2220      	movs	r2, #32
   27b38:	21ff      	movs	r1, #255	; 0xff
   27b3a:	a808      	add	r0, sp, #32
   27b3c:	f006 fcd6 	bl	2e4ec <memset>
   27b40:	9b02      	ldr	r3, [sp, #8]
   27b42:	0172      	lsls	r2, r6, #5
   27b44:	1a9a      	subs	r2, r3, r2
   27b46:	e7be      	b.n	27ac6 <flash_write_data+0x5e>
   27b48:	4b12      	ldr	r3, [pc, #72]	; (27b94 <flash_write_data+0x12c>)
   27b4a:	781b      	ldrb	r3, [r3, #0]
   27b4c:	2bb3      	cmp	r3, #179	; 0xb3
   27b4e:	d1ce      	bne.n	27aee <flash_write_data+0x86>
   27b50:	6823      	ldr	r3, [r4, #0]
   27b52:	2b00      	cmp	r3, #0
   27b54:	dbfc      	blt.n	27b50 <flash_write_data+0xe8>
   27b56:	4b0b      	ldr	r3, [pc, #44]	; (27b84 <flash_write_data+0x11c>)
   27b58:	781b      	ldrb	r3, [r3, #0]
   27b5a:	2bc2      	cmp	r3, #194	; 0xc2
   27b5c:	d10b      	bne.n	27b76 <flash_write_data+0x10e>
   27b5e:	4b0a      	ldr	r3, [pc, #40]	; (27b88 <flash_write_data+0x120>)
   27b60:	781b      	ldrb	r3, [r3, #0]
   27b62:	2bd1      	cmp	r3, #209	; 0xd1
   27b64:	d107      	bne.n	27b76 <flash_write_data+0x10e>
   27b66:	2380      	movs	r3, #128	; 0x80
   27b68:	02db      	lsls	r3, r3, #11
   27b6a:	429d      	cmp	r5, r3
   27b6c:	d3e1      	bcc.n	27b32 <flash_write_data+0xca>
   27b6e:	23b0      	movs	r3, #176	; 0xb0
   27b70:	059b      	lsls	r3, r3, #22
   27b72:	432b      	orrs	r3, r5
   27b74:	6023      	str	r3, [r4, #0]
   27b76:	6823      	ldr	r3, [r4, #0]
   27b78:	2b00      	cmp	r3, #0
   27b7a:	dbfc      	blt.n	27b76 <flash_write_data+0x10e>
   27b7c:	e7b7      	b.n	27aee <flash_write_data+0x86>
   27b7e:	46c0      	nop			; (mov r8, r8)
   27b80:	00802000 	.word	0x00802000
   27b84:	00402915 	.word	0x00402915
   27b88:	00402916 	.word	0x00402916
   27b8c:	00802004 	.word	0x00802004
   27b90:	00402913 	.word	0x00402913
   27b94:	00402914 	.word	0x00402914

00027b98 <flash_read_data.part.0>:
   27b98:	b5f0      	push	{r4, r5, r6, r7, lr}
   27b9a:	b08f      	sub	sp, #60	; 0x3c
   27b9c:	0014      	movs	r4, r2
   27b9e:	9105      	str	r1, [sp, #20]
   27ba0:	9004      	str	r0, [sp, #16]
   27ba2:	f00e faf7 	bl	36194 <____disable_fiq_from_thumb>
   27ba6:	9001      	str	r0, [sp, #4]
   27ba8:	f00e faf8 	bl	3619c <____disable_irq_from_thumb>
   27bac:	4d25      	ldr	r5, [pc, #148]	; (27c44 <flash_read_data.part.0+0xac>)
   27bae:	9002      	str	r0, [sp, #8]
   27bb0:	682b      	ldr	r3, [r5, #0]
   27bb2:	2b00      	cmp	r3, #0
   27bb4:	dbfc      	blt.n	27bb0 <flash_read_data.part.0+0x18>
   27bb6:	2200      	movs	r2, #0
   27bb8:	1e63      	subs	r3, r4, #1
   27bba:	095b      	lsrs	r3, r3, #5
   27bbc:	3301      	adds	r3, #1
   27bbe:	9303      	str	r3, [sp, #12]
   27bc0:	2094      	movs	r0, #148	; 0x94
   27bc2:	9905      	ldr	r1, [sp, #20]
   27bc4:	0153      	lsls	r3, r2, #5
   27bc6:	18c9      	adds	r1, r1, r3
   27bc8:	0580      	lsls	r0, r0, #22
   27bca:	4301      	orrs	r1, r0
   27bcc:	6029      	str	r1, [r5, #0]
   27bce:	6829      	ldr	r1, [r5, #0]
   27bd0:	2900      	cmp	r1, #0
   27bd2:	dbfc      	blt.n	27bce <flash_read_data.part.0+0x36>
   27bd4:	481c      	ldr	r0, [pc, #112]	; (27c48 <flash_read_data.part.0+0xb0>)
   27bd6:	2100      	movs	r1, #0
   27bd8:	4684      	mov	ip, r0
   27bda:	4660      	mov	r0, ip
   27bdc:	6806      	ldr	r6, [r0, #0]
   27bde:	af06      	add	r7, sp, #24
   27be0:	0088      	lsls	r0, r1, #2
   27be2:	3101      	adds	r1, #1
   27be4:	51c6      	str	r6, [r0, r7]
   27be6:	2908      	cmp	r1, #8
   27be8:	d1f7      	bne.n	27bda <flash_read_data.part.0+0x42>
   27bea:	9904      	ldr	r1, [sp, #16]
   27bec:	1c56      	adds	r6, r2, #1
   27bee:	18c8      	adds	r0, r1, r3
   27bf0:	3320      	adds	r3, #32
   27bf2:	429c      	cmp	r4, r3
   27bf4:	d922      	bls.n	27c3c <flash_read_data.part.0+0xa4>
   27bf6:	2220      	movs	r2, #32
   27bf8:	0039      	movs	r1, r7
   27bfa:	f006 fc23 	bl	2e444 <memcpy>
   27bfe:	9b03      	ldr	r3, [sp, #12]
   27c00:	42b3      	cmp	r3, r6
   27c02:	d819      	bhi.n	27c38 <flash_read_data.part.0+0xa0>
   27c04:	23fa      	movs	r3, #250	; 0xfa
   27c06:	2201      	movs	r2, #1
   27c08:	02db      	lsls	r3, r3, #11
   27c0a:	602b      	str	r3, [r5, #0]
   27c0c:	4b0f      	ldr	r3, [pc, #60]	; (27c4c <flash_read_data.part.0+0xb4>)
   27c0e:	4252      	negs	r2, r2
   27c10:	601a      	str	r2, [r3, #0]
   27c12:	601a      	str	r2, [r3, #0]
   27c14:	601a      	str	r2, [r3, #0]
   27c16:	601a      	str	r2, [r3, #0]
   27c18:	601a      	str	r2, [r3, #0]
   27c1a:	601a      	str	r2, [r3, #0]
   27c1c:	601a      	str	r2, [r3, #0]
   27c1e:	601a      	str	r2, [r3, #0]
   27c20:	9b01      	ldr	r3, [sp, #4]
   27c22:	2b00      	cmp	r3, #0
   27c24:	d101      	bne.n	27c2a <flash_read_data.part.0+0x92>
   27c26:	f00e facb 	bl	361c0 <____enable_fiq_from_thumb>
   27c2a:	9b02      	ldr	r3, [sp, #8]
   27c2c:	2b00      	cmp	r3, #0
   27c2e:	d101      	bne.n	27c34 <flash_read_data.part.0+0x9c>
   27c30:	f00e fa6a 	bl	36108 <____enable_irq_from_thumb>
   27c34:	b00f      	add	sp, #60	; 0x3c
   27c36:	bdf0      	pop	{r4, r5, r6, r7, pc}
   27c38:	0032      	movs	r2, r6
   27c3a:	e7c1      	b.n	27bc0 <flash_read_data.part.0+0x28>
   27c3c:	0152      	lsls	r2, r2, #5
   27c3e:	1aa2      	subs	r2, r4, r2
   27c40:	a906      	add	r1, sp, #24
   27c42:	e7da      	b.n	27bfa <flash_read_data.part.0+0x62>
   27c44:	00802000 	.word	0x00802000
   27c48:	00802008 	.word	0x00802008
   27c4c:	00802004 	.word	0x00802004

00027c50 <flash_read.constprop.0.isra.0>:
   27c50:	b5f8      	push	{r3, r4, r5, r6, r7, lr}
   27c52:	1847      	adds	r7, r0, r1
   27c54:	23ff      	movs	r3, #255	; 0xff
   27c56:	0015      	movs	r5, r2
   27c58:	003c      	movs	r4, r7
   27c5a:	0002      	movs	r2, r0
   27c5c:	439c      	bics	r4, r3
   27c5e:	439a      	bics	r2, r3
   27c60:	42a2      	cmp	r2, r4
   27c62:	d00f      	beq.n	27c84 <flash_read.constprop.0.isra.0+0x34>
   27c64:	1a26      	subs	r6, r4, r0
   27c66:	4284      	cmp	r4, r0
   27c68:	d004      	beq.n	27c74 <flash_read.constprop.0.isra.0+0x24>
   27c6a:	0001      	movs	r1, r0
   27c6c:	0032      	movs	r2, r6
   27c6e:	0028      	movs	r0, r5
   27c70:	f7ff ff92 	bl	27b98 <flash_read_data.part.0>
   27c74:	1b3a      	subs	r2, r7, r4
   27c76:	42a7      	cmp	r7, r4
   27c78:	d003      	beq.n	27c82 <flash_read.constprop.0.isra.0+0x32>
   27c7a:	0021      	movs	r1, r4
   27c7c:	19a8      	adds	r0, r5, r6
   27c7e:	f7ff ff8b 	bl	27b98 <flash_read_data.part.0>
   27c82:	bdf8      	pop	{r3, r4, r5, r6, r7, pc}
   27c84:	2900      	cmp	r1, #0
   27c86:	d0fc      	beq.n	27c82 <flash_read.constprop.0.isra.0+0x32>
   27c88:	000a      	movs	r2, r1
   27c8a:	0001      	movs	r1, r0
   27c8c:	0028      	movs	r0, r5
   27c8e:	e7f6      	b.n	27c7e <flash_read.constprop.0.isra.0+0x2e>

00027c90 <nvds_read>:
   27c90:	b510      	push	{r4, lr}
   27c92:	f7ff ffdd 	bl	27c50 <flash_read.constprop.0.isra.0>
   27c96:	bd10      	pop	{r4, pc}

00027c98 <oad_save_reciveData>:
   27c98:	b510      	push	{r4, lr}
   27c9a:	4c07      	ldr	r4, [pc, #28]	; (27cb8 <oad_save_reciveData+0x20>)
   27c9c:	1c81      	adds	r1, r0, #2
   27c9e:	69a3      	ldr	r3, [r4, #24]
   27ca0:	1c5a      	adds	r2, r3, #1
   27ca2:	011b      	lsls	r3, r3, #4
   27ca4:	331e      	adds	r3, #30
   27ca6:	191b      	adds	r3, r3, r4
   27ca8:	61a2      	str	r2, [r4, #24]
   27caa:	0018      	movs	r0, r3
   27cac:	2210      	movs	r2, #16
   27cae:	f006 fbc9 	bl	2e444 <memcpy>
   27cb2:	2301      	movs	r3, #1
   27cb4:	7723      	strb	r3, [r4, #28]
   27cb6:	bd10      	pop	{r4, pc}
   27cb8:	00402818 	.word	0x00402818

00027cbc <appm_disconnect>:
   27cbc:	2108      	movs	r1, #8
   27cbe:	b510      	push	{r4, lr}
   27cc0:	4b07      	ldr	r3, [pc, #28]	; (27ce0 <appm_disconnect+0x24>)
   27cc2:	2203      	movs	r2, #3
   27cc4:	789b      	ldrb	r3, [r3, #2]
   27cc6:	4807      	ldr	r0, [pc, #28]	; (27ce4 <appm_disconnect+0x28>)
   27cc8:	021b      	lsls	r3, r3, #8
   27cca:	4319      	orrs	r1, r3
   27ccc:	2302      	movs	r3, #2
   27cce:	f7f7 fd35 	bl	1f73c <ke_msg_alloc>
   27cd2:	2301      	movs	r3, #1
   27cd4:	7003      	strb	r3, [r0, #0]
   27cd6:	3312      	adds	r3, #18
   27cd8:	7043      	strb	r3, [r0, #1]
   27cda:	f7f7 fd49 	bl	1f770 <ke_msg_send>
   27cde:	bd10      	pop	{r4, pc}
   27ce0:	004027d8 	.word	0x004027d8
   27ce4:	00000e04 	.word	0x00000e04

00027ce8 <appm_update_param>:
   27ce8:	2108      	movs	r1, #8
   27cea:	b510      	push	{r4, lr}
   27cec:	4b0d      	ldr	r3, [pc, #52]	; (27d24 <appm_update_param+0x3c>)
   27cee:	0004      	movs	r4, r0
   27cf0:	789b      	ldrb	r3, [r3, #2]
   27cf2:	2203      	movs	r2, #3
   27cf4:	021b      	lsls	r3, r3, #8
   27cf6:	4319      	orrs	r1, r3
   27cf8:	480b      	ldr	r0, [pc, #44]	; (27d28 <appm_update_param+0x40>)
   27cfa:	230e      	movs	r3, #14
   27cfc:	f7f7 fd1e 	bl	1f73c <ke_msg_alloc>
   27d00:	2309      	movs	r3, #9
   27d02:	7003      	strb	r3, [r0, #0]
   27d04:	8823      	ldrh	r3, [r4, #0]
   27d06:	8043      	strh	r3, [r0, #2]
   27d08:	8863      	ldrh	r3, [r4, #2]
   27d0a:	8083      	strh	r3, [r0, #4]
   27d0c:	88a3      	ldrh	r3, [r4, #4]
   27d0e:	80c3      	strh	r3, [r0, #6]
   27d10:	88e3      	ldrh	r3, [r4, #6]
   27d12:	8103      	strh	r3, [r0, #8]
   27d14:	2301      	movs	r3, #1
   27d16:	425b      	negs	r3, r3
   27d18:	8143      	strh	r3, [r0, #10]
   27d1a:	8183      	strh	r3, [r0, #12]
   27d1c:	f7f7 fd28 	bl	1f770 <ke_msg_send>
   27d20:	bd10      	pop	{r4, pc}
   27d22:	46c0      	nop			; (mov r8, r8)
   27d24:	004027d8 	.word	0x004027d8
   27d28:	00000e0e 	.word	0x00000e0e

00027d2c <app_batt_add_bas>:
   27d2c:	b510      	push	{r4, lr}
   27d2e:	2320      	movs	r3, #32
   27d30:	2203      	movs	r2, #3
   27d32:	2107      	movs	r1, #7
   27d34:	4806      	ldr	r0, [pc, #24]	; (27d50 <app_batt_add_bas+0x24>)
   27d36:	f7f7 fd01 	bl	1f73c <ke_msg_alloc>
   27d3a:	4b06      	ldr	r3, [pc, #24]	; (27d54 <app_batt_add_bas+0x28>)
   27d3c:	6003      	str	r3, [r0, #0]
   27d3e:	2303      	movs	r3, #3
   27d40:	6043      	str	r3, [r0, #4]
   27d42:	2302      	movs	r3, #2
   27d44:	33ff      	adds	r3, #255	; 0xff
   27d46:	8183      	strh	r3, [r0, #12]
   27d48:	f7f7 fd12 	bl	1f770 <ke_msg_send>
   27d4c:	bd10      	pop	{r4, pc}
   27d4e:	46c0      	nop			; (mov r8, r8)
   27d50:	00000d1b 	.word	0x00000d1b
   27d54:	0024001b 	.word	0x0024001b

00027d58 <diss_value_req_ind_handler>:
   27d58:	b5f8      	push	{r3, r4, r5, r6, r7, lr}
   27d5a:	000e      	movs	r6, r1
   27d5c:	2700      	movs	r7, #0
   27d5e:	7830      	ldrb	r0, [r6, #0]
   27d60:	0019      	movs	r1, r3
   27d62:	003d      	movs	r5, r7
   27d64:	2808      	cmp	r0, #8
   27d66:	d804      	bhi.n	27d72 <diss_value_req_ind_handler+0x1a>
   27d68:	4b0d      	ldr	r3, [pc, #52]	; (27da0 <diss_value_req_ind_handler+0x48>)
   27d6a:	5c1d      	ldrb	r5, [r3, r0]
   27d6c:	4b0d      	ldr	r3, [pc, #52]	; (27da4 <diss_value_req_ind_handler+0x4c>)
   27d6e:	0080      	lsls	r0, r0, #2
   27d70:	58c7      	ldr	r7, [r0, r3]
   27d72:	1cab      	adds	r3, r5, #2
   27d74:	061b      	lsls	r3, r3, #24
   27d76:	0e1b      	lsrs	r3, r3, #24
   27d78:	480b      	ldr	r0, [pc, #44]	; (27da8 <diss_value_req_ind_handler+0x50>)
   27d7a:	f7f7 fcdf 	bl	1f73c <ke_msg_alloc>
   27d7e:	7833      	ldrb	r3, [r6, #0]
   27d80:	0004      	movs	r4, r0
   27d82:	7003      	strb	r3, [r0, #0]
   27d84:	7045      	strb	r5, [r0, #1]
   27d86:	2d00      	cmp	r5, #0
   27d88:	d004      	beq.n	27d94 <diss_value_req_ind_handler+0x3c>
   27d8a:	002a      	movs	r2, r5
   27d8c:	0039      	movs	r1, r7
   27d8e:	3002      	adds	r0, #2
   27d90:	f006 fb58 	bl	2e444 <memcpy>
   27d94:	0020      	movs	r0, r4
   27d96:	f7f7 fceb 	bl	1f770 <ke_msg_send>
   27d9a:	2000      	movs	r0, #0
   27d9c:	bdf8      	pop	{r3, r4, r5, r6, r7, pc}
   27d9e:	46c0      	nop			; (mov r8, r8)
   27da0:	00036e34 	.word	0x00036e34
   27da4:	00036e40 	.word	0x00036e40
   27da8:	00001403 	.word	0x00001403

00027dac <app_dis_add_dis>:
   27dac:	b510      	push	{r4, lr}
   27dae:	230e      	movs	r3, #14
   27db0:	2203      	movs	r2, #3
   27db2:	2107      	movs	r1, #7
   27db4:	4806      	ldr	r0, [pc, #24]	; (27dd0 <app_dis_add_dis+0x24>)
   27db6:	f7f7 fcc1 	bl	1f73c <ke_msg_alloc>
   27dba:	4b06      	ldr	r3, [pc, #24]	; (27dd4 <app_dis_add_dis+0x28>)
   27dbc:	6003      	str	r3, [r0, #0]
   27dbe:	2303      	movs	r3, #3
   27dc0:	6043      	str	r3, [r0, #4]
   27dc2:	2344      	movs	r3, #68	; 0x44
   27dc4:	33ff      	adds	r3, #255	; 0xff
   27dc6:	8183      	strh	r3, [r0, #12]
   27dc8:	f7f7 fcd2 	bl	1f770 <ke_msg_send>
   27dcc:	bd10      	pop	{r4, pc}
   27dce:	46c0      	nop			; (mov r8, r8)
   27dd0:	00000d1b 	.word	0x00000d1b
   27dd4:	0014001b 	.word	0x0014001b

00027dd8 <gapc_get_dev_info_req_ind_handler>:
   27dd8:	b570      	push	{r4, r5, r6, lr}
   27dda:	000c      	movs	r4, r1
   27ddc:	0019      	movs	r1, r3
   27dde:	7823      	ldrb	r3, [r4, #0]
   27de0:	2b01      	cmp	r3, #1
   27de2:	d018      	beq.n	27e16 <gapc_get_dev_info_req_ind_handler+0x3e>
   27de4:	2b02      	cmp	r3, #2
   27de6:	d01f      	beq.n	27e28 <gapc_get_dev_info_req_ind_handler+0x50>
   27de8:	2b00      	cmp	r3, #0
   27dea:	d112      	bne.n	27e12 <gapc_get_dev_info_req_ind_handler+0x3a>
   27dec:	331c      	adds	r3, #28
   27dee:	4816      	ldr	r0, [pc, #88]	; (27e48 <gapc_get_dev_info_req_ind_handler+0x70>)
   27df0:	f7f7 fca4 	bl	1f73c <ke_msg_alloc>
   27df4:	7823      	ldrb	r3, [r4, #0]
   27df6:	4c15      	ldr	r4, [pc, #84]	; (27e4c <gapc_get_dev_info_req_ind_handler+0x74>)
   27df8:	0005      	movs	r5, r0
   27dfa:	0021      	movs	r1, r4
   27dfc:	7003      	strb	r3, [r0, #0]
   27dfe:	7a62      	ldrb	r2, [r4, #9]
   27e00:	3004      	adds	r0, #4
   27e02:	310a      	adds	r1, #10
   27e04:	f006 fb1e 	bl	2e444 <memcpy>
   27e08:	0028      	movs	r0, r5
   27e0a:	7a63      	ldrb	r3, [r4, #9]
   27e0c:	806b      	strh	r3, [r5, #2]
   27e0e:	f7f7 fcaf 	bl	1f770 <ke_msg_send>
   27e12:	2000      	movs	r0, #0
   27e14:	bd70      	pop	{r4, r5, r6, pc}
   27e16:	230a      	movs	r3, #10
   27e18:	480b      	ldr	r0, [pc, #44]	; (27e48 <gapc_get_dev_info_req_ind_handler+0x70>)
   27e1a:	f7f7 fc8f 	bl	1f73c <ke_msg_alloc>
   27e1e:	7823      	ldrb	r3, [r4, #0]
   27e20:	7003      	strb	r3, [r0, #0]
   27e22:	4b0b      	ldr	r3, [pc, #44]	; (27e50 <gapc_get_dev_info_req_ind_handler+0x78>)
   27e24:	8043      	strh	r3, [r0, #2]
   27e26:	e7f2      	b.n	27e0e <gapc_get_dev_info_req_ind_handler+0x36>
   27e28:	230a      	movs	r3, #10
   27e2a:	4807      	ldr	r0, [pc, #28]	; (27e48 <gapc_get_dev_info_req_ind_handler+0x70>)
   27e2c:	f7f7 fc86 	bl	1f73c <ke_msg_alloc>
   27e30:	7823      	ldrb	r3, [r4, #0]
   27e32:	7003      	strb	r3, [r0, #0]
   27e34:	2306      	movs	r3, #6
   27e36:	8043      	strh	r3, [r0, #2]
   27e38:	3304      	adds	r3, #4
   27e3a:	8083      	strh	r3, [r0, #4]
   27e3c:	335a      	adds	r3, #90	; 0x5a
   27e3e:	80c3      	strh	r3, [r0, #6]
   27e40:	33f5      	adds	r3, #245	; 0xf5
   27e42:	33ff      	adds	r3, #255	; 0xff
   27e44:	8103      	strh	r3, [r0, #8]
   27e46:	e7e2      	b.n	27e0e <gapc_get_dev_info_req_ind_handler+0x36>
   27e48:	00000e0b 	.word	0x00000e0b
   27e4c:	004027d8 	.word	0x004027d8
   27e50:	000003c2 	.word	0x000003c2

00027e54 <gapc_set_dev_info_req_ind_handler>:
   27e54:	b510      	push	{r4, lr}
   27e56:	4807      	ldr	r0, [pc, #28]	; (27e74 <gapc_set_dev_info_req_ind_handler+0x20>)
   27e58:	000c      	movs	r4, r1
   27e5a:	0019      	movs	r1, r3
   27e5c:	2302      	movs	r3, #2
   27e5e:	f7f7 fc6d 	bl	1f73c <ke_msg_alloc>
   27e62:	2348      	movs	r3, #72	; 0x48
   27e64:	7043      	strb	r3, [r0, #1]
   27e66:	7823      	ldrb	r3, [r4, #0]
   27e68:	7003      	strb	r3, [r0, #0]
   27e6a:	f7f7 fc81 	bl	1f770 <ke_msg_send>
   27e6e:	2000      	movs	r0, #0
   27e70:	bd10      	pop	{r4, pc}
   27e72:	46c0      	nop			; (mov r8, r8)
   27e74:	00000e0d 	.word	0x00000e0d

00027e78 <bass_notify_batt_lvl>:
   27e78:	b5f8      	push	{r3, r4, r5, r6, r7, lr}
   27e7a:	000c      	movs	r4, r1
   27e7c:	0005      	movs	r5, r0
   27e7e:	2100      	movs	r1, #0
   27e80:	8840      	ldrh	r0, [r0, #2]
   27e82:	0016      	movs	r6, r2
   27e84:	f7ff fd6d 	bl	27962 <prf_src_task_get.isra.0>
   27e88:	2106      	movs	r1, #6
   27e8a:	0002      	movs	r2, r0
   27e8c:	20c1      	movs	r0, #193	; 0xc1
   27e8e:	0224      	lsls	r4, r4, #8
   27e90:	4321      	orrs	r1, r4
   27e92:	2309      	movs	r3, #9
   27e94:	0100      	lsls	r0, r0, #4
   27e96:	f7f7 fc51 	bl	1f73c <ke_msg_alloc>
   27e9a:	2312      	movs	r3, #18
   27e9c:	0004      	movs	r4, r0
   27e9e:	7003      	strb	r3, [r0, #0]
   27ea0:	2024      	movs	r0, #36	; 0x24
   27ea2:	f7ff fa5b 	bl	2735c <prf_env_get>
   27ea6:	7fc2      	ldrb	r2, [r0, #31]
   27ea8:	2300      	movs	r3, #0
   27eaa:	42b2      	cmp	r2, r6
   27eac:	d908      	bls.n	27ec0 <bass_notify_batt_lvl+0x48>
   27eae:	2701      	movs	r7, #1
   27eb0:	8b01      	ldrh	r1, [r0, #24]
   27eb2:	061a      	lsls	r2, r3, #24
   27eb4:	0e12      	lsrs	r2, r2, #24
   27eb6:	4296      	cmp	r6, r2
   27eb8:	d80c      	bhi.n	27ed4 <bass_notify_batt_lvl+0x5c>
   27eba:	3102      	adds	r1, #2
   27ebc:	040b      	lsls	r3, r1, #16
   27ebe:	0c1b      	lsrs	r3, r3, #16
   27ec0:	80a3      	strh	r3, [r4, #4]
   27ec2:	2301      	movs	r3, #1
   27ec4:	19ad      	adds	r5, r5, r6
   27ec6:	80e3      	strh	r3, [r4, #6]
   27ec8:	7eab      	ldrb	r3, [r5, #26]
   27eca:	0020      	movs	r0, r4
   27ecc:	7223      	strb	r3, [r4, #8]
   27ece:	f7f7 fc4f 	bl	1f770 <ke_msg_send>
   27ed2:	bdf8      	pop	{r3, r4, r5, r6, r7, pc}
   27ed4:	7f82      	ldrb	r2, [r0, #30]
   27ed6:	411a      	asrs	r2, r3
   27ed8:	403a      	ands	r2, r7
   27eda:	3204      	adds	r2, #4
   27edc:	1889      	adds	r1, r1, r2
   27ede:	0409      	lsls	r1, r1, #16
   27ee0:	0c09      	lsrs	r1, r1, #16
   27ee2:	3301      	adds	r3, #1
   27ee4:	e7e5      	b.n	27eb2 <bass_notify_batt_lvl+0x3a>
	...

00027ee8 <gattc_att_info_req_ind_handler.lto_priv.0>:
   27ee8:	b5f7      	push	{r0, r1, r2, r4, r5, r6, r7, lr}
   27eea:	001e      	movs	r6, r3
   27eec:	466b      	mov	r3, sp
   27eee:	000d      	movs	r5, r1
   27ef0:	0017      	movs	r7, r2
   27ef2:	1dd9      	adds	r1, r3, #7
   27ef4:	466a      	mov	r2, sp
   27ef6:	2300      	movs	r3, #0
   27ef8:	3206      	adds	r2, #6
   27efa:	8828      	ldrh	r0, [r5, #0]
   27efc:	7013      	strb	r3, [r2, #0]
   27efe:	700b      	strb	r3, [r1, #0]
   27f00:	f7ff fceb 	bl	278da <bass_get_att_idx.constprop.0>
   27f04:	2306      	movs	r3, #6
   27f06:	0004      	movs	r4, r0
   27f08:	003a      	movs	r2, r7
   27f0a:	0031      	movs	r1, r6
   27f0c:	480a      	ldr	r0, [pc, #40]	; (27f38 <gattc_att_info_req_ind_handler.lto_priv.0+0x50>)
   27f0e:	f7f7 fc15 	bl	1f73c <ke_msg_alloc>
   27f12:	882b      	ldrh	r3, [r5, #0]
   27f14:	8003      	strh	r3, [r0, #0]
   27f16:	2c00      	cmp	r4, #0
   27f18:	d105      	bne.n	27f26 <gattc_att_info_req_ind_handler.lto_priv.0+0x3e>
   27f1a:	466b      	mov	r3, sp
   27f1c:	799b      	ldrb	r3, [r3, #6]
   27f1e:	2b03      	cmp	r3, #3
   27f20:	d106      	bne.n	27f30 <gattc_att_info_req_ind_handler.lto_priv.0+0x48>
   27f22:	3b01      	subs	r3, #1
   27f24:	8043      	strh	r3, [r0, #2]
   27f26:	7104      	strb	r4, [r0, #4]
   27f28:	f7f7 fc22 	bl	1f770 <ke_msg_send>
   27f2c:	2000      	movs	r0, #0
   27f2e:	bdfe      	pop	{r1, r2, r3, r4, r5, r6, r7, pc}
   27f30:	8044      	strh	r4, [r0, #2]
   27f32:	2403      	movs	r4, #3
   27f34:	e7f7      	b.n	27f26 <gattc_att_info_req_ind_handler.lto_priv.0+0x3e>
   27f36:	46c0      	nop			; (mov r8, r8)
   27f38:	00000c18 	.word	0x00000c18

00027f3c <gattc_write_req_ind_handler.lto_priv.0>:
   27f3c:	b5f0      	push	{r4, r5, r6, r7, lr}
   27f3e:	b087      	sub	sp, #28
   27f40:	9303      	str	r3, [sp, #12]
   27f42:	2300      	movs	r3, #0
   27f44:	0017      	movs	r7, r2
   27f46:	aa04      	add	r2, sp, #16
   27f48:	71d3      	strb	r3, [r2, #7]
   27f4a:	7193      	strb	r3, [r2, #6]
   27f4c:	0013      	movs	r3, r2
   27f4e:	8808      	ldrh	r0, [r1, #0]
   27f50:	000d      	movs	r5, r1
   27f52:	3206      	adds	r2, #6
   27f54:	1dd9      	adds	r1, r3, #7
   27f56:	f7ff fcc0 	bl	278da <bass_get_att_idx.constprop.0>
   27f5a:	1e04      	subs	r4, r0, #0
   27f5c:	d131      	bne.n	27fc2 <gattc_write_req_ind_handler.lto_priv.0+0x86>
   27f5e:	ab04      	add	r3, sp, #16
   27f60:	799b      	ldrb	r3, [r3, #6]
   27f62:	2b03      	cmp	r3, #3
   27f64:	d13e      	bne.n	27fe4 <gattc_write_req_ind_handler.lto_priv.0+0xa8>
   27f66:	79ee      	ldrb	r6, [r5, #7]
   27f68:	79ab      	ldrb	r3, [r5, #6]
   27f6a:	0236      	lsls	r6, r6, #8
   27f6c:	431e      	orrs	r6, r3
   27f6e:	2e01      	cmp	r6, #1
   27f70:	d838      	bhi.n	27fe4 <gattc_write_req_ind_handler.lto_priv.0+0xa8>
   27f72:	9b03      	ldr	r3, [sp, #12]
   27f74:	2024      	movs	r0, #36	; 0x24
   27f76:	0a1b      	lsrs	r3, r3, #8
   27f78:	9302      	str	r3, [sp, #8]
   27f7a:	f7ff f9ef 	bl	2735c <prf_env_get>
   27f7e:	9a02      	ldr	r2, [sp, #8]
   27f80:	ab04      	add	r3, sp, #16
   27f82:	1881      	adds	r1, r0, r2
   27f84:	2280      	movs	r2, #128	; 0x80
   27f86:	79db      	ldrb	r3, [r3, #7]
   27f88:	0452      	lsls	r2, r2, #17
   27f8a:	9001      	str	r0, [sp, #4]
   27f8c:	409a      	lsls	r2, r3
   27f8e:	201d      	movs	r0, #29
   27f90:	1613      	asrs	r3, r2, #24
   27f92:	5608      	ldrsb	r0, [r1, r0]
   27f94:	2e01      	cmp	r6, #1
   27f96:	d122      	bne.n	27fde <gattc_write_req_ind_handler.lto_priv.0+0xa2>
   27f98:	4303      	orrs	r3, r0
   27f9a:	774b      	strb	r3, [r1, #29]
   27f9c:	9e02      	ldr	r6, [sp, #8]
   27f9e:	9b01      	ldr	r3, [sp, #4]
   27fa0:	0031      	movs	r1, r6
   27fa2:	8818      	ldrh	r0, [r3, #0]
   27fa4:	f7ff fcd4 	bl	27950 <prf_dst_task_get.isra.0>
   27fa8:	2302      	movs	r3, #2
   27faa:	0001      	movs	r1, r0
   27fac:	003a      	movs	r2, r7
   27fae:	480e      	ldr	r0, [pc, #56]	; (27fe8 <gattc_write_req_ind_handler.lto_priv.0+0xac>)
   27fb0:	f7f7 fbc4 	bl	1f73c <ke_msg_alloc>
   27fb4:	9b01      	ldr	r3, [sp, #4]
   27fb6:	7006      	strb	r6, [r0, #0]
   27fb8:	199e      	adds	r6, r3, r6
   27fba:	7f73      	ldrb	r3, [r6, #29]
   27fbc:	7043      	strb	r3, [r0, #1]
   27fbe:	f7f7 fbd7 	bl	1f770 <ke_msg_send>
   27fc2:	003a      	movs	r2, r7
   27fc4:	9903      	ldr	r1, [sp, #12]
   27fc6:	2304      	movs	r3, #4
   27fc8:	4808      	ldr	r0, [pc, #32]	; (27fec <gattc_write_req_ind_handler.lto_priv.0+0xb0>)
   27fca:	f7f7 fbb7 	bl	1f73c <ke_msg_alloc>
   27fce:	882b      	ldrh	r3, [r5, #0]
   27fd0:	7084      	strb	r4, [r0, #2]
   27fd2:	8003      	strh	r3, [r0, #0]
   27fd4:	f7f7 fbcc 	bl	1f770 <ke_msg_send>
   27fd8:	2000      	movs	r0, #0
   27fda:	b007      	add	sp, #28
   27fdc:	bdf0      	pop	{r4, r5, r6, r7, pc}
   27fde:	4398      	bics	r0, r3
   27fe0:	7748      	strb	r0, [r1, #29]
   27fe2:	e7db      	b.n	27f9c <gattc_write_req_ind_handler.lto_priv.0+0x60>
   27fe4:	2480      	movs	r4, #128	; 0x80
   27fe6:	e7ec      	b.n	27fc2 <gattc_write_req_ind_handler.lto_priv.0+0x86>
   27fe8:	00002404 	.word	0x00002404
   27fec:	00000c16 	.word	0x00000c16

00027ff0 <gattc_read_req_ind_handler.lto_priv.0>:
   27ff0:	b5f0      	push	{r4, r5, r6, r7, lr}
   27ff2:	2500      	movs	r5, #0
   27ff4:	b085      	sub	sp, #20
   27ff6:	001f      	movs	r7, r3
   27ff8:	ab02      	add	r3, sp, #8
   27ffa:	71dd      	strb	r5, [r3, #7]
   27ffc:	719d      	strb	r5, [r3, #6]
   27ffe:	ab02      	add	r3, sp, #8
   28000:	8808      	ldrh	r0, [r1, #0]
   28002:	9100      	str	r1, [sp, #0]
   28004:	9201      	str	r2, [sp, #4]
   28006:	1dd9      	adds	r1, r3, #7
   28008:	1d9a      	adds	r2, r3, #6
   2800a:	f7ff fc66 	bl	278da <bass_get_att_idx.constprop.0>
   2800e:	0006      	movs	r6, r0
   28010:	2024      	movs	r0, #36	; 0x24
   28012:	f7ff f9a3 	bl	2735c <prf_env_get>
   28016:	0004      	movs	r4, r0
   28018:	42ae      	cmp	r6, r5
   2801a:	d108      	bne.n	2802e <gattc_read_req_ind_handler.lto_priv.0+0x3e>
   2801c:	ab02      	add	r3, sp, #8
   2801e:	799b      	ldrb	r3, [r3, #6]
   28020:	2b02      	cmp	r3, #2
   28022:	d024      	beq.n	2806e <gattc_read_req_ind_handler.lto_priv.0+0x7e>
   28024:	2b03      	cmp	r3, #3
   28026:	d024      	beq.n	28072 <gattc_read_req_ind_handler.lto_priv.0+0x82>
   28028:	2b04      	cmp	r3, #4
   2802a:	d024      	beq.n	28076 <gattc_read_req_ind_handler.lto_priv.0+0x86>
   2802c:	2680      	movs	r6, #128	; 0x80
   2802e:	1dab      	adds	r3, r5, #6
   28030:	0039      	movs	r1, r7
   28032:	9a01      	ldr	r2, [sp, #4]
   28034:	4822      	ldr	r0, [pc, #136]	; (280c0 <gattc_read_req_ind_handler.lto_priv.0+0xd0>)
   28036:	f7f7 fb81 	bl	1f73c <ke_msg_alloc>
   2803a:	9b00      	ldr	r3, [sp, #0]
   2803c:	881b      	ldrh	r3, [r3, #0]
   2803e:	7106      	strb	r6, [r0, #4]
   28040:	8003      	strh	r3, [r0, #0]
   28042:	8045      	strh	r5, [r0, #2]
   28044:	2e00      	cmp	r6, #0
   28046:	d10d      	bne.n	28064 <gattc_read_req_ind_handler.lto_priv.0+0x74>
   28048:	ab02      	add	r3, sp, #8
   2804a:	3306      	adds	r3, #6
   2804c:	781b      	ldrb	r3, [r3, #0]
   2804e:	2b02      	cmp	r3, #2
   28050:	d113      	bne.n	2807a <gattc_read_req_ind_handler.lto_priv.0+0x8a>
   28052:	ab02      	add	r3, sp, #8
   28054:	3307      	adds	r3, #7
   28056:	781b      	ldrb	r3, [r3, #0]
   28058:	18e4      	adds	r4, r4, r3
   2805a:	7ea3      	ldrb	r3, [r4, #26]
   2805c:	7143      	strb	r3, [r0, #5]
   2805e:	7ea3      	ldrb	r3, [r4, #26]
   28060:	3301      	adds	r3, #1
   28062:	76a3      	strb	r3, [r4, #26]
   28064:	f7f7 fb84 	bl	1f770 <ke_msg_send>
   28068:	2000      	movs	r0, #0
   2806a:	b005      	add	sp, #20
   2806c:	bdf0      	pop	{r4, r5, r6, r7, pc}
   2806e:	2501      	movs	r5, #1
   28070:	e7dd      	b.n	2802e <gattc_read_req_ind_handler.lto_priv.0+0x3e>
   28072:	2502      	movs	r5, #2
   28074:	e7db      	b.n	2802e <gattc_read_req_ind_handler.lto_priv.0+0x3e>
   28076:	2507      	movs	r5, #7
   28078:	e7d9      	b.n	2802e <gattc_read_req_ind_handler.lto_priv.0+0x3e>
   2807a:	2b03      	cmp	r3, #3
   2807c:	d10b      	bne.n	28096 <gattc_read_req_ind_handler.lto_priv.0+0xa6>
   2807e:	0a3b      	lsrs	r3, r7, #8
   28080:	aa02      	add	r2, sp, #8
   28082:	18e4      	adds	r4, r4, r3
   28084:	3207      	adds	r2, #7
   28086:	7f63      	ldrb	r3, [r4, #29]
   28088:	7812      	ldrb	r2, [r2, #0]
   2808a:	7186      	strb	r6, [r0, #6]
   2808c:	4113      	asrs	r3, r2
   2808e:	2201      	movs	r2, #1
   28090:	4013      	ands	r3, r2
   28092:	7143      	strb	r3, [r0, #5]
   28094:	e7e6      	b.n	28064 <gattc_read_req_ind_handler.lto_priv.0+0x74>
   28096:	2b04      	cmp	r3, #4
   28098:	d1e4      	bne.n	28064 <gattc_read_req_ind_handler.lto_priv.0+0x74>
   2809a:	ab02      	add	r3, sp, #8
   2809c:	79db      	ldrb	r3, [r3, #7]
   2809e:	00db      	lsls	r3, r3, #3
   280a0:	18e4      	adds	r4, r4, r3
   280a2:	7a23      	ldrb	r3, [r4, #8]
   280a4:	7143      	strb	r3, [r0, #5]
   280a6:	7a63      	ldrb	r3, [r4, #9]
   280a8:	7183      	strb	r3, [r0, #6]
   280aa:	88a3      	ldrh	r3, [r4, #4]
   280ac:	71c3      	strb	r3, [r0, #7]
   280ae:	0a1b      	lsrs	r3, r3, #8
   280b0:	7203      	strb	r3, [r0, #8]
   280b2:	7aa3      	ldrb	r3, [r4, #10]
   280b4:	7243      	strb	r3, [r0, #9]
   280b6:	88e3      	ldrh	r3, [r4, #6]
   280b8:	7283      	strb	r3, [r0, #10]
   280ba:	0a1b      	lsrs	r3, r3, #8
   280bc:	72c3      	strb	r3, [r0, #11]
   280be:	e7d1      	b.n	28064 <gattc_read_req_ind_handler.lto_priv.0+0x74>
   280c0:	00000c14 	.word	0x00000c14

000280c4 <gattc_att_info_req_ind_handler.lto_priv.3>:
   280c4:	b5f0      	push	{r4, r5, r6, r7, lr}
   280c6:	270e      	movs	r7, #14
   280c8:	b087      	sub	sp, #28
   280ca:	2026      	movs	r0, #38	; 0x26
   280cc:	000d      	movs	r5, r1
   280ce:	0016      	movs	r6, r2
   280d0:	9303      	str	r3, [sp, #12]
   280d2:	f7ff f943 	bl	2735c <prf_env_get>
   280d6:	ab02      	add	r3, sp, #8
   280d8:	18ff      	adds	r7, r7, r3
   280da:	230d      	movs	r3, #13
   280dc:	aa02      	add	r2, sp, #8
   280de:	189b      	adds	r3, r3, r2
   280e0:	220f      	movs	r2, #15
   280e2:	ac02      	add	r4, sp, #8
   280e4:	1912      	adds	r2, r2, r4
   280e6:	8829      	ldrh	r1, [r5, #0]
   280e8:	9300      	str	r3, [sp, #0]
   280ea:	003b      	movs	r3, r7
   280ec:	f7ff fb56 	bl	2779c <hogpd_get_att_idx>
   280f0:	2306      	movs	r3, #6
   280f2:	0032      	movs	r2, r6
   280f4:	0004      	movs	r4, r0
   280f6:	9903      	ldr	r1, [sp, #12]
   280f8:	4811      	ldr	r0, [pc, #68]	; (28140 <gattc_att_info_req_ind_handler.lto_priv.3+0x7c>)
   280fa:	f7f7 fb1f 	bl	1f73c <ke_msg_alloc>
   280fe:	882a      	ldrh	r2, [r5, #0]
   28100:	0003      	movs	r3, r0
   28102:	8002      	strh	r2, [r0, #0]
   28104:	2c00      	cmp	r4, #0
   28106:	d10d      	bne.n	28124 <gattc_att_info_req_ind_handler.lto_priv.3+0x60>
   28108:	7838      	ldrb	r0, [r7, #0]
   2810a:	380c      	subs	r0, #12
   2810c:	280a      	cmp	r0, #10
   2810e:	d812      	bhi.n	28136 <gattc_att_info_req_ind_handler.lto_priv.3+0x72>
   28110:	f7fd fe9e 	bl	25e50 <__gnu_thumb1_case_uqi>
   28114:	06110f06 	.word	0x06110f06
   28118:	110f0611 	.word	0x110f0611
   2811c:	1106      	.short	0x1106
   2811e:	0f          	.byte	0x0f
   2811f:	00          	.byte	0x00
   28120:	2200      	movs	r2, #0
   28122:	805a      	strh	r2, [r3, #2]
   28124:	0018      	movs	r0, r3
   28126:	711c      	strb	r4, [r3, #4]
   28128:	f7f7 fb22 	bl	1f770 <ke_msg_send>
   2812c:	2000      	movs	r0, #0
   2812e:	b007      	add	sp, #28
   28130:	bdf0      	pop	{r4, r5, r6, r7, pc}
   28132:	2202      	movs	r2, #2
   28134:	e7f5      	b.n	28122 <gattc_att_info_req_ind_handler.lto_priv.3+0x5e>
   28136:	2200      	movs	r2, #0
   28138:	2403      	movs	r4, #3
   2813a:	805a      	strh	r2, [r3, #2]
   2813c:	e7f2      	b.n	28124 <gattc_att_info_req_ind_handler.lto_priv.3+0x60>
   2813e:	46c0      	nop			; (mov r8, r8)
   28140:	00000c18 	.word	0x00000c18

00028144 <oadImgBlockReq.constprop.0>:
   28144:	b537      	push	{r0, r1, r2, r4, r5, lr}
   28146:	0004      	movs	r4, r0
   28148:	2049      	movs	r0, #73	; 0x49
   2814a:	f7ff f907 	bl	2735c <prf_env_get>
   2814e:	466b      	mov	r3, sp
   28150:	711c      	strb	r4, [r3, #4]
   28152:	0a24      	lsrs	r4, r4, #8
   28154:	0005      	movs	r5, r0
   28156:	715c      	strb	r4, [r3, #5]
   28158:	2100      	movs	r1, #0
   2815a:	8840      	ldrh	r0, [r0, #2]
   2815c:	f7ff fc01 	bl	27962 <prf_src_task_get.isra.0>
   28160:	0002      	movs	r2, r0
   28162:	20c1      	movs	r0, #193	; 0xc1
   28164:	230a      	movs	r3, #10
   28166:	2106      	movs	r1, #6
   28168:	0100      	lsls	r0, r0, #4
   2816a:	f7f7 fae7 	bl	1f73c <ke_msg_alloc>
   2816e:	2312      	movs	r3, #18
   28170:	2202      	movs	r2, #2
   28172:	0004      	movs	r4, r0
   28174:	7003      	strb	r3, [r0, #0]
   28176:	892b      	ldrh	r3, [r5, #8]
   28178:	a901      	add	r1, sp, #4
   2817a:	3306      	adds	r3, #6
   2817c:	8083      	strh	r3, [r0, #4]
   2817e:	80c2      	strh	r2, [r0, #6]
   28180:	3008      	adds	r0, #8
   28182:	f006 f95f 	bl	2e444 <memcpy>
   28186:	0020      	movs	r0, r4
   28188:	f7f7 faf2 	bl	1f770 <ke_msg_send>
   2818c:	bd37      	pop	{r0, r1, r2, r4, r5, pc}
	...

00028190 <nvds_put>:
   28190:	b5f0      	push	{r4, r5, r6, r7, lr}
   28192:	4c50      	ldr	r4, [pc, #320]	; (282d4 <nvds_put+0x144>)
   28194:	4b50      	ldr	r3, [pc, #320]	; (282d8 <nvds_put+0x148>)
   28196:	44a5      	add	sp, r4
   28198:	9308      	str	r3, [sp, #32]
   2819a:	2300      	movs	r3, #0
   2819c:	9002      	str	r0, [sp, #8]
   2819e:	9100      	str	r1, [sp, #0]
   281a0:	9203      	str	r2, [sp, #12]
   281a2:	9301      	str	r3, [sp, #4]
   281a4:	9c08      	ldr	r4, [sp, #32]
   281a6:	ae06      	add	r6, sp, #24
   281a8:	0031      	movs	r1, r6
   281aa:	0020      	movs	r0, r4
   281ac:	aa08      	add	r2, sp, #32
   281ae:	f7fe fffd 	bl	271ac <nvds_walk_tag>
   281b2:	1e05      	subs	r5, r0, #0
   281b4:	d15e      	bne.n	28274 <nvds_put+0xe4>
   281b6:	2205      	movs	r2, #5
   281b8:	7873      	ldrb	r3, [r6, #1]
   281ba:	401a      	ands	r2, r3
   281bc:	2a04      	cmp	r2, #4
   281be:	d1f1      	bne.n	281a4 <nvds_put+0x14>
   281c0:	7832      	ldrb	r2, [r6, #0]
   281c2:	9902      	ldr	r1, [sp, #8]
   281c4:	428a      	cmp	r2, r1
   281c6:	d11e      	bne.n	28206 <nvds_put+0x76>
   281c8:	2202      	movs	r2, #2
   281ca:	4213      	tst	r3, r2
   281cc:	d020      	beq.n	28210 <nvds_put+0x80>
   281ce:	4f43      	ldr	r7, [pc, #268]	; (282dc <nvds_put+0x14c>)
   281d0:	aa0a      	add	r2, sp, #40	; 0x28
   281d2:	683b      	ldr	r3, [r7, #0]
   281d4:	78b1      	ldrb	r1, [r6, #2]
   281d6:	1ce0      	adds	r0, r4, #3
   281d8:	4798      	blx	r3
   281da:	78b3      	ldrb	r3, [r6, #2]
   281dc:	9a00      	ldr	r2, [sp, #0]
   281de:	4293      	cmp	r3, r2
   281e0:	d105      	bne.n	281ee <nvds_put+0x5e>
   281e2:	9803      	ldr	r0, [sp, #12]
   281e4:	a90a      	add	r1, sp, #40	; 0x28
   281e6:	f7fa f95d 	bl	224a4 <memcmp>
   281ea:	2800      	cmp	r0, #0
   281ec:	d03d      	beq.n	2826a <nvds_put+0xda>
   281ee:	2104      	movs	r1, #4
   281f0:	ab04      	add	r3, sp, #16
   281f2:	1dda      	adds	r2, r3, #7
   281f4:	ab06      	add	r3, sp, #24
   281f6:	785b      	ldrb	r3, [r3, #1]
   281f8:	1c60      	adds	r0, r4, #1
   281fa:	438b      	bics	r3, r1
   281fc:	7013      	strb	r3, [r2, #0]
   281fe:	3903      	subs	r1, #3
   28200:	687b      	ldr	r3, [r7, #4]
   28202:	4798      	blx	r3
   28204:	e7ce      	b.n	281a4 <nvds_put+0x14>
   28206:	78b3      	ldrb	r3, [r6, #2]
   28208:	9a01      	ldr	r2, [sp, #4]
   2820a:	3303      	adds	r3, #3
   2820c:	18d3      	adds	r3, r2, r3
   2820e:	e7c8      	b.n	281a2 <nvds_put+0x12>
   28210:	2505      	movs	r5, #5
   28212:	e02a      	b.n	2826a <nvds_put+0xda>
   28214:	f7ff f840 	bl	27298 <nvds_init_memory>
   28218:	4d30      	ldr	r5, [pc, #192]	; (282dc <nvds_put+0x14c>)
   2821a:	aa4a      	add	r2, sp, #296	; 0x128
   2821c:	686b      	ldr	r3, [r5, #4]
   2821e:	0031      	movs	r1, r6
   28220:	482d      	ldr	r0, [pc, #180]	; (282d8 <nvds_put+0x148>)
   28222:	4798      	blx	r3
   28224:	4a2c      	ldr	r2, [pc, #176]	; (282d8 <nvds_put+0x148>)
   28226:	9b01      	ldr	r3, [sp, #4]
   28228:	4694      	mov	ip, r2
   2822a:	4463      	add	r3, ip
   2822c:	001c      	movs	r4, r3
   2822e:	4a2c      	ldr	r2, [pc, #176]	; (282e0 <nvds_put+0x150>)
   28230:	9b00      	ldr	r3, [sp, #0]
   28232:	189a      	adds	r2, r3, r2
   28234:	692b      	ldr	r3, [r5, #16]
   28236:	1912      	adds	r2, r2, r4
   28238:	3b01      	subs	r3, #1
   2823a:	2503      	movs	r5, #3
   2823c:	429a      	cmp	r2, r3
   2823e:	d814      	bhi.n	2826a <nvds_put+0xda>
   28240:	4d26      	ldr	r5, [pc, #152]	; (282dc <nvds_put+0x14c>)
   28242:	9a03      	ldr	r2, [sp, #12]
   28244:	686b      	ldr	r3, [r5, #4]
   28246:	9900      	ldr	r1, [sp, #0]
   28248:	1ce0      	adds	r0, r4, #3
   2824a:	4798      	blx	r3
   2824c:	9a02      	ldr	r2, [sp, #8]
   2824e:	ab04      	add	r3, sp, #16
   28250:	721a      	strb	r2, [r3, #8]
   28252:	2306      	movs	r3, #6
   28254:	aa04      	add	r2, sp, #16
   28256:	7253      	strb	r3, [r2, #9]
   28258:	0013      	movs	r3, r2
   2825a:	9a00      	ldr	r2, [sp, #0]
   2825c:	2103      	movs	r1, #3
   2825e:	729a      	strb	r2, [r3, #10]
   28260:	0020      	movs	r0, r4
   28262:	686b      	ldr	r3, [r5, #4]
   28264:	aa06      	add	r2, sp, #24
   28266:	4798      	blx	r3
   28268:	2500      	movs	r5, #0
   2826a:	0028      	movs	r0, r5
   2826c:	23cb      	movs	r3, #203	; 0xcb
   2826e:	009b      	lsls	r3, r3, #2
   28270:	449d      	add	sp, r3
   28272:	bdf0      	pop	{r4, r5, r6, r7, pc}
   28274:	9b00      	ldr	r3, [sp, #0]
   28276:	4a1b      	ldr	r2, [pc, #108]	; (282e4 <nvds_put+0x154>)
   28278:	189a      	adds	r2, r3, r2
   2827a:	4b18      	ldr	r3, [pc, #96]	; (282dc <nvds_put+0x14c>)
   2827c:	1912      	adds	r2, r2, r4
   2827e:	691b      	ldr	r3, [r3, #16]
   28280:	3b01      	subs	r3, #1
   28282:	429a      	cmp	r2, r3
   28284:	d9dc      	bls.n	28240 <nvds_put+0xb0>
   28286:	2600      	movs	r6, #0
   28288:	4b13      	ldr	r3, [pc, #76]	; (282d8 <nvds_put+0x148>)
   2828a:	ac4a      	add	r4, sp, #296	; 0x128
   2828c:	9309      	str	r3, [sp, #36]	; 0x24
   2828e:	9d09      	ldr	r5, [sp, #36]	; 0x24
   28290:	aa09      	add	r2, sp, #36	; 0x24
   28292:	0028      	movs	r0, r5
   28294:	a907      	add	r1, sp, #28
   28296:	f7fe ff89 	bl	271ac <nvds_walk_tag>
   2829a:	2800      	cmp	r0, #0
   2829c:	d1ba      	bne.n	28214 <nvds_put+0x84>
   2829e:	2205      	movs	r2, #5
   282a0:	ab04      	add	r3, sp, #16
   282a2:	7b5b      	ldrb	r3, [r3, #13]
   282a4:	4013      	ands	r3, r2
   282a6:	2b04      	cmp	r3, #4
   282a8:	d1f1      	bne.n	2828e <nvds_put+0xfe>
   282aa:	ab04      	add	r3, sp, #16
   282ac:	7b9f      	ldrb	r7, [r3, #14]
   282ae:	0020      	movs	r0, r4
   282b0:	1cfb      	adds	r3, r7, #3
   282b2:	3a02      	subs	r2, #2
   282b4:	a907      	add	r1, sp, #28
   282b6:	18f6      	adds	r6, r6, r3
   282b8:	f006 f8c4 	bl	2e444 <memcpy>
   282bc:	4b07      	ldr	r3, [pc, #28]	; (282dc <nvds_put+0x14c>)
   282be:	3403      	adds	r4, #3
   282c0:	0022      	movs	r2, r4
   282c2:	681b      	ldr	r3, [r3, #0]
   282c4:	0039      	movs	r1, r7
   282c6:	1ce8      	adds	r0, r5, #3
   282c8:	4798      	blx	r3
   282ca:	ab04      	add	r3, sp, #16
   282cc:	7b9b      	ldrb	r3, [r3, #14]
   282ce:	18e4      	adds	r4, r4, r3
   282d0:	e7dd      	b.n	2828e <nvds_put+0xfe>
   282d2:	46c0      	nop			; (mov r8, r8)
   282d4:	fffffcd4 	.word	0xfffffcd4
   282d8:	0007f004 	.word	0x0007f004
   282dc:	004029cc 	.word	0x004029cc
   282e0:	fff81003 	.word	0xfff81003
   282e4:	fff81006 	.word	0xfff81006

000282e8 <gattc_read_req_ind_handler.lto_priv.1>:
   282e8:	b5f7      	push	{r0, r1, r2, r4, r5, r6, r7, lr}
   282ea:	0010      	movs	r0, r2
   282ec:	0016      	movs	r6, r2
   282ee:	001d      	movs	r5, r3
   282f0:	9100      	str	r1, [sp, #0]
   282f2:	f7f7 feef 	bl	200d4 <ke_state_get>
   282f6:	1e04      	subs	r4, r0, #0
   282f8:	d143      	bne.n	28382 <gattc_read_req_ind_handler.lto_priv.1+0x9a>
   282fa:	2014      	movs	r0, #20
   282fc:	f7ff f82e 	bl	2735c <prf_env_get>
   28300:	9b00      	ldr	r3, [sp, #0]
   28302:	881b      	ldrh	r3, [r3, #0]
   28304:	9301      	str	r3, [sp, #4]
   28306:	89c2      	ldrh	r2, [r0, #14]
   28308:	8983      	ldrh	r3, [r0, #12]
   2830a:	4694      	mov	ip, r2
   2830c:	3301      	adds	r3, #1
   2830e:	041b      	lsls	r3, r3, #16
   28310:	0c1b      	lsrs	r3, r3, #16
   28312:	4661      	mov	r1, ip
   28314:	2201      	movs	r2, #1
   28316:	4121      	asrs	r1, r4
   28318:	0627      	lsls	r7, r4, #24
   2831a:	0e3f      	lsrs	r7, r7, #24
   2831c:	4211      	tst	r1, r2
   2831e:	d006      	beq.n	2832e <gattc_read_req_ind_handler.lto_priv.1+0x46>
   28320:	1899      	adds	r1, r3, r2
   28322:	9a01      	ldr	r2, [sp, #4]
   28324:	4291      	cmp	r1, r2
   28326:	d049      	beq.n	283bc <gattc_read_req_ind_handler.lto_priv.1+0xd4>
   28328:	3302      	adds	r3, #2
   2832a:	041b      	lsls	r3, r3, #16
   2832c:	0c1b      	lsrs	r3, r3, #16
   2832e:	3401      	adds	r4, #1
   28330:	2c09      	cmp	r4, #9
   28332:	d1ee      	bne.n	28312 <gattc_read_req_ind_handler.lto_priv.1+0x2a>
   28334:	2306      	movs	r3, #6
   28336:	0032      	movs	r2, r6
   28338:	0029      	movs	r1, r5
   2833a:	4821      	ldr	r0, [pc, #132]	; (283c0 <gattc_read_req_ind_handler.lto_priv.1+0xd8>)
   2833c:	f7f7 f9fe 	bl	1f73c <ke_msg_alloc>
   28340:	9b00      	ldr	r3, [sp, #0]
   28342:	881b      	ldrh	r3, [r3, #0]
   28344:	8003      	strh	r3, [r0, #0]
   28346:	2380      	movs	r3, #128	; 0x80
   28348:	7103      	strb	r3, [r0, #4]
   2834a:	e034      	b.n	283b6 <gattc_read_req_ind_handler.lto_priv.1+0xce>
   2834c:	7923      	ldrb	r3, [r4, #4]
   2834e:	42bb      	cmp	r3, r7
   28350:	d01c      	beq.n	2838c <gattc_read_req_ind_handler.lto_priv.1+0xa4>
   28352:	6824      	ldr	r4, [r4, #0]
   28354:	2c00      	cmp	r4, #0
   28356:	d1f9      	bne.n	2834c <gattc_read_req_ind_handler.lto_priv.1+0x64>
   28358:	0a29      	lsrs	r1, r5, #8
   2835a:	7441      	strb	r1, [r0, #17]
   2835c:	7407      	strb	r7, [r0, #16]
   2835e:	8800      	ldrh	r0, [r0, #0]
   28360:	f7ff faf6 	bl	27950 <prf_dst_task_get.isra.0>
   28364:	2301      	movs	r3, #1
   28366:	0001      	movs	r1, r0
   28368:	0032      	movs	r2, r6
   2836a:	4816      	ldr	r0, [pc, #88]	; (283c4 <gattc_read_req_ind_handler.lto_priv.1+0xdc>)
   2836c:	f7f7 f9e6 	bl	1f73c <ke_msg_alloc>
   28370:	7007      	strb	r7, [r0, #0]
   28372:	f7f7 f9fd 	bl	1f770 <ke_msg_send>
   28376:	2101      	movs	r1, #1
   28378:	0030      	movs	r0, r6
   2837a:	f7f7 fe6d 	bl	20058 <ke_state_set>
   2837e:	2000      	movs	r0, #0
   28380:	e003      	b.n	2838a <gattc_read_req_ind_handler.lto_priv.1+0xa2>
   28382:	3c01      	subs	r4, #1
   28384:	4263      	negs	r3, r4
   28386:	415c      	adcs	r4, r3
   28388:	0060      	lsls	r0, r4, #1
   2838a:	bdfe      	pop	{r1, r2, r3, r4, r5, r6, r7, pc}
   2838c:	7963      	ldrb	r3, [r4, #5]
   2838e:	0032      	movs	r2, r6
   28390:	0029      	movs	r1, r5
   28392:	3306      	adds	r3, #6
   28394:	480a      	ldr	r0, [pc, #40]	; (283c0 <gattc_read_req_ind_handler.lto_priv.1+0xd8>)
   28396:	f7f7 f9d1 	bl	1f73c <ke_msg_alloc>
   2839a:	2600      	movs	r6, #0
   2839c:	0005      	movs	r5, r0
   2839e:	9b00      	ldr	r3, [sp, #0]
   283a0:	1da1      	adds	r1, r4, #6
   283a2:	881b      	ldrh	r3, [r3, #0]
   283a4:	7106      	strb	r6, [r0, #4]
   283a6:	8003      	strh	r3, [r0, #0]
   283a8:	7963      	ldrb	r3, [r4, #5]
   283aa:	8043      	strh	r3, [r0, #2]
   283ac:	7962      	ldrb	r2, [r4, #5]
   283ae:	3005      	adds	r0, #5
   283b0:	f006 f848 	bl	2e444 <memcpy>
   283b4:	0028      	movs	r0, r5
   283b6:	f7f7 f9db 	bl	1f770 <ke_msg_send>
   283ba:	e7e0      	b.n	2837e <gattc_read_req_ind_handler.lto_priv.1+0x96>
   283bc:	6844      	ldr	r4, [r0, #4]
   283be:	e7c9      	b.n	28354 <gattc_read_req_ind_handler.lto_priv.1+0x6c>
   283c0:	00000c14 	.word	0x00000c14
   283c4:	00001402 	.word	0x00001402

000283c8 <diss_value_cfm_handler>:
   283c8:	b5f7      	push	{r0, r1, r2, r4, r5, r6, r7, lr}
   283ca:	0010      	movs	r0, r2
   283cc:	000c      	movs	r4, r1
   283ce:	0015      	movs	r5, r2
   283d0:	f7f7 fe80 	bl	200d4 <ke_state_get>
   283d4:	2801      	cmp	r0, #1
   283d6:	d128      	bne.n	2842a <diss_value_cfm_handler+0x62>
   283d8:	3013      	adds	r0, #19
   283da:	f7fe ffbf 	bl	2735c <prf_env_get>
   283de:	7c07      	ldrb	r7, [r0, #16]
   283e0:	0006      	movs	r6, r0
   283e2:	0039      	movs	r1, r7
   283e4:	f7ff f8eb 	bl	275be <diss_value_to_handle>
   283e8:	2306      	movs	r3, #6
   283ea:	9001      	str	r0, [sp, #4]
   283ec:	7c71      	ldrb	r1, [r6, #17]
   283ee:	7822      	ldrb	r2, [r4, #0]
   283f0:	0209      	lsls	r1, r1, #8
   283f2:	4319      	orrs	r1, r3
   283f4:	42ba      	cmp	r2, r7
   283f6:	d11a      	bne.n	2842e <diss_value_cfm_handler+0x66>
   283f8:	7863      	ldrb	r3, [r4, #1]
   283fa:	002a      	movs	r2, r5
   283fc:	3306      	adds	r3, #6
   283fe:	4810      	ldr	r0, [pc, #64]	; (28440 <diss_value_cfm_handler+0x78>)
   28400:	f7f7 f99c 	bl	1f73c <ke_msg_alloc>
   28404:	9b01      	ldr	r3, [sp, #4]
   28406:	0006      	movs	r6, r0
   28408:	8003      	strh	r3, [r0, #0]
   2840a:	2300      	movs	r3, #0
   2840c:	7103      	strb	r3, [r0, #4]
   2840e:	7863      	ldrb	r3, [r4, #1]
   28410:	1ca1      	adds	r1, r4, #2
   28412:	8043      	strh	r3, [r0, #2]
   28414:	7862      	ldrb	r2, [r4, #1]
   28416:	3005      	adds	r0, #5
   28418:	f006 f814 	bl	2e444 <memcpy>
   2841c:	0030      	movs	r0, r6
   2841e:	f7f7 f9a7 	bl	1f770 <ke_msg_send>
   28422:	2100      	movs	r1, #0
   28424:	0028      	movs	r0, r5
   28426:	f7f7 fe17 	bl	20058 <ke_state_set>
   2842a:	2000      	movs	r0, #0
   2842c:	bdfe      	pop	{r1, r2, r3, r4, r5, r6, r7, pc}
   2842e:	002a      	movs	r2, r5
   28430:	4803      	ldr	r0, [pc, #12]	; (28440 <diss_value_cfm_handler+0x78>)
   28432:	f7f7 f983 	bl	1f73c <ke_msg_alloc>
   28436:	9b01      	ldr	r3, [sp, #4]
   28438:	8003      	strh	r3, [r0, #0]
   2843a:	2380      	movs	r3, #128	; 0x80
   2843c:	7103      	strb	r3, [r0, #4]
   2843e:	e7ee      	b.n	2841e <diss_value_cfm_handler+0x56>
   28440:	00000c14 	.word	0x00000c14

00028444 <fee0s_fee4_val_upd_req_handler>:
   28444:	b5f7      	push	{r0, r1, r2, r4, r5, r6, r7, lr}
   28446:	0010      	movs	r0, r2
   28448:	000c      	movs	r4, r1
   2844a:	0015      	movs	r5, r2
   2844c:	9300      	str	r3, [sp, #0]
   2844e:	f7f7 fe41 	bl	200d4 <ke_state_get>
   28452:	2702      	movs	r7, #2
   28454:	1e06      	subs	r6, r0, #0
   28456:	d136      	bne.n	284c6 <fee0s_fee4_val_upd_req_handler+0x82>
   28458:	2047      	movs	r0, #71	; 0x47
   2845a:	f7fe ff7f 	bl	2735c <prf_env_get>
   2845e:	9b00      	ldr	r3, [sp, #0]
   28460:	4a1a      	ldr	r2, [pc, #104]	; (284cc <fee0s_fee4_val_upd_req_handler+0x88>)
   28462:	0a1b      	lsrs	r3, r3, #8
   28464:	9300      	str	r3, [sp, #0]
   28466:	189b      	adds	r3, r3, r2
   28468:	005b      	lsls	r3, r3, #1
   2846a:	18c3      	adds	r3, r0, r3
   2846c:	8899      	ldrh	r1, [r3, #4]
   2846e:	0037      	movs	r7, r6
   28470:	9001      	str	r0, [sp, #4]
   28472:	2901      	cmp	r1, #1
   28474:	d127      	bne.n	284c6 <fee0s_fee4_val_upd_req_handler+0x82>
   28476:	0028      	movs	r0, r5
   28478:	f7f7 fdee 	bl	20058 <ke_state_set>
   2847c:	9b01      	ldr	r3, [sp, #4]
   2847e:	0031      	movs	r1, r6
   28480:	8858      	ldrh	r0, [r3, #2]
   28482:	f7ff fa6e 	bl	27962 <prf_src_task_get.isra.0>
   28486:	0002      	movs	r2, r0
   28488:	2006      	movs	r0, #6
   2848a:	9900      	ldr	r1, [sp, #0]
   2848c:	8863      	ldrh	r3, [r4, #2]
   2848e:	0209      	lsls	r1, r1, #8
   28490:	4301      	orrs	r1, r0
   28492:	20c1      	movs	r0, #193	; 0xc1
   28494:	3308      	adds	r3, #8
   28496:	041b      	lsls	r3, r3, #16
   28498:	0c1b      	lsrs	r3, r3, #16
   2849a:	0100      	lsls	r0, r0, #4
   2849c:	f7f7 f94e 	bl	1f73c <ke_msg_alloc>
   284a0:	2312      	movs	r3, #18
   284a2:	0005      	movs	r5, r0
   284a4:	7003      	strb	r3, [r0, #0]
   284a6:	2047      	movs	r0, #71	; 0x47
   284a8:	f7fe ff58 	bl	2735c <prf_env_get>
   284ac:	8a03      	ldrh	r3, [r0, #16]
   284ae:	0028      	movs	r0, r5
   284b0:	3309      	adds	r3, #9
   284b2:	80ab      	strh	r3, [r5, #4]
   284b4:	8862      	ldrh	r2, [r4, #2]
   284b6:	3008      	adds	r0, #8
   284b8:	80ea      	strh	r2, [r5, #6]
   284ba:	1d21      	adds	r1, r4, #4
   284bc:	f005 ffc2 	bl	2e444 <memcpy>
   284c0:	0028      	movs	r0, r5
   284c2:	f7f7 f955 	bl	1f770 <ke_msg_send>
   284c6:	0038      	movs	r0, r7
   284c8:	bdfe      	pop	{r1, r2, r3, r4, r5, r6, r7, pc}
   284ca:	46c0      	nop			; (mov r8, r8)
   284cc:	00000764 	.word	0x00000764

000284d0 <hogpd_report_cfm_handler>:
   284d0:	b5f0      	push	{r4, r5, r6, r7, lr}
   284d2:	0010      	movs	r0, r2
   284d4:	b085      	sub	sp, #20
   284d6:	000e      	movs	r6, r1
   284d8:	0017      	movs	r7, r2
   284da:	f7f7 fdfb 	bl	200d4 <ke_state_get>
   284de:	0003      	movs	r3, r0
   284e0:	9003      	str	r0, [sp, #12]
   284e2:	079b      	lsls	r3, r3, #30
   284e4:	d548      	bpl.n	28578 <hogpd_report_cfm_handler+0xa8>
   284e6:	2026      	movs	r0, #38	; 0x26
   284e8:	f7fe ff38 	bl	2735c <prf_env_get>
   284ec:	78b5      	ldrb	r5, [r6, #2]
   284ee:	0004      	movs	r4, r0
   284f0:	2d00      	cmp	r5, #0
   284f2:	d111      	bne.n	28518 <hogpd_report_cfm_handler+0x48>
   284f4:	8832      	ldrh	r2, [r6, #0]
   284f6:	8ac3      	ldrh	r3, [r0, #22]
   284f8:	429a      	cmp	r2, r3
   284fa:	d140      	bne.n	2857e <hogpd_report_cfm_handler+0xae>
   284fc:	7973      	ldrb	r3, [r6, #5]
   284fe:	002a      	movs	r2, r5
   28500:	2b04      	cmp	r3, #4
   28502:	d801      	bhi.n	28508 <hogpd_report_cfm_handler+0x38>
   28504:	4a23      	ldr	r2, [pc, #140]	; (28594 <hogpd_report_cfm_handler+0xc4>)
   28506:	5cd2      	ldrb	r2, [r2, r3]
   28508:	7a33      	ldrb	r3, [r6, #8]
   2850a:	0020      	movs	r0, r4
   2850c:	7931      	ldrb	r1, [r6, #4]
   2850e:	f7ff f8c3 	bl	27698 <hogpd_get_att_handle>
   28512:	8b23      	ldrh	r3, [r4, #24]
   28514:	4283      	cmp	r3, r0
   28516:	d132      	bne.n	2857e <hogpd_report_cfm_handler+0xae>
   28518:	2306      	movs	r3, #6
   2851a:	7da1      	ldrb	r1, [r4, #22]
   2851c:	0209      	lsls	r1, r1, #8
   2851e:	4319      	orrs	r1, r3
   28520:	7de3      	ldrb	r3, [r4, #23]
   28522:	2b01      	cmp	r3, #1
   28524:	d12d      	bne.n	28582 <hogpd_report_cfm_handler+0xb2>
   28526:	2300      	movs	r3, #0
   28528:	9302      	str	r3, [sp, #8]
   2852a:	429d      	cmp	r5, r3
   2852c:	d101      	bne.n	28532 <hogpd_report_cfm_handler+0x62>
   2852e:	88f3      	ldrh	r3, [r6, #6]
   28530:	9302      	str	r3, [sp, #8]
   28532:	9b02      	ldr	r3, [sp, #8]
   28534:	003a      	movs	r2, r7
   28536:	3306      	adds	r3, #6
   28538:	041b      	lsls	r3, r3, #16
   2853a:	0c1b      	lsrs	r3, r3, #16
   2853c:	4816      	ldr	r0, [pc, #88]	; (28598 <hogpd_report_cfm_handler+0xc8>)
   2853e:	f7f7 f8fd 	bl	1f73c <ke_msg_alloc>
   28542:	9001      	str	r0, [sp, #4]
   28544:	8b23      	ldrh	r3, [r4, #24]
   28546:	9a02      	ldr	r2, [sp, #8]
   28548:	8003      	strh	r3, [r0, #0]
   2854a:	7105      	strb	r5, [r0, #4]
   2854c:	8042      	strh	r2, [r0, #2]
   2854e:	2d00      	cmp	r5, #0
   28550:	d104      	bne.n	2855c <hogpd_report_cfm_handler+0x8c>
   28552:	0031      	movs	r1, r6
   28554:	3005      	adds	r0, #5
   28556:	3109      	adds	r1, #9
   28558:	f005 ff74 	bl	2e444 <memcpy>
   2855c:	9801      	ldr	r0, [sp, #4]
   2855e:	f7f7 f907 	bl	1f770 <ke_msg_send>
   28562:	23ff      	movs	r3, #255	; 0xff
   28564:	82e3      	strh	r3, [r4, #22]
   28566:	2300      	movs	r3, #0
   28568:	21fd      	movs	r1, #253	; 0xfd
   2856a:	8323      	strh	r3, [r4, #24]
   2856c:	9b03      	ldr	r3, [sp, #12]
   2856e:	0038      	movs	r0, r7
   28570:	400b      	ands	r3, r1
   28572:	0019      	movs	r1, r3
   28574:	f7f7 fd70 	bl	20058 <ke_state_set>
   28578:	2000      	movs	r0, #0
   2857a:	b005      	add	sp, #20
   2857c:	bdf0      	pop	{r4, r5, r6, r7, pc}
   2857e:	2580      	movs	r5, #128	; 0x80
   28580:	e7ca      	b.n	28518 <hogpd_report_cfm_handler+0x48>
   28582:	2304      	movs	r3, #4
   28584:	003a      	movs	r2, r7
   28586:	4805      	ldr	r0, [pc, #20]	; (2859c <hogpd_report_cfm_handler+0xcc>)
   28588:	f7f7 f8d8 	bl	1f73c <ke_msg_alloc>
   2858c:	8b23      	ldrh	r3, [r4, #24]
   2858e:	7085      	strb	r5, [r0, #2]
   28590:	8003      	strh	r3, [r0, #0]
   28592:	e7e4      	b.n	2855e <hogpd_report_cfm_handler+0x8e>
   28594:	00036e64 	.word	0x00036e64
   28598:	00000c14 	.word	0x00000c14
   2859c:	00000c16 	.word	0x00000c16

000285a0 <hogpd_proto_mode_cfm_handler>:
   285a0:	b5f0      	push	{r4, r5, r6, r7, lr}
   285a2:	0010      	movs	r0, r2
   285a4:	b085      	sub	sp, #20
   285a6:	000f      	movs	r7, r1
   285a8:	0016      	movs	r6, r2
   285aa:	f7f7 fd93 	bl	200d4 <ke_state_get>
   285ae:	0003      	movs	r3, r0
   285b0:	9003      	str	r0, [sp, #12]
   285b2:	079b      	lsls	r3, r3, #30
   285b4:	d53b      	bpl.n	2862e <hogpd_proto_mode_cfm_handler+0x8e>
   285b6:	2026      	movs	r0, #38	; 0x26
   285b8:	f7fe fed0 	bl	2735c <prf_env_get>
   285bc:	7dc3      	ldrb	r3, [r0, #23]
   285be:	787d      	ldrb	r5, [r7, #1]
   285c0:	9302      	str	r3, [sp, #8]
   285c2:	7d83      	ldrb	r3, [r0, #22]
   285c4:	0004      	movs	r4, r0
   285c6:	9301      	str	r3, [sp, #4]
   285c8:	2d00      	cmp	r5, #0
   285ca:	d115      	bne.n	285f8 <hogpd_proto_mode_cfm_handler+0x58>
   285cc:	9b02      	ldr	r3, [sp, #8]
   285ce:	2b03      	cmp	r3, #3
   285d0:	d130      	bne.n	28634 <hogpd_proto_mode_cfm_handler+0x94>
   285d2:	783b      	ldrb	r3, [r7, #0]
   285d4:	9a01      	ldr	r2, [sp, #4]
   285d6:	4293      	cmp	r3, r2
   285d8:	d12c      	bne.n	28634 <hogpd_proto_mode_cfm_handler+0x94>
   285da:	78bb      	ldrb	r3, [r7, #2]
   285dc:	220a      	movs	r2, #10
   285de:	9300      	str	r3, [sp, #0]
   285e0:	9900      	ldr	r1, [sp, #0]
   285e2:	002b      	movs	r3, r5
   285e4:	f7ff f858 	bl	27698 <hogpd_get_att_handle>
   285e8:	8b23      	ldrh	r3, [r4, #24]
   285ea:	4283      	cmp	r3, r0
   285ec:	d122      	bne.n	28634 <hogpd_proto_mode_cfm_handler+0x94>
   285ee:	9b00      	ldr	r3, [sp, #0]
   285f0:	78fa      	ldrb	r2, [r7, #3]
   285f2:	00db      	lsls	r3, r3, #3
   285f4:	18e3      	adds	r3, r4, r3
   285f6:	72da      	strb	r2, [r3, #11]
   285f8:	9b01      	ldr	r3, [sp, #4]
   285fa:	9a02      	ldr	r2, [sp, #8]
   285fc:	0219      	lsls	r1, r3, #8
   285fe:	2306      	movs	r3, #6
   28600:	4319      	orrs	r1, r3
   28602:	2a01      	cmp	r2, #1
   28604:	d118      	bne.n	28638 <hogpd_proto_mode_cfm_handler+0x98>
   28606:	0032      	movs	r2, r6
   28608:	4810      	ldr	r0, [pc, #64]	; (2864c <hogpd_proto_mode_cfm_handler+0xac>)
   2860a:	f7f7 f897 	bl	1f73c <ke_msg_alloc>
   2860e:	8b23      	ldrh	r3, [r4, #24]
   28610:	7105      	strb	r5, [r0, #4]
   28612:	8003      	strh	r3, [r0, #0]
   28614:	f7f7 f8ac 	bl	1f770 <ke_msg_send>
   28618:	23ff      	movs	r3, #255	; 0xff
   2861a:	82e3      	strh	r3, [r4, #22]
   2861c:	2300      	movs	r3, #0
   2861e:	21fd      	movs	r1, #253	; 0xfd
   28620:	8323      	strh	r3, [r4, #24]
   28622:	9b03      	ldr	r3, [sp, #12]
   28624:	0030      	movs	r0, r6
   28626:	400b      	ands	r3, r1
   28628:	0019      	movs	r1, r3
   2862a:	f7f7 fd15 	bl	20058 <ke_state_set>
   2862e:	2000      	movs	r0, #0
   28630:	b005      	add	sp, #20
   28632:	bdf0      	pop	{r4, r5, r6, r7, pc}
   28634:	2580      	movs	r5, #128	; 0x80
   28636:	e7df      	b.n	285f8 <hogpd_proto_mode_cfm_handler+0x58>
   28638:	2304      	movs	r3, #4
   2863a:	0032      	movs	r2, r6
   2863c:	4804      	ldr	r0, [pc, #16]	; (28650 <hogpd_proto_mode_cfm_handler+0xb0>)
   2863e:	f7f7 f87d 	bl	1f73c <ke_msg_alloc>
   28642:	8b23      	ldrh	r3, [r4, #24]
   28644:	7085      	strb	r5, [r0, #2]
   28646:	8003      	strh	r3, [r0, #0]
   28648:	e7e4      	b.n	28614 <hogpd_proto_mode_cfm_handler+0x74>
   2864a:	46c0      	nop			; (mov r8, r8)
   2864c:	00000c14 	.word	0x00000c14
   28650:	00000c16 	.word	0x00000c16

00028654 <gattc_write_req_ind_handler.lto_priv.3>:
   28654:	b5f0      	push	{r4, r5, r6, r7, lr}
   28656:	0010      	movs	r0, r2
   28658:	b08f      	sub	sp, #60	; 0x3c
   2865a:	930a      	str	r3, [sp, #40]	; 0x28
   2865c:	000f      	movs	r7, r1
   2865e:	9203      	str	r2, [sp, #12]
   28660:	f7f7 fd38 	bl	200d4 <ke_state_get>
   28664:	9007      	str	r0, [sp, #28]
   28666:	2002      	movs	r0, #2
   28668:	9b07      	ldr	r3, [sp, #28]
   2866a:	4003      	ands	r3, r0
   2866c:	9304      	str	r3, [sp, #16]
   2866e:	9b07      	ldr	r3, [sp, #28]
   28670:	4203      	tst	r3, r0
   28672:	d16b      	bne.n	2874c <gattc_write_req_ind_handler.lto_priv.3+0xf8>
   28674:	260e      	movs	r6, #14
   28676:	9b0a      	ldr	r3, [sp, #40]	; 0x28
   28678:	3024      	adds	r0, #36	; 0x24
   2867a:	0a1b      	lsrs	r3, r3, #8
   2867c:	001c      	movs	r4, r3
   2867e:	9305      	str	r3, [sp, #20]
   28680:	f7fe fe6c 	bl	2735c <prf_env_get>
   28684:	ab0a      	add	r3, sp, #40	; 0x28
   28686:	18f6      	adds	r6, r6, r3
   28688:	230d      	movs	r3, #13
   2868a:	aa0a      	add	r2, sp, #40	; 0x28
   2868c:	0005      	movs	r5, r0
   2868e:	189b      	adds	r3, r3, r2
   28690:	220f      	movs	r2, #15
   28692:	a80a      	add	r0, sp, #40	; 0x28
   28694:	9300      	str	r3, [sp, #0]
   28696:	1812      	adds	r2, r2, r0
   28698:	0033      	movs	r3, r6
   2869a:	0028      	movs	r0, r5
   2869c:	8839      	ldrh	r1, [r7, #0]
   2869e:	f7ff f87d 	bl	2779c <hogpd_get_att_idx>
   286a2:	9b04      	ldr	r3, [sp, #16]
   286a4:	75ac      	strb	r4, [r5, #22]
   286a6:	75eb      	strb	r3, [r5, #23]
   286a8:	883b      	ldrh	r3, [r7, #0]
   286aa:	9006      	str	r0, [sp, #24]
   286ac:	832b      	strh	r3, [r5, #24]
   286ae:	2800      	cmp	r0, #0
   286b0:	d13b      	bne.n	2872a <gattc_write_req_ind_handler.lto_priv.3+0xd6>
   286b2:	7836      	ldrb	r6, [r6, #0]
   286b4:	1f70      	subs	r0, r6, #5
   286b6:	2811      	cmp	r0, #17
   286b8:	d900      	bls.n	286bc <gattc_write_req_ind_handler.lto_priv.3+0x68>
   286ba:	e0dd      	b.n	28878 <gattc_write_req_ind_handler.lto_priv.3+0x224>
   286bc:	f7fd fbc8 	bl	25e50 <__gnu_thumb1_case_uqi>
   286c0:	dcdcdc09 	.word	0xdcdcdc09
   286c4:	48dc1edc 	.word	0x48dc1edc
   286c8:	dc48dc85 	.word	0xdc48dc85
   286cc:	48dc8548 	.word	0x48dc8548
   286d0:	85dc      	.short	0x85dc
   286d2:	0021      	movs	r1, r4
   286d4:	8828      	ldrh	r0, [r5, #0]
   286d6:	f7ff f93b 	bl	27950 <prf_dst_task_get.isra.0>
   286da:	2303      	movs	r3, #3
   286dc:	0001      	movs	r1, r0
   286de:	9a03      	ldr	r2, [sp, #12]
   286e0:	486b      	ldr	r0, [pc, #428]	; (28890 <gattc_write_req_ind_handler.lto_priv.3+0x23c>)
   286e2:	f7f7 f82b 	bl	1f73c <ke_msg_alloc>
   286e6:	230f      	movs	r3, #15
   286e8:	aa0a      	add	r2, sp, #40	; 0x28
   286ea:	7004      	strb	r4, [r0, #0]
   286ec:	189b      	adds	r3, r3, r2
   286ee:	781b      	ldrb	r3, [r3, #0]
   286f0:	7043      	strb	r3, [r0, #1]
   286f2:	79bb      	ldrb	r3, [r7, #6]
   286f4:	7083      	strb	r3, [r0, #2]
   286f6:	f7f7 f83b 	bl	1f770 <ke_msg_send>
   286fa:	e016      	b.n	2872a <gattc_write_req_ind_handler.lto_priv.3+0xd6>
   286fc:	0021      	movs	r1, r4
   286fe:	8828      	ldrh	r0, [r5, #0]
   28700:	f7ff f926 	bl	27950 <prf_dst_task_get.isra.0>
   28704:	2304      	movs	r3, #4
   28706:	0001      	movs	r1, r0
   28708:	9a03      	ldr	r2, [sp, #12]
   2870a:	4862      	ldr	r0, [pc, #392]	; (28894 <gattc_write_req_ind_handler.lto_priv.3+0x240>)
   2870c:	f7f7 f816 	bl	1f73c <ke_msg_alloc>
   28710:	230f      	movs	r3, #15
   28712:	7004      	strb	r4, [r0, #0]
   28714:	2403      	movs	r4, #3
   28716:	aa0a      	add	r2, sp, #40	; 0x28
   28718:	189b      	adds	r3, r3, r2
   2871a:	781b      	ldrb	r3, [r3, #0]
   2871c:	7044      	strb	r4, [r0, #1]
   2871e:	7083      	strb	r3, [r0, #2]
   28720:	79bb      	ldrb	r3, [r7, #6]
   28722:	70c3      	strb	r3, [r0, #3]
   28724:	f7f7 f824 	bl	1f770 <ke_msg_send>
   28728:	75ec      	strb	r4, [r5, #23]
   2872a:	7deb      	ldrb	r3, [r5, #23]
   2872c:	2b00      	cmp	r3, #0
   2872e:	d000      	beq.n	28732 <gattc_write_req_ind_handler.lto_priv.3+0xde>
   28730:	e0a5      	b.n	2887e <gattc_write_req_ind_handler.lto_priv.3+0x22a>
   28732:	3304      	adds	r3, #4
   28734:	9a03      	ldr	r2, [sp, #12]
   28736:	990a      	ldr	r1, [sp, #40]	; 0x28
   28738:	4857      	ldr	r0, [pc, #348]	; (28898 <gattc_write_req_ind_handler.lto_priv.3+0x244>)
   2873a:	f7f6 ffff 	bl	1f73c <ke_msg_alloc>
   2873e:	883b      	ldrh	r3, [r7, #0]
   28740:	8003      	strh	r3, [r0, #0]
   28742:	9b06      	ldr	r3, [sp, #24]
   28744:	7083      	strb	r3, [r0, #2]
   28746:	f7f7 f813 	bl	1f770 <ke_msg_send>
   2874a:	2000      	movs	r0, #0
   2874c:	b00f      	add	sp, #60	; 0x3c
   2874e:	bdf0      	pop	{r4, r5, r6, r7, pc}
   28750:	0021      	movs	r1, r4
   28752:	8828      	ldrh	r0, [r5, #0]
   28754:	f7ff f8fc 	bl	27950 <prf_dst_task_get.isra.0>
   28758:	88bb      	ldrh	r3, [r7, #4]
   2875a:	0001      	movs	r1, r0
   2875c:	3308      	adds	r3, #8
   2875e:	041b      	lsls	r3, r3, #16
   28760:	9a03      	ldr	r2, [sp, #12]
   28762:	0c1b      	lsrs	r3, r3, #16
   28764:	484d      	ldr	r0, [pc, #308]	; (2889c <gattc_write_req_ind_handler.lto_priv.3+0x248>)
   28766:	f7f6 ffe9 	bl	1f73c <ke_msg_alloc>
   2876a:	7004      	strb	r4, [r0, #0]
   2876c:	2402      	movs	r4, #2
   2876e:	7044      	strb	r4, [r0, #1]
   28770:	88bb      	ldrh	r3, [r7, #4]
   28772:	aa0a      	add	r2, sp, #40	; 0x28
   28774:	8083      	strh	r3, [r0, #4]
   28776:	230f      	movs	r3, #15
   28778:	189b      	adds	r3, r3, r2
   2877a:	781b      	ldrb	r3, [r3, #0]
   2877c:	0006      	movs	r6, r0
   2877e:	7083      	strb	r3, [r0, #2]
   28780:	230d      	movs	r3, #13
   28782:	189b      	adds	r3, r3, r2
   28784:	781b      	ldrb	r3, [r3, #0]
   28786:	1db9      	adds	r1, r7, #6
   28788:	7183      	strb	r3, [r0, #6]
   2878a:	88ba      	ldrh	r2, [r7, #4]
   2878c:	3007      	adds	r0, #7
   2878e:	f005 fe59 	bl	2e444 <memcpy>
   28792:	230e      	movs	r3, #14
   28794:	aa0a      	add	r2, sp, #40	; 0x28
   28796:	189b      	adds	r3, r3, r2
   28798:	7818      	ldrb	r0, [r3, #0]
   2879a:	380c      	subs	r0, #12
   2879c:	2808      	cmp	r0, #8
   2879e:	d807      	bhi.n	287b0 <gattc_write_req_ind_handler.lto_priv.3+0x15c>
   287a0:	f7fd fb56 	bl	25e50 <__gnu_thumb1_case_uqi>
   287a4:	0c060605 	.word	0x0c060605
   287a8:	06060f06 	.word	0x06060f06
   287ac:	11          	.byte	0x11
   287ad:	00          	.byte	0x00
   287ae:	70f4      	strb	r4, [r6, #3]
   287b0:	0030      	movs	r0, r6
   287b2:	f7f6 ffdd 	bl	1f770 <ke_msg_send>
   287b6:	2302      	movs	r3, #2
   287b8:	75eb      	strb	r3, [r5, #23]
   287ba:	e7b6      	b.n	2872a <gattc_write_req_ind_handler.lto_priv.3+0xd6>
   287bc:	2303      	movs	r3, #3
   287be:	70f3      	strb	r3, [r6, #3]
   287c0:	e7f6      	b.n	287b0 <gattc_write_req_ind_handler.lto_priv.3+0x15c>
   287c2:	2304      	movs	r3, #4
   287c4:	e7fb      	b.n	287be <gattc_write_req_ind_handler.lto_priv.3+0x16a>
   287c6:	2300      	movs	r3, #0
   287c8:	e7f9      	b.n	287be <gattc_write_req_ind_handler.lto_priv.3+0x16a>
   287ca:	79fb      	ldrb	r3, [r7, #7]
   287cc:	79ba      	ldrb	r2, [r7, #6]
   287ce:	021b      	lsls	r3, r3, #8
   287d0:	4313      	orrs	r3, r2
   287d2:	9309      	str	r3, [sp, #36]	; 0x24
   287d4:	230f      	movs	r3, #15
   287d6:	aa0a      	add	r2, sp, #40	; 0x28
   287d8:	189b      	adds	r3, r3, r2
   287da:	781b      	ldrb	r3, [r3, #0]
   287dc:	2026      	movs	r0, #38	; 0x26
   287de:	9308      	str	r3, [sp, #32]
   287e0:	230d      	movs	r3, #13
   287e2:	189b      	adds	r3, r3, r2
   287e4:	781b      	ldrb	r3, [r3, #0]
   287e6:	930b      	str	r3, [sp, #44]	; 0x2c
   287e8:	f7fe fdb8 	bl	2735c <prf_env_get>
   287ec:	2202      	movs	r2, #2
   287ee:	9004      	str	r0, [sp, #16]
   287f0:	2e12      	cmp	r6, #18
   287f2:	d005      	beq.n	28800 <gattc_write_req_ind_handler.lto_priv.3+0x1ac>
   287f4:	2e16      	cmp	r6, #22
   287f6:	d02b      	beq.n	28850 <gattc_write_req_ind_handler.lto_priv.3+0x1fc>
   287f8:	0032      	movs	r2, r6
   287fa:	3a0d      	subs	r2, #13
   287fc:	4253      	negs	r3, r2
   287fe:	415a      	adcs	r2, r3
   28800:	9b09      	ldr	r3, [sp, #36]	; 0x24
   28802:	2b00      	cmp	r3, #0
   28804:	d12a      	bne.n	2885c <gattc_write_req_ind_handler.lto_priv.3+0x208>
   28806:	9b08      	ldr	r3, [sp, #32]
   28808:	9905      	ldr	r1, [sp, #20]
   2880a:	009b      	lsls	r3, r3, #2
   2880c:	185b      	adds	r3, r3, r1
   2880e:	9904      	ldr	r1, [sp, #16]
   28810:	005b      	lsls	r3, r3, #1
   28812:	18cb      	adds	r3, r1, r3
   28814:	88d9      	ldrh	r1, [r3, #6]
   28816:	4391      	bics	r1, r2
   28818:	80d9      	strh	r1, [r3, #6]
   2881a:	9b04      	ldr	r3, [sp, #16]
   2881c:	0021      	movs	r1, r4
   2881e:	8818      	ldrh	r0, [r3, #0]
   28820:	f7ff f896 	bl	27950 <prf_dst_task_get.isra.0>
   28824:	9b04      	ldr	r3, [sp, #16]
   28826:	0006      	movs	r6, r0
   28828:	0021      	movs	r1, r4
   2882a:	8858      	ldrh	r0, [r3, #2]
   2882c:	f7ff f899 	bl	27962 <prf_src_task_get.isra.0>
   28830:	2306      	movs	r3, #6
   28832:	0002      	movs	r2, r0
   28834:	0031      	movs	r1, r6
   28836:	481a      	ldr	r0, [pc, #104]	; (288a0 <gattc_write_req_ind_handler.lto_priv.3+0x24c>)
   28838:	f7f6 ff80 	bl	1f73c <ke_msg_alloc>
   2883c:	9b05      	ldr	r3, [sp, #20]
   2883e:	9a04      	ldr	r2, [sp, #16]
   28840:	005b      	lsls	r3, r3, #1
   28842:	7004      	strb	r4, [r0, #0]
   28844:	18d3      	adds	r3, r2, r3
   28846:	88da      	ldrh	r2, [r3, #6]
   28848:	8042      	strh	r2, [r0, #2]
   2884a:	89db      	ldrh	r3, [r3, #14]
   2884c:	8083      	strh	r3, [r0, #4]
   2884e:	e752      	b.n	286f6 <gattc_write_req_ind_handler.lto_priv.3+0xa2>
   28850:	2280      	movs	r2, #128	; 0x80
   28852:	9b0b      	ldr	r3, [sp, #44]	; 0x2c
   28854:	03d2      	lsls	r2, r2, #15
   28856:	409a      	lsls	r2, r3
   28858:	0c12      	lsrs	r2, r2, #16
   2885a:	e7d1      	b.n	28800 <gattc_write_req_ind_handler.lto_priv.3+0x1ac>
   2885c:	9b09      	ldr	r3, [sp, #36]	; 0x24
   2885e:	2b01      	cmp	r3, #1
   28860:	d10a      	bne.n	28878 <gattc_write_req_ind_handler.lto_priv.3+0x224>
   28862:	9b08      	ldr	r3, [sp, #32]
   28864:	9905      	ldr	r1, [sp, #20]
   28866:	009b      	lsls	r3, r3, #2
   28868:	185b      	adds	r3, r3, r1
   2886a:	9904      	ldr	r1, [sp, #16]
   2886c:	005b      	lsls	r3, r3, #1
   2886e:	18cb      	adds	r3, r1, r3
   28870:	88d9      	ldrh	r1, [r3, #6]
   28872:	430a      	orrs	r2, r1
   28874:	80da      	strh	r2, [r3, #6]
   28876:	e7d0      	b.n	2881a <gattc_write_req_ind_handler.lto_priv.3+0x1c6>
   28878:	2380      	movs	r3, #128	; 0x80
   2887a:	9306      	str	r3, [sp, #24]
   2887c:	e755      	b.n	2872a <gattc_write_req_ind_handler.lto_priv.3+0xd6>
   2887e:	2102      	movs	r1, #2
   28880:	9b07      	ldr	r3, [sp, #28]
   28882:	9803      	ldr	r0, [sp, #12]
   28884:	4319      	orrs	r1, r3
   28886:	0609      	lsls	r1, r1, #24
   28888:	0e09      	lsrs	r1, r1, #24
   2888a:	f7f7 fbe5 	bl	20058 <ke_state_set>
   2888e:	e75c      	b.n	2874a <gattc_write_req_ind_handler.lto_priv.3+0xf6>
   28890:	00002609 	.word	0x00002609
   28894:	00002606 	.word	0x00002606
   28898:	00000c16 	.word	0x00000c16
   2889c:	00002604 	.word	0x00002604
   288a0:	00002608 	.word	0x00002608

000288a4 <gattc_read_req_ind_handler.lto_priv.4>:
   288a4:	b5f0      	push	{r4, r5, r6, r7, lr}
   288a6:	0010      	movs	r0, r2
   288a8:	b08b      	sub	sp, #44	; 0x2c
   288aa:	9306      	str	r3, [sp, #24]
   288ac:	9104      	str	r1, [sp, #16]
   288ae:	9203      	str	r2, [sp, #12]
   288b0:	f7f7 fc10 	bl	200d4 <ke_state_get>
   288b4:	9005      	str	r0, [sp, #20]
   288b6:	2002      	movs	r0, #2
   288b8:	9b05      	ldr	r3, [sp, #20]
   288ba:	4003      	ands	r3, r0
   288bc:	9307      	str	r3, [sp, #28]
   288be:	9b05      	ldr	r3, [sp, #20]
   288c0:	4203      	tst	r3, r0
   288c2:	d155      	bne.n	28970 <gattc_read_req_ind_handler.lto_priv.4+0xcc>
   288c4:	270e      	movs	r7, #14
   288c6:	ab06      	add	r3, sp, #24
   288c8:	18ff      	adds	r7, r7, r3
   288ca:	9b07      	ldr	r3, [sp, #28]
   288cc:	3024      	adds	r0, #36	; 0x24
   288ce:	803b      	strh	r3, [r7, #0]
   288d0:	f7fe fd44 	bl	2735c <prf_env_get>
   288d4:	9b04      	ldr	r3, [sp, #16]
   288d6:	aa06      	add	r2, sp, #24
   288d8:	8819      	ldrh	r1, [r3, #0]
   288da:	230b      	movs	r3, #11
   288dc:	0004      	movs	r4, r0
   288de:	189b      	adds	r3, r3, r2
   288e0:	220d      	movs	r2, #13
   288e2:	a806      	add	r0, sp, #24
   288e4:	ae09      	add	r6, sp, #36	; 0x24
   288e6:	9300      	str	r3, [sp, #0]
   288e8:	1812      	adds	r2, r2, r0
   288ea:	0033      	movs	r3, r6
   288ec:	0020      	movs	r0, r4
   288ee:	f7fe ff55 	bl	2779c <hogpd_get_att_idx>
   288f2:	1e05      	subs	r5, r0, #0
   288f4:	d000      	beq.n	288f8 <gattc_read_req_ind_handler.lto_priv.4+0x54>
   288f6:	e08a      	b.n	28a0e <gattc_read_req_ind_handler.lto_priv.4+0x16a>
   288f8:	7830      	ldrb	r0, [r6, #0]
   288fa:	9b06      	ldr	r3, [sp, #24]
   288fc:	3807      	subs	r0, #7
   288fe:	0a1b      	lsrs	r3, r3, #8
   28900:	280f      	cmp	r0, #15
   28902:	d900      	bls.n	28906 <gattc_read_req_ind_handler.lto_priv.4+0x62>
   28904:	e082      	b.n	28a0c <gattc_read_req_ind_handler.lto_priv.4+0x168>
   28906:	f7fd faa3 	bl	25e50 <__gnu_thumb1_case_uqi>
   2890a:	8135      	.short	0x8135
   2890c:	7f813781 	.word	0x7f813781
   28910:	81848153 	.word	0x81848153
   28914:	09816108 	.word	0x09816108
   28918:	6d81      	.short	0x6d81
   2891a:	2504      	movs	r5, #4
   2891c:	0019      	movs	r1, r3
   2891e:	8820      	ldrh	r0, [r4, #0]
   28920:	001e      	movs	r6, r3
   28922:	f7ff f815 	bl	27950 <prf_dst_task_get.isra.0>
   28926:	2308      	movs	r3, #8
   28928:	0001      	movs	r1, r0
   2892a:	9a03      	ldr	r2, [sp, #12]
   2892c:	483a      	ldr	r0, [pc, #232]	; (28a18 <gattc_read_req_ind_handler.lto_priv.4+0x174>)
   2892e:	f7f6 ff05 	bl	1f73c <ke_msg_alloc>
   28932:	2300      	movs	r3, #0
   28934:	aa06      	add	r2, sp, #24
   28936:	8083      	strh	r3, [r0, #4]
   28938:	330d      	adds	r3, #13
   2893a:	7006      	strb	r6, [r0, #0]
   2893c:	189b      	adds	r3, r3, r2
   2893e:	781b      	ldrb	r3, [r3, #0]
   28940:	2701      	movs	r7, #1
   28942:	7083      	strb	r3, [r0, #2]
   28944:	230b      	movs	r3, #11
   28946:	189b      	adds	r3, r3, r2
   28948:	781b      	ldrb	r3, [r3, #0]
   2894a:	7047      	strb	r7, [r0, #1]
   2894c:	7183      	strb	r3, [r0, #6]
   2894e:	70c5      	strb	r5, [r0, #3]
   28950:	f7f6 ff0e 	bl	1f770 <ke_msg_send>
   28954:	2102      	movs	r1, #2
   28956:	9b04      	ldr	r3, [sp, #16]
   28958:	75a6      	strb	r6, [r4, #22]
   2895a:	75e7      	strb	r7, [r4, #23]
   2895c:	881b      	ldrh	r3, [r3, #0]
   2895e:	9803      	ldr	r0, [sp, #12]
   28960:	8323      	strh	r3, [r4, #24]
   28962:	9b05      	ldr	r3, [sp, #20]
   28964:	4319      	orrs	r1, r3
   28966:	0609      	lsls	r1, r1, #24
   28968:	0e09      	lsrs	r1, r1, #24
   2896a:	f7f7 fb75 	bl	20058 <ke_state_set>
   2896e:	2000      	movs	r0, #0
   28970:	b00b      	add	sp, #44	; 0x2c
   28972:	bdf0      	pop	{r4, r5, r6, r7, pc}
   28974:	2501      	movs	r5, #1
   28976:	e7d1      	b.n	2891c <gattc_read_req_ind_handler.lto_priv.4+0x78>
   28978:	ab06      	add	r3, sp, #24
   2897a:	7b58      	ldrb	r0, [r3, #13]
   2897c:	00c0      	lsls	r0, r0, #3
   2897e:	1824      	adds	r4, r4, r0
   28980:	7ae3      	ldrb	r3, [r4, #11]
   28982:	2401      	movs	r4, #1
   28984:	803b      	strh	r3, [r7, #0]
   28986:	9a03      	ldr	r2, [sp, #12]
   28988:	9906      	ldr	r1, [sp, #24]
   2898a:	1da3      	adds	r3, r4, #6
   2898c:	4823      	ldr	r0, [pc, #140]	; (28a1c <gattc_read_req_ind_handler.lto_priv.4+0x178>)
   2898e:	f7f6 fed5 	bl	1f73c <ke_msg_alloc>
   28992:	0006      	movs	r6, r0
   28994:	9b04      	ldr	r3, [sp, #16]
   28996:	0022      	movs	r2, r4
   28998:	881b      	ldrh	r3, [r3, #0]
   2899a:	0039      	movs	r1, r7
   2899c:	8003      	strh	r3, [r0, #0]
   2899e:	7105      	strb	r5, [r0, #4]
   289a0:	8044      	strh	r4, [r0, #2]
   289a2:	3005      	adds	r0, #5
   289a4:	f005 fd4e 	bl	2e444 <memcpy>
   289a8:	0030      	movs	r0, r6
   289aa:	f7f6 fee1 	bl	1f770 <ke_msg_send>
   289ae:	e7de      	b.n	2896e <gattc_read_req_ind_handler.lto_priv.4+0xca>
   289b0:	220d      	movs	r2, #13
   289b2:	a906      	add	r1, sp, #24
   289b4:	1852      	adds	r2, r2, r1
   289b6:	7816      	ldrb	r6, [r2, #0]
   289b8:	2201      	movs	r2, #1
   289ba:	00b6      	lsls	r6, r6, #2
   289bc:	18f6      	adds	r6, r6, r3
   289be:	0076      	lsls	r6, r6, #1
   289c0:	19a4      	adds	r4, r4, r6
   289c2:	88e3      	ldrh	r3, [r4, #6]
   289c4:	4013      	ands	r3, r2
   289c6:	2402      	movs	r4, #2
   289c8:	803b      	strh	r3, [r7, #0]
   289ca:	e7dc      	b.n	28986 <gattc_read_req_ind_handler.lto_priv.4+0xe2>
   289cc:	220d      	movs	r2, #13
   289ce:	a906      	add	r1, sp, #24
   289d0:	1852      	adds	r2, r2, r1
   289d2:	7816      	ldrb	r6, [r2, #0]
   289d4:	00b6      	lsls	r6, r6, #2
   289d6:	18f6      	adds	r6, r6, r3
   289d8:	0076      	lsls	r6, r6, #1
   289da:	19a4      	adds	r4, r4, r6
   289dc:	88e3      	ldrh	r3, [r4, #6]
   289de:	079b      	lsls	r3, r3, #30
   289e0:	0fdb      	lsrs	r3, r3, #31
   289e2:	e7f0      	b.n	289c6 <gattc_read_req_ind_handler.lto_priv.4+0x122>
   289e4:	220d      	movs	r2, #13
   289e6:	a906      	add	r1, sp, #24
   289e8:	1852      	adds	r2, r2, r1
   289ea:	7810      	ldrb	r0, [r2, #0]
   289ec:	0080      	lsls	r0, r0, #2
   289ee:	18c3      	adds	r3, r0, r3
   289f0:	005e      	lsls	r6, r3, #1
   289f2:	230b      	movs	r3, #11
   289f4:	185b      	adds	r3, r3, r1
   289f6:	7819      	ldrb	r1, [r3, #0]
   289f8:	2340      	movs	r3, #64	; 0x40
   289fa:	408b      	lsls	r3, r1
   289fc:	19a4      	adds	r4, r4, r6
   289fe:	88e2      	ldrh	r2, [r4, #6]
   28a00:	4013      	ands	r3, r2
   28a02:	1e5a      	subs	r2, r3, #1
   28a04:	4193      	sbcs	r3, r2
   28a06:	e7de      	b.n	289c6 <gattc_read_req_ind_handler.lto_priv.4+0x122>
   28a08:	2502      	movs	r5, #2
   28a0a:	e787      	b.n	2891c <gattc_read_req_ind_handler.lto_priv.4+0x78>
   28a0c:	2580      	movs	r5, #128	; 0x80
   28a0e:	2400      	movs	r4, #0
   28a10:	e7b9      	b.n	28986 <gattc_read_req_ind_handler.lto_priv.4+0xe2>
   28a12:	2503      	movs	r5, #3
   28a14:	e782      	b.n	2891c <gattc_read_req_ind_handler.lto_priv.4+0x78>
   28a16:	46c0      	nop			; (mov r8, r8)
   28a18:	00002604 	.word	0x00002604
   28a1c:	00000c14 	.word	0x00000c14

00028a20 <gattc_cmp_evt_handler.lto_priv.3>:
   28a20:	b570      	push	{r4, r5, r6, lr}
   28a22:	0015      	movs	r5, r2
   28a24:	780a      	ldrb	r2, [r1, #0]
   28a26:	000e      	movs	r6, r1
   28a28:	2a12      	cmp	r2, #18
   28a2a:	d11a      	bne.n	28a62 <gattc_cmp_evt_handler.lto_priv.3+0x42>
   28a2c:	2026      	movs	r0, #38	; 0x26
   28a2e:	0a1c      	lsrs	r4, r3, #8
   28a30:	f7fe fc94 	bl	2735c <prf_env_get>
   28a34:	0021      	movs	r1, r4
   28a36:	8800      	ldrh	r0, [r0, #0]
   28a38:	f7fe ff8a 	bl	27950 <prf_dst_task_get.isra.0>
   28a3c:	002a      	movs	r2, r5
   28a3e:	0001      	movs	r1, r0
   28a40:	2302      	movs	r3, #2
   28a42:	4809      	ldr	r0, [pc, #36]	; (28a68 <gattc_cmp_evt_handler.lto_priv.3+0x48>)
   28a44:	f7f6 fe7a 	bl	1f73c <ke_msg_alloc>
   28a48:	7004      	strb	r4, [r0, #0]
   28a4a:	7873      	ldrb	r3, [r6, #1]
   28a4c:	7043      	strb	r3, [r0, #1]
   28a4e:	f7f6 fe8f 	bl	1f770 <ke_msg_send>
   28a52:	0028      	movs	r0, r5
   28a54:	f7f7 fb3e 	bl	200d4 <ke_state_get>
   28a58:	21fe      	movs	r1, #254	; 0xfe
   28a5a:	4001      	ands	r1, r0
   28a5c:	0028      	movs	r0, r5
   28a5e:	f7f7 fafb 	bl	20058 <ke_state_set>
   28a62:	2000      	movs	r0, #0
   28a64:	bd70      	pop	{r4, r5, r6, pc}
   28a66:	46c0      	nop			; (mov r8, r8)
   28a68:	00002603 	.word	0x00002603

00028a6c <uart2_printf>:
   28a6c:	b40f      	push	{r0, r1, r2, r3}
   28a6e:	b5f0      	push	{r4, r5, r6, r7, lr}
   28a70:	b0a3      	sub	sp, #140	; 0x8c
   28a72:	aa28      	add	r2, sp, #160	; 0xa0
   28a74:	ca02      	ldmia	r2!, {r1}
   28a76:	a802      	add	r0, sp, #8
   28a78:	9201      	str	r2, [sp, #4]
   28a7a:	f005 fd8f 	bl	2e59c <vsprintf>
   28a7e:	2480      	movs	r4, #128	; 0x80
   28a80:	0002      	movs	r2, r0
   28a82:	4909      	ldr	r1, [pc, #36]	; (28aa8 <uart2_printf+0x3c>)
   28a84:	4d09      	ldr	r5, [pc, #36]	; (28aac <uart2_printf+0x40>)
   28a86:	ab02      	add	r3, sp, #8
   28a88:	0364      	lsls	r4, r4, #13
   28a8a:	3a01      	subs	r2, #1
   28a8c:	d204      	bcs.n	28a98 <uart2_printf+0x2c>
   28a8e:	b023      	add	sp, #140	; 0x8c
   28a90:	bcf0      	pop	{r4, r5, r6, r7}
   28a92:	bc08      	pop	{r3}
   28a94:	b004      	add	sp, #16
   28a96:	4718      	bx	r3
   28a98:	781e      	ldrb	r6, [r3, #0]
   28a9a:	680f      	ldr	r7, [r1, #0]
   28a9c:	4227      	tst	r7, r4
   28a9e:	d0fc      	beq.n	28a9a <uart2_printf+0x2e>
   28aa0:	602e      	str	r6, [r5, #0]
   28aa2:	3301      	adds	r3, #1
   28aa4:	e7f1      	b.n	28a8a <uart2_printf+0x1e>
   28aa6:	46c0      	nop			; (mov r8, r8)
   28aa8:	00806a08 	.word	0x00806a08
   28aac:	00806a0c 	.word	0x00806a0c

00028ab0 <platform_reset>:
   28ab0:	b510      	push	{r4, lr}
   28ab2:	0001      	movs	r1, r0
   28ab4:	4804      	ldr	r0, [pc, #16]	; (28ac8 <platform_reset+0x18>)
   28ab6:	f7ff ffd9 	bl	28a6c <uart2_printf>
   28aba:	f00d fb6b 	bl	36194 <____disable_fiq_from_thumb>
   28abe:	f00d fb6d 	bl	3619c <____disable_irq_from_thumb>
   28ac2:	f7fe fc5f 	bl	27384 <cpu_reset>
   28ac6:	bd10      	pop	{r4, pc}
   28ac8:	000361eb 	.word	0x000361eb

00028acc <prf_init>:
   28acc:	b5f8      	push	{r3, r4, r5, r6, r7, lr}
   28ace:	2509      	movs	r5, #9
   28ad0:	27ff      	movs	r7, #255	; 0xff
   28ad2:	0001      	movs	r1, r0
   28ad4:	0006      	movs	r6, r0
   28ad6:	4815      	ldr	r0, [pc, #84]	; (28b2c <prf_init+0x60>)
   28ad8:	f7ff ffc8 	bl	28a6c <uart2_printf>
   28adc:	4c14      	ldr	r4, [pc, #80]	; (28b30 <prf_init+0x64>)
   28ade:	2e01      	cmp	r6, #1
   28ae0:	d01c      	beq.n	28b1c <prf_init+0x50>
   28ae2:	2e02      	cmp	r6, #2
   28ae4:	d00e      	beq.n	28b04 <prf_init+0x38>
   28ae6:	2e00      	cmp	r6, #0
   28ae8:	d105      	bne.n	28af6 <prf_init+0x2a>
   28aea:	0628      	lsls	r0, r5, #24
   28aec:	0021      	movs	r1, r4
   28aee:	8225      	strh	r5, [r4, #16]
   28af0:	0e00      	lsrs	r0, r0, #24
   28af2:	f7f7 fa73 	bl	1ffdc <ke_task_create>
   28af6:	3501      	adds	r5, #1
   28af8:	042d      	lsls	r5, r5, #16
   28afa:	3418      	adds	r4, #24
   28afc:	0c2d      	lsrs	r5, r5, #16
   28afe:	2d13      	cmp	r5, #19
   28b00:	d1ed      	bne.n	28ade <prf_init+0x12>
   28b02:	bdf8      	pop	{r3, r4, r5, r6, r7, pc}
   28b04:	8a60      	ldrh	r0, [r4, #18]
   28b06:	f7fe fbd9 	bl	272bc <prf_itf_get>
   28b0a:	2800      	cmp	r0, #0
   28b0c:	d002      	beq.n	28b14 <prf_init+0x48>
   28b0e:	6843      	ldr	r3, [r0, #4]
   28b10:	0020      	movs	r0, r4
   28b12:	4798      	blx	r3
   28b14:	8a20      	ldrh	r0, [r4, #16]
   28b16:	4038      	ands	r0, r7
   28b18:	f7f7 faf4 	bl	20104 <ke_task_msg_flush>
   28b1c:	2300      	movs	r3, #0
   28b1e:	8267      	strh	r7, [r4, #18]
   28b20:	60e3      	str	r3, [r4, #12]
   28b22:	6023      	str	r3, [r4, #0]
   28b24:	6063      	str	r3, [r4, #4]
   28b26:	8123      	strh	r3, [r4, #8]
   28b28:	8163      	strh	r3, [r4, #10]
   28b2a:	e7e4      	b.n	28af6 <prf_init+0x2a>
   28b2c:	000361fe 	.word	0x000361fe
   28b30:	004029fc 	.word	0x004029fc

00028b34 <prf_add_profile>:
   28b34:	b5f0      	push	{r4, r5, r6, r7, lr}
   28b36:	b085      	sub	sp, #20
   28b38:	9103      	str	r1, [sp, #12]
   28b3a:	0004      	movs	r4, r0
   28b3c:	8840      	ldrh	r0, [r0, #2]
   28b3e:	f7fe fbbd 	bl	272bc <prf_itf_get>
   28b42:	0007      	movs	r7, r0
   28b44:	4820      	ldr	r0, [pc, #128]	; (28bc8 <prf_add_profile+0x94>)
   28b46:	f7ff ff91 	bl	28a6c <uart2_printf>
   28b4a:	2540      	movs	r5, #64	; 0x40
   28b4c:	2f00      	cmp	r7, #0
   28b4e:	d02b      	beq.n	28ba8 <prf_add_profile+0x74>
   28b50:	2300      	movs	r3, #0
   28b52:	8862      	ldrh	r2, [r4, #2]
   28b54:	491d      	ldr	r1, [pc, #116]	; (28bcc <prf_add_profile+0x98>)
   28b56:	5ac8      	ldrh	r0, [r1, r3]
   28b58:	4290      	cmp	r0, r2
   28b5a:	d032      	beq.n	28bc2 <prf_add_profile+0x8e>
   28b5c:	3318      	adds	r3, #24
   28b5e:	2bf0      	cmp	r3, #240	; 0xf0
   28b60:	d1f9      	bne.n	28b56 <prf_add_profile+0x22>
   28b62:	2500      	movs	r5, #0
   28b64:	4e1a      	ldr	r6, [pc, #104]	; (28bd0 <prf_add_profile+0x9c>)
   28b66:	0029      	movs	r1, r5
   28b68:	8a72      	ldrh	r2, [r6, #18]
   28b6a:	481a      	ldr	r0, [pc, #104]	; (28bd4 <prf_add_profile+0xa0>)
   28b6c:	f7ff ff7e 	bl	28a6c <uart2_printf>
   28b70:	8a73      	ldrh	r3, [r6, #18]
   28b72:	2bff      	cmp	r3, #255	; 0xff
   28b74:	d11f      	bne.n	28bb6 <prf_add_profile+0x82>
   28b76:	2618      	movs	r6, #24
   28b78:	436e      	muls	r6, r5
   28b7a:	4b15      	ldr	r3, [pc, #84]	; (28bd0 <prf_add_profile+0x9c>)
   28b7c:	0029      	movs	r1, r5
   28b7e:	199e      	adds	r6, r3, r6
   28b80:	8a32      	ldrh	r2, [r6, #16]
   28b82:	4815      	ldr	r0, [pc, #84]	; (28bd8 <prf_add_profile+0xa4>)
   28b84:	f7ff ff72 	bl	28a6c <uart2_printf>
   28b88:	0020      	movs	r0, r4
   28b8a:	300c      	adds	r0, #12
   28b8c:	9000      	str	r0, [sp, #0]
   28b8e:	683d      	ldr	r5, [r7, #0]
   28b90:	0030      	movs	r0, r6
   28b92:	7863      	ldrb	r3, [r4, #1]
   28b94:	88a2      	ldrh	r2, [r4, #4]
   28b96:	1da1      	adds	r1, r4, #6
   28b98:	47a8      	blx	r5
   28b9a:	1e05      	subs	r5, r0, #0
   28b9c:	d104      	bne.n	28ba8 <prf_add_profile+0x74>
   28b9e:	8863      	ldrh	r3, [r4, #2]
   28ba0:	9a03      	ldr	r2, [sp, #12]
   28ba2:	8273      	strh	r3, [r6, #18]
   28ba4:	8a33      	ldrh	r3, [r6, #16]
   28ba6:	8013      	strh	r3, [r2, #0]
   28ba8:	0029      	movs	r1, r5
   28baa:	480c      	ldr	r0, [pc, #48]	; (28bdc <prf_add_profile+0xa8>)
   28bac:	f7ff ff5e 	bl	28a6c <uart2_printf>
   28bb0:	0028      	movs	r0, r5
   28bb2:	b005      	add	sp, #20
   28bb4:	bdf0      	pop	{r4, r5, r6, r7, pc}
   28bb6:	3501      	adds	r5, #1
   28bb8:	3618      	adds	r6, #24
   28bba:	2d0a      	cmp	r5, #10
   28bbc:	d1d3      	bne.n	28b66 <prf_add_profile+0x32>
   28bbe:	3541      	adds	r5, #65	; 0x41
   28bc0:	e7f2      	b.n	28ba8 <prf_add_profile+0x74>
   28bc2:	2542      	movs	r5, #66	; 0x42
   28bc4:	e7f0      	b.n	28ba8 <prf_add_profile+0x74>
   28bc6:	46c0      	nop			; (mov r8, r8)
   28bc8:	00036212 	.word	0x00036212
   28bcc:	00402a0e 	.word	0x00402a0e
   28bd0:	004029fc 	.word	0x004029fc
   28bd4:	00036223 	.word	0x00036223
   28bd8:	0003623a 	.word	0x0003623a
   28bdc:	00036253 	.word	0x00036253

00028be0 <app_sec_send_security_req>:
   28be0:	b510      	push	{r4, lr}
   28be2:	4910      	ldr	r1, [pc, #64]	; (28c24 <app_sec_send_security_req+0x44>)
   28be4:	0004      	movs	r4, r0
   28be6:	4810      	ldr	r0, [pc, #64]	; (28c28 <app_sec_send_security_req+0x48>)
   28be8:	f7ff ff40 	bl	28a6c <uart2_printf>
   28bec:	4b0f      	ldr	r3, [pc, #60]	; (28c2c <app_sec_send_security_req+0x4c>)
   28bee:	789a      	ldrb	r2, [r3, #2]
   28bf0:	2a00      	cmp	r2, #0
   28bf2:	d111      	bne.n	28c18 <app_sec_send_security_req+0x38>
   28bf4:	785b      	ldrb	r3, [r3, #1]
   28bf6:	2b00      	cmp	r3, #0
   28bf8:	d10e      	bne.n	28c18 <app_sec_send_security_req+0x38>
   28bfa:	0221      	lsls	r1, r4, #8
   28bfc:	2408      	movs	r4, #8
   28bfe:	3302      	adds	r3, #2
   28c00:	480b      	ldr	r0, [pc, #44]	; (28c30 <app_sec_send_security_req+0x50>)
   28c02:	4321      	orrs	r1, r4
   28c04:	3203      	adds	r2, #3
   28c06:	f7f6 fd99 	bl	1f73c <ke_msg_alloc>
   28c0a:	230c      	movs	r3, #12
   28c0c:	7003      	strb	r3, [r0, #0]
   28c0e:	3b0b      	subs	r3, #11
   28c10:	7043      	strb	r3, [r0, #1]
   28c12:	f7f6 fdad 	bl	1f770 <ke_msg_send>
   28c16:	bd10      	pop	{r4, pc}
   28c18:	2103      	movs	r1, #3
   28c1a:	4806      	ldr	r0, [pc, #24]	; (28c34 <app_sec_send_security_req+0x54>)
   28c1c:	f7f7 fd88 	bl	20730 <ke_timer_clear>
   28c20:	e7f9      	b.n	28c16 <app_sec_send_security_req+0x36>
   28c22:	46c0      	nop			; (mov r8, r8)
   28c24:	00036e98 	.word	0x00036e98
   28c28:	00036958 	.word	0x00036958
   28c2c:	0040280f 	.word	0x0040280f
   28c30:	00000e1a 	.word	0x00000e1a
   28c34:	00000f03 	.word	0x00000f03

00028c38 <app_send_security_req_handler>:
   28c38:	b510      	push	{r4, lr}
   28c3a:	4b03      	ldr	r3, [pc, #12]	; (28c48 <app_send_security_req_handler+0x10>)
   28c3c:	7898      	ldrb	r0, [r3, #2]
   28c3e:	f7ff ffcf 	bl	28be0 <app_sec_send_security_req>
   28c42:	2000      	movs	r0, #0
   28c44:	bd10      	pop	{r4, pc}
   28c46:	46c0      	nop			; (mov r8, r8)
   28c48:	004027d8 	.word	0x004027d8

00028c4c <gapc_encrypt_req_ind_handler>:
   28c4c:	b5f0      	push	{r4, r5, r6, r7, lr}
   28c4e:	481d      	ldr	r0, [pc, #116]	; (28cc4 <gapc_encrypt_req_ind_handler+0x78>)
   28c50:	b089      	sub	sp, #36	; 0x24
   28c52:	001c      	movs	r4, r3
   28c54:	000d      	movs	r5, r1
   28c56:	f7ff ff09 	bl	28a6c <uart2_printf>
   28c5a:	2201      	movs	r2, #1
   28c5c:	4b1a      	ldr	r3, [pc, #104]	; (28cc8 <gapc_encrypt_req_ind_handler+0x7c>)
   28c5e:	0021      	movs	r1, r4
   28c60:	709a      	strb	r2, [r3, #2]
   28c62:	466b      	mov	r3, sp
   28c64:	1cdf      	adds	r7, r3, #3
   28c66:	231c      	movs	r3, #28
   28c68:	3202      	adds	r2, #2
   28c6a:	703b      	strb	r3, [r7, #0]
   28c6c:	4817      	ldr	r0, [pc, #92]	; (28ccc <gapc_encrypt_req_ind_handler+0x80>)
   28c6e:	3b0a      	subs	r3, #10
   28c70:	f7f6 fd64 	bl	1f73c <ke_msg_alloc>
   28c74:	2300      	movs	r3, #0
   28c76:	ae01      	add	r6, sp, #4
   28c78:	0004      	movs	r4, r0
