Component: ARM Compiler 5.06 update 6 (build 750) Tool: armlink [4d35ed]

==============================================================================

Section Cross References

    main.o(i.ble_mem_init_config) refers to patch.o(_func_xip_code_.LL_InitConnectContext) for LL_InitConnectContext
    main.o(i.ble_mem_init_config) refers to main.o(.bss) for g_largeHeap
    main.o(i.hal_init) refers to main.o(i.hal_low_power_io_init) for hal_low_power_io_init
    main.o(i.hal_init) refers to patch.o(i.clk_init) for clk_init
    main.o(i.hal_init) refers to clock.o(i.hal_rtc_clock_config) for hal_rtc_clock_config
    main.o(i.hal_init) refers to pwrmgr.o(i.hal_pwrmgr_init) for hal_pwrmgr_init
    main.o(i.hal_init) refers to flash.o(i.hal_spif_cache_init) for hal_spif_cache_init
    main.o(i.hal_init) refers to my_printf.o(i.dbg_printf_init) for dbg_printf_init
    main.o(i.hal_init) refers to gpio.o(i.hal_gpio_init) for hal_gpio_init
    main.o(i.hal_init) refers to main.o(.data) for g_clk32K_config
    main.o(i.hal_init) refers to main.o(.constdata) for .constdata
    main.o(i.hal_low_power_io_init) refers to gpio.o(i.hal_gpio_pull_set) for hal_gpio_pull_set
    main.o(i.hal_low_power_io_init) refers to pwrmgr.o(i.hal_pwrmgr_RAM_retention) for hal_pwrmgr_RAM_retention
    main.o(i.hal_low_power_io_init) refers to pwrmgr.o(i.hal_pwrmgr_RAM_retention_set) for hal_pwrmgr_RAM_retention_set
    main.o(i.hal_low_power_io_init) refers to pwrmgr.o(i.hal_pwrmgr_LowCurrentLdo_enable) for hal_pwrmgr_LowCurrentLdo_enable
    main.o(i.hal_low_power_io_init) refers to main.o(.constdata) for .constdata
    main.o(i.hal_rfphy_init) refers to clock.o(i.hal_rc32k_clk_tracking_init) for hal_rc32k_clk_tracking_init
    main.o(i.hal_rfphy_init) refers to patch.o(i.hal_rom_boot_init) for hal_rom_boot_init
    main.o(i.hal_rfphy_init) refers to main.o(i.__NVIC_SetPriority) for __NVIC_SetPriority
    main.o(i.hal_rfphy_init) refers to main.o(i.ble_mem_init_config) for ble_mem_init_config
    main.o(i.main) refers to patch.o(_section_xip_code_) for init_config
    main.o(i.main) refers to main.o(i.hal_rfphy_init) for hal_rfphy_init
    main.o(i.main) refers to main.o(i.hal_init) for hal_init
    main.o(i.main) refers to gpio_main.o(i.app_main) for app_main
    main.o(i.main) refers to main.o(.data) for g_clk32K_config
    jump_table.o(.emb_text) refers to jump_table.o(i._hard_fault) for _hard_fault
    jump_table.o(i._hard_fault) refers to jump_table.o(.data) for trap_c_callback
    jump_table.o(jump_table_mem_area) refers to osal_gpio.o(i.osalInitTasks) for osalInitTasks
    jump_table.o(jump_table_mem_area) refers to osal_gpio.o(_section_sram_code_) for tasksArr
    jump_table.o(jump_table_mem_area) refers to osal_gpio.o(.data) for tasksEvents
    jump_table.o(jump_table_mem_area) refers (Weak) to pwrmgr.o(i.hal_pwrmgr_sleep_process) for hal_pwrmgr_sleep_process
    jump_table.o(jump_table_mem_area) refers (Weak) to pwrmgr.o(i.hal_pwrmgr_wakeup_process) for hal_pwrmgr_wakeup_process
    jump_table.o(jump_table_mem_area) refers to rf_phy_driver.o(i.rf_phy_ini) for rf_phy_ini
    jump_table.o(jump_table_mem_area) refers to jump_table.o(.emb_text) for hard_fault
    jump_table.o(jump_table_mem_area) refers (Weak) to uart.o(i.hal_UART0_IRQHandler) for hal_UART0_IRQHandler
    gpio_demo.o(i.GPIO_Wakeup_Init) refers to gpio.o(i.hal_gpio_init) for hal_gpio_init
    gpio_demo.o(i.GPIO_Wakeup_Init) refers to my_printf.o(i.dbg_printf) for dbg_printf
    gpio_demo.o(i.GPIO_Wakeup_Init) refers to gpio.o(i.hal_gpioin_register) for hal_gpioin_register
    gpio_demo.o(i.GPIO_Wakeup_Init) refers to gpio.o(i.hal_gpio_read) for hal_gpio_read
    gpio_demo.o(i.GPIO_Wakeup_Init) refers to gpio_demo.o(.data) for gpio_wakeup_TaskID
    gpio_demo.o(i.GPIO_Wakeup_ProcessEvent) refers to gpio_demo.o(.data) for gpio_wakeup_TaskID
    gpio_demo.o(i.KEY_NEGE_HDL) refers to my_printf.o(i.dbg_printf) for dbg_printf
    gpio_demo.o(i.KEY_NEGE_HDL) refers to pwm.o(i.hal_pwm_start) for hal_pwm_start
    gpio_demo.o(i.KEY_NEGE_HDL) refers to pwm.o(i.hal_pwm_module_deinit) for hal_pwm_module_deinit
    gpio_demo.o(i.KEY_NEGE_HDL) refers to gpio_demo.o(i.pwm_sta) for pwm_sta
    gpio_demo.o(i.KEY_NEGE_HDL) refers to gpio_demo.o(.data) for cnt
    gpio_demo.o(i.KEY_POSE_HDL) refers to my_printf.o(i.dbg_printf) for dbg_printf
    gpio_demo.o(i.Key_Demo_Init) refers to my_printf.o(i.dbg_printf) for dbg_printf
    gpio_demo.o(i.Key_Demo_Init) refers to gpio.o(i.hal_gpio_pin_init) for hal_gpio_pin_init
    gpio_demo.o(i.Key_Demo_Init) refers to gpio.o(i.hal_gpio_pull_set) for hal_gpio_pull_set
    gpio_demo.o(i.Key_Demo_Init) refers to gpio.o(i.hal_gpio_write) for hal_gpio_write
    gpio_demo.o(i.Key_Demo_Init) refers to gpio_demo.o(i.touch_init) for touch_init
    gpio_demo.o(i.Key_Demo_Init) refers to gpio.o(i.hal_gpioin_unregister) for hal_gpioin_unregister
    gpio_demo.o(i.Key_Demo_Init) refers to pwrmgr.o(i.hal_pwrmgr_poweroff) for hal_pwrmgr_poweroff
    gpio_demo.o(i.Key_Demo_Init) refers to gpio_demo.o(.data) for key_TaskID
    gpio_demo.o(i.Key_ProcessEvent) refers to my_printf.o(i.dbg_printf) for dbg_printf
    gpio_demo.o(i.Key_ProcessEvent) refers to key.o(i.gpio_key_timer_handler) for gpio_key_timer_handler
    gpio_demo.o(i.Key_ProcessEvent) refers to gpio_demo.o(.data) for key_TaskID
    gpio_demo.o(i.Key_ProcessEvent) refers to key.o(.bss) for key_state
    gpio_demo.o(i.P16_wakeup_handler) refers to gpio.o(i.hal_gpio_cfg_analog_io) for hal_gpio_cfg_analog_io
    gpio_demo.o(i.P17_wakeup_handler) refers to gpio.o(i.hal_gpio_cfg_analog_io) for hal_gpio_cfg_analog_io
    gpio_demo.o(i.Pulse_Measure_Init) refers to gpio.o(i.hal_gpio_init) for hal_gpio_init
    gpio_demo.o(i.Pulse_Measure_Init) refers to gpio.o(i.hal_gpioin_register) for hal_gpioin_register
    gpio_demo.o(i.Pulse_Measure_Init) refers to gpio.o(i.hal_gpio_read) for hal_gpio_read
    gpio_demo.o(i.Pulse_Measure_Init) refers to gpio_demo.o(.data) for pulseMeasure_TaskID
    gpio_demo.o(i.Pulse_Measure_Init) refers to gpio_demo.o(i.pulse_measure_callback) for pulse_measure_callback
    gpio_demo.o(i.Pulse_Measure_ProcessEvent) refers to gpio_demo.o(.data) for pulseMeasure_TaskID
    gpio_demo.o(i.key_press_evt) refers to my_printf.o(i.dbg_printf) for dbg_printf
    gpio_demo.o(i.key_press_evt) refers to pwrmgr.o(i.hal_pwrmgr_unlock) for hal_pwrmgr_unlock
    gpio_demo.o(i.key_press_evt) refers to key.o(.bss) for key_state
    gpio_demo.o(i.negedge_callback_wakeup) refers to my_printf.o(i.dbg_printf) for dbg_printf
    gpio_demo.o(i.plus_edge_callback) refers to my_printf.o(i.dbg_printf) for dbg_printf
    gpio_demo.o(i.plus_edge_callback) refers to gpio_demo.o(.data) for measureResult
    gpio_demo.o(i.posedge_callback_wakeup) refers to my_printf.o(i.dbg_printf) for dbg_printf
    gpio_demo.o(i.pulse_measure_callback) refers to clock.o(i.hal_systick) for hal_systick
    gpio_demo.o(i.pulse_measure_callback) refers to clock.o(i.hal_ms_intv) for hal_ms_intv
    gpio_demo.o(i.pulse_measure_callback) refers to gpio_demo.o(i.plus_edge_callback) for plus_edge_callback
    gpio_demo.o(i.pulse_measure_callback) refers to gpio_demo.o(.data) for gpioTrig
    gpio_demo.o(i.pwm_sta) refers to pwm.o(i.hal_pwm_module_init) for hal_pwm_module_init
    gpio_demo.o(i.pwm_sta) refers to pwm.o(i.hal_pwm_ch_start) for hal_pwm_ch_start
    gpio_demo.o(i.touch_init) refers to gpio.o(i.hal_gpio_pin_init) for hal_gpio_pin_init
    gpio_demo.o(i.touch_init) refers to gpio.o(i.hal_gpio_pull_set) for hal_gpio_pull_set
    gpio_demo.o(i.touch_init) refers to gpio.o(i.hal_gpioin_register) for hal_gpioin_register
    gpio_demo.o(i.touch_init) refers to gpio_demo.o(i.KEY_NEGE_HDL) for KEY_NEGE_HDL
    gpio_demo.o(i.touch_init) refers to gpio_demo.o(i.KEY_POSE_HDL) for KEY_POSE_HDL
    gpio_demo.o(i.uart_port_reconfig) refers to gpio.o(i.hal_gpio_fmux) for hal_gpio_fmux
    gpio_demo.o(i.uart_port_reconfig) refers to gpio.o(i.hal_gpio_pin_init) for hal_gpio_pin_init
    gpio_demo.o(i.uart_port_reconfig) refers to uart.o(i.hal_uart_init) for hal_uart_init
    gpio_demo.o(i.uart_port_reconfig) refers to my_printf.o(i.dbg_printf) for dbg_printf
    gpio_demo.o(i.uart_port_reconfig) refers to gpio_demo.o(.constdata) for .constdata
    gpio_demo.o(.data) refers to gpio_demo.o(i.posedge_callback_wakeup) for posedge_callback_wakeup
    gpio_demo.o(.data) refers to gpio_demo.o(i.negedge_callback_wakeup) for negedge_callback_wakeup
    osal_gpio.o(i.osalInitTasks) refers to osal_gpio.o(.data) for tasksEvents
    gpio.o(i.hal_GPIO_IRQHandler) refers to gpio.o(i.hal_gpioin_event) for hal_gpioin_event
    gpio.o(i.hal_gpio_cfg_analog_io) refers to gpio.o(i.hal_gpio_pull_set) for hal_gpio_pull_set
    gpio.o(i.hal_gpio_fmux_set) refers to gpio.o(i.hal_gpioin_disable) for hal_gpioin_disable
    gpio.o(i.hal_gpio_fmux_set) refers to gpio.o(i.hal_gpio_fmux) for hal_gpio_fmux
    gpio.o(i.hal_gpio_init) refers to gpio.o(i.__NVIC_SetPriority) for __NVIC_SetPriority
    gpio.o(i.hal_gpio_init) refers to gpio.o(i.__NVIC_EnableIRQ) for __NVIC_EnableIRQ
    gpio.o(i.hal_gpio_init) refers to pwrmgr.o(i.hal_pwrmgr_register) for hal_pwrmgr_register
    gpio.o(i.hal_gpio_init) refers to gpio.o(.bss) for m_gpioCtx
    gpio.o(i.hal_gpio_init) refers to gpio.o(i.hal_gpio_wakeup_handler) for hal_gpio_wakeup_handler
    gpio.o(i.hal_gpio_init) refers to gpio.o(i.hal_gpio_sleep_handler) for hal_gpio_sleep_handler
    gpio.o(i.hal_gpio_pin_init) refers to gpio.o(i.hal_gpio_fmux) for hal_gpio_fmux
    gpio.o(i.hal_gpio_pin_init) refers to gpio.o(i.hal_gpio_pin2pin3_control) for hal_gpio_pin2pin3_control
    gpio.o(i.hal_gpio_pin_init) refers to gpio.o(i.hal_gpio_cfg_analog_io) for hal_gpio_cfg_analog_io
    gpio.o(i.hal_gpio_pin_init) refers to gpio.o(.bss) for m_gpioCtx
    gpio.o(i.hal_gpio_pull_set) refers to gpio.o(.constdata) for c_gpio_pull
    gpio.o(i.hal_gpio_retention_enable) refers to gpio.o(.constdata) for retention_reg
    gpio.o(i.hal_gpio_sleep_handler) refers to gpio.o(i.hal_gpio_retention_enable) for hal_gpio_retention_enable
    gpio.o(i.hal_gpio_sleep_handler) refers to gpio.o(i.hal_gpio_read) for hal_gpio_read
    gpio.o(i.hal_gpio_sleep_handler) refers to gpio.o(i.hal_gpio_wakeup_set) for hal_gpio_wakeup_set
    gpio.o(i.hal_gpio_sleep_handler) refers to gpio.o(.bss) for m_gpioCtx
    gpio.o(i.hal_gpio_wakeup_control) refers to gpio.o(.constdata) for c_gpio_index
    gpio.o(i.hal_gpio_wakeup_handler) refers to gpio.o(i.__NVIC_SetPriority) for __NVIC_SetPriority
    gpio.o(i.hal_gpio_wakeup_handler) refers to gpio.o(i.__NVIC_EnableIRQ) for __NVIC_EnableIRQ
    gpio.o(i.hal_gpio_wakeup_handler) refers to gpio.o(i.hal_gpio_pin2pin3_control) for hal_gpio_pin2pin3_control
    gpio.o(i.hal_gpio_wakeup_handler) refers to gpio.o(i.hal_gpio_read) for hal_gpio_read
    gpio.o(i.hal_gpio_wakeup_handler) refers to gpio.o(i.hal_gpio_write) for hal_gpio_write
    gpio.o(i.hal_gpio_wakeup_handler) refers to gpio.o(i.hal_gpio_retention_enable) for hal_gpio_retention_enable
    gpio.o(i.hal_gpio_wakeup_handler) refers to gpio.o(i.hal_gpioin_enable) for hal_gpioin_enable
    gpio.o(i.hal_gpio_wakeup_handler) refers to gpio.o(i.hal_gpioin_wakeup_trigger) for hal_gpioin_wakeup_trigger
    gpio.o(i.hal_gpio_wakeup_handler) refers to gpio.o(.bss) for m_gpioCtx
    gpio.o(i.hal_gpio_wakeup_set) refers to gpio.o(i.hal_gpio_wakeup_control) for hal_gpio_wakeup_control
    gpio.o(i.hal_gpio_wakeup_set) refers to gpio.o(.constdata) for c_gpio_pull
    gpio.o(i.hal_gpio_wakeup_set) refers to gpio.o(.bss) for m_gpioCtx
    gpio.o(i.hal_gpio_write) refers to gpio.o(i.hal_gpio_pin_init) for hal_gpio_pin_init
    gpio.o(i.hal_gpioin_disable) refers to gpio.o(i.hal_gpio_pin_init) for hal_gpio_pin_init
    gpio.o(i.hal_gpioin_disable) refers to gpio.o(i.hal_gpio_interrupt_disable) for hal_gpio_interrupt_disable
    gpio.o(i.hal_gpioin_disable) refers to gpio.o(.bss) for m_gpioCtx
    gpio.o(i.hal_gpioin_enable) refers to gpio.o(i.hal_gpio_pin_init) for hal_gpio_pin_init
    gpio.o(i.hal_gpioin_enable) refers to gpio.o(i.hal_gpio_read) for hal_gpio_read
    gpio.o(i.hal_gpioin_enable) refers to gpio.o(i.hal_gpio_interrupt_enable) for hal_gpio_interrupt_enable
    gpio.o(i.hal_gpioin_enable) refers to gpio.o(.bss) for m_gpioCtx
    gpio.o(i.hal_gpioin_event) refers to gpio.o(i.hal_gpioin_event_pin) for hal_gpioin_event_pin
    gpio.o(i.hal_gpioin_event) refers to gpio.o(i.hal_gpio_interrupt_enable) for hal_gpio_interrupt_enable
    gpio.o(i.hal_gpioin_event) refers to gpio.o(.bss) for m_gpioCtx
    gpio.o(i.hal_gpioin_event_pin) refers to gpio.o(.bss) for m_gpioCtx
    gpio.o(i.hal_gpioin_register) refers to gpio.o(i.hal_gpioin_disable) for hal_gpioin_disable
    gpio.o(i.hal_gpioin_register) refers to gpio.o(i.hal_gpioin_enable) for hal_gpioin_enable
    gpio.o(i.hal_gpioin_register) refers to gpio.o(.bss) for m_gpioCtx
    gpio.o(i.hal_gpioin_register) refers to gpio.o(i.hal_GPIO_IRQHandler) for hal_GPIO_IRQHandler
    gpio.o(i.hal_gpioin_unregister) refers to gpio.o(i.hal_gpioin_disable) for hal_gpioin_disable
    gpio.o(i.hal_gpioin_unregister) refers to gpio.o(.bss) for m_gpioCtx
    gpio.o(i.hal_gpioin_wakeup_trigger) refers to gpio.o(i.hal_gpio_read) for hal_gpio_read
    gpio.o(i.hal_gpioin_wakeup_trigger) refers to gpio.o(i.hal_gpioin_event_pin) for hal_gpioin_event_pin
    gpio.o(i.hal_gpioin_wakeup_trigger) refers to gpio.o(.bss) for m_gpioCtx
    gpio.o(i.hal_gpioretention_register) refers to gpio.o(.bss) for m_gpioCtx
    gpio.o(i.hal_gpioretention_unregister) refers to gpio.o(.bss) for m_gpioCtx
    my_printf.o(i._uart_putc) refers to uart.o(i.hal_uart_send_buff) for hal_uart_send_buff
    my_printf.o(i.dbg_printf) refers to my_printf.o(i.log_vsprintf) for log_vsprintf
    my_printf.o(i.dbg_printf) refers to my_printf.o(i._uart_putc) for _uart_putc
    my_printf.o(i.dbg_printf_init) refers to uart.o(i.hal_uart_init) for hal_uart_init
    my_printf.o(i.dbg_printf_init) refers to my_printf.o(.constdata) for .constdata
    my_printf.o(i.log_vsprintf) refers to my_printf.o(i.skip_atoi) for skip_atoi
    my_printf.o(i.log_vsprintf) refers to my_printf.o(i._strnlen) for _strnlen
    my_printf.o(i.log_vsprintf) refers to my_printf.o(i.number) for number
    my_printf.o(i.my_dump_byte) refers to my_printf.o(i.dbg_printf) for dbg_printf
    my_printf.o(i.number) refers to my_printf.o(.data) for digits
    my_printf.o(.data) refers to my_printf.o(.conststring) for .conststring
    uart.o(_section_sram_code_) refers to pwrmgr.o(i.hal_pwrmgr_unlock) for hal_pwrmgr_unlock
    uart.o(_section_sram_code_) refers to uart.o(.bss) for m_uartCtx
    uart.o(_section_sram_code_) refers to uart.o(.constdata) for .constdata
    uart.o(i.hal_UART0_IRQHandler) refers to uart.o(_section_sram_code_) for irq_rx_handler
    uart.o(i.hal_UART1_IRQHandler) refers to uart.o(_section_sram_code_) for irq_rx_handler
    uart.o(i.hal_uart_deinit) refers to uart.o(i.uart_hw_deinit) for uart_hw_deinit
    uart.o(i.hal_uart_deinit) refers to pwrmgr.o(i.hal_pwrmgr_unregister) for hal_pwrmgr_unregister
    uart.o(i.hal_uart_deinit) refers to uart.o(.bss) for m_uartCtx
    uart.o(i.hal_uart_get_parity_plan) refers to uart.o(.data) for m_uart0_even_parity
    uart.o(i.hal_uart_get_tx_ready) refers to uart.o(.bss) for m_uartCtx
    uart.o(i.hal_uart_init) refers to uart.o(i.uart_hw_init) for uart_hw_init
    uart.o(i.hal_uart_init) refers to pwrmgr.o(i.hal_pwrmgr_register) for hal_pwrmgr_register
    uart.o(i.hal_uart_init) refers to uart.o(.bss) for m_uartCtx
    uart.o(i.hal_uart_init) refers to uart.o(i.uart_wakeup_process_0) for uart_wakeup_process_0
    uart.o(i.hal_uart_init) refers to uart.o(i.uart_wakeup_process_1) for uart_wakeup_process_1
    uart.o(i.hal_uart_send_buff) refers to uart.o(i.txmit_buf_use_tx_buf) for txmit_buf_use_tx_buf
    uart.o(i.hal_uart_send_buff) refers to uart.o(i.txmit_buf_polling) for txmit_buf_polling
    uart.o(i.hal_uart_send_buff) refers to uart.o(.bss) for m_uartCtx
    uart.o(i.hal_uart_set_parity_plan) refers to uart.o(.data) for m_uart0_even_parity
    uart.o(i.hal_uart_set_tx_buf) refers to uart.o(.bss) for m_uartCtx
    uart.o(i.txmit_buf_use_tx_buf) refers to pwrmgr.o(i.hal_pwrmgr_lock) for hal_pwrmgr_lock
    uart.o(i.txmit_buf_use_tx_buf) refers to uart.o(.bss) for m_uartCtx
    uart.o(i.uart_hw_deinit) refers to clock.o(i.hal_clk_reset) for hal_clk_reset
    uart.o(i.uart_hw_deinit) refers to clock.o(i.hal_clk_gate_disable) for hal_clk_gate_disable
    uart.o(i.uart_hw_deinit) refers to gpio.o(i.hal_gpio_fmux) for hal_gpio_fmux
    uart.o(i.uart_hw_deinit) refers to uart.o(.bss) for m_uartCtx
    uart.o(i.uart_hw_init) refers to uart.o(i.uart_hw_deinit) for uart_hw_deinit
    uart.o(i.uart_hw_init) refers to clock.o(i.hal_clk_gate_enable) for hal_clk_gate_enable
    uart.o(i.uart_hw_init) refers to clock.o(i.hal_clk_reset) for hal_clk_reset
    uart.o(i.uart_hw_init) refers to gpio.o(i.hal_gpio_pull_set) for hal_gpio_pull_set
    uart.o(i.uart_hw_init) refers to gpio.o(i.hal_gpio_fmux_set) for hal_gpio_fmux_set
    uart.o(i.uart_hw_init) refers to gpio.o(i.hal_gpio_fmux) for hal_gpio_fmux
    uart.o(i.uart_hw_init) refers to uart.o(i.__NVIC_SetPriority) for __NVIC_SetPriority
    uart.o(i.uart_hw_init) refers to uart.o(.bss) for m_uartCtx
    uart.o(i.uart_hw_init) refers to uart.o(.data) for m_uart0_even_parity
    uart.o(i.uart_hw_init) refers to uart.o(i.hal_UART0_IRQHandler) for hal_UART0_IRQHandler
    uart.o(i.uart_hw_init) refers to uart.o(i.hal_UART1_IRQHandler) for hal_UART1_IRQHandler
    uart.o(i.uart_wakeup_process_0) refers to uart.o(i.uart_hw_init) for uart_hw_init
    uart.o(i.uart_wakeup_process_1) refers to uart.o(i.uart_hw_init) for uart_hw_init
    pwrmgr.o(_section_sram_code_) refers to pwrmgr.o(i.hal_pwrmgr_RAM_retention_clr) for hal_pwrmgr_RAM_retention_clr
    pwrmgr.o(_section_standby_code_) refers to gpio.o(i.hal_gpio_pin2pin3_control) for hal_gpio_pin2pin3_control
    pwrmgr.o(_section_standby_code_) refers to pwrmgr.o(.data) for pwroff_register_number
    pwrmgr.o(_section_standby_code_) refers to pwrmgr.o(.bss) for s_pwroff_cfg
    pwrmgr.o(_section_xip_code_) refers to pwrmgr.o(.data) for mPwrMode
    pwrmgr.o(_section_xip_code_) refers to pwrmgr.o(.bss) for mCtx
    pwrmgr.o(i.clk_change_mod_restore) refers to pwrmgr.o(.bss) for mCtx
    pwrmgr.o(i.hal_pwrmgr_RAM_retention) refers to pwrmgr.o(.data) for s_pwrmgr_cfg
    pwrmgr.o(i.hal_pwrmgr_RAM_retention_set) refers to pwrmgr.o(.data) for s_pwrmgr_cfg
    pwrmgr.o(i.hal_pwrmgr_clk_gate_config) refers to pwrmgr.o(.data) for s_config_swClk0
    pwrmgr.o(i.hal_pwrmgr_init) refers to pwrmgr.o(.bss) for mCtx
    pwrmgr.o(i.hal_pwrmgr_init) refers to pwrmgr.o(.data) for mPwrMode
    pwrmgr.o(i.hal_pwrmgr_is_lock) refers to pwrmgr.o(.data) for mPwrMode
    pwrmgr.o(i.hal_pwrmgr_is_lock) refers to pwrmgr.o(.bss) for mCtx
    pwrmgr.o(i.hal_pwrmgr_lock) refers to pwrmgr.o(.data) for mPwrMode
    pwrmgr.o(i.hal_pwrmgr_lock) refers to pwrmgr.o(.bss) for mCtx
    pwrmgr.o(i.hal_pwrmgr_register) refers to pwrmgr.o(.bss) for mCtx
    pwrmgr.o(i.hal_pwrmgr_register) refers to pwrmgr.o(.data) for s_pwrmgr_cfg
    pwrmgr.o(i.hal_pwrmgr_sleep_process) refers to pwrmgr.o(i.hal_pwrmgr_RAM_retention_set) for hal_pwrmgr_RAM_retention_set
    pwrmgr.o(i.hal_pwrmgr_sleep_process) refers to my_printf.o(i.dbg_printf) for dbg_printf
    pwrmgr.o(i.hal_pwrmgr_sleep_process) refers to pwrmgr.o(.data) for s_pwrmgr_cfg
    pwrmgr.o(i.hal_pwrmgr_sleep_process) refers to pwrmgr.o(.bss) for mCtx
    pwrmgr.o(i.hal_pwrmgr_unlock) refers to pwrmgr.o(.data) for mPwrMode
    pwrmgr.o(i.hal_pwrmgr_unlock) refers to pwrmgr.o(.bss) for mCtx
    pwrmgr.o(i.hal_pwrmgr_unregister) refers to pwrmgr.o(.bss) for mCtx
    pwrmgr.o(i.hal_pwrmgr_unregister) refers to pwrmgr.o(.data) for s_pwrmgr_cfg
    pwrmgr.o(i.hal_pwrmgr_wakeup_process) refers to pwrmgr.o(i.__NVIC_SetPriority) for __NVIC_SetPriority
    pwrmgr.o(i.hal_pwrmgr_wakeup_process) refers to pwrmgr.o(i.peripheral_interrupt_restore_default) for peripheral_interrupt_restore_default
    pwrmgr.o(i.hal_pwrmgr_wakeup_process) refers to my_printf.o(i.dbg_printf) for dbg_printf
    pwrmgr.o(i.hal_pwrmgr_wakeup_process) refers to pwrmgr.o(.data) for s_config_swClk0
    pwrmgr.o(i.hal_pwrmgr_wakeup_process) refers to pwrmgr.o(.bss) for mCtx
    pwrmgr.o(i.peripheral_interrupt_restore_default) refers to pwrmgr.o(i.__NVIC_SetPriority) for __NVIC_SetPriority
    clock.o(i.hal_rc32k_clk_tracking_init) refers to clock.o(i.aon_register_init) for aon_register_init
    clock.o(i.hal_rtc_clock_config) refers to gpio.o(i.hal_gpio_pull_set) for hal_gpio_pull_set
    adc.o(i.adc_compare_cb) refers to my_printf.o(i.dbg_printf) for dbg_printf
    adc.o(i.adc_compare_cb) refers to adc.o(i.adc_set_high_threshold_flag) for adc_set_high_threshold_flag
    adc.o(i.adc_compare_cb) refers to adc.o(.conststring) for .conststring
    adc.o(i.adc_compare_cb) refers to adc.o(.data) for adc_compare_filter_counter
    adc.o(i.adc_get_high_threshold_flag) refers to adc.o(.data) for high_threshold_flag
    adc.o(i.adc_set_high_threshold_flag) refers to adc.o(.data) for high_threshold_flag
    adc.o(i.adc_wakeup_hdl) refers to adc.o(i.__NVIC_SetPriority) for __NVIC_SetPriority
    adc.o(i.clear_adcc_cfg) refers to adc.o(.bss) for mAdc_Ctx
    adc.o(i.disable_analog_pin) refers to gpio.o(i.hal_gpio_cfg_analog_io) for hal_gpio_cfg_analog_io
    adc.o(i.disable_analog_pin) refers to gpio.o(i.hal_gpio_pin_init) for hal_gpio_pin_init
    adc.o(i.disable_analog_pin) refers to gpio.o(i.hal_gpio_pull_set) for hal_gpio_pull_set
    adc.o(i.disable_analog_pin) refers to adc.o(.data) for s_pinmap
    adc.o(i.hal_ADC_IRQHandler) refers to adc.o(i.hal_poilling_adc_stop) for hal_poilling_adc_stop
    adc.o(i.hal_ADC_IRQHandler) refers to adc.o(.bss) for mAdc_Ctx
    adc.o(i.hal_ADC_compare_IRQHandler) refers to adc.o(i.adc_compare_cb) for adc_compare_cb
    adc.o(i.hal_ADC_compare_IRQHandler) refers to adc.o(i.hal_adc_stop) for hal_adc_stop
    adc.o(i.hal_ADC_compare_IRQHandler) refers to adc.o(.bss) for mAdc_Ctx
    adc.o(i.hal_ADC_compare_IRQHandler) refers to adc.o(.data) for adc_compare_enable_flag
    adc.o(i.hal_adc_clock_config) refers to adc.o(.data) for mAdc_init_flg
    adc.o(i.hal_adc_compare_enable) refers to my_printf.o(i.dbg_printf) for dbg_printf
    adc.o(i.hal_adc_compare_enable) refers to adc.o(.data) for adc_compare_enable_flag
    adc.o(i.hal_adc_compare_start) refers to pwrmgr.o(i.hal_pwrmgr_lock) for hal_pwrmgr_lock
    adc.o(i.hal_adc_compare_start) refers to adc.o(i.__NVIC_SetPriority) for __NVIC_SetPriority
    adc.o(i.hal_adc_compare_start) refers to adc.o(i.__NVIC_EnableIRQ) for __NVIC_EnableIRQ
    adc.o(i.hal_adc_compare_start) refers to adc.o(.data) for mAdc_init_flg
    adc.o(i.hal_adc_compare_start) refers to adc.o(.bss) for mAdc_Ctx
    adc.o(i.hal_adc_compare_start) refers to adc.o(i.hal_ADC_compare_IRQHandler) for hal_ADC_compare_IRQHandler
    adc.o(i.hal_adc_config_channel) refers to clock.o(i.hal_clk_gate_enable) for hal_clk_gate_enable
    adc.o(i.hal_adc_config_channel) refers to adc.o(i.set_sampling_resolution_auto) for set_sampling_resolution_auto
    adc.o(i.hal_adc_config_channel) refers to gpio.o(i.hal_gpio_pull_set) for hal_gpio_pull_set
    adc.o(i.hal_adc_config_channel) refers to gpio.o(i.hal_gpio_ds_control) for hal_gpio_ds_control
    adc.o(i.hal_adc_config_channel) refers to gpio.o(i.hal_gpio_cfg_analog_io) for hal_gpio_cfg_analog_io
    adc.o(i.hal_adc_config_channel) refers to adc.o(i.set_differential_mode) for set_differential_mode
    adc.o(i.hal_adc_config_channel) refers to adc.o(.data) for mAdc_init_flg
    adc.o(i.hal_adc_config_channel) refers to adc.o(.bss) for mAdc_Ctx
    adc.o(i.hal_adc_deinit) refers to pwrmgr.o(i.hal_pwrmgr_unregister) for hal_pwrmgr_unregister
    adc.o(i.hal_adc_deinit) refers to adc.o(.bss) for mAdc_Ctx
    adc.o(i.hal_adc_init) refers to pwrmgr.o(i.hal_pwrmgr_register) for hal_pwrmgr_register
    adc.o(i.hal_adc_init) refers to adc.o(i.clear_adcc_cfg) for clear_adcc_cfg
    adc.o(i.hal_adc_init) refers to adc.o(.data) for mAdc_init_flg
    adc.o(i.hal_adc_init) refers to adc.o(i.adc_wakeup_hdl) for adc_wakeup_hdl
    adc.o(i.hal_adc_load_calibration_value) refers to my_printf.o(i.dbg_printf) for dbg_printf
    adc.o(i.hal_adc_load_calibration_value) refers to adc.o(.data) for adc_cal_read_flag
    adc.o(i.hal_adc_start) refers to pwrmgr.o(i.hal_pwrmgr_lock) for hal_pwrmgr_lock
    adc.o(i.hal_adc_start) refers to adc.o(i.__NVIC_SetPriority) for __NVIC_SetPriority
    adc.o(i.hal_adc_start) refers to adc.o(i.__NVIC_EnableIRQ) for __NVIC_EnableIRQ
    adc.o(i.hal_adc_start) refers to adc.o(i.__NVIC_DisableIRQ) for __NVIC_DisableIRQ
    adc.o(i.hal_adc_start) refers to adc.o(.bss) for mAdc_Ctx
    adc.o(i.hal_adc_start) refers to adc.o(.data) for mAdc_init_flg
    adc.o(i.hal_adc_start) refers to adc.o(i.hal_ADC_IRQHandler) for hal_ADC_IRQHandler
    adc.o(i.hal_adc_start) refers to adc.o(i.hal_ADC_compare_IRQHandler) for hal_ADC_compare_IRQHandler
    adc.o(i.hal_adc_stop) refers to adc.o(i.__NVIC_DisableIRQ) for __NVIC_DisableIRQ
    adc.o(i.hal_adc_stop) refers to adc.o(i.disable_analog_pin) for disable_analog_pin
    adc.o(i.hal_adc_stop) refers to clock.o(i.hal_clk_reset) for hal_clk_reset
    adc.o(i.hal_adc_stop) refers to clock.o(i.hal_clk_gate_disable) for hal_clk_gate_disable
    adc.o(i.hal_adc_stop) refers to adc.o(i.clear_adcc_cfg) for clear_adcc_cfg
    adc.o(i.hal_adc_stop) refers to pwrmgr.o(i.hal_pwrmgr_unlock) for hal_pwrmgr_unlock
    adc.o(i.hal_adc_stop) refers to adc.o(.bss) for mAdc_Ctx
    adc.o(i.hal_adc_stop) refers to adc.o(.data) for mAdc_init_flg
    adc.o(i.hal_adc_value_cal) refers to adc.o(i.hal_adc_load_calibration_value) for hal_adc_load_calibration_value
    adc.o(i.hal_adc_value_cal) refers to ffltui.o(.text) for __aeabi_ui2f
    adc.o(i.hal_adc_value_cal) refers to fflti.o(.text) for __aeabi_i2f
    adc.o(i.hal_adc_value_cal) refers to fdiv.o(.text) for __aeabi_fdiv
    adc.o(i.hal_adc_value_cal) refers to dflti.o(.text) for __aeabi_i2d
    adc.o(i.hal_adc_value_cal) refers to ddiv.o(.text) for __aeabi_ddiv
    adc.o(i.hal_adc_value_cal) refers to d2f.o(.text) for __aeabi_d2f
    adc.o(i.hal_adc_value_cal) refers to fadd.o(.text) for __aeabi_fsub
    adc.o(i.hal_adc_value_cal) refers to fmul.o(.text) for __aeabi_fmul
    adc.o(i.hal_adc_value_cal) refers to f2d.o(.text) for __aeabi_f2d
    adc.o(i.hal_adc_value_cal) refers to dmul.o(.text) for __aeabi_dmul
    adc.o(i.hal_adc_value_cal) refers to adc.o(.data) for adc_cal_postive
    adc.o(i.hal_adc_value_cal) refers to adc.o(.constdata) for adc_Lambda
    adc.o(i.hal_adc_value_read) refers to adc.o(.bss) for mAdc_Ctx
    adc.o(i.hal_poilling_adc_stop) refers to adc.o(i.__NVIC_DisableIRQ) for __NVIC_DisableIRQ
    adc.o(i.hal_poilling_adc_stop) refers to adc.o(i.disable_analog_pin) for disable_analog_pin
    adc.o(i.hal_poilling_adc_stop) refers to clock.o(i.hal_clk_reset) for hal_clk_reset
    adc.o(i.hal_poilling_adc_stop) refers to clock.o(i.hal_clk_gate_disable) for hal_clk_gate_disable
    adc.o(i.hal_poilling_adc_stop) refers to adc.o(i.clear_adcc_cfg) for clear_adcc_cfg
    adc.o(i.hal_poilling_adc_stop) refers to pwrmgr.o(i.hal_pwrmgr_unlock) for hal_pwrmgr_unlock
    adc.o(i.hal_poilling_adc_stop) refers to adc.o(.data) for mAdc_init_flg
    adc.o(i.hal_poilling_adc_stop) refers to adc.o(.bss) for mAdc_Ctx
    adc.o(i.set_sampling_resolution_auto) refers to adc.o(i.set_sampling_resolution) for set_sampling_resolution
    key.o(i.gpio_key_timer_handler) refers to key.o(i.key_press_debonce_timer_handler) for key_press_debonce_timer_handler
    key.o(i.gpio_key_timer_handler) refers to key.o(i.key_release_debonce_timer_handler) for key_release_debonce_timer_handler
    key.o(i.gpio_key_timer_handler) refers to key.o(.bss) for key_state
    key.o(i.key_idle_handler) refers to pwrmgr.o(i.hal_pwrmgr_lock) for hal_pwrmgr_lock
    key.o(i.key_idle_handler) refers to key.o(i.key_timer_start) for key_timer_start
    key.o(i.key_idle_handler) refers to key.o(.bss) for key_state
    key.o(i.key_init) refers to gpio.o(i.hal_gpio_pull_set) for hal_gpio_pull_set
    key.o(i.key_init) refers to gpio.o(i.hal_gpioin_register) for hal_gpioin_register
    key.o(i.key_init) refers to pwrmgr.o(i.hal_pwrmgr_register) for hal_pwrmgr_register
    key.o(i.key_init) refers to key.o(.bss) for key_state
    key.o(i.key_init) refers to key.o(i.pin_event_handler) for pin_event_handler
    key.o(i.key_press_debonce_handler) refers to key.o(i.key_timer_start) for key_timer_start
    key.o(i.key_press_debonce_handler) refers to key.o(.bss) for key_state
    key.o(i.key_press_debonce_timer_handler) refers to gpio.o(i.hal_gpio_read) for hal_gpio_read
    key.o(i.key_press_debonce_timer_handler) refers to pwrmgr.o(i.hal_pwrmgr_unlock) for hal_pwrmgr_unlock
    key.o(i.key_press_debonce_timer_handler) refers to key.o(.bss) for key_state
    key.o(i.key_press_handler) refers to pwrmgr.o(i.hal_pwrmgr_lock) for hal_pwrmgr_lock
    key.o(i.key_press_handler) refers to key.o(i.key_timer_start) for key_timer_start
    key.o(i.key_press_handler) refers to key.o(.bss) for key_state
    key.o(i.key_release_debonce_handler) refers to key.o(i.key_timer_start) for key_timer_start
    key.o(i.key_release_debonce_handler) refers to key.o(.bss) for key_state
    key.o(i.key_release_debonce_timer_handler) refers to gpio.o(i.hal_gpio_read) for hal_gpio_read
    key.o(i.key_release_debonce_timer_handler) refers to pwrmgr.o(i.hal_pwrmgr_unlock) for hal_pwrmgr_unlock
    key.o(i.key_release_debonce_timer_handler) refers to key.o(.bss) for key_state
    key.o(i.key_timer_start) refers to key.o(.bss) for key_state
    key.o(i.pin_event_handler) refers to key.o(i.key_idle_handler) for key_idle_handler
    key.o(i.pin_event_handler) refers to key.o(i.key_press_debonce_handler) for key_press_debonce_handler
    key.o(i.pin_event_handler) refers to key.o(i.key_press_handler) for key_press_handler
    key.o(i.pin_event_handler) refers to key.o(i.key_release_debonce_handler) for key_release_debonce_handler
    key.o(i.pin_event_handler) refers to key.o(.bss) for key_state
    flash.o(_section_sram_code_) refers to patch.o(i.ll_patch_restore) for ll_patch_restore
    flash.o(i.LOG_CHIP_MADDR) refers to my_printf.o(i.dbg_printf) for dbg_printf
    flash.o(i.LOG_CHIP_MADDR) refers to flash.o(.data) for g_chipMAddr
    flash.o(i._spif_wait_nobusy_x) refers to flash.o(i._spif_read_status_reg_x) for _spif_read_status_reg_x
    flash.o(i.check_chip_mAddr) refers to flash.o(i.read_chip_mAddr) for read_chip_mAddr
    flash.o(i.check_chip_mAddr) refers to flash.o(.data) for g_chipMAddr
    flash.o(i.flash_write_word) refers to flash.o(i.hal_flash_write_by_dma) for hal_flash_write_by_dma
    flash.o(i.hal_cache_init) refers to clock.o(i.hal_clk_gate_enable) for hal_clk_gate_enable
    flash.o(i.hal_cache_init) refers to flash.o(i.hal_cache_tag_flush) for hal_cache_tag_flush
    flash.o(i.hal_flash_erase_all) refers to flash.o(_section_sram_code_) for spif_lock
    flash.o(i.hal_flash_erase_all) refers to flash.o(i.spif_wait_nobusy) for spif_wait_nobusy
    flash.o(i.hal_flash_erase_all) refers to flash.o(i.hal_cache_tag_flush) for hal_cache_tag_flush
    flash.o(i.hal_flash_erase_block64) refers to flash.o(_section_sram_code_) for spif_lock
    flash.o(i.hal_flash_erase_block64) refers to flash.o(i.spif_wait_nobusy) for spif_wait_nobusy
    flash.o(i.hal_flash_erase_block64) refers to flash.o(i.hal_cache_tag_flush) for hal_cache_tag_flush
    flash.o(i.hal_flash_erase_sector) refers to flash.o(_section_sram_code_) for spif_lock
    flash.o(i.hal_flash_erase_sector) refers to flash.o(i.spif_wait_nobusy) for spif_wait_nobusy
    flash.o(i.hal_flash_erase_sector) refers to flash.o(i.hal_cache_tag_flush) for hal_cache_tag_flush
    flash.o(i.hal_flash_read) refers to flash.o(_section_sram_code_) for spif_lock
    flash.o(i.hal_flash_write) refers to flash.o(_section_sram_code_) for spif_lock
    flash.o(i.hal_flash_write) refers to flash.o(i.spif_wait_nobusy) for spif_wait_nobusy
    flash.o(i.hal_flash_write_by_dma) refers to flash.o(_section_sram_code_) for spif_lock
    flash.o(i.hal_flash_write_by_dma) refers to flash.o(i.spif_wait_nobusy) for spif_wait_nobusy
    flash.o(i.hal_flash_write_by_dma) refers to flash.o(.data) for spif_dma_use
    flash.o(i.hal_spif_cache_init) refers to flash.o(i.hw_spif_cache_config) for hw_spif_cache_config
    flash.o(i.hal_spif_cache_init) refers to pwrmgr.o(i.hal_pwrmgr_register) for hal_pwrmgr_register
    flash.o(i.hal_spif_cache_init) refers to flash.o(.data) for s_xflashCtx
    flash.o(i.hw_spif_cache_config) refers to flash.o(i.__NVIC_SetPriority) for __NVIC_SetPriority
    flash.o(i.hw_spif_cache_config) refers to flash.o(i.hal_cache_init) for hal_cache_init
    flash.o(i.hw_spif_cache_config) refers to flash.o(i.hal_get_flash_info) for hal_get_flash_info
    flash.o(i.hw_spif_cache_config) refers to flash.o(.data) for s_xflashCtx
    flash.o(i.read_chip_mAddr) refers to patch.o(i.chip_id_one_bit_hot_convter) for chip_id_one_bit_hot_convter
    flash.o(i.read_chip_mAddr) refers to flash.o(.data) for g_chipMAddr
    flash.o(i.spif_wait_nobusy) refers to flash.o(i._spif_wait_nobusy_x) for _spif_wait_nobusy_x
    flash.o(i.spif_wait_nobusy) refers to my_printf.o(i.dbg_printf) for dbg_printf
    pwm.o(i.hal_pwm_ch_enable) refers to pwm.o(.bss) for pwmCtx
    pwm.o(i.hal_pwm_ch_reg) refers to pwm.o(.bss) for pwmCtx
    pwm.o(i.hal_pwm_ch_start) refers to pwm.o(i.hal_pwm_set_count_val) for hal_pwm_set_count_val
    pwm.o(i.hal_pwm_ch_start) refers to pwm.o(i.hal_pwm_init) for hal_pwm_init
    pwm.o(i.hal_pwm_ch_start) refers to pwm.o(i.hal_pwm_open_channel) for hal_pwm_open_channel
    pwm.o(i.hal_pwm_ch_start) refers to pwm.o(i.hal_pwm_start) for hal_pwm_start
    pwm.o(i.hal_pwm_ch_start) refers to pwm.o(.bss) for pwmCtx
    pwm.o(i.hal_pwm_ch_stop) refers to pwm.o(i.hal_pwm_destroy) for hal_pwm_destroy
    pwm.o(i.hal_pwm_ch_stop) refers to pwm.o(i.hal_pwm_close_channel) for hal_pwm_close_channel
    pwm.o(i.hal_pwm_ch_stop) refers to pwm.o(.bss) for pwmCtx
    pwm.o(i.hal_pwm_close_channel) refers to gpio.o(i.hal_gpio_fmux) for hal_gpio_fmux
    pwm.o(i.hal_pwm_close_channel) refers to pwm.o(.data) for pwm_gpio_map
    pwm.o(i.hal_pwm_init) refers to clock.o(i.hal_clk_gate_enable) for hal_clk_gate_enable
    pwm.o(i.hal_pwm_init) refers to pwrmgr.o(i.hal_pwrmgr_register) for hal_pwrmgr_register
    pwm.o(i.hal_pwm_module_deinit) refers to pwm.o(i.hal_pwm_close_channel) for hal_pwm_close_channel
    pwm.o(i.hal_pwm_module_deinit) refers to pwm.o(i.hal_pwm_destroy) for hal_pwm_destroy
    pwm.o(i.hal_pwm_module_deinit) refers to pwm.o(i.hal_pwm_stop) for hal_pwm_stop
    pwm.o(i.hal_pwm_module_deinit) refers to pwm.o(.bss) for pwmCtx
    pwm.o(i.hal_pwm_module_init) refers to pwm.o(i.hal_pwm_destroy) for hal_pwm_destroy
    pwm.o(i.hal_pwm_module_init) refers to pwm.o(i.hal_pwm_stop) for hal_pwm_stop
    pwm.o(i.hal_pwm_module_init) refers to pwm.o(.bss) for pwmCtx
    pwm.o(i.hal_pwm_open_channel) refers to gpio.o(i.hal_gpio_fmux_set) for hal_gpio_fmux_set
    pwm.o(i.hal_pwm_open_channel) refers to pwm.o(.data) for pwm_gpio_map
    pwm.o(i.hal_pwm_start) refers to pwrmgr.o(i.hal_pwrmgr_lock) for hal_pwrmgr_lock
    pwm.o(i.hal_pwm_start) refers to pwm.o(.data) for pwm_en
    pwm.o(i.hal_pwm_stop) refers to pwrmgr.o(i.hal_pwrmgr_unlock) for hal_pwrmgr_unlock
    pwm.o(i.hal_pwm_stop) refers to clock.o(i.hal_clk_gate_disable) for hal_clk_gate_disable
    pwm.o(i.hal_pwm_stop) refers to pwm.o(.data) for pwm_en
    pwm.o(i.pwm_complement_start) refers to pwm.o(i.pwm_deadzone_start) for pwm_deadzone_start
    pwm.o(i.pwm_complement_start) refers to pwm.o(i.pwm_enable_or_disable) for pwm_enable_or_disable
    pwm.o(i.pwm_complement_start) refers to pwm.o(i.hal_pwm_init) for hal_pwm_init
    pwm.o(i.pwm_complement_start) refers to pwm.o(i.hal_pwm_set_count_val) for hal_pwm_set_count_val
    pwm.o(i.pwm_complement_start) refers to pwm.o(i.hal_pwm_open_channel) for hal_pwm_open_channel
    pwm.o(i.pwm_deadzone_start) refers to pwm.o(i.pwm_complement_start) for pwm_complement_start
    pwm.o(i.pwm_deadzone_start) refers to pwm.o(i.pwm_enable_or_disable) for pwm_enable_or_disable
    pwm.o(i.pwm_deadzone_start) refers to pwm.o(i.hal_pwm_init) for hal_pwm_init
    pwm.o(i.pwm_deadzone_start) refers to pwm.o(i.hal_pwm_set_count_val) for hal_pwm_set_count_val
    pwm.o(i.pwm_deadzone_start) refers to pwm.o(i.hal_pwm_open_channel) for hal_pwm_open_channel
    startup_armcm0.o(RESET) refers to startup_armcm0.o(STACK) for __initial_sp
    startup_armcm0.o(RESET) refers to startup_armcm0.o(.text) for Reset_Handler
    startup_armcm0.o(.text) refers to system_armcm0.o(i.SystemInit) for SystemInit
    startup_armcm0.o(.text) refers to entry.o(.ARM.Collect$$$$00000000) for __main
    system_armcm0.o(i.SystemCoreClockUpdate) refers to system_armcm0.o(.data) for SystemCoreClock
    system_armcm0.o(i.SystemInit) refers to system_armcm0.o(.data) for SystemCoreClock
    patch.o(_func_xip_code_.HCI_LE_ConnUpdateCmd) refers to patch.o(_func_xip_code_.LL_ConnUpdate1) for LL_ConnUpdate1
    patch.o(_func_xip_code_.HCI_LE_LtkReqNegReplyCmd) refers to patch.o(_func_xip_code_.LL_EncLtkNegReply) for LL_EncLtkNegReply
    patch.o(_func_xip_code_.HCI_LE_LtkReqReplyCmd) refers to patch.o(_func_xip_code_.LL_EncLtkReply) for LL_EncLtkReply
    patch.o(_func_xip_code_.HCI_LE_SetRandomAddressCmd) refers to patch.o(_func_xip_code_.LL_SetRandomAddress1) for LL_SetRandomAddress1
    patch.o(_func_xip_code_.LL_CreateConn1) refers to patch.o(.data) for .data
    patch.o(_func_xip_code_.LL_InitConnectContext) refers to patch.o(i.ll_osal_mem_alloc) for ll_osal_mem_alloc
    patch.o(_func_xip_code_.LL_InitConnectContext) refers to patch.o(.bss) for .bss
    patch.o(_func_xip_code_.LL_PLUS_GetCurrentRSSI) refers to rf_phy_driver.o(i.rf_phy_get_pktFoot) for rf_phy_get_pktFoot
    patch.o(_func_xip_code_.LL_SetAdvControl1) refers to patch.o(.data) for .data
    patch.o(_func_xip_code_.LL_SetAdvControl_advscan) refers to patch.o(.data) for .data
    patch.o(_func_xip_code_.LL_SetScanControl1) refers to patch.o(.data) for .data
    patch.o(_func_xip_code_.LL_SetScanControl_advscan) refers to patch.o(.data) for .data
    patch.o(_func_xip_code_.TRNG_INIT) refers to patch.o(_func_xip_code_.TRNG_Output) for TRNG_Output
    patch.o(_func_xip_code_.TRNG_INIT) refers to patch.o(.data) for .data
    patch.o(_func_xip_code_.TRNG_INIT) refers to patch.o(.bss) for .bss
    patch.o(_func_xip_code_.TRNG_Rand) refers to patch.o(_func_xip_code_.TRNG_INIT) for TRNG_INIT
    patch.o(_func_xip_code_.TRNG_Rand) refers to patch.o(.bss) for .bss
    patch.o(_func_xip_code_.TRNG_Rand) refers to phy_sec_ext.o(.data) for s_company_id
    patch.o(_func_xip_code_.llConnTerminate1) refers to patch.o(.bss) for .bss
    patch.o(_func_xip_code_.llConnTerminate_advscan) refers to patch.o(_func_xip_code_.llConnTerminate1) for llConnTerminate1
    patch.o(_func_xip_code_.llConnTerminate_advscan) refers to patch.o(.data) for .data
    patch.o(_func_xip_code_.llProcessMasterControlProcedures1) refers to patch.o(i.llSetupStartEncRsp) for llSetupStartEncRsp
    patch.o(_func_xip_code_.llProcessMasterControlProcedures1) refers to patch.o(.data) for .data
    patch.o(_func_xip_code_.llProcessSlaveControlProcedures1) refers to patch.o(i.llSetupStartEncRsp) for llSetupStartEncRsp
    patch.o(_func_xip_code_.llProcessSlaveControlProcedures1) refers to patch.o(.data) for .data
    patch.o(_func_xip_code_.llSetupSecAdvEvt1) refers to rf_phy_driver.o(i.rf_phy_change_cfg0) for rf_phy_change_cfg0
    patch.o(_func_xip_code_.ll_dbg_show) refers to patch.o(i.ll_dbg_heap_statics) for ll_dbg_heap_statics
    patch.o(_func_xip_code_.ll_dbg_show) refers to my_printf.o(i.my_dump_byte) for my_dump_byte
    patch.o(_func_xip_code_.ll_dbg_show) refers to patch.o(i.osal_memory_statics) for osal_memory_statics
    patch.o(_func_xip_code_.ll_dbg_show) refers to patch.o(i.ll_osal_memory_statics) for ll_osal_memory_statics
    patch.o(_func_xip_code_.ll_dbg_show) refers to patch.o(.bss) for .bss
    patch.o(_func_xip_code_.ll_dbg_show) refers to patch.o(.data) for .data
    patch.o(_func_xip_code_.ll_patch_advscan) refers to patch.o(_func_xip_code_.ll_patch_slave) for ll_patch_slave
    patch.o(_func_xip_code_.ll_patch_advscan) refers to patch.o(_func_xip_code_.ll_patch_secscan_activescan) for ll_patch_secscan_activescan
    patch.o(_func_xip_code_.ll_patch_advscan) refers to patch.o(i.llSecAdvAllow1) for llSecAdvAllow1
    patch.o(_func_xip_code_.ll_patch_advscan) refers to patch.o(_func_xip_code_.llSetupSecAdvEvt1) for llSetupSecAdvEvt1
    patch.o(_func_xip_code_.ll_patch_advscan) refers to patch.o(_func_xip_code_.LL_SetScanParam1) for LL_SetScanParam1
    patch.o(_func_xip_code_.ll_patch_advscan) refers to patch.o(i.ll_processBasicIRQ_SRX0) for ll_processBasicIRQ_SRX0
    patch.o(_func_xip_code_.ll_patch_advscan) refers to patch.o(i.ll_processBasicIRQ_ScanTRX0) for ll_processBasicIRQ_ScanTRX0
    patch.o(_func_xip_code_.ll_patch_advscan) refers to patch.o(i.llSetupSecScan1) for llSetupSecScan1
    patch.o(_func_xip_code_.ll_patch_advscan) refers to patch.o(i.llSetupScan1) for llSetupScan1
    patch.o(_func_xip_code_.ll_patch_advscan) refers to patch.o(i.llCalcMaxScanTime1) for llCalcMaxScanTime1
    patch.o(_func_xip_code_.ll_patch_advscan) refers to patch.o(_func_xip_code_.LL_SetAdvControl_advscan) for LL_SetAdvControl_advscan
    patch.o(_func_xip_code_.ll_patch_advscan) refers to patch.o(_func_xip_code_.LL_SetScanControl_advscan) for LL_SetScanControl_advscan
    patch.o(_func_xip_code_.ll_patch_advscan) refers to patch.o(_func_xip_code_.llConnTerminate_advscan) for llConnTerminate_advscan
    patch.o(_func_xip_code_.ll_patch_advscan) refers to patch.o(i.move_to_slave_function_advscan) for move_to_slave_function_advscan
    patch.o(_func_xip_code_.ll_patch_advscan) refers to patch.o(i.ll_processBasicIRQ_secondaryAdvTRX_advscan) for ll_processBasicIRQ_secondaryAdvTRX_advscan
    patch.o(_func_xip_code_.ll_patch_advscan) refers to patch.o(i.ll_processBasicIRQ_secondaryAdvSTX_advscan) for ll_processBasicIRQ_secondaryAdvSTX_advscan
    patch.o(_func_xip_code_.ll_patch_advscan) refers to patch.o(i.TIM5_IRQHandler1) for TIM5_IRQHandler1
    patch.o(_func_xip_code_.ll_patch_advscan) refers to patch.o(i.osal_idle_task_advscan) for osal_idle_task_advscan
    patch.o(_func_xip_code_.ll_patch_master) refers to patch.o(i.llMasterEvt_TaskEndOk1) for llMasterEvt_TaskEndOk1
    patch.o(_func_xip_code_.ll_patch_master) refers to patch.o(_func_xip_code_.LL_SetScanParam1) for LL_SetScanParam1
    patch.o(_func_xip_code_.ll_patch_master) refers to patch.o(_func_xip_code_.LL_SetScanControl1) for LL_SetScanControl1
    patch.o(_func_xip_code_.ll_patch_master) refers to patch.o(_func_xip_code_.LL_StartEncrypt1) for LL_StartEncrypt1
    patch.o(_func_xip_code_.ll_patch_master) refers to patch.o(i.LL_ENC_Decrypt1) for LL_ENC_Decrypt1
    patch.o(_func_xip_code_.ll_patch_master) refers to patch.o(_func_xip_code_.llProcessMasterControlProcedures1) for llProcessMasterControlProcedures1
    patch.o(_func_xip_code_.ll_patch_master) refers to patch.o(i.ll_processBasicIRQ_SRX0) for ll_processBasicIRQ_SRX0
    patch.o(_func_xip_code_.ll_patch_master) refers to patch.o(i.ll_processBasicIRQ_ScanTRX0) for ll_processBasicIRQ_ScanTRX0
    patch.o(_func_xip_code_.ll_patch_master) refers to patch.o(i.llSetupScan1) for llSetupScan1
    patch.o(_func_xip_code_.ll_patch_master) refers to patch.o(i.ll_scheduler_singleconn) for ll_scheduler_singleconn
    patch.o(_func_xip_code_.ll_patch_master) refers to patch.o(i.move_to_master_function2) for move_to_master_function2
    patch.o(_func_xip_code_.ll_patch_master) refers to patch.o(_func_xip_code_.LL_CreateConn1) for LL_CreateConn1
    patch.o(_func_xip_code_.ll_patch_master) refers to patch.o(i.llProcessMasterControlPacket1) for llProcessMasterControlPacket1
    patch.o(_func_xip_code_.ll_patch_master) refers to patch.o(_func_xip_code_.llConnTerminate1) for llConnTerminate1
    patch.o(_func_xip_code_.ll_patch_master) refers to patch.o(_section_xip_code_) for LL_CreateConnCancel1
    patch.o(_func_xip_code_.ll_patch_master_advance_llprocesstxdata) refers to patch.o(.data) for .data
    patch.o(_func_xip_code_.ll_patch_master_advance_llprocesstxdata) refers to patch.o(i.LL_master_conn_event1) for LL_master_conn_event1
    patch.o(_func_xip_code_.ll_patch_mesh_slave) refers to patch.o(_func_xip_code_.LL_SetAdvParam1) for LL_SetAdvParam1
    patch.o(_func_xip_code_.ll_patch_mesh_slave) refers to patch.o(_func_xip_code_.LL_SetAdvControl1) for LL_SetAdvControl1
    patch.o(_func_xip_code_.ll_patch_mesh_slave) refers to patch.o(i.llSetupAdv1) for llSetupAdv1
    patch.o(_func_xip_code_.ll_patch_mesh_slave) refers to patch.o(i.move_to_slave_function1) for move_to_slave_function1
    patch.o(_func_xip_code_.ll_patch_mesh_slave) refers to patch.o(i.llSetupNextSlaveEvent1) for llSetupNextSlaveEvent1
    patch.o(_func_xip_code_.ll_patch_mesh_slave) refers to patch.o(i.llProcessSlaveControlPacket1) for llProcessSlaveControlPacket1
    patch.o(_func_xip_code_.ll_patch_mesh_slave) refers to patch.o(_func_xip_code_.llConnTerminate1) for llConnTerminate1
    patch.o(_func_xip_code_.ll_patch_mesh_slave) refers to patch.o(_func_xip_code_.llProcessSlaveControlProcedures1) for llProcessSlaveControlProcedures1
    patch.o(_func_xip_code_.ll_patch_mesh_slave) refers to patch.o(i.ll_adptive_adj_next_time1) for ll_adptive_adj_next_time1
    patch.o(_func_xip_code_.ll_patch_mesh_slave) refers to patch.o(i.LL_slave_conn_event3) for LL_slave_conn_event3
    patch.o(_func_xip_code_.ll_patch_multi) refers to patch.o(i.ll_patch_multislave) for ll_patch_multislave
    patch.o(_func_xip_code_.ll_patch_multi) refers to patch.o(i.ll_patch_multimaster) for ll_patch_multimaster
    patch.o(_func_xip_code_.ll_patch_secscan_activescan) refers to patch.o(i.ll_processBasicIRQ_secondaryScanSRX0_activescan) for ll_processBasicIRQ_secondaryScanSRX0_activescan
    patch.o(_func_xip_code_.ll_patch_secscan_activescan) refers to patch.o(i.ll_processBasicIRQ_secScanTRX0) for ll_processBasicIRQ_secScanTRX0
    patch.o(_func_xip_code_.ll_patch_secscan_passivescan) refers to patch.o(i.ll_processBasicIRQ_secondaryScanSRX0) for ll_processBasicIRQ_secondaryScanSRX0
    patch.o(_func_xip_code_.ll_patch_slave) refers to patch.o(_func_xip_code_.LL_SetAdvParam1) for LL_SetAdvParam1
    patch.o(_func_xip_code_.ll_patch_slave) refers to patch.o(_func_xip_code_.LL_SetAdvControl1) for LL_SetAdvControl1
    patch.o(_func_xip_code_.ll_patch_slave) refers to patch.o(i.move_to_slave_function1) for move_to_slave_function1
    patch.o(_func_xip_code_.ll_patch_slave) refers to patch.o(i.ll_scheduler_singleconn) for ll_scheduler_singleconn
    patch.o(_func_xip_code_.ll_patch_slave) refers to patch.o(i.llSetupNextSlaveEvent1) for llSetupNextSlaveEvent1
    patch.o(_func_xip_code_.ll_patch_slave) refers to patch.o(i.llProcessSlaveControlPacket1) for llProcessSlaveControlPacket1
    patch.o(_func_xip_code_.ll_patch_slave) refers to patch.o(_func_xip_code_.llConnTerminate1) for llConnTerminate1
    patch.o(_func_xip_code_.ll_patch_slave) refers to patch.o(_func_xip_code_.llProcessSlaveControlProcedures1) for llProcessSlaveControlProcedures1
    patch.o(_func_xip_code_.ll_patch_slave) refers to patch.o(i.ll_adptive_adj_next_time1) for ll_adptive_adj_next_time1
    patch.o(_func_xip_code_.ll_patch_slave) refers to patch.o(i.LL_slave_conn_event3) for LL_slave_conn_event3
    patch.o(_func_xip_code_.ll_patch_slave_advance_llprocesstxdata) refers to patch.o(.data) for .data
    patch.o(_func_xip_code_.ll_patch_slave_advance_llprocesstxdata) refers to patch.o(i.LL_slave_conn_event2) for LL_slave_conn_event2
    patch.o(_section_xip_code_) refers to phy_sec_ext.o(i._rom_efuse_version_init) for _rom_efuse_version_init
    patch.o(_section_xip_code_) refers to patch.o(i.global_config_hclk_related) for global_config_hclk_related
    patch.o(_section_xip_code_) refers to patch.o(.data) for .data
    patch.o(_section_xip_code_) refers to startup_armcm0.o(STACK) for __initial_sp
    patch.o(_section_xip_code_) refers to main.o(.data) for g_clk32K_config
    patch.o(_section_xip_code_) refers to patch.o(i.ll_hw_go1) for ll_hw_go1
    patch.o(_section_xip_code_) refers to patch.o(i.LL_IRQHandler1) for LL_IRQHandler1
    patch.o(_section_xip_code_) refers to rf_phy_driver.o(i.rf_calibrate1) for rf_calibrate1
    patch.o(_section_xip_code_) refers to rf_phy_driver.o(i.rf_phy_change_cfg0) for rf_phy_change_cfg0
    patch.o(_section_xip_code_) refers to patch.o(i.LL_ENC_AES128_Encrypt1) for LL_ENC_AES128_Encrypt1
    patch.o(_section_xip_code_) refers to patch.o(i.LL_ENC_Encrypt1) for LL_ENC_Encrypt1
    patch.o(_section_xip_code_) refers to patch.o(i.LL_ENC_Decrypt1) for LL_ENC_Decrypt1
    patch.o(_section_xip_code_) refers to patch.o(i.enterSleepProcess1) for enterSleepProcess1
    patch.o(_section_xip_code_) refers to patch.o(i.config_RTC1) for config_RTC1
    patch.o(_section_xip_code_) refers to patch.o(i.wakeup_init1) for wakeup_init1
    patch.o(_section_xip_code_) refers to patch.o(i.wakeupProcess1) for wakeupProcess1
    patch.o(_section_xip_code_) refers to patch.o(i.l2capPocessFragmentTxData) for l2capPocessFragmentTxData
    patch.o(_section_xip_code_) refers to patch.o(_func_xip_code_.LL_SetDataLengh1) for LL_SetDataLengh1
    patch.o(_section_xip_code_) refers to patch.o(i.llProcessTxData1) for llProcessTxData1
    patch.o(_section_xip_code_) refers to patch.o(i.ll_generateTxBuffer1) for ll_generateTxBuffer1
    patch.o(_section_xip_code_) refers to patch.o(i.LL_set_default_conn_params1) for LL_set_default_conn_params1
    patch.o(_section_xip_code_) refers to patch.o(_func_xip_code_.LL_Disconnect1) for LL_Disconnect1
    patch.o(_section_xip_code_) refers to patch.o(i.osal_idle_task0) for osal_idle_task0
    patch.o(_section_xip_code_) refers to patch.o(i.llSlaveEvt_TaskEndOk1) for llSlaveEvt_TaskEndOk1
    patch.o(_section_xip_code_) refers to patch.o(i.ll_hw_read_tfifo_rtlp1) for ll_hw_read_tfifo_rtlp1
    patch.o(_section_xip_code_) refers to patch.o(i.llWriteTxData1) for llWriteTxData1
    patch.o(_section_xip_code_) refers to patch.o(i.LL_Reset1) for LL_Reset1
    patch.o(_section_xip_code_) refers to patch.o(i.llReleaseConnId1) for llReleaseConnId1
    patch.o(_section_xip_code_) refers to patch.o(_func_xip_code_.LL_TxData1) for LL_TxData1
    patch.o(_section_xip_code_) refers to patch.o(i.LL_ProcessEvent1) for LL_ProcessEvent1
    patch.o(_section_xip_code_) refers to patch.o(i.ll_read_rxfifo1) for ll_read_rxfifo1
    patch.o(i.LL_AdvReportCback_Patch) refers to patch.o(.data) for .data
    patch.o(i.LL_IRQHandler1) refers to patch.o(i.ll_processBasicIRQ_SRX) for ll_processBasicIRQ_SRX
    patch.o(i.LL_IRQHandler1) refers to patch.o(i.ll_processBasicIRQ_secondaryAdvSTX) for ll_processBasicIRQ_secondaryAdvSTX
    patch.o(i.LL_IRQHandler1) refers to patch.o(i.ll_processBasicIRQ_secondaryAdvTRX) for ll_processBasicIRQ_secondaryAdvTRX
    patch.o(i.LL_IRQHandler1) refers to patch.o(i.ll_processBasicIRQ_ScanTRX) for ll_processBasicIRQ_ScanTRX
    patch.o(i.LL_IRQHandler1) refers to patch.o(i.ll_processBasicIRQ_secondaryScanSRX) for ll_processBasicIRQ_secondaryScanSRX
    patch.o(i.LL_IRQHandler1) refers to patch.o(i.ll_processBasicIRQ_secondaryInitSRX) for ll_processBasicIRQ_secondaryInitSRX
    patch.o(i.LL_IRQHandler1) refers to patch.o(i.ll_processBasicIRQ_secScanTRX) for ll_processBasicIRQ_secScanTRX
    patch.o(i.LL_IRQHandler1) refers to patch.o(.data) for .data
    patch.o(i.LL_PLUS_LoadMACFromChipMAddr) refers to flash.o(i.check_chip_mAddr) for check_chip_mAddr
    patch.o(i.LL_PLUS_LoadMACFromChipMAddr) refers to flash.o(.data) for g_chipMAddr
    patch.o(i.LL_ProcessEvent1) refers to patch.o(.bss) for .bss
    patch.o(i.LL_Reset1) refers to patch.o(i.patch_linkBuf_init) for patch_linkBuf_init
    patch.o(i.LL_master_conn_event1) refers to patch.o(.data) for .data
    patch.o(i.LL_slave_conn_event2) refers to patch.o(i.LL_slave_conn_event3) for LL_slave_conn_event3
    patch.o(i.LL_slave_conn_event3) refers to rf_phy_driver.o(i.rf_phy_change_cfg0) for rf_phy_change_cfg0
    patch.o(i.LL_slave_conn_event3) refers to patch.o(.data) for .data
    patch.o(i._clk_apply_setting1) refers to patch.o(i.NVIC_EnableIRQ) for NVIC_EnableIRQ
    patch.o(i.check_16MXtal_by_rcTracking) refers to pwrmgr.o(_section_sram_code_) for hal_pwrmgr_enter_sleep_rtc_reset
    patch.o(i.check_16MXtal_by_rcTracking) refers to patch.o(.data) for .data
    patch.o(i.check_96MXtal_by_rcTracking) refers to patch.o(.data) for .data
    patch.o(i.clk_init) refers to patch.o(i._clk_apply_setting1) for _clk_apply_setting1
    patch.o(i.config_RTC1) refers to patch.o(i.isTimer5Running) for isTimer5Running
    patch.o(i.config_RTC1) refers to patch.o(i.read_TIM5_remainder_timer) for read_TIM5_remainder_timer
    patch.o(i.config_RTC1) refers to patch.o(.data) for .data
    patch.o(i.cusum_advance_slave_rx_window) refers to patch.o(.data) for .data
    patch.o(i.efuse_write_x) refers to patch.o(i.efuse_get_lock_state) for efuse_get_lock_state
    patch.o(i.efuse_write_x) refers to patch.o(i.get_even) for get_even
    patch.o(i.enlarge_rx_timeout_1st) refers to patch.o(i.cusum_advance_slave_rx_window) for cusum_advance_slave_rx_window
    patch.o(i.enlarge_rx_timeout_1st) refers to patch.o(.data) for .data
    patch.o(i.enterSleepProcess1) refers to patch.o(i.rc32k_cap_cal) for rc32k_cap_cal
    patch.o(i.enterSleepProcess1) refers to patch.o(i.osal_search_active_task) for osal_search_active_task
    patch.o(i.enterSleepProcess1) refers to patch.o(.data) for .data
    patch.o(i.global_config_hclk_related) refers to patch.o(.data) for .data
    patch.o(i.hal_rom_boot_init) refers to phy_sec_ext.o(i._rom_sec_boot_init) for _rom_sec_boot_init
    patch.o(i.hal_system_clock_change_active) refers to patch.o(i.sysClockChangeAllow) for sysClockChangeAllow
    patch.o(i.hal_system_clock_change_active) refers to patch.o(i.hal_system_clock_change_process) for hal_system_clock_change_process
    patch.o(i.hal_system_clock_change_active) refers to patch.o(i.clk_init) for clk_init
    patch.o(i.hal_system_clock_change_active) refers to rf_phy_driver.o(i.rf_phy_ini) for rf_phy_ini
    patch.o(i.hal_system_clock_change_active) refers to patch.o(.data) for .data
    patch.o(i.hal_system_clock_change_process0) refers to patch.o(i.global_config_hclk_related) for global_config_hclk_related
    patch.o(i.hal_system_clock_change_process0) refers to patch.o(.data) for .data
    patch.o(i.hal_system_clock_change_req) refers to patch.o(.data) for .data
    patch.o(i.llCalcMaxScanTime1) refers to patch.o(i.read_LL_remainder_time1) for read_LL_remainder_time1
    patch.o(i.llCalcMaxScanTime1) refers to patch.o(i.read_TIM5_remainder_timer) for read_TIM5_remainder_timer
    patch.o(i.llCalcMaxScanTime1) refers to patch.o(.data) for .data
    patch.o(i.llMasterEvt_TaskEndOk1) refers to patch.o(i.l2capPocessFragmentTxData) for l2capPocessFragmentTxData
    patch.o(i.llProcessMasterControlPacket1) refers to patch.o(.data) for .data
    patch.o(i.llProcessSlaveControlPacket1) refers to patch.o(.data) for .data
    patch.o(i.llProcessTxData1) refers to patch.o(i.ll_osal_mem_free) for ll_osal_mem_free
    patch.o(i.llProcessTxData1) refers to patch.o(.data) for .data
    patch.o(i.llReleaseConnId1) refers to patch.o(i.ll_osal_mem_free) for ll_osal_mem_free
    patch.o(i.llReleaseConnId1) refers to patch.o(i.ll_flow_ctrl_restore) for ll_flow_ctrl_restore
    patch.o(i.llSecAdvAllow1) refers to patch.o(i.read_LL_remainder_time1) for read_LL_remainder_time1
    patch.o(i.llSecAdvAllow1) refers to patch.o(.data) for .data
    patch.o(i.llSetupSecScan1) refers to rf_phy_driver.o(i.rf_phy_change_cfg0) for rf_phy_change_cfg0
    patch.o(i.llWriteTxData1) refers to patch.o(i.ll_osal_mem_alloc) for ll_osal_mem_alloc
    patch.o(i.ll_addTask1) refers to patch.o(.data) for .data
    patch.o(i.ll_adptive_adj_next_time1) refers to patch.o(i.cusum_advance_slave_rx_window) for cusum_advance_slave_rx_window
    patch.o(i.ll_adptive_adj_next_time1) refers to patch.o(.data) for .data
    patch.o(i.ll_check_multi_conn_macaddr) refers to patch.o(.data) for .data
    patch.o(i.ll_dbg_heap_statics) refers to patch.o(.data) for .data
    patch.o(i.ll_flow_ctrl_restore) refers to patch.o(.bss) for .bss
    patch.o(i.ll_generateTxBuffer1) refers to patch.o(.bss) for .bss
    patch.o(i.ll_hw_go1) refers to patch.o(i.ll_flow_ctrl_restore) for ll_flow_ctrl_restore
    patch.o(i.ll_hw_go1) refers to patch.o(i.enlarge_rx_timeout_1st) for enlarge_rx_timeout_1st
    patch.o(i.ll_hw_go1) refers to patch.o(i.ll_osal_mem_alloc) for ll_osal_mem_alloc
    patch.o(i.ll_hw_go1) refers to patch.o(i.llbuf_alloc_time_statics) for llbuf_alloc_time_statics
    patch.o(i.ll_hw_go1) refers to patch.o(.data) for .data
    patch.o(i.ll_hw_go1) refers to patch.o(.bss) for .bss
    patch.o(i.ll_hw_read_tfifo_rtlp1) refers to patch.o(i.ll_osal_mem_free) for ll_osal_mem_free
    patch.o(i.ll_multi_conn_llDevList_Init) refers to patch.o(.data) for .data
    patch.o(i.ll_osal_mem_alloc) refers to patch.o(.data) for .data
    patch.o(i.ll_osal_mem_alloc) refers to patch.o(.bss) for .bss
    patch.o(i.ll_osal_mem_free) refers to patch.o(.bss) for .bss
    patch.o(i.ll_osal_memory_statics) refers to patch.o(.data) for .data
    patch.o(i.ll_osalmem_init) refers to patch.o(.data) for .data
    patch.o(i.ll_patch_hclk_dynamic_chg) refers to patch.o(i.hal_system_clock_change_process0) for hal_system_clock_change_process0
    patch.o(i.ll_patch_master_extadv) refers to patch.o(i.llMasterEvt_TaskEndOk1) for llMasterEvt_TaskEndOk1
    patch.o(i.ll_patch_master_extadv) refers to patch.o(_func_xip_code_.LL_StartEncrypt1) for LL_StartEncrypt1
    patch.o(i.ll_patch_master_extadv) refers to patch.o(i.LL_ENC_Decrypt1) for LL_ENC_Decrypt1
    patch.o(i.ll_patch_master_extadv) refers to patch.o(_func_xip_code_.llProcessMasterControlProcedures1) for llProcessMasterControlProcedures1
    patch.o(i.ll_patch_master_extadv) refers to patch.o(i.ll_scheduler_singleconn) for ll_scheduler_singleconn
    patch.o(i.ll_patch_master_extadv) refers to patch.o(i.llProcessMasterControlPacket1) for llProcessMasterControlPacket1
    patch.o(i.ll_patch_mesh) refers to patch.o(_func_xip_code_.ll_patch_mesh_slave) for ll_patch_mesh_slave
    patch.o(i.ll_patch_mesh) refers to patch.o(i.llSecAdvAllow1) for llSecAdvAllow1
    patch.o(i.ll_patch_mesh) refers to patch.o(_func_xip_code_.llSetupSecAdvEvt1) for llSetupSecAdvEvt1
    patch.o(i.ll_patch_mesh) refers to patch.o(i.ll_scheduler_singleconn) for ll_scheduler_singleconn
    patch.o(i.ll_patch_mesh) refers to patch.o(i.ll_processBasicIRQ_secondaryAdvTRX0) for ll_processBasicIRQ_secondaryAdvTRX0
    patch.o(i.ll_patch_mesh) refers to patch.o(_func_xip_code_.LL_SetScanParam1) for LL_SetScanParam1
    patch.o(i.ll_patch_mesh) refers to patch.o(_func_xip_code_.LL_SetScanControl1) for LL_SetScanControl1
    patch.o(i.ll_patch_mesh) refers to patch.o(i.ll_processBasicIRQ_SRX0) for ll_processBasicIRQ_SRX0
    patch.o(i.ll_patch_mesh) refers to patch.o(i.ll_processBasicIRQ_ScanTRX0) for ll_processBasicIRQ_ScanTRX0
    patch.o(i.ll_patch_mesh) refers to patch.o(i.llSetupSecScan1) for llSetupSecScan1
    patch.o(i.ll_patch_mesh) refers to patch.o(i.llSetupScan1) for llSetupScan1
    patch.o(i.ll_patch_mesh) refers to patch.o(i.llCalcMaxScanTime1) for llCalcMaxScanTime1
    patch.o(i.ll_patch_mesh) refers to patch.o(i.ll_processBasicIRQ_secondaryScanSRX0) for ll_processBasicIRQ_secondaryScanSRX0
    patch.o(i.ll_patch_mesh_master) refers to patch.o(_func_xip_code_.ll_patch_mesh_slave) for ll_patch_mesh_slave
    patch.o(i.ll_patch_mesh_master) refers to patch.o(_func_xip_code_.ll_patch_secscan_activescan) for ll_patch_secscan_activescan
    patch.o(i.ll_patch_mesh_master) refers to patch.o(i.llMasterEvt_TaskEndOk1) for llMasterEvt_TaskEndOk1
    patch.o(i.ll_patch_mesh_master) refers to patch.o(i.move_to_master_function2) for move_to_master_function2
    patch.o(i.ll_patch_mesh_master) refers to patch.o(_func_xip_code_.LL_CreateConn1) for LL_CreateConn1
    patch.o(i.ll_patch_mesh_master) refers to patch.o(i.llSecAdvAllow1) for llSecAdvAllow1
    patch.o(i.ll_patch_mesh_master) refers to patch.o(_func_xip_code_.llSetupSecAdvEvt1) for llSetupSecAdvEvt1
    patch.o(i.ll_patch_mesh_master) refers to patch.o(i.ll_scheduler_singleconn) for ll_scheduler_singleconn
    patch.o(i.ll_patch_mesh_master) refers to patch.o(i.ll_processBasicIRQ_secondaryAdvTRX0) for ll_processBasicIRQ_secondaryAdvTRX0
    patch.o(i.ll_patch_mesh_master) refers to patch.o(_func_xip_code_.LL_SetScanParam1) for LL_SetScanParam1
    patch.o(i.ll_patch_mesh_master) refers to patch.o(_func_xip_code_.LL_SetScanControl1) for LL_SetScanControl1
    patch.o(i.ll_patch_mesh_master) refers to patch.o(i.ll_processBasicIRQ_SRX0) for ll_processBasicIRQ_SRX0
    patch.o(i.ll_patch_mesh_master) refers to patch.o(i.ll_processBasicIRQ_ScanTRX0) for ll_processBasicIRQ_ScanTRX0
    patch.o(i.ll_patch_mesh_master) refers to patch.o(i.llSetupSecScan1) for llSetupSecScan1
    patch.o(i.ll_patch_mesh_master) refers to patch.o(i.llSetupScan1) for llSetupScan1
    patch.o(i.ll_patch_mesh_master) refers to patch.o(i.llCalcMaxScanTime1) for llCalcMaxScanTime1
    patch.o(i.ll_patch_mesh_multi) refers to patch.o(_func_xip_code_.ll_patch_mesh_slave) for ll_patch_mesh_slave
    patch.o(i.ll_patch_mesh_multi) refers to patch.o(i.llSecAdvAllow1) for llSecAdvAllow1
    patch.o(i.ll_patch_mesh_multi) refers to patch.o(_func_xip_code_.llSetupSecAdvEvt1) for llSetupSecAdvEvt1
    patch.o(i.ll_patch_mesh_multi) refers to patch.o(i.ll_scheduler_multiconn) for ll_scheduler_multiconn
    patch.o(i.ll_patch_mesh_multi) refers to patch.o(i.ll_processBasicIRQ_secondaryAdvTRX0) for ll_processBasicIRQ_secondaryAdvTRX0
    patch.o(i.ll_patch_mesh_multi) refers to patch.o(_func_xip_code_.LL_SetScanParam1) for LL_SetScanParam1
    patch.o(i.ll_patch_mesh_multi) refers to patch.o(_func_xip_code_.LL_SetScanControl1) for LL_SetScanControl1
    patch.o(i.ll_patch_mesh_multi) refers to patch.o(i.ll_processBasicIRQ_SRX0) for ll_processBasicIRQ_SRX0
    patch.o(i.ll_patch_mesh_multi) refers to patch.o(i.ll_processBasicIRQ_ScanTRX0) for ll_processBasicIRQ_ScanTRX0
    patch.o(i.ll_patch_mesh_multi) refers to patch.o(i.llSetupSecScan1) for llSetupSecScan1
    patch.o(i.ll_patch_mesh_multi) refers to patch.o(i.llSetupScan1) for llSetupScan1
    patch.o(i.ll_patch_mesh_multi) refers to patch.o(i.llCalcMaxScanTime1) for llCalcMaxScanTime1
    patch.o(i.ll_patch_mesh_multi) refers to patch.o(i.ll_addTask1) for ll_addTask1
    patch.o(i.ll_patch_mesh_multi) refers to patch.o(i.ll_processBasicIRQ_secondaryScanSRX0) for ll_processBasicIRQ_secondaryScanSRX0
    patch.o(i.ll_patch_multimaster) refers to lib_efuse3.o(i.lib_efuse_multirole) for lib_efuse_multirole
    patch.o(i.ll_patch_multimaster) refers to patch.o(_func_xip_code_.ll_patch_master) for ll_patch_master
    patch.o(i.ll_patch_multimaster) refers to patch.o(_func_xip_code_.ll_patch_secscan_activescan) for ll_patch_secscan_activescan
    patch.o(i.ll_patch_multimaster) refers to patch.o(i.llCalcMaxScanTime1) for llCalcMaxScanTime1
    patch.o(i.ll_patch_multimaster) refers to patch.o(i.ll_addTask1) for ll_addTask1
    patch.o(i.ll_patch_multimaster) refers to patch.o(i.llSetupSecScan1) for llSetupSecScan1
    patch.o(i.ll_patch_multimaster) refers to patch.o(i.ll_scheduler_multiconn) for ll_scheduler_multiconn
    patch.o(i.ll_patch_multimaster) refers to patch.o(i.ll_processBasicIRQ_secondaryInitSRX0) for ll_processBasicIRQ_secondaryInitSRX0
    patch.o(i.ll_patch_multislave) refers to lib_efuse3.o(i.lib_efuse_multirole) for lib_efuse_multirole
    patch.o(i.ll_patch_multislave) refers to patch.o(_func_xip_code_.ll_patch_slave) for ll_patch_slave
    patch.o(i.ll_patch_multislave) refers to patch.o(i.llSecAdvAllow1) for llSecAdvAllow1
    patch.o(i.ll_patch_multislave) refers to patch.o(i.ll_addTask1) for ll_addTask1
    patch.o(i.ll_patch_multislave) refers to patch.o(_func_xip_code_.llSetupSecAdvEvt1) for llSetupSecAdvEvt1
    patch.o(i.ll_patch_multislave) refers to patch.o(i.ll_scheduler_multiconn) for ll_scheduler_multiconn
    patch.o(i.ll_patch_multislave) refers to patch.o(i.ll_processBasicIRQ_secondaryAdvTRX0) for ll_processBasicIRQ_secondaryAdvTRX0
    patch.o(i.ll_patch_multislave) refers to patch.o(i.move_to_slave_function_multiConn) for move_to_slave_function_multiConn
    patch.o(i.ll_patch_restore) refers to patch.o(.data) for .data
    patch.o(i.ll_patch_restore) refers to patch.o(.bss) for .bss
    patch.o(i.ll_patch_slave_extadv) refers to patch.o(i.ll_scheduler_singleconn) for ll_scheduler_singleconn
    patch.o(i.ll_patch_slave_extadv) refers to patch.o(i.llSetupNextSlaveEvent1) for llSetupNextSlaveEvent1
    patch.o(i.ll_patch_slave_extadv) refers to patch.o(i.llProcessSlaveControlPacket1) for llProcessSlaveControlPacket1
    patch.o(i.ll_patch_slave_extadv) refers to patch.o(_func_xip_code_.llConnTerminate1) for llConnTerminate1
    patch.o(i.ll_patch_slave_extadv) refers to patch.o(_func_xip_code_.llProcessSlaveControlProcedures1) for llProcessSlaveControlProcedures1
    patch.o(i.ll_patch_slave_extadv) refers to patch.o(i.ll_adptive_adj_next_time1) for ll_adptive_adj_next_time1
    patch.o(i.ll_processBasicIRQ_SRX0) refers to patch.o(i.ll_hw_read_rfifo1) for ll_hw_read_rfifo1
    patch.o(i.ll_processBasicIRQ_SRX0) refers to patch.o(i.LL_AdvReportCback_Patch) for LL_AdvReportCback_Patch
    patch.o(i.ll_processBasicIRQ_SRX0) refers to patch.o(.data) for .data
    patch.o(i.ll_processBasicIRQ_SRX0) refers to patch.o(.bss) for .bss
    patch.o(i.ll_processBasicIRQ_ScanTRX0) refers to patch.o(i.ll_hw_read_rfifo1) for ll_hw_read_rfifo1
    patch.o(i.ll_processBasicIRQ_ScanTRX0) refers to patch.o(i.llAdjBoffUpperLimitFailure1) for llAdjBoffUpperLimitFailure1
    patch.o(i.ll_processBasicIRQ_ScanTRX0) refers to patch.o(i.llGenerateNextBackoffCount1) for llGenerateNextBackoffCount1
    patch.o(i.ll_processBasicIRQ_ScanTRX0) refers to patch.o(i.LL_AdvReportCback_Patch) for LL_AdvReportCback_Patch
    patch.o(i.ll_processBasicIRQ_ScanTRX0) refers to patch.o(i.llAdjBoffUpperLimitSuccess1) for llAdjBoffUpperLimitSuccess1
    patch.o(i.ll_processBasicIRQ_ScanTRX0) refers to patch.o(.bss) for .bss
    patch.o(i.ll_processBasicIRQ_secScanTRX0) refers to patch.o(i.ll_hw_read_rfifo1) for ll_hw_read_rfifo1
    patch.o(i.ll_processBasicIRQ_secScanTRX0) refers to patch.o(i.llAdjBoffUpperLimitFailure1) for llAdjBoffUpperLimitFailure1
    patch.o(i.ll_processBasicIRQ_secScanTRX0) refers to patch.o(i.llGenerateNextBackoffCount1) for llGenerateNextBackoffCount1
    patch.o(i.ll_processBasicIRQ_secScanTRX0) refers to patch.o(i.llAdjBoffUpperLimitSuccess1) for llAdjBoffUpperLimitSuccess1
    patch.o(i.ll_processBasicIRQ_secScanTRX0) refers to patch.o(.bss) for .bss
    patch.o(i.ll_processBasicIRQ_secondaryAdvSTX_advscan) refers to patch.o(i.ll_schedule_adv_scan_next_event) for ll_schedule_adv_scan_next_event
    patch.o(i.ll_processBasicIRQ_secondaryAdvSTX_advscan) refers to patch.o(.data) for .data
    patch.o(i.ll_processBasicIRQ_secondaryAdvTRX0) refers to patch.o(.data) for .data
    patch.o(i.ll_processBasicIRQ_secondaryAdvTRX_advscan) refers to patch.o(i.ll_schedule_adv_scan_next_event) for ll_schedule_adv_scan_next_event
    patch.o(i.ll_processBasicIRQ_secondaryAdvTRX_advscan) refers to patch.o(.data) for .data
    patch.o(i.ll_processBasicIRQ_secondaryInitSRX0) refers to patch.o(i.ll_hw_read_rfifo1) for ll_hw_read_rfifo1
    patch.o(i.ll_processBasicIRQ_secondaryInitSRX0) refers to patch.o(.data) for .data
    patch.o(i.ll_processBasicIRQ_secondaryScanSRX0) refers to patch.o(i.ll_hw_read_rfifo1) for ll_hw_read_rfifo1
    patch.o(i.ll_processBasicIRQ_secondaryScanSRX0) refers to patch.o(i.LL_AdvReportCback_Patch) for LL_AdvReportCback_Patch
    patch.o(i.ll_processBasicIRQ_secondaryScanSRX0) refers to patch.o(.data) for .data
    patch.o(i.ll_processBasicIRQ_secondaryScanSRX0_activescan) refers to patch.o(i.ll_hw_read_rfifo1) for ll_hw_read_rfifo1
    patch.o(i.ll_processBasicIRQ_secondaryScanSRX0_activescan) refers to patch.o(.data) for .data
    patch.o(i.ll_processBasicIRQ_secondaryScanSRX0_activescan) refers to patch.o(.bss) for .bss
    patch.o(i.ll_read_rxfifo1) refers to patch.o(.bss) for .bss
    patch.o(i.ll_save_multi_conn_macaddr) refers to patch.o(.data) for .data
    patch.o(i.ll_scheduler_multiconn) refers to patch.o(.data) for .data
    patch.o(i.llbuf_alloc_time_statics) refers to patch.o(.data) for .data
    patch.o(i.mesh_osal_mem_alloc) refers to patch.o(.data) for .data
    patch.o(i.mesh_osal_memory_statics) refers to patch.o(.data) for .data
    patch.o(i.mesh_osal_memory_statics) refers to patch.o(.conststring) for .conststring
    patch.o(i.mesh_osalmem_init) refers to patch.o(.data) for .data
    patch.o(i.move_to_slave_function_advscan) refers to patch.o(i.move_to_slave_function1) for move_to_slave_function1
    patch.o(i.move_to_slave_function_advscan) refers to patch.o(.data) for .data
    patch.o(i.move_to_slave_function_multiConn) refers to patch.o(i.ll_check_multi_conn_macaddr) for ll_check_multi_conn_macaddr
    patch.o(i.move_to_slave_function_multiConn) refers to patch.o(i.move_to_slave_function1) for move_to_slave_function1
    patch.o(i.move_to_slave_function_multiConn) refers to patch.o(i.ll_save_multi_conn_macaddr) for ll_save_multi_conn_macaddr
    patch.o(i.osal_idle_task_advscan) refers to patch.o(i.osal_pwrmgr_powerconserve_advscan) for osal_pwrmgr_powerconserve_advscan
    patch.o(i.osal_memory_statics) refers to main.o(.bss) for g_largeHeap
    patch.o(i.osal_pwrmgr_powerconserve_advscan) refers to patch.o(i.isTimer5Running) for isTimer5Running
    patch.o(i.osal_pwrmgr_powerconserve_advscan) refers to patch.o(i.read_TIM5_remainder_timer) for read_TIM5_remainder_timer
    patch.o(i.osal_pwrmgr_powerconserve_advscan) refers to patch.o(.data) for .data
    patch.o(i.sysClockChangeAllow) refers to patch.o(i.read_LL_remainder_time1) for read_LL_remainder_time1
    patch.o(i.wakeupProcess1) refers to patch.o(i.wakeup_init1) for wakeup_init1
    patch.o(i.wakeupProcess1) refers to rf_phy_driver.o(i.rf_phy_ini) for rf_phy_ini
    patch.o(i.wakeupProcess1) refers to patch.o(.data) for .data
    patch.o(i.wakeup_init1) refers to phy_sec_ext.o(i.efuse_init) for efuse_init
    patch.o(i.wakeup_init1) refers to patch.o(i.__wdt_init) for __wdt_init
    patch.o(i.wakeup_init1) refers to patch.o(i.hal_system_clock_change_process) for hal_system_clock_change_process
    patch.o(i.wakeup_init1) refers to patch.o(i.check_16MXtal_by_rcTracking) for check_16MXtal_by_rcTracking
    patch.o(i.wakeup_init1) refers to patch.o(i.check_96MXtal_by_rcTracking) for check_96MXtal_by_rcTracking
    patch.o(i.wakeup_init1) refers to patch.o(i.clk_init) for clk_init
    patch.o(i.wakeup_init1) refers to patch.o(i.NVIC_EnableIRQ) for NVIC_EnableIRQ
    patch.o(i.wakeup_init1) refers to patch.o(.data) for .data
    rf_phy_driver.o(i.DTM_UART_IRQHandler) refers to rf_phy_driver.o(.data) for .data
    rf_phy_driver.o(i.DTM_UART_IRQHandler) refers to rf_phy_driver.o(.bss) for .bss
    rf_phy_driver.o(i.rf_calibrate1) refers to rf_phy_driver.o(i.rf_tpCal_gen_cap_arrary) for rf_tpCal_gen_cap_arrary
    rf_phy_driver.o(i.rf_calibrate1) refers to rf_phy_driver.o(i.rc32k_calibration) for rc32k_calibration
    rf_phy_driver.o(i.rf_phy_direct_test) refers to clock.o(i.hal_clk_gate_disable) for hal_clk_gate_disable
    rf_phy_driver.o(i.rf_phy_direct_test) refers to my_printf.o(i.dbg_printf_init) for dbg_printf_init
    rf_phy_driver.o(i.rf_phy_direct_test) refers to my_printf.o(i.dbg_printf) for dbg_printf
    rf_phy_driver.o(i.rf_phy_direct_test) refers to rf_phy_driver.o(i.rf_phy_dtm_reg_process) for rf_phy_dtm_reg_process
    rf_phy_driver.o(i.rf_phy_direct_test) refers to rf_phy_driver.o(i.rf_phy_dtm_cmd_parse) for rf_phy_dtm_cmd_parse
    rf_phy_driver.o(i.rf_phy_direct_test) refers to rf_phy_driver.o(i.rf_phy_dtm_evt_send) for rf_phy_dtm_evt_send
    rf_phy_driver.o(i.rf_phy_direct_test) refers to rf_phy_driver.o(i.rf_phy_dtm_trigged) for rf_phy_dtm_trigged
    rf_phy_driver.o(i.rf_phy_direct_test) refers to rf_phy_driver.o(i.rf_phy_get_pktFoot) for rf_phy_get_pktFoot
    rf_phy_driver.o(i.rf_phy_direct_test) refers to clock.o(i.WaitUs) for WaitUs
    rf_phy_driver.o(i.rf_phy_direct_test) refers to rf_phy_driver.o(i.DTM_UART_IRQHandler) for DTM_UART_IRQHandler
    rf_phy_driver.o(i.rf_phy_direct_test) refers to rf_phy_driver.o(.data) for .data
    rf_phy_driver.o(i.rf_phy_direct_test) refers to rf_phy_driver.o(.bss) for .bss
    rf_phy_driver.o(i.rf_phy_dtm_ble_pkt_gen) refers to rf_phy_driver.o(i.gen_pn_prbs9) for gen_pn_prbs9
    rf_phy_driver.o(i.rf_phy_dtm_cmd_parse) refers to gpio.o(i.hal_gpio_pin2pin3_control) for hal_gpio_pin2pin3_control
    rf_phy_driver.o(i.rf_phy_dtm_cmd_parse) refers to rf_phy_driver.o(.data) for .data
    rf_phy_driver.o(i.rf_phy_dtm_evt_send) refers to uart.o(i.hal_uart_send_byte) for hal_uart_send_byte
    rf_phy_driver.o(i.rf_phy_dtm_ext_rx_demod_burst) refers to rf_phy_driver.o(i.rf_phy_dtm_init) for rf_phy_dtm_init
    rf_phy_driver.o(i.rf_phy_dtm_ext_rx_demod_burst) refers to rf_phy_driver.o(i.rf_phy_dtm_trigged) for rf_phy_dtm_trigged
    rf_phy_driver.o(i.rf_phy_dtm_ext_rx_demod_burst) refers to clock.o(i.hal_systick) for hal_systick
    rf_phy_driver.o(i.rf_phy_dtm_ext_rx_demod_burst) refers to rf_phy_driver.o(i.rf_phy_get_pktFoot) for rf_phy_get_pktFoot
    rf_phy_driver.o(i.rf_phy_dtm_ext_rx_demod_burst) refers to clock.o(i.hal_ms_intv) for hal_ms_intv
    rf_phy_driver.o(i.rf_phy_dtm_ext_rx_demod_burst) refers to rf_phy_driver.o(i.rf_phy_dtm_stop) for rf_phy_dtm_stop
    rf_phy_driver.o(i.rf_phy_dtm_ext_tx_mod_burst) refers to rf_phy_driver.o(i.rf_phy_dtm_init) for rf_phy_dtm_init
    rf_phy_driver.o(i.rf_phy_dtm_ext_tx_mod_burst) refers to rf_phy_driver.o(i.rf_phy_dtm_trigged) for rf_phy_dtm_trigged
    rf_phy_driver.o(i.rf_phy_dtm_ext_tx_mod_burst) refers to rf_phy_driver.o(i.rf_phy_dtm_stop) for rf_phy_dtm_stop
    rf_phy_driver.o(i.rf_phy_dtm_ext_tx_modulation) refers to rf_phy_driver.o(i.rf_phy_dtm_init) for rf_phy_dtm_init
    rf_phy_driver.o(i.rf_phy_dtm_ext_tx_modulation) refers to rf_phy_driver.o(i.rf_phy_dtm_trigged) for rf_phy_dtm_trigged
    rf_phy_driver.o(i.rf_phy_dtm_ext_tx_modulation) refers to clock.o(i.WaitUs) for WaitUs
    rf_phy_driver.o(i.rf_phy_dtm_ext_tx_modulation) refers to rf_phy_driver.o(i.rf_phy_dtm_stop) for rf_phy_dtm_stop
    rf_phy_driver.o(i.rf_phy_dtm_ext_tx_singleTone) refers to rf_phy_driver.o(i.rf_phy_dtm_init) for rf_phy_dtm_init
    rf_phy_driver.o(i.rf_phy_dtm_ext_tx_singleTone) refers to rf_phy_driver.o(i.rf_phy_dtm_trigged) for rf_phy_dtm_trigged
    rf_phy_driver.o(i.rf_phy_dtm_ext_tx_singleTone) refers to clock.o(i.WaitUs) for WaitUs
    rf_phy_driver.o(i.rf_phy_dtm_ext_tx_singleTone) refers to rf_phy_driver.o(i.rf_phy_dtm_stop) for rf_phy_dtm_stop
    rf_phy_driver.o(i.rf_phy_dtm_reg_process) refers to uart.o(i.hal_uart_send_byte) for hal_uart_send_byte
    rf_phy_driver.o(i.rf_phy_dtm_reg_process) refers to rf_phy_driver.o(.data) for .data
    rf_phy_driver.o(i.rf_phy_dtm_reg_process) refers to rf_phy_driver.o(.bss) for .bss
    rf_phy_driver.o(i.rf_phy_dtm_trigged) refers to rf_phy_driver.o(i.rf_phy_ana_cfg) for rf_phy_ana_cfg
    rf_phy_driver.o(i.rf_phy_dtm_trigged) refers to rf_phy_driver.o(i.rf_phy_ini) for rf_phy_ini
    rf_phy_driver.o(i.rf_phy_dtm_trigged) refers to rf_phy_driver.o(i.rf_tpCal_cfg_avg) for rf_tpCal_cfg_avg
    rf_phy_driver.o(i.rf_phy_dtm_trigged) refers to rf_phy_driver.o(i.rf_phy_set_txPower) for rf_phy_set_txPower
    rf_phy_driver.o(i.rf_phy_dtm_trigged) refers to rf_phy_driver.o(i.rf_phy_dtm_ble_pkt_gen) for rf_phy_dtm_ble_pkt_gen
    rf_phy_driver.o(i.rf_phy_dtm_trigged) refers to rf_phy_driver.o(i.rf_phy_dtm_zigbee_pkt_gen) for rf_phy_dtm_zigbee_pkt_gen
    rf_phy_driver.o(i.rf_phy_ini) refers to rf_phy_driver.o(i.rf_phy_ana_cfg) for rf_phy_ana_cfg
    rf_phy_driver.o(i.rf_phy_ini) refers to rf_phy_driver.o(i.rf_phy_set_txPower) for rf_phy_set_txPower
    rf_phy_driver.o(i.rf_phy_ini) refers to rf_phy_driver.o(i.rf_phy_bb_cfg) for rf_phy_bb_cfg
    rf_phy_driver.o(i.rf_tpCal_cfg) refers to rf_phy_driver.o(i.rf_tp_cal) for rf_tp_cal
    rf_phy_driver.o(i.rf_tpCal_cfg_avg) refers to rf_phy_driver.o(i.rf_tp_cal) for rf_tp_cal
    rf_phy_driver.o(i.rf_tpCal_gen_cap_arrary) refers to rf_phy_driver.o(i.rf_tp_cal) for rf_tp_cal
    phy_sec_ext.o(i.PHY_Varify_Platform) refers to phy_sec_ext.o(.constdata) for .constdata
    phy_sec_ext.o(i._efuse_chip_version_check) refers to phy_sec_ext.o(i.finidv) for finidv
    phy_sec_ext.o(i._rom_efuse_version_init) refers to lib_efuse3.o(i.lib_efuse_load) for lib_efuse_load
    phy_sec_ext.o(i._rom_sec_boot_init) refers to phy_sec_ext.o(i.efuse_init) for efuse_init
    phy_sec_ext.o(i._rom_sec_boot_init) refers to phy_sec_ext.o(i._efuse_chip_version_check) for _efuse_chip_version_check
    phy_sec_ext.o(i.finidv) refers to phy_sec_ext.o(.data) for .data
    phy_sec_ext.o(i.finidv) refers to phy_sec_ext.o(.bss) for .bss
    phy_sec_ext.o(i.verify_mic) refers to phy_sec_ext.o(i.finidv) for finidv
    phy_sec_ext.o(i.verify_mic) refers to aes.o(i.flash_load_parition) for flash_load_parition
    phy_sec_ext.o(.data) refers to phy_sec_ext.o(.conststring) for .conststring
    lib_efuse3.o(i.lib_efuse_ble) refers to lib_efuse3.o(.data) for .data
    lib_efuse3.o(i.lib_efuse_chip_ver) refers to lib_efuse3.o(.data) for .data
    lib_efuse3.o(i.lib_efuse_load) refers to lib_efuse3.o(.data) for .data
    lib_efuse3.o(i.lib_efuse_lotnum) refers to lib_efuse3.o(.data) for .data
    lib_efuse3.o(i.lib_efuse_mesh) refers to lib_efuse3.o(.data) for .data
    lib_efuse3.o(i.lib_efuse_mft) refers to lib_efuse3.o(.data) for .data
    lib_efuse3.o(i.lib_efuse_multirole) refers to lib_efuse3.o(.data) for .data
    lib_efuse3.o(i.lib_efuse_pass_flg) refers to lib_efuse3.o(.data) for .data
    lib_efuse3.o(i.lib_efuse_prog_ver) refers to lib_efuse3.o(.data) for .data
    lib_efuse3.o(i.lib_efuse_site) refers to lib_efuse3.o(.data) for .data
    lib_efuse3.o(i.lib_efuse_time_stamp) refers to lib_efuse3.o(.data) for .data
    lib_efuse3.o(i.lib_efuse_zigbee) refers to lib_efuse3.o(.data) for .data
    lib_efuse3.o(i.lib_read_hw_version) refers to lib_efuse3.o(i.lib_efuse_load) for lib_efuse_load
    aes.o(i.KeyExpansion) refers to aes.o(i.getByte) for getByte
    aes.o(i.KeyExpansion) refers to aes.o(i.getBit) for getBit
    aes.o(i.KeyExpansion) refers to aes.o(.constdata) for .constdata
    aes.o(i.KeyExpansion) refers to aes.o(.data) for sBox
    aes.o(i.MixColumns) refers to aes.o(i.xtime) for xtime
    aes.o(i.SubBytes) refers to aes.o(.data) for sBox
    aes.o(i.flash_check_parition) refers to phy_sec_ext.o(.bss) for g_ota_sec_key
    aes.o(i.flash_load_parition) refers to phy_sec_ext.o(.bss) for g_ota_sec_key
    aes.o(i.is_crypto_app) refers to phy_sec_ext.o(i.finidv) for finidv
    aes.o(i.xtime) refers to aes.o(i.getBit) for getBit
    aes.o(i.xtime) refers to aes.o(i.getByte) for getByte
    entry.o(.ARM.Collect$$$$00000000) refers (Special) to entry10a.o(.ARM.Collect$$$$0000000D) for __rt_final_cpp
    entry.o(.ARM.Collect$$$$00000000) refers (Special) to entry11a.o(.ARM.Collect$$$$0000000F) for __rt_final_exit
    entry.o(.ARM.Collect$$$$00000000) refers (Special) to entry7b.o(.ARM.Collect$$$$00000008) for _main_clock
    entry.o(.ARM.Collect$$$$00000000) refers (Special) to entry8b.o(.ARM.Collect$$$$0000000A) for _main_cpp_init
    entry.o(.ARM.Collect$$$$00000000) refers (Special) to entry9a.o(.ARM.Collect$$$$0000000B) for _main_init
    entry.o(.ARM.Collect$$$$00000000) refers (Special) to entry5.o(.ARM.Collect$$$$00000004) for _main_scatterload
    entry.o(.ARM.Collect$$$$00000000) refers (Special) to entry2.o(.ARM.Collect$$$$00000001) for _main_stk
    fadd.o(.text) refers (Special) to iusefp.o(.text) for __I$use$fp
    fadd.o(.text) refers to fepilogue.o(.text) for _float_epilogue
    fmul.o(.text) refers (Special) to iusefp.o(.text) for __I$use$fp
    fdiv.o(.text) refers (Special) to iusefp.o(.text) for __I$use$fp
    fdiv.o(.text) refers to fepilogue.o(.text) for _float_round
    dmul.o(.text) refers (Special) to iusefp.o(.text) for __I$use$fp
    dmul.o(.text) refers to depilogue.o(.text) for _double_epilogue
    ddiv.o(.text) refers (Special) to iusefp.o(.text) for __I$use$fp
    ddiv.o(.text) refers to depilogue.o(.text) for _double_round
    fflti.o(.text) refers (Special) to iusefp.o(.text) for __I$use$fp
    fflti.o(.text) refers to fepilogue.o(.text) for _float_epilogue
    ffltui.o(.text) refers (Special) to iusefp.o(.text) for __I$use$fp
    ffltui.o(.text) refers to fepilogue.o(.text) for _float_epilogue
    dflti.o(.text) refers (Special) to iusefp.o(.text) for __I$use$fp
    dflti.o(.text) refers to depilogue.o(.text) for _double_epilogue
    f2d.o(.text) refers (Special) to iusefp.o(.text) for __I$use$fp
    d2f.o(.text) refers (Special) to iusefp.o(.text) for __I$use$fp
    d2f.o(.text) refers to fepilogue.o(.text) for _float_round
    entry2.o(.ARM.Collect$$$$00000001) refers to entry2.o(.ARM.Collect$$$$00002712) for __lit__00000000
    entry2.o(.ARM.Collect$$$$00002712) refers to startup_armcm0.o(STACK) for __initial_sp
    entry2.o(__vectab_stack_and_reset_area) refers to startup_armcm0.o(STACK) for __initial_sp
    entry2.o(__vectab_stack_and_reset_area) refers to entry.o(.ARM.Collect$$$$00000000) for __main
    entry5.o(.ARM.Collect$$$$00000004) refers to init.o(.text) for __scatterload
    entry9a.o(.ARM.Collect$$$$0000000B) refers to main.o(i.main) for main
    entry9b.o(.ARM.Collect$$$$0000000C) refers to main.o(i.main) for main
    depilogue.o(.text) refers to depilogue.o(i.__ARM_clz) for __ARM_clz
    depilogue.o(.text) refers to llshl.o(.text) for __aeabi_llsl
    depilogue.o(.text) refers to llushr.o(.text) for __aeabi_llsr
    init.o(.text) refers to entry5.o(.ARM.Collect$$$$00000004) for __main_after_scatterload


==============================================================================

Removing Unused input sections from the image.

    Removing main.o(.rev16_text), (4 bytes).
    Removing main.o(.revsh_text), (4 bytes).
    Removing jump_table.o(.rev16_text), (4 bytes).
    Removing jump_table.o(.revsh_text), (4 bytes).
    Removing gpio_demo.o(.rev16_text), (4 bytes).
    Removing gpio_demo.o(.revsh_text), (4 bytes).
    Removing gpio_demo.o(i.GPIO_Wakeup_Init), (152 bytes).
    Removing gpio_demo.o(i.GPIO_Wakeup_ProcessEvent), (24 bytes).
    Removing gpio_demo.o(i.KEY_NEGE_HDL), (140 bytes).
    Removing gpio_demo.o(i.KEY_POSE_HDL), (40 bytes).
    Removing gpio_demo.o(i.Key_Demo_Init), (108 bytes).
    Removing gpio_demo.o(i.Key_ProcessEvent), (284 bytes).
    Removing gpio_demo.o(i.P16_wakeup_handler), (12 bytes).
    Removing gpio_demo.o(i.P17_wakeup_handler), (12 bytes).
    Removing gpio_demo.o(i.Pulse_Measure_Init), (56 bytes).
    Removing gpio_demo.o(i.Pulse_Measure_ProcessEvent), (24 bytes).
    Removing gpio_demo.o(i.key_press_evt), (188 bytes).
    Removing gpio_demo.o(i.negedge_callback_wakeup), (100 bytes).
    Removing gpio_demo.o(i.plus_edge_callback), (36 bytes).
    Removing gpio_demo.o(i.posedge_callback_wakeup), (72 bytes).
    Removing gpio_demo.o(i.pulse_measure_callback), (80 bytes).
    Removing gpio_demo.o(i.pwm_sta), (48 bytes).
    Removing gpio_demo.o(i.touch_init), (64 bytes).
    Removing gpio_demo.o(i.uart_port_reconfig), (92 bytes).
    Removing gpio_demo.o(.constdata), (16 bytes).
    Removing gpio_demo.o(.data), (71 bytes).
    Removing gpio_main.o(.rev16_text), (4 bytes).
    Removing gpio_main.o(.revsh_text), (4 bytes).
    Removing osal_gpio.o(.rev16_text), (4 bytes).
    Removing osal_gpio.o(.revsh_text), (4 bytes).
    Removing gpio.o(.rev16_text), (4 bytes).
    Removing gpio.o(.revsh_text), (4 bytes).
    Removing gpio.o(i.hal_gpio_debug_mux), (40 bytes).
    Removing gpio.o(i.hal_gpio_ds_control), (48 bytes).
    Removing gpio.o(i.hal_gpio_fast_write), (48 bytes).
    Removing gpio.o(i.hal_gpioin_register), (76 bytes).
    Removing gpio.o(i.hal_gpioin_unregister), (48 bytes).
    Removing gpio.o(i.hal_gpioretention_register), (48 bytes).
    Removing gpio.o(i.hal_gpioretention_unregister), (48 bytes).
    Removing my_printf.o(.rev16_text), (4 bytes).
    Removing my_printf.o(.revsh_text), (4 bytes).
    Removing my_printf.o(i.my_dump_byte), (44 bytes).
    Removing uart.o(.rev16_text), (4 bytes).
    Removing uart.o(.revsh_text), (4 bytes).
    Removing uart.o(i.hal_uart_deinit), (56 bytes).
    Removing uart.o(i.hal_uart_get_parity_plan), (28 bytes).
    Removing uart.o(i.hal_uart_get_tx_ready), (40 bytes).
    Removing uart.o(i.hal_uart_send_byte), (96 bytes).
    Removing uart.o(i.hal_uart_set_parity_plan), (32 bytes).
    Removing uart.o(i.hal_uart_set_tx_buf), (84 bytes).
    Removing pwrmgr.o(.rev16_text), (4 bytes).
    Removing pwrmgr.o(.revsh_text), (4 bytes).
    Removing pwrmgr.o(_section_standby_code_), (436 bytes).
    Removing pwrmgr.o(_section_xip_code_), (68 bytes).
    Removing pwrmgr.o(i.clk_change_mod_restore), (60 bytes).
    Removing pwrmgr.o(i.hal_pwrmgr_LowCurrentLdo_disable), (24 bytes).
    Removing pwrmgr.o(i.hal_pwrmgr_clk_gate_config), (56 bytes).
    Removing pwrmgr.o(i.hal_pwrmgr_is_lock), (108 bytes).
    Removing pwrmgr.o(i.hal_pwrmgr_poweroff), (108 bytes).
    Removing pwrmgr.o(i.hal_pwrmgr_unregister), (132 bytes).
    Removing clock.o(.rev16_text), (4 bytes).
    Removing clock.o(.revsh_text), (4 bytes).
    Removing clock.o(_section_xip_code_), (104 bytes).
    Removing clock.o(i.WaitMs), (22 bytes).
    Removing clock.o(i.WaitUs), (64 bytes).
    Removing clock.o(i.hal_clk_gate_get), (60 bytes).
    Removing clock.o(i.hal_clk_get_modules_state), (26 bytes).
    Removing clock.o(i.hal_ms_intv), (56 bytes).
    Removing clock.o(i.hal_system_soft_reset), (44 bytes).
    Removing clock.o(i.hal_systick), (12 bytes).
    Removing adc.o(.rev16_text), (4 bytes).
    Removing adc.o(.revsh_text), (4 bytes).
    Removing adc.o(i.__NVIC_EnableIRQ), (32 bytes).
    Removing adc.o(i.__NVIC_SetPriority), (120 bytes).
    Removing adc.o(i.adc_get_high_threshold_flag), (12 bytes).
    Removing adc.o(i.adc_wakeup_hdl), (12 bytes).
    Removing adc.o(i.hal_adc_clock_config), (44 bytes).
    Removing adc.o(i.hal_adc_compare_enable), (324 bytes).
    Removing adc.o(i.hal_adc_compare_start), (108 bytes).
    Removing adc.o(i.hal_adc_comppare_reset), (132 bytes).
    Removing adc.o(i.hal_adc_config_channel), (964 bytes).
    Removing adc.o(i.hal_adc_deinit), (20 bytes).
    Removing adc.o(i.hal_adc_init), (32 bytes).
    Removing adc.o(i.hal_adc_load_calibration_value), (184 bytes).
    Removing adc.o(i.hal_adc_start), (364 bytes).
    Removing adc.o(i.hal_adc_value_cal), (492 bytes).
    Removing adc.o(i.hal_adc_value_read), (212 bytes).
    Removing adc.o(i.set_differential_mode), (32 bytes).
    Removing adc.o(i.set_sampling_resolution), (352 bytes).
    Removing adc.o(i.set_sampling_resolution_auto), (88 bytes).
    Removing adc.o(.constdata), (36 bytes).
    Removing key.o(.rev16_text), (4 bytes).
    Removing key.o(.revsh_text), (4 bytes).
    Removing key.o(i.gpio_key_timer_handler), (52 bytes).
    Removing key.o(i.key_idle_handler), (84 bytes).
    Removing key.o(i.key_init), (104 bytes).
    Removing key.o(i.key_press_debonce_handler), (56 bytes).
    Removing key.o(i.key_press_debonce_timer_handler), (164 bytes).
    Removing key.o(i.key_press_handler), (72 bytes).
    Removing key.o(i.key_release_debonce_handler), (56 bytes).
    Removing key.o(i.key_release_debonce_timer_handler), (156 bytes).
    Removing key.o(i.key_timer_start), (28 bytes).
    Removing key.o(i.pin_event_handler), (116 bytes).
    Removing key.o(.bss), (20 bytes).
    Removing flash.o(.rev16_text), (4 bytes).
    Removing flash.o(.revsh_text), (4 bytes).
    Removing flash.o(_section_sram_code_), (72 bytes).
    Removing flash.o(i.LOG_CHIP_MADDR), (196 bytes).
    Removing flash.o(i._spif_read_status_reg_x), (172 bytes).
    Removing flash.o(i._spif_wait_nobusy_x), (50 bytes).
    Removing flash.o(i.check_chip_mAddr), (36 bytes).
    Removing flash.o(i.flash_write_word), (24 bytes).
    Removing flash.o(i.hal_flash_erase_all), (224 bytes).
    Removing flash.o(i.hal_flash_erase_block64), (228 bytes).
    Removing flash.o(i.hal_flash_erase_sector), (228 bytes).
    Removing flash.o(i.hal_flash_read), (212 bytes).
    Removing flash.o(i.hal_flash_write), (220 bytes).
    Removing flash.o(i.hal_flash_write_by_dma), (248 bytes).
    Removing flash.o(i.read_chip_mAddr), (76 bytes).
    Removing flash.o(i.spif_wait_nobusy), (56 bytes).
    Removing pwm.o(.rev16_text), (4 bytes).
    Removing pwm.o(.revsh_text), (4 bytes).
    Removing pwm.o(i.hal_pwm_ch_enable), (12 bytes).
    Removing pwm.o(i.hal_pwm_ch_reg), (28 bytes).
    Removing pwm.o(i.hal_pwm_ch_start), (140 bytes).
    Removing pwm.o(i.hal_pwm_ch_stop), (52 bytes).
    Removing pwm.o(i.hal_pwm_close_channel), (64 bytes).
    Removing pwm.o(i.hal_pwm_destroy), (188 bytes).
    Removing pwm.o(i.hal_pwm_init), (164 bytes).
    Removing pwm.o(i.hal_pwm_module_deinit), (124 bytes).
    Removing pwm.o(i.hal_pwm_module_init), (120 bytes).
    Removing pwm.o(i.hal_pwm_open_channel), (60 bytes).
    Removing pwm.o(i.hal_pwm_set_count_val), (120 bytes).
    Removing pwm.o(i.hal_pwm_start), (60 bytes).
    Removing pwm.o(i.hal_pwm_stop), (68 bytes).
    Removing pwm.o(i.pwm_complement_start), (292 bytes).
    Removing pwm.o(i.pwm_deadzone_start), (312 bytes).
    Removing pwm.o(i.pwm_enable_or_disable), (248 bytes).
    Removing pwm.o(.bss), (68 bytes).
    Removing pwm.o(.data), (12 bytes).
    Removing startup_armcm0.o(HEAP), (3072 bytes).
    Removing system_armcm0.o(.rev16_text), (4 bytes).
    Removing system_armcm0.o(.revsh_text), (4 bytes).
    Removing system_armcm0.o(i.SystemCoreClockUpdate), (16 bytes).
    Removing patch.o(.rev16_text), (4 bytes).
    Removing patch.o(.revsh_text), (4 bytes).
    Removing patch.o(_func_xip_code_.HCI_LE_ConnUpdateCmd), (28 bytes).
    Removing patch.o(_func_xip_code_.HCI_LE_LtkReqNegReplyCmd), (40 bytes).
    Removing patch.o(_func_xip_code_.HCI_LE_LtkReqReplyCmd), (40 bytes).
    Removing patch.o(_func_xip_code_.HCI_LE_SetHostChanClassificationCmd), (88 bytes).
    Removing patch.o(_func_xip_code_.HCI_LE_SetRandomAddressCmd), (36 bytes).
    Removing patch.o(_func_xip_code_.LL_ConnUpdate1), (240 bytes).
    Removing patch.o(_func_xip_code_.LL_CreateConn1), (952 bytes).
    Removing patch.o(_func_xip_code_.LL_EncLtkNegReply), (76 bytes).
    Removing patch.o(_func_xip_code_.LL_EncLtkReply), (88 bytes).
    Removing patch.o(_func_xip_code_.LL_PLUS_GetCurrentPduDle), (56 bytes).
    Removing patch.o(_func_xip_code_.LL_PLUS_GetCurrentRSSI), (22 bytes).
    Removing patch.o(_func_xip_code_.LL_SetAdvControl1), (500 bytes).
    Removing patch.o(_func_xip_code_.LL_SetAdvControl_advscan), (620 bytes).
    Removing patch.o(_func_xip_code_.LL_SetAdvParam1), (120 bytes).
    Removing patch.o(_func_xip_code_.LL_SetRandomAddress1), (236 bytes).
    Removing patch.o(_func_xip_code_.LL_SetScanControl1), (396 bytes).
    Removing patch.o(_func_xip_code_.LL_SetScanControl_advscan), (500 bytes).
    Removing patch.o(_func_xip_code_.LL_SetScanParam1), (76 bytes).
    Removing patch.o(_func_xip_code_.LL_StartEncrypt1), (232 bytes).
    Removing patch.o(_func_xip_code_.LOG_PATCH_DATA_TIME), (2 bytes).
    Removing patch.o(_func_xip_code_.TRNG_INIT), (80 bytes).
    Removing patch.o(_func_xip_code_.TRNG_Output), (80 bytes).
    Removing patch.o(_func_xip_code_.TRNG_Rand), (160 bytes).
    Removing patch.o(_func_xip_code_.llConnTerminate1), (164 bytes).
    Removing patch.o(_func_xip_code_.llConnTerminate_advscan), (80 bytes).
    Removing patch.o(_func_xip_code_.llProcessMasterControlProcedures1), (1232 bytes).
    Removing patch.o(_func_xip_code_.llProcessSlaveControlProcedures1), (904 bytes).
    Removing patch.o(_func_xip_code_.llSetupSecAdvEvt1), (152 bytes).
    Removing patch.o(_func_xip_code_.ll_dbg_show), (884 bytes).
    Removing patch.o(_func_xip_code_.ll_patch_advscan), (172 bytes).
    Removing patch.o(_func_xip_code_.ll_patch_master), (152 bytes).
    Removing patch.o(_func_xip_code_.ll_patch_master_advance_llprocesstxdata), (36 bytes).
    Removing patch.o(_func_xip_code_.ll_patch_mesh_slave), (100 bytes).
    Removing patch.o(_func_xip_code_.ll_patch_multi), (12 bytes).
    Removing patch.o(_func_xip_code_.ll_patch_secscan_activescan), (24 bytes).
    Removing patch.o(_func_xip_code_.ll_patch_secscan_passivescan), (16 bytes).
    Removing patch.o(_func_xip_code_.ll_patch_slave), (104 bytes).
    Removing patch.o(_func_xip_code_.ll_patch_slave_advance_llprocesstxdata), (28 bytes).
    Removing patch.o(_func_xip_code_.pplus_enter_programming_mode), (140 bytes).
    Removing patch.o(_func_xip_code_.rflib_vesion), (18 bytes).
    Removing patch.o(i.LL_AdvReportCback_Patch), (48 bytes).
    Removing patch.o(i.LL_PLUS_LoadMACFromChipMAddr), (48 bytes).
    Removing patch.o(i.LL_PLUS_LoadMACFromFlash), (48 bytes).
    Removing patch.o(i.LL_Permit_Txdata), (44 bytes).
    Removing patch.o(i.LL_master_conn_event1), (88 bytes).
    Removing patch.o(i.LL_slave_conn_event2), (40 bytes).
    Removing patch.o(i.LL_slave_conn_event3), (440 bytes).
    Removing patch.o(i.TIM5_IRQHandler1), (64 bytes).
    Removing patch.o(i.chip_id_one_bit_hot_convter), (108 bytes).
    Removing patch.o(i.efuse_get_lock_state), (24 bytes).
    Removing patch.o(i.efuse_write_x), (168 bytes).
    Removing patch.o(i.enter_sleep_off_mode1), (20 bytes).
    Removing patch.o(i.get_even), (32 bytes).
    Removing patch.o(i.hal_system_clock_change_active), (152 bytes).
    Removing patch.o(i.hal_system_clock_change_process0), (120 bytes).
    Removing patch.o(i.hal_system_clock_change_req), (64 bytes).
    Removing patch.o(i.llAdjBoffUpperLimitFailure1), (56 bytes).
    Removing patch.o(i.llAdjBoffUpperLimitSuccess1), (40 bytes).
    Removing patch.o(i.llCalcMaxScanTime1), (96 bytes).
    Removing patch.o(i.llGenerateNextBackoffCount1), (36 bytes).
    Removing patch.o(i.llMasterEvt_TaskEndOk1), (352 bytes).
    Removing patch.o(i.llPermit_ctrl_procedure), (40 bytes).
    Removing patch.o(i.llProcessMasterControlPacket1), (124 bytes).
    Removing patch.o(i.llProcessSlaveControlPacket1), (120 bytes).
    Removing patch.o(i.llSecAdvAllow1), (96 bytes).
    Removing patch.o(i.llSetupAdv1), (20 bytes).
    Removing patch.o(i.llSetupNextSlaveEvent1), (52 bytes).
    Removing patch.o(i.llSetupScan1), (20 bytes).
    Removing patch.o(i.llSetupSecScan1), (232 bytes).
    Removing patch.o(i.llSetupStartEncRsp), (64 bytes).
    Removing patch.o(i.ll_addTask1), (320 bytes).
    Removing patch.o(i.ll_adptive_adj_next_time1), (300 bytes).
    Removing patch.o(i.ll_check_multi_conn_macaddr), (132 bytes).
    Removing patch.o(i.ll_dbg_heap_statics), (140 bytes).
    Removing patch.o(i.ll_hw_read_rfifo1), (116 bytes).
    Removing patch.o(i.ll_multi_conn_llDevList_Init), (12 bytes).
    Removing patch.o(i.ll_osal_memory_statics), (220 bytes).
    Removing patch.o(i.ll_osalmem_init), (68 bytes).
    Removing patch.o(i.ll_patch_hclk_dynamic_chg), (16 bytes).
    Removing patch.o(i.ll_patch_master_extadv), (68 bytes).
    Removing patch.o(i.ll_patch_mesh), (120 bytes).
    Removing patch.o(i.ll_patch_mesh_master), (144 bytes).
    Removing patch.o(i.ll_patch_mesh_multi), (128 bytes).
    Removing patch.o(i.ll_patch_multimaster), (184 bytes).
    Removing patch.o(i.ll_patch_multislave), (192 bytes).
    Removing patch.o(i.ll_patch_restore), (84 bytes).
    Removing patch.o(i.ll_patch_slave_extadv), (72 bytes).
    Removing patch.o(i.ll_processBasicIRQ_SRX0), (2320 bytes).
    Removing patch.o(i.ll_processBasicIRQ_ScanTRX0), (416 bytes).
    Removing patch.o(i.ll_processBasicIRQ_secScanTRX0), (380 bytes).
    Removing patch.o(i.ll_processBasicIRQ_secondaryAdvSTX_advscan), (136 bytes).
    Removing patch.o(i.ll_processBasicIRQ_secondaryAdvTRX0), (1068 bytes).
    Removing patch.o(i.ll_processBasicIRQ_secondaryAdvTRX_advscan), (1080 bytes).
    Removing patch.o(i.ll_processBasicIRQ_secondaryInitSRX0), (1156 bytes).
    Removing patch.o(i.ll_processBasicIRQ_secondaryScanSRX0), (424 bytes).
    Removing patch.o(i.ll_processBasicIRQ_secondaryScanSRX0_activescan), (728 bytes).
    Removing patch.o(i.ll_save_multi_conn_macaddr), (32 bytes).
    Removing patch.o(i.ll_schedule_adv_scan_next_event), (16 bytes).
    Removing patch.o(i.ll_scheduler_multiconn), (1028 bytes).
    Removing patch.o(i.ll_scheduler_singleconn), (92 bytes).
    Removing patch.o(i.mesh_osal_mem_alloc), (100 bytes).
    Removing patch.o(i.mesh_osal_mem_free), (24 bytes).
    Removing patch.o(i.mesh_osal_memory_statics), (160 bytes).
    Removing patch.o(i.mesh_osalmem_init), (68 bytes).
    Removing patch.o(i.move_to_master_function2), (72 bytes).
    Removing patch.o(i.move_to_slave_function1), (92 bytes).
    Removing patch.o(i.move_to_slave_function_advscan), (64 bytes).
    Removing patch.o(i.move_to_slave_function_multiConn), (56 bytes).
    Removing patch.o(i.osal_idle_task_advscan), (24 bytes).
    Removing patch.o(i.osal_memory_statics), (220 bytes).
    Removing patch.o(i.osal_pwrmgr_powerconserve_advscan), (332 bytes).
    Removing patch.o(i.read_LL_remainder_time1), (44 bytes).
    Removing patch.o(i.sysClockChangeAllow), (60 bytes).
    Removing patch.o(.constdata), (12 bytes).
    Removing patch.o(.constdata), (9 bytes).
    Removing patch.o(.conststring), (68 bytes).
    Removing rf_phy_driver.o(.rev16_text), (4 bytes).
    Removing rf_phy_driver.o(.revsh_text), (4 bytes).
    Removing rf_phy_driver.o(i.DTM_UART_IRQHandler), (80 bytes).
    Removing rf_phy_driver.o(i.gen_pn_prbs9), (116 bytes).
    Removing rf_phy_driver.o(i.rf_phy_direct_test), (1234 bytes).
    Removing rf_phy_driver.o(i.rf_phy_dtm_ble_pkt_gen), (132 bytes).
    Removing rf_phy_driver.o(i.rf_phy_dtm_cmd_parse), (980 bytes).
    Removing rf_phy_driver.o(i.rf_phy_dtm_evt_send), (236 bytes).
    Removing rf_phy_driver.o(i.rf_phy_dtm_ext_acc_code_set), (12 bytes).
    Removing rf_phy_driver.o(i.rf_phy_dtm_ext_rx_demod_burst), (372 bytes).
    Removing rf_phy_driver.o(i.rf_phy_dtm_ext_tx_mod_burst), (212 bytes).
    Removing rf_phy_driver.o(i.rf_phy_dtm_ext_tx_modulation), (108 bytes).
    Removing rf_phy_driver.o(i.rf_phy_dtm_ext_tx_singleTone), (96 bytes).
    Removing rf_phy_driver.o(i.rf_phy_dtm_init), (56 bytes).
    Removing rf_phy_driver.o(i.rf_phy_dtm_reg_process), (176 bytes).
    Removing rf_phy_driver.o(i.rf_phy_dtm_stop), (40 bytes).
    Removing rf_phy_driver.o(i.rf_phy_dtm_trigged), (812 bytes).
    Removing rf_phy_driver.o(i.rf_phy_dtm_zigbee_pkt_gen), (120 bytes).
    Removing rf_phy_driver.o(i.rf_phy_get_pktFoot), (48 bytes).
    Removing rf_phy_driver.o(i.rf_phy_get_pktFoot_fromPkt), (38 bytes).
    Removing rf_phy_driver.o(i.rf_rxDcoc_cfg), (288 bytes).
    Removing rf_phy_driver.o(i.rf_tpCal_cfg), (56 bytes).
    Removing rf_phy_driver.o(i.rf_tpCal_cfg_avg), (192 bytes).
    Removing rf_phy_driver.o(.bss), (32 bytes).
    Removing rf_phy_driver.o(.data), (8 bytes).
    Removing phy_sec_ext.o(.rev16_text), (4 bytes).
    Removing phy_sec_ext.o(.revsh_text), (4 bytes).
    Removing phy_sec_ext.o(i.PHY_Varify_Platform), (40 bytes).
    Removing phy_sec_ext.o(i.verify_mic), (32 bytes).
    Removing phy_sec_ext.o(.constdata), (16 bytes).
    Removing phy_sec_ext.o(.conststring), (17 bytes).
    Removing phy_sec_ext.o(.data), (4 bytes).
    Removing phy_sec_ext.o(.data), (1 bytes).
    Removing phy_sec_ext.o(.data), (1 bytes).
    Removing phy_sec_ext.o(.data), (1 bytes).
    Removing lib_efuse3.o(i.lib_efuse_ble), (16 bytes).
    Removing lib_efuse3.o(i.lib_efuse_chip_ver), (16 bytes).
    Removing lib_efuse3.o(i.lib_efuse_lotnum), (16 bytes).
    Removing lib_efuse3.o(i.lib_efuse_mesh), (16 bytes).
    Removing lib_efuse3.o(i.lib_efuse_mft), (16 bytes).
    Removing lib_efuse3.o(i.lib_efuse_multirole), (16 bytes).
    Removing lib_efuse3.o(i.lib_efuse_pass_flg), (16 bytes).
    Removing lib_efuse3.o(i.lib_efuse_prog_ver), (16 bytes).
    Removing lib_efuse3.o(i.lib_efuse_site), (16 bytes).
    Removing lib_efuse3.o(i.lib_efuse_time_stamp), (16 bytes).
    Removing lib_efuse3.o(i.lib_efuse_zigbee), (16 bytes).
    Removing lib_efuse3.o(i.lib_read_hw_version), (36 bytes).
    Removing aes.o(.rev16_text), (4 bytes).
    Removing aes.o(.revsh_text), (4 bytes).
    Removing aes.o(i.AddRoundKey), (48 bytes).
    Removing aes.o(i.FFmul), (88 bytes).
    Removing aes.o(i.KeyExpansion), (700 bytes).
    Removing aes.o(i.MixColumns), (436 bytes).
    Removing aes.o(i.ShiftRows), (104 bytes).
    Removing aes.o(i.SubBytes), (68 bytes).
    Removing aes.o(i.affTrans), (252 bytes).
    Removing aes.o(i.flash_check_parition), (68 bytes).
    Removing aes.o(i.flash_load_parition), (68 bytes).
    Removing aes.o(i.getBit), (28 bytes).
    Removing aes.o(i.getByte), (28 bytes).
    Removing aes.o(i.is_crypto_app), (16 bytes).
    Removing aes.o(i.printfStats), (2 bytes).
    Removing aes.o(i.xor128bit), (24 bytes).
    Removing aes.o(i.xtime), (230 bytes).
    Removing aes.o(.constdata), (32 bytes).
    Removing aes.o(.data), (512 bytes).
    Removing fadd.o(.text), (178 bytes).
    Removing fmul.o(.text), (122 bytes).
    Removing fdiv.o(.text), (124 bytes).
    Removing dmul.o(.text), (208 bytes).
    Removing ddiv.o(.text), (240 bytes).
    Removing fflti.o(.text), (22 bytes).
    Removing ffltui.o(.text), (14 bytes).
    Removing dflti.o(.text), (40 bytes).
    Removing f2d.o(.text), (40 bytes).
    Removing d2f.o(.text), (56 bytes).
    Removing fepilogue.o(.text), (130 bytes).
    Removing depilogue.o(.text), (190 bytes).
    Removing patch.o(i.__psr), (6 bytes).
    Removing patch.o(i.__ARM_common_switch8), (26 bytes).
    Removing depilogue.o(i.__ARM_clz), (46 bytes).

343 unused section(s) (total 49870 bytes) removed from the image.

==============================================================================

Adding Veneers to the image

    Adding TT veneer (12 bytes, Long) for call to 'drv_disable_irq' from patch.o(_func_xip_code_.LL_Disconnect1).
    Adding TT veneer (12 bytes, Long) for call to 'LL_Disconnect0' from patch.o(_func_xip_code_.LL_Disconnect1).
    Adding TT veneer (12 bytes, Long) for call to 'drv_enable_irq' from patch.o(_func_xip_code_.LL_Disconnect1).
    Adding TT veneer (12 bytes, Long) for call to '__aeabi_memclr4' from patch.o(_func_xip_code_.LL_InitConnectContext).
    Adding TT veneer (12 bytes, Long) for call to 'll_osal_mem_alloc' from patch.o(_func_xip_code_.LL_InitConnectContext).
    Adding TT veneer (12 bytes, Long) for call to 'LL_SetDataLengh0' from patch.o(_func_xip_code_.LL_SetDataLengh1).
    Adding TT veneer (12 bytes, Long) for call to 'llEnqueueDataQ' from patch.o(_func_xip_code_.LL_TxData1).
    Adding TT veneer (12 bytes, Long) for call to 'llProcessTxData' from patch.o(_func_xip_code_.LL_TxData1).
    Adding TT veneer (12 bytes, Long) for call to 'LL_CreateConnCancel0' from patch.o(_section_xip_code_).
    Adding TT veneer (12 bytes, Long) for call to '_rom_efuse_version_init' from patch.o(_section_xip_code_).
    Adding TT veneer (12 bytes, Long) for call to 'global_config_hclk_related' from patch.o(_section_xip_code_).
    Adding TT veneer (12 bytes, Long) for call to 'enableSleep' from patch.o(_section_xip_code_).
    Adding TT veneer (12 bytes, Long) for call to 'setSleepMode' from patch.o(_section_xip_code_).
    Adding TT veneer (12 bytes, Long) for call to 'irq_rx_handler' from uart.o(i.hal_UART0_IRQHandler).
    Adding TT veneer (12 bytes, Long) for call to 'irq_tx_empty_handler' from uart.o(i.hal_UART0_IRQHandler).
    Adding TT veneer (12 bytes, Long) for call to 'hal_pwrmgr_register' from gpio.o(i.hal_gpio_init).
    Adding TT veneer (12 bytes, Long) for call to '__aeabi_memcpy' from uart.o(i.txmit_buf_use_tx_buf).
    Adding TT veneer (12 bytes, Long) for call to 'hal_pwrmgr_lock' from uart.o(i.txmit_buf_use_tx_buf).
    Adding TT veneer (12 bytes, Long) for call to 'hal_clk_reset' from uart.o(i.uart_hw_deinit).
    Adding TT veneer (12 bytes, Long) for call to 'hal_clk_gate_disable' from uart.o(i.uart_hw_deinit).
    Adding TT veneer (12 bytes, Long) for call to 'clk_get_pclk' from uart.o(i.uart_hw_init).
    Adding TT veneer (12 bytes, Long) for call to 'hal_clk_gate_enable' from uart.o(i.uart_hw_init).
    Adding TT veneer (12 bytes, Long) for call to '__aeabi_uidivmod' from uart.o(i.uart_hw_init).
    Adding TT veneer (12 bytes, Long) for call to 'drv_disable_irq' from pwrmgr.o(_section_sram_code_).
    Adding TT veneer (12 bytes, Long) for call to 'config_RTC' from pwrmgr.o(_section_sram_code_).
    Adding TT veneer (12 bytes, Long) for call to 'enter_sleep_off_mode' from pwrmgr.o(_section_sram_code_).
    Adding TT veneer (12 bytes, Long) for call to 'LL_ENC_AES128_Encrypt0' from patch.o(i.LL_ENC_AES128_Encrypt1).
    Adding TT veneer (12 bytes, Long) for call to 'LL_ENC_LoadKey' from patch.o(i.LL_ENC_Decrypt1).
    Adding TT veneer (12 bytes, Long) for call to 'LL_ENC_GenerateNonce' from patch.o(i.LL_ENC_Decrypt1).
    Adding TT veneer (12 bytes, Long) for call to '__aeabi_uread4' from patch.o(i.LL_ENC_Decrypt1).
    Adding TT veneer (12 bytes, Long) for call to 'read_current_fine_time' from patch.o(i.LL_IRQHandler1).
    Adding TT veneer (12 bytes, Long) for call to 'll_debug_output' from patch.o(i.LL_IRQHandler1).
    Adding TT veneer (12 bytes, Long) for call to 'll_hw_get_irq_status' from patch.o(i.LL_IRQHandler1).
    Adding TT veneer (12 bytes, Long) for call to 'll_hw_get_tr_mode' from patch.o(i.LL_IRQHandler1).
    Adding TT veneer (12 bytes, Long) for call to 'll_hw_clr_irq' from patch.o(i.LL_IRQHandler1).
    Adding TT veneer (12 bytes, Long) for call to 'll_processExtAdvIRQ' from patch.o(i.LL_IRQHandler1).
    Adding TT veneer (12 bytes, Long) for call to 'll_processExtScanIRQ' from patch.o(i.LL_IRQHandler1).
    Adding TT veneer (12 bytes, Long) for call to 'll_processExtInitIRQ' from patch.o(i.LL_IRQHandler1).
    Adding TT veneer (12 bytes, Long) for call to 'll_processPrdAdvIRQ' from patch.o(i.LL_IRQHandler1).
    Adding TT veneer (12 bytes, Long) for call to 'll_processPrdScanIRQ' from patch.o(i.LL_IRQHandler1).
    Adding TT veneer (12 bytes, Long) for call to 'll_processBasicIRQ' from patch.o(i.LL_IRQHandler1).
    Adding TT veneer (12 bytes, Long) for call to 'll_schedule_next_event' from patch.o(i.LL_IRQHandler1).
    Adding TT veneer (12 bytes, Long) for call to 'llSecAdvAllow' from patch.o(i.LL_IRQHandler1).
    Adding TT veneer (12 bytes, Long) for call to 'llSetupSecAdvEvt' from patch.o(i.LL_IRQHandler1).
    Adding TT veneer (12 bytes, Long) for call to 'll_hw_set_rx_timeout' from patch.o(i.LL_IRQHandler1).
    Adding TT veneer (12 bytes, Long) for call to 'llSetupSecScan' from patch.o(i.LL_IRQHandler1).
    Adding TT veneer (12 bytes, Long) for call to 'llSetupSecInit' from patch.o(i.LL_IRQHandler1).
    Adding TT veneer (12 bytes, Long) for call to 'LL_DisconnectCback' from patch.o(i.LL_ProcessEvent1).
    Adding TT veneer (12 bytes, Long) for call to 'LL_ProcessEvent0' from patch.o(i.LL_ProcessEvent1).
    Adding TT veneer (12 bytes, Long) for call to 'LL_Reset0' from patch.o(i.LL_Reset1).
    Adding TT veneer (12 bytes, Long) for call to 'LL_set_default_conn_params0' from patch.o(i.LL_set_default_conn_params1).
    Adding TT veneer (12 bytes, Long) for call to 'efuse_read' from phy_sec_ext.o(i._efuse_chip_version_check).
    Adding TT veneer (12 bytes, Long) for call to 'rom_uart_init' from jump_table.o(i._hard_fault).
    Adding TT veneer (12 bytes, Long) for call to 'log_printf' from jump_table.o(i._hard_fault).
    Adding TT veneer (12 bytes, Long) for call to 'rtc_get_counter' from jump_table.o(i._hard_fault).
    Adding TT veneer (12 bytes, Long) for call to 'hal_uart_send_buff' from my_printf.o(i._uart_putc).
    Adding TT veneer (12 bytes, Long) for call to 'osal_init_system' from gpio_main.o(i.app_main).
    Adding TT veneer (12 bytes, Long) for call to 'osal_pwrmgr_device' from gpio_main.o(i.app_main).
    Adding TT veneer (12 bytes, Long) for call to 'osal_start_system' from gpio_main.o(i.app_main).
    Adding TT veneer (12 bytes, Long) for call to 'osal_mem_set_heap' from main.o(i.ble_mem_init_config).
    Adding TT veneer (12 bytes, Long) for call to 'LL_InitConnectContext' from main.o(i.ble_mem_init_config).
    Adding TT veneer (12 bytes, Long) for call to 'WaitRTCCount' from patch.o(i.check_16MXtal_by_rcTracking).
    Adding TT veneer (12 bytes, Long) for call to 'set_sleep_flag' from patch.o(i.check_16MXtal_by_rcTracking).
    Adding TT veneer (12 bytes, Long) for call to '__aeabi_memclr4' from adc.o(i.clear_adcc_cfg).
    Adding TT veneer (12 bytes, Long) for call to 'read_LL_remainder_time' from patch.o(i.config_RTC1).
    Adding TT veneer (12 bytes, Long) for call to 'hal_uart_init' from my_printf.o(i.dbg_printf_init).
    Adding TT veneer (12 bytes, Long) for call to 'hal_gpio_cfg_analog_io' from adc.o(i.disable_analog_pin).
    Adding TT veneer (12 bytes, Long) for call to 'hal_gpio_pin_init' from adc.o(i.disable_analog_pin).
    Adding TT veneer (12 bytes, Long) for call to 'hal_gpio_pull_set' from adc.o(i.disable_analog_pin).
    Adding TT veneer (12 bytes, Long) for call to 'll_hw_set_rx_timeout_1st' from patch.o(i.enlarge_rx_timeout_1st).
    Adding TT veneer (12 bytes, Long) for call to 'enterSleepProcess0' from patch.o(i.enterSleepProcess1).
    Adding TT veneer (12 bytes, Long) for call to 'LL_ENC_AES128_Encrypt' from phy_sec_ext.o(i.finidv).
    Adding TT veneer (12 bytes, Long) for call to 'osal_memcmp' from phy_sec_ext.o(i.finidv).
    Adding TT veneer (12 bytes, Long) for call to 'drv_enable_irq' from flash.o(i.hal_cache_tag_flush).
    Adding TT veneer (12 bytes, Long) for call to 'spif_read_id' from flash.o(i.hal_get_flash_info).
    Adding TT veneer (12 bytes, Long) for call to 'hal_gpio_init' from main.o(i.hal_init).
    Adding TT veneer (12 bytes, Long) for call to '__aeabi_memcpy4' from main.o(i.hal_low_power_io_init).
    Adding TT veneer (12 bytes, Long) for call to 'disableSleep' from pwrmgr.o(i.hal_pwrmgr_init).
    Adding TT veneer (12 bytes, Long) for call to 'enableSleep' from pwrmgr.o(i.hal_pwrmgr_init).
    Adding TT veneer (12 bytes, Long) for call to 'spif_config' from flash.o(i.hw_spif_cache_config).
    Adding TT veneer (12 bytes, Long) for call to 'llProcessTxData0' from patch.o(i.llProcessTxData1).
    Adding TT veneer (12 bytes, Long) for call to 'llReleaseConnId0' from patch.o(i.llReleaseConnId1).
    Adding TT veneer (12 bytes, Long) for call to 'llSlaveEvt_TaskEndOk0' from patch.o(i.llSlaveEvt_TaskEndOk1).
    Adding TT veneer (12 bytes, Long) for call to 'getTxBufferFree' from patch.o(i.llWriteTxData1).
    Adding TT veneer (12 bytes, Long) for call to 'get_tx_write_ptr' from patch.o(i.llWriteTxData1).
    Adding TT veneer (12 bytes, Long) for call to 'LL_ENC_Encrypt' from patch.o(i.llWriteTxData1).
    Adding TT veneer (12 bytes, Long) for call to '__aeabi_memcpy' from patch.o(i.llWriteTxData1).
    Adding TT veneer (12 bytes, Long) for call to 'update_tx_write_ptr' from patch.o(i.llWriteTxData1).
    Adding TT veneer (12 bytes, Long) for call to 'll_hw_write_tfifo' from patch.o(i.ll_generateTxBuffer1).
    Adding TT veneer (12 bytes, Long) for call to 'll_hw_get_tfifo_wrptr' from patch.o(i.ll_generateTxBuffer1).
    Adding TT veneer (12 bytes, Long) for call to 'getTxBufferSize' from patch.o(i.ll_generateTxBuffer1).
    Adding TT veneer (12 bytes, Long) for call to 'get_tx_read_ptr' from patch.o(i.ll_generateTxBuffer1).
    Adding TT veneer (12 bytes, Long) for call to 'update_tx_read_ptr' from patch.o(i.ll_generateTxBuffer1).
    Adding TT veneer (12 bytes, Long) for call to 'llEnqueueCtrlPkt' from patch.o(i.ll_generateTxBuffer1).
    Adding TT veneer (12 bytes, Long) for call to 'll_hw_set_loop_timeout' from patch.o(i.ll_hw_go1).
    Adding TT veneer (12 bytes, Long) for call to 'get_rx_write_ptr' from patch.o(i.ll_hw_go1).
    Adding TT veneer (12 bytes, Long) for call to 'getRxBufferFree' from patch.o(i.ll_hw_go1).
    Adding TT veneer (12 bytes, Long) for call to 'set_max_length' from patch.o(i.ll_hw_go1).
    Adding TT veneer (12 bytes, Long) for call to 'll_hw_read_tfifo_packet' from patch.o(i.ll_hw_read_tfifo_rtlp1).
    Adding TT veneer (12 bytes, Long) for call to 'osal_mem_alloc' from patch.o(i.ll_osal_mem_alloc).
    Adding TT veneer (12 bytes, Long) for call to 'll_read_rxfifo0' from patch.o(i.ll_read_rxfifo1).
    Adding TT veneer (12 bytes, Long) for call to 'drv_irq_init' from main.o(i.main).
    Adding TT veneer (12 bytes, Long) for call to 'init_config' from main.o(i.main).
    Adding TT veneer (12 bytes, Long) for call to '__aeabi_uidivmod' from my_printf.o(i.number).
    Adding TT veneer (12 bytes, Long) for call to 'osal_memset' from osal_gpio.o(i.osalInitTasks).
    Adding TT veneer (12 bytes, Long) for call to 'LL_Init' from osal_gpio.o(i.osalInitTasks).
    Adding TT veneer (12 bytes, Long) for call to 'osal_pwrmgr_powerconserve0' from patch.o(i.osal_idle_task0).
    Adding TT veneer (12 bytes, Long) for call to 'll_hw_set_crc_fmt' from rf_phy_driver.o(i.rf_phy_bb_cfg).
    Adding TT veneer (12 bytes, Long) for call to 'll_hw_tx2rx_timing_config' from rf_phy_driver.o(i.rf_phy_ini).
    Adding TT veneer (12 bytes, Long) for call to '__ARM_common_switch8' from rf_phy_driver.o(i.rf_tp_cal).
    Adding TT veneer (12 bytes, Long) for call to 'osalTimeUpdate' from patch.o(i.wakeupProcess1).
    Adding TT veneer (12 bytes, Long) for call to 'set_timer' from patch.o(i.wakeupProcess1).
    Adding TT veneer (12 bytes, Long) for call to 'app_wakeup_process' from patch.o(i.wakeupProcess1).
    Adding TT veneer (12 bytes, Long) for call to 'll_hw_set_empty_head' from patch.o(i.wakeup_init1).
    Adding TT veneer (12 bytes, Long) for call to 'll_hw_set_timing' from patch.o(i.wakeup_init1).
    Adding TT veneer (12 bytes, Long) for call to 'll_hw_ign_rfifo' from patch.o(i.wakeup_init1).

116 Veneer(s) (total 1392 bytes) added to the image.

==============================================================================

Image Symbol Table

    Local Symbols

    Symbol Name                              Value     Ov Type        Size  Object(Section)

    ../clib/../cmprslib/zerorunl.c           0x00000000   Number         0  __dczerorl.o ABSOLUTE
    ../clib/microlib/init/entry.s            0x00000000   Number         0  entry10a.o ABSOLUTE
    ../clib/microlib/init/entry.s            0x00000000   Number         0  entry9b.o ABSOLUTE
    ../clib/microlib/init/entry.s            0x00000000   Number         0  entry10b.o ABSOLUTE
    ../clib/microlib/init/entry.s            0x00000000   Number         0  entry11a.o ABSOLUTE
    ../clib/microlib/init/entry.s            0x00000000   Number         0  entry11b.o ABSOLUTE
    ../clib/microlib/init/entry.s            0x00000000   Number         0  entry.o ABSOLUTE
    ../clib/microlib/init/entry.s            0x00000000   Number         0  entry2.o ABSOLUTE
    ../clib/microlib/init/entry.s            0x00000000   Number         0  entry5.o ABSOLUTE
    ../clib/microlib/init/entry.s            0x00000000   Number         0  entry7a.o ABSOLUTE
    ../clib/microlib/init/entry.s            0x00000000   Number         0  entry7b.o ABSOLUTE
    ../clib/microlib/init/entry.s            0x00000000   Number         0  entry8a.o ABSOLUTE
    ../clib/microlib/init/entry.s            0x00000000   Number         0  entry8b.o ABSOLUTE
    ../clib/microlib/init/entry.s            0x00000000   Number         0  entry9a.o ABSOLUTE
    ../clib/microlib/longlong.c              0x00000000   Number         0  llshl.o ABSOLUTE
    ../clib/microlib/longlong.c              0x00000000   Number         0  llushr.o ABSOLUTE
    ../clib/microlib/stubs.s                 0x00000000   Number         0  iusefp.o ABSOLUTE
    ../fplib/microlib/d2f.c                  0x00000000   Number         0  d2f.o ABSOLUTE
    ../fplib/microlib/f2d.c                  0x00000000   Number         0  f2d.o ABSOLUTE
    ../fplib/microlib/fpadd.c                0x00000000   Number         0  fadd.o ABSOLUTE
    ../fplib/microlib/fpdiv.c                0x00000000   Number         0  fdiv.o ABSOLUTE
    ../fplib/microlib/fpdiv.c                0x00000000   Number         0  ddiv.o ABSOLUTE
    ../fplib/microlib/fpepilogue.c           0x00000000   Number         0  fepilogue.o ABSOLUTE
    ../fplib/microlib/fpepilogue.c           0x00000000   Number         0  depilogue.o ABSOLUTE
    ../fplib/microlib/fpflt.c                0x00000000   Number         0  fflti.o ABSOLUTE
    ../fplib/microlib/fpflt.c                0x00000000   Number         0  ffltui.o ABSOLUTE
    ../fplib/microlib/fpflt.c                0x00000000   Number         0  dflti.o ABSOLUTE
    ../fplib/microlib/fpmul.c                0x00000000   Number         0  dmul.o ABSOLUTE
    ../fplib/microlib/fpmul.c                0x00000000   Number         0  fmul.o ABSOLUTE
    ..\..\..\components\driver\adc\adc.c     0x00000000   Number         0  adc.o ABSOLUTE
    ..\..\..\components\driver\clock\clock.c 0x00000000   Number         0  clock.o ABSOLUTE
    ..\..\..\components\driver\flash\flash.c 0x00000000   Number         0  flash.o ABSOLUTE
    ..\..\..\components\driver\gpio\gpio.c   0x00000000   Number         0  gpio.o ABSOLUTE
    ..\..\..\components\driver\key\key.c     0x00000000   Number         0  key.o ABSOLUTE
    ..\..\..\components\driver\log\my_printf.c 0x00000000   Number         0  my_printf.o ABSOLUTE
    ..\..\..\components\driver\pwm\pwm.c     0x00000000   Number         0  pwm.o ABSOLUTE
    ..\..\..\components\driver\pwrmgr\pwrmgr.c 0x00000000   Number         0  pwrmgr.o ABSOLUTE
    ..\..\..\components\driver\uart\uart.c   0x00000000   Number         0  uart.o ABSOLUTE
    ..\..\..\misc\jump_table.c               0x00000000   Number         0  jump_table.o ABSOLUTE
    ..\..\components\ble_src\controller\rf_phy_driver.c 0x00000000   Number         0  rf_phy_driver.o ABSOLUTE
    ..\\..\\..\\components\\driver\\adc\\adc.c 0x00000000   Number         0  adc.o ABSOLUTE
    ..\\..\\..\\components\\driver\\clock\\clock.c 0x00000000   Number         0  clock.o ABSOLUTE
    ..\\..\\..\\components\\driver\\flash\\flash.c 0x00000000   Number         0  flash.o ABSOLUTE
    ..\\..\\..\\components\\driver\\gpio\\gpio.c 0x00000000   Number         0  gpio.o ABSOLUTE
    ..\\..\\..\\components\\driver\\key\\key.c 0x00000000   Number         0  key.o ABSOLUTE
    ..\\..\\..\\components\\driver\\log\\my_printf.c 0x00000000   Number         0  my_printf.o ABSOLUTE
    ..\\..\\..\\components\\driver\\pwm\\pwm.c 0x00000000   Number         0  pwm.o ABSOLUTE
    ..\\..\\..\\components\\driver\\pwrmgr\\pwrmgr.c 0x00000000   Number         0  pwrmgr.o ABSOLUTE
    ..\\..\\..\\components\\driver\\uart\\uart.c 0x00000000   Number         0  uart.o ABSOLUTE
    ..\\..\\..\\misc\\jump_table.c           0x00000000   Number         0  jump_table.o ABSOLUTE
    ..\\..\\components\\ble_src\\controller\\rf_phy_driver.c 0x00000000   Number         0  rf_phy_driver.o ABSOLUTE
    RTE/Device/ARMCM0/startup_ARMCM0.s       0x00000000   Number         0  startup_armcm0.o ABSOLUTE
    RTE/Device/ARMCM0/system_ARMCM0.c        0x00000000   Number         0  system_armcm0.o ABSOLUTE
    RTE\Device\ARMCM0\system_ARMCM0.c        0x00000000   Number         0  system_armcm0.o ABSOLUTE
    Source\OSAL_gpio.c                       0x00000000   Number         0  osal_gpio.o ABSOLUTE
    Source\\OSAL_gpio.c                      0x00000000   Number         0  osal_gpio.o ABSOLUTE
    Source\\gpio_Main.c                      0x00000000   Number         0  gpio_main.o ABSOLUTE
    Source\\gpio_demo.c                      0x00000000   Number         0  gpio_demo.o ABSOLUTE
    Source\\main.c                           0x00000000   Number         0  main.o ABSOLUTE
    Source\gpio_Main.c                       0x00000000   Number         0  gpio_main.o ABSOLUTE
    Source\gpio_demo.c                       0x00000000   Number         0  gpio_demo.o ABSOLUTE
    Source\main.c                            0x00000000   Number         0  main.o ABSOLUTE
    dc.s                                     0x00000000   Number         0  dc.o ABSOLUTE
    handlers.s                               0x00000000   Number         0  handlers.o ABSOLUTE
    init.s                                   0x00000000   Number         0  init.o ABSOLUTE
    source\\aes.c                            0x00000000   Number         0  aes.o ABSOLUTE
    source\\patch.c                          0x00000000   Number         0  patch.o ABSOLUTE
    source\\phy_sec_ext.c                    0x00000000   Number         0  phy_sec_ext.o ABSOLUTE
    source\aes.c                             0x00000000   Number         0  aes.o ABSOLUTE
    source\lib_efuse3.c                      0x00000000   Number         0  lib_efuse3.o ABSOLUTE
    source\patch.c                           0x00000000   Number         0  patch.o ABSOLUTE
    source\phy_sec_ext.c                     0x00000000   Number         0  phy_sec_ext.o ABSOLUTE
    Long Thumb to Thumb Veneer to irq_rx_handler 0x1102009d   Thumb Code    12  anon$$obj.o(Veneer$$Code)
    Long Thumb to Thumb Veneer to irq_tx_empty_handler 0x110200a9   Thumb Code    12  anon$$obj.o(Veneer$$Code)
    _func_xip_code_.LL_Disconnect1           0x11020114   Section        0  patch.o(_func_xip_code_.LL_Disconnect1)
    _func_xip_code_.LL_InitConnectContext    0x11020130   Section        0  patch.o(_func_xip_code_.LL_InitConnectContext)
    _func_xip_code_.LL_SetDataLengh1         0x1102024c   Section        0  patch.o(_func_xip_code_.LL_SetDataLengh1)
    _func_xip_code_.LL_TxData1               0x1102027c   Section        0  patch.o(_func_xip_code_.LL_TxData1)
    _section_xip_code_                       0x11020320   Section        0  patch.o(_section_xip_code_)
    i.__NVIC_EnableIRQ                       0x11020624   Section        0  gpio.o(i.__NVIC_EnableIRQ)
    __NVIC_EnableIRQ                         0x11020625   Thumb Code    26  gpio.o(i.__NVIC_EnableIRQ)
    i.__NVIC_SetPriority                     0x11020644   Section        0  gpio.o(i.__NVIC_SetPriority)
    __NVIC_SetPriority                       0x11020645   Thumb Code   110  gpio.o(i.__NVIC_SetPriority)
    i.__NVIC_SetPriority                     0x110206bc   Section        0  uart.o(i.__NVIC_SetPriority)
    __NVIC_SetPriority                       0x110206bd   Thumb Code   110  uart.o(i.__NVIC_SetPriority)
    i.hal_GPIO_IRQHandler                    0x11020734   Section        0  gpio.o(i.hal_GPIO_IRQHandler)
    __tagsym$$used                           0x11020735   Number         0  gpio.o(i.hal_GPIO_IRQHandler)
    i.hal_UART0_IRQHandler                   0x11020750   Section        0  uart.o(i.hal_UART0_IRQHandler)
    __tagsym$$used                           0x11020751   Number         0  uart.o(i.hal_UART0_IRQHandler)
    i.hal_UART1_IRQHandler                   0x110207a4   Section        0  uart.o(i.hal_UART1_IRQHandler)
    __tagsym$$used                           0x110207a5   Number         0  uart.o(i.hal_UART1_IRQHandler)
    i.hal_gpio_cfg_analog_io                 0x110207f8   Section        0  gpio.o(i.hal_gpio_cfg_analog_io)
    i.hal_gpio_fmux                          0x11020848   Section        0  gpio.o(i.hal_gpio_fmux)
    i.hal_gpio_fmux_set                      0x11020878   Section        0  gpio.o(i.hal_gpio_fmux_set)
    i.hal_gpio_init                          0x110208d0   Section        0  gpio.o(i.hal_gpio_init)
    i.hal_gpio_interrupt_disable             0x1102092c   Section        0  gpio.o(i.hal_gpio_interrupt_disable)
    hal_gpio_interrupt_disable               0x1102092d   Thumb Code    66  gpio.o(i.hal_gpio_interrupt_disable)
    i.hal_gpio_interrupt_enable              0x11020974   Section        0  gpio.o(i.hal_gpio_interrupt_enable)
    hal_gpio_interrupt_enable                0x11020975   Thumb Code    88  gpio.o(i.hal_gpio_interrupt_enable)
    i.hal_gpio_pin2pin3_control              0x110209d0   Section        0  gpio.o(i.hal_gpio_pin2pin3_control)
    i.hal_gpio_pin_init                      0x11020a00   Section        0  gpio.o(i.hal_gpio_pin_init)
    i.hal_gpio_pull_set                      0x11020a84   Section        0  gpio.o(i.hal_gpio_pull_set)
    i.hal_gpio_read                          0x11020afc   Section        0  gpio.o(i.hal_gpio_read)
    i.hal_gpio_retention_enable              0x11020b30   Section        0  gpio.o(i.hal_gpio_retention_enable)
    hal_gpio_retention_enable                0x11020b31   Thumb Code   170  gpio.o(i.hal_gpio_retention_enable)
    i.hal_gpio_sleep_handler                 0x11020be4   Section        0  gpio.o(i.hal_gpio_sleep_handler)
    hal_gpio_sleep_handler                   0x11020be5   Thumb Code    92  gpio.o(i.hal_gpio_sleep_handler)
    i.hal_gpio_wakeup_control                0x11020c44   Section        0  gpio.o(i.hal_gpio_wakeup_control)
    hal_gpio_wakeup_control                  0x11020c45   Thumb Code    98  gpio.o(i.hal_gpio_wakeup_control)
    i.hal_gpio_wakeup_handler                0x11020cb0   Section        0  gpio.o(i.hal_gpio_wakeup_handler)
    hal_gpio_wakeup_handler                  0x11020cb1   Thumb Code   128  gpio.o(i.hal_gpio_wakeup_handler)
    i.hal_gpio_wakeup_set                    0x11020d34   Section        0  gpio.o(i.hal_gpio_wakeup_set)
    i.hal_gpio_write                         0x11020de4   Section        0  gpio.o(i.hal_gpio_write)
    i.hal_gpioin_disable                     0x11020e24   Section        0  gpio.o(i.hal_gpioin_disable)
    i.hal_gpioin_enable                      0x11020e54   Section        0  gpio.o(i.hal_gpioin_enable)
    i.hal_gpioin_event                       0x11020ef8   Section        0  gpio.o(i.hal_gpioin_event)
    hal_gpioin_event                         0x11020ef9   Thumb Code   148  gpio.o(i.hal_gpioin_event)
    i.hal_gpioin_event_pin                   0x11020f90   Section        0  gpio.o(i.hal_gpioin_event_pin)
    hal_gpioin_event_pin                     0x11020f91   Thumb Code    80  gpio.o(i.hal_gpioin_event_pin)
    i.hal_gpioin_wakeup_trigger              0x11020fe4   Section        0  gpio.o(i.hal_gpioin_wakeup_trigger)
    hal_gpioin_wakeup_trigger                0x11020fe5   Thumb Code    56  gpio.o(i.hal_gpioin_wakeup_trigger)
    i.hal_uart_init                          0x11021020   Section        0  uart.o(i.hal_uart_init)
    i.hal_uart_send_buff                     0x11021094   Section        0  uart.o(i.hal_uart_send_buff)
    i.txmit_buf_polling                      0x110210c4   Section        0  uart.o(i.txmit_buf_polling)
    txmit_buf_polling                        0x110210c5   Thumb Code   130  uart.o(i.txmit_buf_polling)
    i.txmit_buf_use_tx_buf                   0x11021154   Section        0  uart.o(i.txmit_buf_use_tx_buf)
    txmit_buf_use_tx_buf                     0x11021155   Thumb Code   210  uart.o(i.txmit_buf_use_tx_buf)
    i.uart_hw_deinit                         0x11021234   Section        0  uart.o(i.uart_hw_deinit)
    uart_hw_deinit                           0x11021235   Thumb Code   128  uart.o(i.uart_hw_deinit)
    i.uart_hw_init                           0x110212c8   Section        0  uart.o(i.uart_hw_init)
    uart_hw_init                             0x110212c9   Thumb Code   384  uart.o(i.uart_hw_init)
    i.uart_wakeup_process_0                  0x1102146c   Section        0  uart.o(i.uart_wakeup_process_0)
    uart_wakeup_process_0                    0x1102146d   Thumb Code    10  uart.o(i.uart_wakeup_process_0)
    i.uart_wakeup_process_1                  0x11021476   Section        0  uart.o(i.uart_wakeup_process_1)
    uart_wakeup_process_1                    0x11021477   Thumb Code    10  uart.o(i.uart_wakeup_process_1)
    .constdata                               0x11021480   Section      138  gpio.o(.constdata)
    .constdata                               0x1102150c   Section       12  uart.o(.constdata)
    jump_table_mem_area                      0x1fff0000   Section     1024  jump_table.o(jump_table_mem_area)
    global_config_area                       0x1fff0400   Section     1024  jump_table.o(global_config_area)
    RESET                                    0x1fff1838   Section      192  startup_armcm0.o(RESET)
    .ARM.Collect$$$$00000000                 0x1fff18f8   Section        0  entry.o(.ARM.Collect$$$$00000000)
    .ARM.Collect$$$$00000001                 0x1fff18f8   Section        4  entry2.o(.ARM.Collect$$$$00000001)
    .ARM.Collect$$$$00000004                 0x1fff18fc   Section        4  entry5.o(.ARM.Collect$$$$00000004)
    .ARM.Collect$$$$00000008                 0x1fff1900   Section        0  entry7b.o(.ARM.Collect$$$$00000008)
    .ARM.Collect$$$$0000000A                 0x1fff1900   Section        0  entry8b.o(.ARM.Collect$$$$0000000A)
    .ARM.Collect$$$$0000000B                 0x1fff1900   Section        8  entry9a.o(.ARM.Collect$$$$0000000B)
    .ARM.Collect$$$$0000000D                 0x1fff1908   Section        0  entry10a.o(.ARM.Collect$$$$0000000D)
    .ARM.Collect$$$$0000000F                 0x1fff1908   Section        0  entry11a.o(.ARM.Collect$$$$0000000F)
    .ARM.Collect$$$$00002712                 0x1fff1908   Section        4  entry2.o(.ARM.Collect$$$$00002712)
    __lit__00000000                          0x1fff1908   Data           4  entry2.o(.ARM.Collect$$$$00002712)
    .emb_text                                0x1fff190c   Section       56  jump_table.o(.emb_text)
    .text                                    0x1fff1944   Section       28  startup_armcm0.o(.text)
    .text                                    0x1fff1960   Section       36  init.o(.text)
    .text                                    0x1fff1984   Section        0  __dczerorl.o(.text)
    _section_sram_code_                      0x1fff1e1c   Section        0  uart.o(_section_sram_code_)
    irq_rx_handler                           0x1fff1e1d   Thumb Code   102  uart.o(_section_sram_code_)
    irq_tx_empty_handler                     0x1fff1e83   Thumb Code   192  uart.o(_section_sram_code_)
    _section_sram_code_                      0x1fff1f54   Section        0  pwrmgr.o(_section_sram_code_)
    i.LL_ENC_AES128_Encrypt1                 0x1fff1f90   Section        0  patch.o(i.LL_ENC_AES128_Encrypt1)
    i.LL_ENC_Decrypt1                        0x1fff1fac   Section        0  patch.o(i.LL_ENC_Decrypt1)
    i.LL_ENC_Encrypt1                        0x1fff2124   Section        0  patch.o(i.LL_ENC_Encrypt1)
    i.LL_IRQHandler1                         0x1fff2284   Section        0  patch.o(i.LL_IRQHandler1)
    i.LL_ProcessEvent1                       0x1fff2440   Section        0  patch.o(i.LL_ProcessEvent1)
    i.LL_Reset1                              0x1fff2494   Section        0  patch.o(i.LL_Reset1)
    i.LL_set_default_conn_params1            0x1fff24ac   Section        0  patch.o(i.LL_set_default_conn_params1)
    i.NVIC_EnableIRQ                         0x1fff24f4   Section        0  patch.o(i.NVIC_EnableIRQ)
    NVIC_EnableIRQ                           0x1fff24f5   Thumb Code    14  patch.o(i.NVIC_EnableIRQ)
    i.SystemInit                             0x1fff2508   Section        0  system_armcm0.o(i.SystemInit)
    i.__NVIC_DisableIRQ                      0x1fff2518   Section        0  adc.o(i.__NVIC_DisableIRQ)
    __NVIC_DisableIRQ                        0x1fff2519   Thumb Code    26  adc.o(i.__NVIC_DisableIRQ)
    i.__NVIC_SetPriority                     0x1fff2538   Section        0  main.o(i.__NVIC_SetPriority)
    __NVIC_SetPriority                       0x1fff2539   Thumb Code   110  main.o(i.__NVIC_SetPriority)
    i.__NVIC_SetPriority                     0x1fff25b0   Section        0  pwrmgr.o(i.__NVIC_SetPriority)
    __NVIC_SetPriority                       0x1fff25b1   Thumb Code   110  pwrmgr.o(i.__NVIC_SetPriority)
    i.__NVIC_SetPriority                     0x1fff2628   Section        0  flash.o(i.__NVIC_SetPriority)
    __NVIC_SetPriority                       0x1fff2629   Thumb Code   110  flash.o(i.__NVIC_SetPriority)
    i.__scatterload_copy                     0x1fff26a0   Section       14  handlers.o(i.__scatterload_copy)
    i.__scatterload_null                     0x1fff26ae   Section        2  handlers.o(i.__scatterload_null)
    i.__scatterload_zeroinit                 0x1fff26b0   Section       14  handlers.o(i.__scatterload_zeroinit)
    i.__wdt_init                             0x1fff26c0   Section        0  patch.o(i.__wdt_init)
    i._clk_apply_setting1                    0x1fff26d0   Section        0  patch.o(i._clk_apply_setting1)
    _clk_apply_setting1                      0x1fff26d1   Thumb Code   250  patch.o(i._clk_apply_setting1)
    i._efuse_chip_version_check              0x1fff27dc   Section        0  phy_sec_ext.o(i._efuse_chip_version_check)
    i._hard_fault                            0x1fff27fc   Section        0  jump_table.o(i._hard_fault)
    i._rom_efuse_version_init                0x1fff2a6c   Section        0  phy_sec_ext.o(i._rom_efuse_version_init)
    i._rom_sec_boot_init                     0x1fff2a8c   Section        0  phy_sec_ext.o(i._rom_sec_boot_init)
    i._strnlen                               0x1fff2aa8   Section        0  my_printf.o(i._strnlen)
    _strnlen                                 0x1fff2aa9   Thumb Code    30  my_printf.o(i._strnlen)
    i._uart_putc                             0x1fff2ac6   Section        0  my_printf.o(i._uart_putc)
    i.adc_compare_cb                         0x1fff2ad8   Section        0  adc.o(i.adc_compare_cb)
    adc_compare_cb                           0x1fff2ad9   Thumb Code   438  adc.o(i.adc_compare_cb)
    i.adc_set_high_threshold_flag            0x1fff2cf0   Section        0  adc.o(i.adc_set_high_threshold_flag)
    i.aon_register_init                      0x1fff2cfc   Section        0  clock.o(i.aon_register_init)
    aon_register_init                        0x1fff2cfd   Thumb Code    58  clock.o(i.aon_register_init)
    i.app_main                               0x1fff2d48   Section        0  gpio_main.o(i.app_main)
    i.ble_mem_init_config                    0x1fff2d5c   Section        0  main.o(i.ble_mem_init_config)
    ble_mem_init_config                      0x1fff2d5d   Thumb Code    34  main.o(i.ble_mem_init_config)
    i.check_16MXtal_by_rcTracking            0x1fff2d8c   Section        0  patch.o(i.check_16MXtal_by_rcTracking)
    check_16MXtal_by_rcTracking              0x1fff2d8d   Thumb Code   316  patch.o(i.check_16MXtal_by_rcTracking)
    i.check_96MXtal_by_rcTracking            0x1fff2ee0   Section        0  patch.o(i.check_96MXtal_by_rcTracking)
    check_96MXtal_by_rcTracking              0x1fff2ee1   Thumb Code   246  patch.o(i.check_96MXtal_by_rcTracking)
    i.clear_adcc_cfg                         0x1fff2ff0   Section        0  adc.o(i.clear_adcc_cfg)
    i.clk_init                               0x1fff300c   Section        0  patch.o(i.clk_init)
    i.config_RTC1                            0x1fff308c   Section        0  patch.o(i.config_RTC1)
    i.cusum_advance_slave_rx_window          0x1fff3140   Section        0  patch.o(i.cusum_advance_slave_rx_window)
    cusum_advance_slave_rx_window            0x1fff3141   Thumb Code   124  patch.o(i.cusum_advance_slave_rx_window)
    i.dbg_printf                             0x1fff31cc   Section        0  my_printf.o(i.dbg_printf)
    i.dbg_printf_init                        0x1fff31f0   Section        0  my_printf.o(i.dbg_printf_init)
    i.disable_analog_pin                     0x1fff3214   Section        0  adc.o(i.disable_analog_pin)
    disable_analog_pin                       0x1fff3215   Thumb Code    44  adc.o(i.disable_analog_pin)
    i.efuse_init                             0x1fff3244   Section        0  phy_sec_ext.o(i.efuse_init)
    i.enlarge_rx_timeout_1st                 0x1fff325c   Section        0  patch.o(i.enlarge_rx_timeout_1st)
    enlarge_rx_timeout_1st                   0x1fff325d   Thumb Code   158  patch.o(i.enlarge_rx_timeout_1st)
    i.enterSleepProcess1                     0x1fff3314   Section        0  patch.o(i.enterSleepProcess1)
    i.finidv                                 0x1fff3358   Section        0  phy_sec_ext.o(i.finidv)
    i.global_config_hclk_related             0x1fff33e4   Section        0  patch.o(i.global_config_hclk_related)
    i.hal_ADC_IRQHandler                     0x1fff3478   Section        0  adc.o(i.hal_ADC_IRQHandler)
    __tagsym$$used                           0x1fff3479   Number         0  adc.o(i.hal_ADC_IRQHandler)
    i.hal_ADC_compare_IRQHandler             0x1fff3584   Section        0  adc.o(i.hal_ADC_compare_IRQHandler)
    hal_ADC_compare_IRQHandler               0x1fff3585   Thumb Code   414  adc.o(i.hal_ADC_compare_IRQHandler)
    __tagsym$$used                           0x1fff3585   Number         0  adc.o(i.hal_ADC_compare_IRQHandler)
    i.hal_adc_stop                           0x1fff3738   Section        0  adc.o(i.hal_adc_stop)
    i.hal_cache_init                         0x1fff380c   Section        0  flash.o(i.hal_cache_init)
    hal_cache_init                           0x1fff380d   Thumb Code    58  flash.o(i.hal_cache_init)
    i.hal_cache_tag_flush                    0x1fff3848   Section        0  flash.o(i.hal_cache_tag_flush)
    i.hal_clk_gate_disable                   0x1fff38a4   Section        0  clock.o(i.hal_clk_gate_disable)
    i.hal_clk_gate_enable                    0x1fff38f4   Section        0  clock.o(i.hal_clk_gate_enable)
    i.hal_clk_reset                          0x1fff3944   Section        0  clock.o(i.hal_clk_reset)
    i.hal_get_flash_info                     0x1fff3a1c   Section        0  flash.o(i.hal_get_flash_info)
    i.hal_init                               0x1fff3a28   Section        0  main.o(i.hal_init)
    hal_init                                 0x1fff3a29   Thumb Code    48  main.o(i.hal_init)
    i.hal_low_power_io_init                  0x1fff3a64   Section        0  main.o(i.hal_low_power_io_init)
    hal_low_power_io_init                    0x1fff3a65   Thumb Code   116  main.o(i.hal_low_power_io_init)
    i.hal_poilling_adc_stop                  0x1fff3ae0   Section        0  adc.o(i.hal_poilling_adc_stop)
    i.hal_pwrmgr_LowCurrentLdo_enable        0x1fff3b84   Section        0  pwrmgr.o(i.hal_pwrmgr_LowCurrentLdo_enable)
    i.hal_pwrmgr_RAM_retention               0x1fff3b9c   Section        0  pwrmgr.o(i.hal_pwrmgr_RAM_retention)
    i.hal_pwrmgr_RAM_retention_clr           0x1fff3bd0   Section        0  pwrmgr.o(i.hal_pwrmgr_RAM_retention_clr)
    i.hal_pwrmgr_RAM_retention_set           0x1fff3be8   Section        0  pwrmgr.o(i.hal_pwrmgr_RAM_retention_set)
    i.hal_pwrmgr_init                        0x1fff3c0c   Section        0  pwrmgr.o(i.hal_pwrmgr_init)
    i.hal_pwrmgr_lock                        0x1fff3c44   Section        0  pwrmgr.o(i.hal_pwrmgr_lock)
    i.hal_pwrmgr_register                    0x1fff3cb0   Section        0  pwrmgr.o(i.hal_pwrmgr_register)
    i.hal_pwrmgr_sleep_process               0x1fff3d24   Section        0  pwrmgr.o(i.hal_pwrmgr_sleep_process)
    __tagsym$$used                           0x1fff3d25   Number         0  pwrmgr.o(i.hal_pwrmgr_sleep_process)
    i.hal_pwrmgr_unlock                      0x1fff3d80   Section        0  pwrmgr.o(i.hal_pwrmgr_unlock)
    i.hal_pwrmgr_wakeup_process              0x1fff3e04   Section        0  pwrmgr.o(i.hal_pwrmgr_wakeup_process)
    __tagsym$$used                           0x1fff3e05   Number         0  pwrmgr.o(i.hal_pwrmgr_wakeup_process)
    i.hal_rc32k_clk_tracking_init            0x1fff3ec0   Section        0  clock.o(i.hal_rc32k_clk_tracking_init)
    i.hal_rfphy_init                         0x1fff3ee8   Section        0  main.o(i.hal_rfphy_init)
    hal_rfphy_init                           0x1fff3ee9   Thumb Code    94  main.o(i.hal_rfphy_init)
    i.hal_rom_boot_init                      0x1fff3f58   Section        0  patch.o(i.hal_rom_boot_init)
    i.hal_rtc_clock_config                   0x1fff3f60   Section        0  clock.o(i.hal_rtc_clock_config)
    i.hal_spif_cache_init                    0x1fff4008   Section        0  flash.o(i.hal_spif_cache_init)
    i.hal_system_clock_change_process        0x1fff4030   Section        0  patch.o(i.hal_system_clock_change_process)
    i.hw_spif_cache_config                   0x1fff4040   Section        0  flash.o(i.hw_spif_cache_config)
    hw_spif_cache_config                     0x1fff4041   Thumb Code   136  flash.o(i.hw_spif_cache_config)
    i.isTimer5Running                        0x1fff40e0   Section        0  patch.o(i.isTimer5Running)
    i.l2capPocessFragmentTxData              0x1fff40f0   Section        0  patch.o(i.l2capPocessFragmentTxData)
    i.lib_efuse_load                         0x1fff40f4   Section        0  lib_efuse3.o(i.lib_efuse_load)
    i.llProcessTxData1                       0x1fff41ac   Section        0  patch.o(i.llProcessTxData1)
    i.llReleaseConnId1                       0x1fff4200   Section        0  patch.o(i.llReleaseConnId1)
    i.llSlaveEvt_TaskEndOk1                  0x1fff42c0   Section        0  patch.o(i.llSlaveEvt_TaskEndOk1)
    i.llWriteTxData1                         0x1fff42f8   Section        0  patch.o(i.llWriteTxData1)
    i.ll_flow_ctrl_restore                   0x1fff43a0   Section        0  patch.o(i.ll_flow_ctrl_restore)
    ll_flow_ctrl_restore                     0x1fff43a1   Thumb Code    82  patch.o(i.ll_flow_ctrl_restore)
    i.ll_generateTxBuffer1                   0x1fff43fc   Section        0  patch.o(i.ll_generateTxBuffer1)
    i.ll_hw_go1                              0x1fff4678   Section        0  patch.o(i.ll_hw_go1)
    i.ll_hw_read_tfifo_rtlp1                 0x1fff4954   Section        0  patch.o(i.ll_hw_read_tfifo_rtlp1)
    i.ll_osal_mem_alloc                      0x1fff4a30   Section        0  patch.o(i.ll_osal_mem_alloc)
    i.ll_osal_mem_free                       0x1fff4ac4   Section        0  patch.o(i.ll_osal_mem_free)
    i.ll_processBasicIRQ_SRX                 0x1fff4b14   Section        0  patch.o(i.ll_processBasicIRQ_SRX)
    i.ll_processBasicIRQ_ScanTRX             0x1fff4b2c   Section        0  patch.o(i.ll_processBasicIRQ_ScanTRX)
    i.ll_processBasicIRQ_secScanTRX          0x1fff4b44   Section        0  patch.o(i.ll_processBasicIRQ_secScanTRX)
    i.ll_processBasicIRQ_secondaryAdvSTX     0x1fff4b5c   Section        0  patch.o(i.ll_processBasicIRQ_secondaryAdvSTX)
    i.ll_processBasicIRQ_secondaryAdvTRX     0x1fff4b74   Section        0  patch.o(i.ll_processBasicIRQ_secondaryAdvTRX)
    i.ll_processBasicIRQ_secondaryInitSRX    0x1fff4b8c   Section        0  patch.o(i.ll_processBasicIRQ_secondaryInitSRX)
    i.ll_processBasicIRQ_secondaryScanSRX    0x1fff4ba4   Section        0  patch.o(i.ll_processBasicIRQ_secondaryScanSRX)
    i.ll_read_rxfifo1                        0x1fff4bbc   Section        0  patch.o(i.ll_read_rxfifo1)
    i.llbuf_alloc_time_statics               0x1fff4bf8   Section        0  patch.o(i.llbuf_alloc_time_statics)
    i.log_vsprintf                           0x1fff4c40   Section        0  my_printf.o(i.log_vsprintf)
    log_vsprintf                             0x1fff4c41   Thumb Code   824  my_printf.o(i.log_vsprintf)
    i.main                                   0x1fff4f80   Section        0  main.o(i.main)
    i.number                                 0x1fff4fb0   Section        0  my_printf.o(i.number)
    number                                   0x1fff4fb1   Thumb Code   430  my_printf.o(i.number)
    i.osalInitTasks                          0x1fff5168   Section        0  osal_gpio.o(i.osalInitTasks)
    i.osal_idle_task0                        0x1fff5190   Section        0  patch.o(i.osal_idle_task0)
    i.osal_search_active_task                0x1fff51a8   Section        0  patch.o(i.osal_search_active_task)
    i.patch_linkBuf_init                     0x1fff51e0   Section        0  patch.o(i.patch_linkBuf_init)
    i.peripheral_interrupt_restore_default   0x1fff5278   Section        0  pwrmgr.o(i.peripheral_interrupt_restore_default)
    peripheral_interrupt_restore_default     0x1fff5279   Thumb Code   108  pwrmgr.o(i.peripheral_interrupt_restore_default)
    i.rc32k_calibration                      0x1fff52e4   Section        0  rf_phy_driver.o(i.rc32k_calibration)
    i.rc32k_cap_cal                          0x1fff5364   Section        0  patch.o(i.rc32k_cap_cal)
    i.read_TIM5_remainder_timer              0x1fff53bc   Section        0  patch.o(i.read_TIM5_remainder_timer)
    read_TIM5_remainder_timer                0x1fff53bd   Thumb Code     8  patch.o(i.read_TIM5_remainder_timer)
    i.rf_calibrate1                          0x1fff53c8   Section        0  rf_phy_driver.o(i.rf_calibrate1)
    i.rf_phy_ana_cfg                         0x1fff53d4   Section        0  rf_phy_driver.o(i.rf_phy_ana_cfg)
    i.rf_phy_bb_cfg                          0x1fff54f0   Section        0  rf_phy_driver.o(i.rf_phy_bb_cfg)
    i.rf_phy_change_cfg0                     0x1fff569c   Section        0  rf_phy_driver.o(i.rf_phy_change_cfg0)
    i.rf_phy_ini                             0x1fff5744   Section        0  rf_phy_driver.o(i.rf_phy_ini)
    i.rf_phy_set_txPower                     0x1fff5780   Section        0  rf_phy_driver.o(i.rf_phy_set_txPower)
    i.rf_tpCal_gen_cap_arrary                0x1fff57f4   Section        0  rf_phy_driver.o(i.rf_tpCal_gen_cap_arrary)
    i.rf_tp_cal                              0x1fff5840   Section        0  rf_phy_driver.o(i.rf_tp_cal)
    i.skip_atoi                              0x1fff595c   Section        0  my_printf.o(i.skip_atoi)
    skip_atoi                                0x1fff595d   Thumb Code    42  my_printf.o(i.skip_atoi)
    i.wakeupProcess1                         0x1fff5988   Section        0  patch.o(i.wakeupProcess1)
    i.wakeup_init1                           0x1fff5b9c   Section        0  patch.o(i.wakeup_init1)
    .constdata                               0x1fff5cf8   Section       52  main.o(.constdata)
    .constdata                               0x1fff5d2c   Section       16  my_printf.o(.constdata)
    .conststring                             0x1fff5d3c   Section       77  my_printf.o(.conststring)
    .conststring                             0x1fff5d8c   Section      133  adc.o(.conststring)
    _section_sram_code_                      0x1fff5e44   Section        5  osal_gpio.o(_section_sram_code_)
    .data                                    0x1fff5e4c   Section        2  main.o(.data)
    .data                                    0x1fff5e50   Section        4  jump_table.o(.data)
    .data                                    0x1fff5e54   Section        4  osal_gpio.o(.data)
    .data                                    0x1fff5e58   Section        8  my_printf.o(.data)
    digits                                   0x1fff5e58   Data           4  my_printf.o(.data)
    upper_digits                             0x1fff5e5c   Data           4  my_printf.o(.data)
    .data                                    0x1fff5e60   Section        2  uart.o(.data)
    m_uart0_even_parity                      0x1fff5e60   Data           1  uart.o(.data)
    m_uart1_even_parity                      0x1fff5e61   Data           1  uart.o(.data)
    .data                                    0x1fff5e64   Section       21  pwrmgr.o(.data)
    mPwrMode                                 0x1fff5e64   Data           1  pwrmgr.o(.data)
    s_pwrmgr_cfg                             0x1fff5e65   Data           1  pwrmgr.o(.data)
    s_config_swClk0                          0x1fff5e68   Data           4  pwrmgr.o(.data)
    __tagsym$$used                           0x1fff5e78   Number         0  pwrmgr.o(.data)
    .data                                    0x1fff5e7c   Section       24  adc.o(.data)
    adc_compare_enable_flag                  0x1fff5e7c   Data           4  adc.o(.data)
    adc_compare_filter_counter               0x1fff5e80   Data           4  adc.o(.data)
    mAdc_init_flg                            0x1fff5e84   Data           1  adc.o(.data)
    adc_cal_read_flag                        0x1fff5e85   Data           1  adc.o(.data)
    adc_cal_postive                          0x1fff5e86   Data           2  adc.o(.data)
    adc_cal_negtive                          0x1fff5e88   Data           2  adc.o(.data)
    high_threshold_flag                      0x1fff5e93   Data           1  adc.o(.data)
    .data                                    0x1fff5e94   Section       12  flash.o(.data)
    s_xflashCtx                              0x1fff5e94   Data           4  flash.o(.data)
    .data                                    0x1fff5ea0   Section        4  system_armcm0.o(.data)
    .data                                    0x1fff5ea4   Section      105  patch.o(.data)
    init_flag                                0x1fff5eac   Data           1  patch.o(.data)
    cusum_array                              0x1fff5ef8   Data           5  patch.o(.data)
    .data                                    0x1fff5f0d   Section        1  phy_sec_ext.o(.data)
    .data                                    0x1fff5f10   Section        8  lib_efuse3.o(.data)
    efuse_inf                                0x1fff5f10   Data           8  lib_efuse3.o(.data)
    .bss                                     0x1fff5f18   Section     6616  main.o(.bss)
    .bss                                     0x1fff78f0   Section      304  gpio.o(.bss)
    m_gpioCtx                                0x1fff78f0   Data         304  gpio.o(.bss)
    .bss                                     0x1fff7a20   Section       64  uart.o(.bss)
    m_uartCtx                                0x1fff7a20   Data          64  uart.o(.bss)
    .bss                                     0x1fff7a60   Section      132  pwrmgr.o(.bss)
    mCtx                                     0x1fff7a60   Data         120  pwrmgr.o(.bss)
    .bss                                     0x1fff7ae4   Section       40  adc.o(.bss)
    mAdc_Ctx                                 0x1fff7ae4   Data          40  adc.o(.bss)
    .bss                                     0x1fff7b0c   Section      908  patch.o(.bss)
    dis_params                               0x1fff7e38   Data          64  patch.o(.bss)
    s_trng_seed                              0x1fff7e78   Data          16  patch.o(.bss)
    s_trng_iv                                0x1fff7e88   Data          16  patch.o(.bss)
    .bss                                     0x1fff7e98   Section       16  phy_sec_ext.o(.bss)
    STACK                                    0x1fff7ea8   Section     1024  startup_armcm0.o(STACK)

    Global Symbols

    Symbol Name                              Value     Ov Type        Size  Object(Section)

    BuildAttributes$$THM_ISAv3M$S$PE$A:L22$X:L11$S22$IEEE1$IW$USESV6$~STKCKD$USESV7$~SHL$OTIME$ROPI$EBA8$MICROLIB$REQ8$PRES8$EABIv2 0x00000000   Number         0  anon$$obj.o ABSOLUTE
    __ARM_use_no_argv                        0x00000000   Number         0  main.o ABSOLUTE
    __cpp_initialize__aeabi_                  - Undefined Weak Reference
    __cxa_finalize                            - Undefined Weak Reference
    _clock_init                               - Undefined Weak Reference
    _microlib_exit                            - Undefined Weak Reference
    __Vectors_Size                           0x000000c0   Number         0  startup_armcm0.o ABSOLUTE
    bx_to_application                        0x000000d5   Thumb Code     0  bb_rom_sym_m0.txt ABSOLUTE
    P256_mul64                               0x000001f9   Thumb Code     0  bb_rom_sym_m0.txt ABSOLUTE
    P256_mul128                              0x0000029d   Thumb Code     0  bb_rom_sym_m0.txt ABSOLUTE
    P256_mulmod                              0x0000032d   Thumb Code     0  bb_rom_sym_m0.txt ABSOLUTE
    P256_sqr64                               0x00000567   Thumb Code     0  bb_rom_sym_m0.txt ABSOLUTE
    P256_sqr128                              0x000005c5   Thumb Code     0  bb_rom_sym_m0.txt ABSOLUTE
    P256_sqrmod                              0x00000641   Thumb Code     0  bb_rom_sym_m0.txt ABSOLUTE
    P256_addmod                              0x00000735   Thumb Code     0  bb_rom_sym_m0.txt ABSOLUTE
    P256_submod                              0x00000791   Thumb Code     0  bb_rom_sym_m0.txt ABSOLUTE
    P256_load_1                              0x000007c3   Thumb Code     0  bb_rom_sym_m0.txt ABSOLUTE
    P256_to_montgomery                       0x000007d7   Thumb Code     0  bb_rom_sym_m0.txt ABSOLUTE
    P256_from_montgomery                     0x00000801   Thumb Code     0  bb_rom_sym_m0.txt ABSOLUTE
    P256_point_is_on_curve                   0x0000081b   Thumb Code     0  bb_rom_sym_m0.txt ABSOLUTE
    P256_greater_or_equal_than               0x0000086d   Thumb Code     0  bb_rom_sym_m0.txt ABSOLUTE
    P256_negate_mod_m_if                     0x00000887   Thumb Code     0  bb_rom_sym_m0.txt ABSOLUTE
    P256_copy32                              0x000008a9   Thumb Code     0  bb_rom_sym_m0.txt ABSOLUTE
    P256_copy32_unaligned                    0x000008b5   Thumb Code     0  bb_rom_sym_m0.txt ABSOLUTE
    P256_select                              0x000008c7   Thumb Code     0  bb_rom_sym_m0.txt ABSOLUTE
    P256_double_j                            0x00000927   Thumb Code     0  bb_rom_sym_m0.txt ABSOLUTE
    P256_add_j                               0x0000092b   Thumb Code     0  bb_rom_sym_m0.txt ABSOLUTE
    P256_div2mod                             0x00000983   Thumb Code     0  bb_rom_sym_m0.txt ABSOLUTE
    P256_interpreter                         0x000009e9   Thumb Code     0  bb_rom_sym_m0.txt ABSOLUTE
    P256_sqrmod_many_and_mulmod              0x00000a4d   Thumb Code     0  bb_rom_sym_m0.txt ABSOLUTE
    P256_modinv                              0x00000a6d   Thumb Code     0  bb_rom_sym_m0.txt ABSOLUTE
    P256_jacobian_to_affine                  0x00000af7   Thumb Code     0  bb_rom_sym_m0.txt ABSOLUTE
    P256_abs_int                             0x00000b33   Thumb Code     0  bb_rom_sym_m0.txt ABSOLUTE
    P256_pointmult                           0x00000b41   Thumb Code     0  bb_rom_sym_m0.txt ABSOLUTE
    P256_ecdh_keygen                         0x00000d03   Thumb Code     0  bb_rom_sym_m0.txt ABSOLUTE
    P256_ecdh_shared_secret                  0x00000d0b   Thumb Code     0  bb_rom_sym_m0.txt ABSOLUTE
    __aeabi_uidiv                            0x00000e09   Thumb Code     0  bb_rom_sym_m0.txt ABSOLUTE
    __aeabi_uidivmod                         0x00000e09   Thumb Code     0  bb_rom_sym_m0.txt ABSOLUTE
    __aeabi_idiv                             0x00000e35   Thumb Code     0  bb_rom_sym_m0.txt ABSOLUTE
    __aeabi_idivmod                          0x00000e35   Thumb Code     0  bb_rom_sym_m0.txt ABSOLUTE
    __aeabi_memcpy                           0x00000e81   Thumb Code     0  bb_rom_sym_m0.txt ABSOLUTE
    __aeabi_memcpy4                          0x00000e81   Thumb Code     0  bb_rom_sym_m0.txt ABSOLUTE
    __aeabi_memcpy8                          0x00000e81   Thumb Code     0  bb_rom_sym_m0.txt ABSOLUTE
    __aeabi_memset                           0x00000ea5   Thumb Code     0  bb_rom_sym_m0.txt ABSOLUTE
    __aeabi_memset4                          0x00000ea5   Thumb Code     0  bb_rom_sym_m0.txt ABSOLUTE
    __aeabi_memset8                          0x00000ea5   Thumb Code     0  bb_rom_sym_m0.txt ABSOLUTE
    __aeabi_memclr                           0x00000eb3   Thumb Code     0  bb_rom_sym_m0.txt ABSOLUTE
    __aeabi_memclr4                          0x00000eb3   Thumb Code     0  bb_rom_sym_m0.txt ABSOLUTE
    __aeabi_memclr8                          0x00000eb3   Thumb Code     0  bb_rom_sym_m0.txt ABSOLUTE
    memset                                   0x00000eb7   Thumb Code     0  bb_rom_sym_m0.txt ABSOLUTE
    strlen                                   0x00000ec9   Thumb Code     0  bb_rom_sym_m0.txt ABSOLUTE
    strcmp                                   0x00000ed7   Thumb Code     0  bb_rom_sym_m0.txt ABSOLUTE
    memcmp                                   0x00000ef3   Thumb Code     0  bb_rom_sym_m0.txt ABSOLUTE
    strncmp                                  0x00000f0d   Thumb Code     0  bb_rom_sym_m0.txt ABSOLUTE
    strtok                                   0x00000f2d   Thumb Code     0  bb_rom_sym_m0.txt ABSOLUTE
    __aeabi_uread4                           0x00000f75   Thumb Code     0  bb_rom_sym_m0.txt ABSOLUTE
    __rt_uread4                              0x00000f75   Thumb Code     0  bb_rom_sym_m0.txt ABSOLUTE
    _uread4                                  0x00000f75   Thumb Code     0  bb_rom_sym_m0.txt ABSOLUTE
    strtoul                                  0x00000f89   Thumb Code     0  bb_rom_sym_m0.txt ABSOLUTE
    __rt_ctype_table                         0x00001001   Thumb Code     0  bb_rom_sym_m0.txt ABSOLUTE
    _strtoul                                 0x00001009   Thumb Code     0  bb_rom_sym_m0.txt ABSOLUTE
    GPIO_IRQHandler                          0x0000112d   Thumb Code     0  bb_rom_sym_m0.txt ABSOLUTE
    HCI_CommandCompleteEvent                 0x00001175   Thumb Code     0  bb_rom_sym_m0.txt ABSOLUTE
    HCI_CommandStatusEvent                   0x000011fd   Thumb Code     0  bb_rom_sym_m0.txt ABSOLUTE
    HCI_DataBufferOverflowEvent              0x00001251   Thumb Code     0  bb_rom_sym_m0.txt ABSOLUTE
    HCI_DisconnectCmd                        0x0000128d   Thumb Code     0  bb_rom_sym_m0.txt ABSOLUTE
    HCI_EXT_AdvEventNoticeCmd                0x000012a1   Thumb Code     0  bb_rom_sym_m0.txt ABSOLUTE
    HCI_EXT_BuildRevisionCmd                 0x000012a9   Thumb Code     0  bb_rom_sym_m0.txt ABSOLUTE
    HCI_EXT_ClkDivOnHaltCmd                  0x000012e5   Thumb Code     0  bb_rom_sym_m0.txt ABSOLUTE
    HCI_EXT_ConnEventNoticeCmd               0x0000130d   Thumb Code     0  bb_rom_sym_m0.txt ABSOLUTE
    HCI_EXT_DeclareNvUsageCmd                0x00001315   Thumb Code     0  bb_rom_sym_m0.txt ABSOLUTE
    HCI_EXT_DecryptCmd                       0x00001339   Thumb Code     0  bb_rom_sym_m0.txt ABSOLUTE
    HCI_EXT_DelaySleepCmd                    0x0000137d   Thumb Code     0  bb_rom_sym_m0.txt ABSOLUTE
    HCI_EXT_DisconnectImmedCmd               0x000013a5   Thumb Code     0  bb_rom_sym_m0.txt ABSOLUTE
    HCI_EXT_EnablePTMCmd                     0x000013cd   Thumb Code     0  bb_rom_sym_m0.txt ABSOLUTE
    HCI_EXT_EndModemTestCmd                  0x000013e1   Thumb Code     0  bb_rom_sym_m0.txt ABSOLUTE
    HCI_EXT_HaltDuringRfCmd                  0x00001409   Thumb Code     0  bb_rom_sym_m0.txt ABSOLUTE
    HCI_EXT_ModemHopTestTxCmd                0x00001431   Thumb Code     0  bb_rom_sym_m0.txt ABSOLUTE
    HCI_EXT_ModemTestRxCmd                   0x00001459   Thumb Code     0  bb_rom_sym_m0.txt ABSOLUTE
    HCI_EXT_ModemTestTxCmd                   0x00001481   Thumb Code     0  bb_rom_sym_m0.txt ABSOLUTE
    HCI_EXT_NumComplPktsLimitCmd             0x000014a5   Thumb Code     0  bb_rom_sym_m0.txt ABSOLUTE
    HCI_EXT_OnePktPerEvtCmd                  0x000014c9   Thumb Code     0  bb_rom_sym_m0.txt ABSOLUTE
    HCI_EXT_OverlappedProcessingCmd          0x000014f5   Thumb Code     0  bb_rom_sym_m0.txt ABSOLUTE
    HCI_EXT_PERbyChanCmd                     0x0000151d   Thumb Code     0  bb_rom_sym_m0.txt ABSOLUTE
    HCI_EXT_PacketErrorRateCmd               0x00001541   Thumb Code     0  bb_rom_sym_m0.txt ABSOLUTE
    HCI_EXT_ResetSystemCmd                   0x00001575   Thumb Code     0  bb_rom_sym_m0.txt ABSOLUTE
    HCI_EXT_SaveFreqTuneCmd                  0x0000159d   Thumb Code     0  bb_rom_sym_m0.txt ABSOLUTE
    HCI_EXT_SetBDADDRCmd                     0x000015c5   Thumb Code     0  bb_rom_sym_m0.txt ABSOLUTE
    HCI_EXT_SetFastTxResponseTimeCmd         0x00001601   Thumb Code     0  bb_rom_sym_m0.txt ABSOLUTE
    HCI_EXT_SetFreqTuneCmd                   0x00001629   Thumb Code     0  bb_rom_sym_m0.txt ABSOLUTE
    HCI_EXT_SetLocalSupportedFeaturesCmd     0x00001651   Thumb Code     0  bb_rom_sym_m0.txt ABSOLUTE
    HCI_EXT_SetMaxDtmTxPowerCmd              0x00001679   Thumb Code     0  bb_rom_sym_m0.txt ABSOLUTE
    HCI_EXT_SetRxGainCmd                     0x000016a1   Thumb Code     0  bb_rom_sym_m0.txt ABSOLUTE
    HCI_EXT_SetSCACmd                        0x000016d1   Thumb Code     0  bb_rom_sym_m0.txt ABSOLUTE
    HCI_EXT_SetSlaveLatencyOverrideCmd       0x000016f9   Thumb Code     0  bb_rom_sym_m0.txt ABSOLUTE
    HCI_EXT_SetTxPowerCmd                    0x00001721   Thumb Code     0  bb_rom_sym_m0.txt ABSOLUTE
    HCI_ExtTaskRegister                      0x00001751   Thumb Code     0  bb_rom_sym_m0.txt ABSOLUTE
    HCI_GAPTaskRegister                      0x0000175d   Thumb Code     0  bb_rom_sym_m0.txt ABSOLUTE
    HCI_HardwareErrorEvent                   0x00001769   Thumb Code     0  bb_rom_sym_m0.txt ABSOLUTE
    HCI_HostBufferSizeCmd                    0x000017b1   Thumb Code     0  bb_rom_sym_m0.txt ABSOLUTE
    HCI_HostNumCompletedPktCmd               0x000017e1   Thumb Code     0  bb_rom_sym_m0.txt ABSOLUTE
    HCI_Init                                 0x0000183d   Thumb Code     0  bb_rom_sym_m0.txt ABSOLUTE
    HCI_L2CAPTaskRegister                    0x00001879   Thumb Code     0  bb_rom_sym_m0.txt ABSOLUTE
    HCI_LE_AddDevToResolvingListCmd          0x000018a1   Thumb Code     0  bb_rom_sym_m0.txt ABSOLUTE
    HCI_LE_AddWhiteListCmd                   0x000018bd   Thumb Code     0  bb_rom_sym_m0.txt ABSOLUTE
    HCI_LE_ClearResolvingListCmd             0x00001919   Thumb Code     0  bb_rom_sym_m0.txt ABSOLUTE
    HCI_LE_ClearWhiteListCmd                 0x00001935   Thumb Code     0  bb_rom_sym_m0.txt ABSOLUTE
    HCI_LE_Connection_CTE_Request_EnableCmd  0x0000196d   Thumb Code     0  bb_rom_sym_m0.txt ABSOLUTE
    HCI_LE_Connection_CTE_Response_EnableCmd 0x00001999   Thumb Code     0  bb_rom_sym_m0.txt ABSOLUTE
    HCI_LE_ConnectionlessCTE_TransmitEnableCmd 0x000019c1   Thumb Code     0  bb_rom_sym_m0.txt ABSOLUTE
    HCI_LE_ConnectionlessCTE_TransmitParamCmd 0x000019dd   Thumb Code     0  bb_rom_sym_m0.txt ABSOLUTE
    HCI_LE_ConnectionlessIQ_SampleEnableCmd  0x00001a01   Thumb Code     0  bb_rom_sym_m0.txt ABSOLUTE
    HCI_LE_CreateConnCancelCmd               0x00001a31   Thumb Code     0  bb_rom_sym_m0.txt ABSOLUTE
    HCI_LE_CreateConnCmd                     0x00001a4d   Thumb Code     0  bb_rom_sym_m0.txt ABSOLUTE
    HCI_LE_EncryptCmd                        0x00001a89   Thumb Code     0  bb_rom_sym_m0.txt ABSOLUTE
    HCI_LE_PeriodicAdvertisingCreateSyncCancelCmd 0x00001b59   Thumb Code     0  bb_rom_sym_m0.txt ABSOLUTE
    HCI_LE_PeriodicAdvertisingCreateSyncCmd  0x00001b75   Thumb Code     0  bb_rom_sym_m0.txt ABSOLUTE
    HCI_LE_PeriodicAdvertisingTerminateSyncCmd 0x00001b9d   Thumb Code     0  bb_rom_sym_m0.txt ABSOLUTE
    HCI_LE_READ_Anatenna_InfoCmd             0x00001bb9   Thumb Code     0  bb_rom_sym_m0.txt ABSOLUTE
    HCI_LE_RandCmd                           0x00001bd9   Thumb Code     0  bb_rom_sym_m0.txt ABSOLUTE
    HCI_LE_ReadAdvChanTxPowerCmd             0x00001c09   Thumb Code     0  bb_rom_sym_m0.txt ABSOLUTE
    HCI_LE_ReadBufSizeCmd                    0x00001c29   Thumb Code     0  bb_rom_sym_m0.txt ABSOLUTE
    HCI_LE_ReadChannelMapCmd                 0x00001c4d   Thumb Code     0  bb_rom_sym_m0.txt ABSOLUTE
    HCI_LE_ReadLocalSupportedFeaturesCmd     0x00001c99   Thumb Code     0  bb_rom_sym_m0.txt ABSOLUTE
    HCI_LE_ReadMaxDataLengthCmd              0x00001cb9   Thumb Code     0  bb_rom_sym_m0.txt ABSOLUTE
    HCI_LE_ReadPhyMode                       0x00001d71   Thumb Code     0  bb_rom_sym_m0.txt ABSOLUTE
    HCI_LE_ReadRemoteUsedFeaturesCmd         0x00001db1   Thumb Code     0  bb_rom_sym_m0.txt ABSOLUTE
    HCI_LE_ReadResolvingListSizeCmd          0x00001dc5   Thumb Code     0  bb_rom_sym_m0.txt ABSOLUTE
    HCI_LE_ReadSuggestedDefaultDataLengthCmd 0x00001de5   Thumb Code     0  bb_rom_sym_m0.txt ABSOLUTE
    HCI_LE_ReadSupportedStatesCmd            0x00001e15   Thumb Code     0  bb_rom_sym_m0.txt ABSOLUTE
    HCI_LE_ReadWhiteListSizeCmd              0x00001e3d   Thumb Code     0  bb_rom_sym_m0.txt ABSOLUTE
    HCI_LE_ReceiverTestCmd                   0x00001e9d   Thumb Code     0  bb_rom_sym_m0.txt ABSOLUTE
    HCI_LE_RemoveResolvingListCmd            0x00001ee9   Thumb Code     0  bb_rom_sym_m0.txt ABSOLUTE
    HCI_LE_RemoveWhiteListCmd                0x00001f0d   Thumb Code     0  bb_rom_sym_m0.txt ABSOLUTE
    HCI_LE_SetAddressResolutionEnableCmd     0x00001f31   Thumb Code     0  bb_rom_sym_m0.txt ABSOLUTE
    HCI_LE_SetAdvDataCmd                     0x00001f4d   Thumb Code     0  bb_rom_sym_m0.txt ABSOLUTE
    HCI_LE_SetAdvEnableCmd                   0x00001f69   Thumb Code     0  bb_rom_sym_m0.txt ABSOLUTE
    HCI_LE_SetAdvParamCmd                    0x00001f85   Thumb Code     0  bb_rom_sym_m0.txt ABSOLUTE
    HCI_LE_SetDataLengthCmd                  0x00001fb1   Thumb Code     0  bb_rom_sym_m0.txt ABSOLUTE
    HCI_LE_SetDefaultPhyMode                 0x00001fd9   Thumb Code     0  bb_rom_sym_m0.txt ABSOLUTE
    HCI_LE_SetEventMaskCmd                   0x00001ff5   Thumb Code     0  bb_rom_sym_m0.txt ABSOLUTE
    HCI_LE_SetPeriodicAdvDataCmd             0x00002159   Thumb Code     0  bb_rom_sym_m0.txt ABSOLUTE
    HCI_LE_SetPeriodicAdvEnableCmd           0x00002175   Thumb Code     0  bb_rom_sym_m0.txt ABSOLUTE
    HCI_LE_SetPeriodicAdvParameterCmd        0x00002191   Thumb Code     0  bb_rom_sym_m0.txt ABSOLUTE
    HCI_LE_SetPhyMode                        0x000021ad   Thumb Code     0  bb_rom_sym_m0.txt ABSOLUTE
    HCI_LE_SetResolvablePrivateAddressTimeoutCmd 0x000021e9   Thumb Code     0  bb_rom_sym_m0.txt ABSOLUTE
    HCI_LE_SetScanEnableCmd                  0x00002219   Thumb Code     0  bb_rom_sym_m0.txt ABSOLUTE
    HCI_LE_SetScanParamCmd                   0x00002235   Thumb Code     0  bb_rom_sym_m0.txt ABSOLUTE
    HCI_LE_SetScanRspDataCmd                 0x00002255   Thumb Code     0  bb_rom_sym_m0.txt ABSOLUTE
    HCI_LE_Set_ConnectionCTE_ReceiveParamCmd 0x00002271   Thumb Code     0  bb_rom_sym_m0.txt ABSOLUTE
    HCI_LE_Set_ConnectionCTE_TransmitParamCmd 0x0000229d   Thumb Code     0  bb_rom_sym_m0.txt ABSOLUTE
    HCI_LE_StartEncyptCmd                    0x000022e1   Thumb Code     0  bb_rom_sym_m0.txt ABSOLUTE
    HCI_LE_TestEndCmd                        0x000022f5   Thumb Code     0  bb_rom_sym_m0.txt ABSOLUTE
    HCI_LE_TransmitterTestCmd                0x0000231d   Thumb Code     0  bb_rom_sym_m0.txt ABSOLUTE
    HCI_LE_WriteSuggestedDefaultDataLengthCmd 0x00002339   Thumb Code     0  bb_rom_sym_m0.txt ABSOLUTE
    HCI_NumOfCompletedPacketsEvent           0x00002371   Thumb Code     0  bb_rom_sym_m0.txt ABSOLUTE
    HCI_PPLUS_AdvEventDoneNoticeCmd          0x00002401   Thumb Code     0  bb_rom_sym_m0.txt ABSOLUTE
    HCI_PPLUS_ConnEventDoneNoticeCmd         0x00002421   Thumb Code     0  bb_rom_sym_m0.txt ABSOLUTE
    HCI_PPLUS_DateLengthChangedNoticeCmd     0x00002461   Thumb Code     0  bb_rom_sym_m0.txt ABSOLUTE
    HCI_PPLUS_ExtendTRXCmd                   0x000024a1   Thumb Code     0  bb_rom_sym_m0.txt ABSOLUTE
    HCI_PPLUS_PhyUpdateNoticeCmd             0x000024bd   Thumb Code     0  bb_rom_sym_m0.txt ABSOLUTE
    HCI_ProcessEvent                         0x000024fd   Thumb Code     0  bb_rom_sym_m0.txt ABSOLUTE
    HCI_ReadBDADDRCmd                        0x00002551   Thumb Code     0  bb_rom_sym_m0.txt ABSOLUTE
    HCI_ReadLocalSupportedCommandsCmd        0x00002571   Thumb Code     0  bb_rom_sym_m0.txt ABSOLUTE
    HCI_ReadLocalSupportedFeaturesCmd        0x00002589   Thumb Code     0  bb_rom_sym_m0.txt ABSOLUTE
    HCI_ReadLocalVersionInfoCmd              0x000025ad   Thumb Code     0  bb_rom_sym_m0.txt ABSOLUTE
    HCI_ReadRemoteVersionInfoCmd             0x000025f5   Thumb Code     0  bb_rom_sym_m0.txt ABSOLUTE
    HCI_ReadRssiCmd                          0x00002625   Thumb Code     0  bb_rom_sym_m0.txt ABSOLUTE
    HCI_ReadTransmitPowerLevelCmd            0x00002651   Thumb Code     0  bb_rom_sym_m0.txt ABSOLUTE
    HCI_ResetCmd                             0x0000267d   Thumb Code     0  bb_rom_sym_m0.txt ABSOLUTE
    HCI_ReverseBytes                         0x000026a9   Thumb Code     0  bb_rom_sym_m0.txt ABSOLUTE
    HCI_SMPTaskRegister                      0x000026c9   Thumb Code     0  bb_rom_sym_m0.txt ABSOLUTE
    HCI_SendCommandCompleteEvent             0x000026d5   Thumb Code     0  bb_rom_sym_m0.txt ABSOLUTE
    HCI_SendCommandStatusEvent               0x0000277d   Thumb Code     0  bb_rom_sym_m0.txt ABSOLUTE
    HCI_SendControllerToHostEvent            0x0000279d   Thumb Code     0  bb_rom_sym_m0.txt ABSOLUTE
    HCI_SendDataPkt                          0x000027e9   Thumb Code     0  bb_rom_sym_m0.txt ABSOLUTE
    HCI_SetControllerToHostFlowCtrlCmd       0x00002819   Thumb Code     0  bb_rom_sym_m0.txt ABSOLUTE
    HCI_SetEventMaskCmd                      0x0000285d   Thumb Code     0  bb_rom_sym_m0.txt ABSOLUTE
    HCI_TestAppTaskRegister                  0x0000288d   Thumb Code     0  bb_rom_sym_m0.txt ABSOLUTE
    HCI_ValidConnTimeParams                  0x00002899   Thumb Code     0  bb_rom_sym_m0.txt ABSOLUTE
    HCI_VendorSpecifcCommandCompleteEvent    0x000028d9   Thumb Code     0  bb_rom_sym_m0.txt ABSOLUTE
    HCI_bm_alloc                             0x000028e9   Thumb Code     0  bb_rom_sym_m0.txt ABSOLUTE
    HardFault_Handler                        0x000028f1   Thumb Code     0  bb_rom_sym_m0.txt ABSOLUTE
    HardFault_IRQHandler                     0x00002909   Thumb Code     0  bb_rom_sym_m0.txt ABSOLUTE
    LL_AddResolvingListLDevice               0x000029dd   Thumb Code     0  bb_rom_sym_m0.txt ABSOLUTE
    LL_AddWhiteListDevice                    0x00002a95   Thumb Code     0  bb_rom_sym_m0.txt ABSOLUTE
    LL_AdvReportCback                        0x00002b11   Thumb Code     0  bb_rom_sym_m0.txt ABSOLUTE
    LL_CTE_Report_FailedCback                0x00002ca1   Thumb Code     0  bb_rom_sym_m0.txt ABSOLUTE
    LL_ChanMapUpdate                         0x00002d0d   Thumb Code     0  bb_rom_sym_m0.txt ABSOLUTE
    LL_ClearResolvingList                    0x00002f41   Thumb Code     0  bb_rom_sym_m0.txt ABSOLUTE
    LL_ClearWhiteList                        0x00002fbd   Thumb Code     0  bb_rom_sym_m0.txt ABSOLUTE
    LL_ConnActive                            0x00003011   Thumb Code     0  bb_rom_sym_m0.txt ABSOLUTE
    LL_ConnParamUpdateCback                  0x00003039   Thumb Code     0  bb_rom_sym_m0.txt ABSOLUTE
    LL_ConnUpdate                            0x000030e5   Thumb Code     0  bb_rom_sym_m0.txt ABSOLUTE
    LL_ConnectionCompleteCback               0x000031b9   Thumb Code     0  bb_rom_sym_m0.txt ABSOLUTE
    LL_ConnectionIQReportCback               0x000032d5   Thumb Code     0  bb_rom_sym_m0.txt ABSOLUTE
    LL_Connection_CTE_Request_Enable         0x000033e5   Thumb Code     0  bb_rom_sym_m0.txt ABSOLUTE
    LL_Connection_CTE_Response_Enable        0x00003499   Thumb Code     0  bb_rom_sym_m0.txt ABSOLUTE
    LL_ConnectionlessCTE_TransmitEnable      0x00003505   Thumb Code     0  bb_rom_sym_m0.txt ABSOLUTE
    LL_ConnectionlessCTE_TransmitParam       0x000035e5   Thumb Code     0  bb_rom_sym_m0.txt ABSOLUTE
    LL_ConnectionlessIQReportCback           0x000036c1   Thumb Code     0  bb_rom_sym_m0.txt ABSOLUTE
    LL_ConnectionlessIQ_SampleEnable         0x000037c5   Thumb Code     0  bb_rom_sym_m0.txt ABSOLUTE
    LL_CreateConn                            0x00003901   Thumb Code     0  bb_rom_sym_m0.txt ABSOLUTE
    LL_CreateConn0                           0x00003949   Thumb Code     0  bb_rom_sym_m0.txt ABSOLUTE
    LL_CreateConnCancel                      0x00003c91   Thumb Code     0  bb_rom_sym_m0.txt ABSOLUTE
    LL_CreateConnCancel0                     0x00003ca9   Thumb Code     0  bb_rom_sym_m0.txt ABSOLUTE
    LL_CtrlToHostFlowControl                 0x00003d59   Thumb Code     0  bb_rom_sym_m0.txt ABSOLUTE
    LL_DataLengthChangeCback                 0x00003d71   Thumb Code     0  bb_rom_sym_m0.txt ABSOLUTE
    LL_DirectTestEnd                         0x00003e3d   Thumb Code     0  bb_rom_sym_m0.txt ABSOLUTE
    LL_DirectTestTxTest                      0x00003e95   Thumb Code     0  bb_rom_sym_m0.txt ABSOLUTE
    LL_Disconnect                            0x00003eb1   Thumb Code     0  bb_rom_sym_m0.txt ABSOLUTE
    LL_Disconnect0                           0x00003ec9   Thumb Code     0  bb_rom_sym_m0.txt ABSOLUTE
    LL_DisconnectCback                       0x00003f41   Thumb Code     0  bb_rom_sym_m0.txt ABSOLUTE
    LL_ENC_AES128_Encrypt                    0x00003fc5   Thumb Code     0  bb_rom_sym_m0.txt ABSOLUTE
    LL_ENC_AES128_Encrypt0                   0x00003fdd   Thumb Code     0  bb_rom_sym_m0.txt ABSOLUTE
    LL_ENC_Decrypt                           0x000040ed   Thumb Code     0  bb_rom_sym_m0.txt ABSOLUTE
    LL_ENC_Decrypt0                          0x00004105   Thumb Code     0  bb_rom_sym_m0.txt ABSOLUTE
    LL_ENC_Encrypt                           0x00004261   Thumb Code     0  bb_rom_sym_m0.txt ABSOLUTE
    LL_ENC_Encrypt0                          0x00004279   Thumb Code     0  bb_rom_sym_m0.txt ABSOLUTE
    LL_ENC_GenDeviceIV                       0x000043c1   Thumb Code     0  bb_rom_sym_m0.txt ABSOLUTE
    LL_ENC_GenDeviceSKD                      0x000043f1   Thumb Code     0  bb_rom_sym_m0.txt ABSOLUTE
    LL_ENC_GenerateNonce                     0x00004421   Thumb Code     0  bb_rom_sym_m0.txt ABSOLUTE
    LL_ENC_GeneratePseudoRandNum             0x00004459   Thumb Code     0  bb_rom_sym_m0.txt ABSOLUTE
    LL_ENC_GenerateTrueRandNum               0x00004469   Thumb Code     0  bb_rom_sym_m0.txt ABSOLUTE
    LL_ENC_LoadKey                           0x00004489   Thumb Code     0  bb_rom_sym_m0.txt ABSOLUTE
    LL_ENC_ReverseBytes                      0x000044e1   Thumb Code     0  bb_rom_sym_m0.txt ABSOLUTE
    LL_ENC_sm_ah                             0x00004501   Thumb Code     0  bb_rom_sym_m0.txt ABSOLUTE
    LL_EXT_AdvEventNotice                    0x00004543   Thumb Code     0  bb_rom_sym_m0.txt ABSOLUTE
    LL_EXT_BuildRevision                     0x00004547   Thumb Code     0  bb_rom_sym_m0.txt ABSOLUTE
    LL_EXT_ClkDivOnHalt                      0x0000454b   Thumb Code     0  bb_rom_sym_m0.txt ABSOLUTE
    LL_EXT_ConnEventNotice                   0x0000454f   Thumb Code     0  bb_rom_sym_m0.txt ABSOLUTE
    LL_EXT_DeclareNvUsage                    0x00004553   Thumb Code     0  bb_rom_sym_m0.txt ABSOLUTE
    LL_EXT_Decrypt                           0x00004557   Thumb Code     0  bb_rom_sym_m0.txt ABSOLUTE
    LL_EXT_DelaySleep                        0x0000455b   Thumb Code     0  bb_rom_sym_m0.txt ABSOLUTE
    LL_EXT_DisconnectImmed                   0x0000455f   Thumb Code     0  bb_rom_sym_m0.txt ABSOLUTE
    LL_EXT_EndModemTest                      0x00004563   Thumb Code     0  bb_rom_sym_m0.txt ABSOLUTE
    LL_EXT_HaltDuringRf                      0x00004567   Thumb Code     0  bb_rom_sym_m0.txt ABSOLUTE
    LL_EXT_Init_IQ_pBuff                     0x0000456d   Thumb Code     0  bb_rom_sym_m0.txt ABSOLUTE
    LL_EXT_MapPmIoPort                       0x00004581   Thumb Code     0  bb_rom_sym_m0.txt ABSOLUTE
    LL_EXT_ModemHopTestTx                    0x00004585   Thumb Code     0  bb_rom_sym_m0.txt ABSOLUTE
    LL_EXT_ModemTestRx                       0x00004589   Thumb Code     0  bb_rom_sym_m0.txt ABSOLUTE
    LL_EXT_ModemTestTx                       0x0000458d   Thumb Code     0  bb_rom_sym_m0.txt ABSOLUTE
    LL_EXT_NumComplPktsLimit                 0x00004591   Thumb Code     0  bb_rom_sym_m0.txt ABSOLUTE
    LL_EXT_OnePacketPerEvent                 0x000045ad   Thumb Code     0  bb_rom_sym_m0.txt ABSOLUTE
    LL_EXT_OverlappedProcessing              0x000045b1   Thumb Code     0  bb_rom_sym_m0.txt ABSOLUTE
    LL_EXT_PERbyChan                         0x000045b5   Thumb Code     0  bb_rom_sym_m0.txt ABSOLUTE
    LL_EXT_PacketErrorRate                   0x000045b9   Thumb Code     0  bb_rom_sym_m0.txt ABSOLUTE
    LL_EXT_PacketErrorRateCback              0x000045bd   Thumb Code     0  bb_rom_sym_m0.txt ABSOLUTE
    LL_EXT_ResetSystem                       0x000045f9   Thumb Code     0  bb_rom_sym_m0.txt ABSOLUTE
    LL_EXT_SaveFreqTune                      0x000045fd   Thumb Code     0  bb_rom_sym_m0.txt ABSOLUTE
    LL_EXT_SetBDADDR                         0x00004601   Thumb Code     0  bb_rom_sym_m0.txt ABSOLUTE
    LL_EXT_SetFastTxResponseTime             0x00004605   Thumb Code     0  bb_rom_sym_m0.txt ABSOLUTE
    LL_EXT_SetFreqTune                       0x00004609   Thumb Code     0  bb_rom_sym_m0.txt ABSOLUTE
    LL_EXT_SetLocalSupportedFeatures         0x0000460d   Thumb Code     0  bb_rom_sym_m0.txt ABSOLUTE
    LL_EXT_SetMaxDtmTxPower                  0x00004611   Thumb Code     0  bb_rom_sym_m0.txt ABSOLUTE
    LL_EXT_SetRxGain                         0x00004615   Thumb Code     0  bb_rom_sym_m0.txt ABSOLUTE
    LL_EXT_SetRxGainCback                    0x00004619   Thumb Code     0  bb_rom_sym_m0.txt ABSOLUTE
    LL_EXT_SetSCA                            0x00004635   Thumb Code     0  bb_rom_sym_m0.txt ABSOLUTE
    LL_EXT_SetSlaveLatencyOverride           0x00004639   Thumb Code     0  bb_rom_sym_m0.txt ABSOLUTE
    LL_EXT_SetTxPower                        0x0000463d   Thumb Code     0  bb_rom_sym_m0.txt ABSOLUTE
    LL_EXT_SetTxPowerCback                   0x00004679   Thumb Code     0  bb_rom_sym_m0.txt ABSOLUTE
    LL_EncChangeCback                        0x00004699   Thumb Code     0  bb_rom_sym_m0.txt ABSOLUTE
    LL_EncKeyRefreshCback                    0x00004715   Thumb Code     0  bb_rom_sym_m0.txt ABSOLUTE
    LL_EncLtkReqCback                        0x00004831   Thumb Code     0  bb_rom_sym_m0.txt ABSOLUTE
    LL_Encrypt                               0x000048e5   Thumb Code     0  bb_rom_sym_m0.txt ABSOLUTE
    LL_ExtAdvReportCback                     0x00004a8d   Thumb Code     0  bb_rom_sym_m0.txt ABSOLUTE
    LL_IRQHandler                            0x00004e25   Thumb Code     0  bb_rom_sym_m0.txt ABSOLUTE
    LL_Init                                  0x00004eb1   Thumb Code     0  bb_rom_sym_m0.txt ABSOLUTE
    LL_InitExtendedAdv                       0x0000511d   Thumb Code     0  bb_rom_sym_m0.txt ABSOLUTE
    LL_InitExtendedScan                      0x000051b5   Thumb Code     0  bb_rom_sym_m0.txt ABSOLUTE
    LL_InitPeriodicAdv                       0x000051c5   Thumb Code     0  bb_rom_sym_m0.txt ABSOLUTE
    LL_NumEmptyWlEntries                     0x00005291   Thumb Code     0  bb_rom_sym_m0.txt ABSOLUTE
    LL_PLUS_DisableSlaveLatency              0x000052a5   Thumb Code     0  bb_rom_sym_m0.txt ABSOLUTE
    LL_PLUS_EnableSlaveLatency               0x00005435   Thumb Code     0  bb_rom_sym_m0.txt ABSOLUTE
    LL_PLUS_GetAdvDataExtendData             0x0000548d   Thumb Code     0  bb_rom_sym_m0.txt ABSOLUTE
    LL_PLUS_GetScanRequestExtendData         0x00005495   Thumb Code     0  bb_rom_sym_m0.txt ABSOLUTE
    LL_PLUS_GetScanerAddr                    0x000054bd   Thumb Code     0  bb_rom_sym_m0.txt ABSOLUTE
    LL_PLUS_PerStasReadByChn                 0x000054d5   Thumb Code     0  bb_rom_sym_m0.txt ABSOLUTE
    LL_PLUS_PerStatsReset                    0x00005519   Thumb Code     0  bb_rom_sym_m0.txt ABSOLUTE
    LL_PLUS_PerStats_Init                    0x00005535   Thumb Code     0  bb_rom_sym_m0.txt ABSOLUTE
    LL_PLUS_SetAdvDataFilterCB               0x00005545   Thumb Code     0  bb_rom_sym_m0.txt ABSOLUTE
    LL_PLUS_SetScanRequestData               0x00005551   Thumb Code     0  bb_rom_sym_m0.txt ABSOLUTE
    LL_PLUS_SetScanRequestFilterCB           0x00005579   Thumb Code     0  bb_rom_sym_m0.txt ABSOLUTE
    LL_PLUS_SetScanRsqData                   0x00005585   Thumb Code     0  bb_rom_sym_m0.txt ABSOLUTE
    LL_PLUS_SetScanRsqDataByIndex            0x000055b1   Thumb Code     0  bb_rom_sym_m0.txt ABSOLUTE
    LL_PeriodicAdvertisingCreateSync         0x000055bd   Thumb Code     0  bb_rom_sym_m0.txt ABSOLUTE
    LL_PeriodicAdvertisingCreateSyncCancel   0x0000560d   Thumb Code     0  bb_rom_sym_m0.txt ABSOLUTE
    LL_PeriodicAdvertisingTerminateSync      0x00005635   Thumb Code     0  bb_rom_sym_m0.txt ABSOLUTE
    LL_PhyUpdate                             0x00005655   Thumb Code     0  bb_rom_sym_m0.txt ABSOLUTE
    LL_PhyUpdate0                            0x0000566d   Thumb Code     0  bb_rom_sym_m0.txt ABSOLUTE
    LL_PhyUpdateCompleteCback                0x00005725   Thumb Code     0  bb_rom_sym_m0.txt ABSOLUTE
    LL_PrdAdvReportCback                     0x000057c9   Thumb Code     0  bb_rom_sym_m0.txt ABSOLUTE
    LL_PrdAdvSyncEstablishedCback            0x000058b5   Thumb Code     0  bb_rom_sym_m0.txt ABSOLUTE
    LL_PrdAdvSyncLostCback                   0x00005989   Thumb Code     0  bb_rom_sym_m0.txt ABSOLUTE
    LL_ProcessEvent                          0x000059f1   Thumb Code     0  bb_rom_sym_m0.txt ABSOLUTE
    LL_ProcessEvent0                         0x00005a09   Thumb Code     0  bb_rom_sym_m0.txt ABSOLUTE
    LL_PseudoRand                            0x00005dd9   Thumb Code     0  bb_rom_sym_m0.txt ABSOLUTE
    LL_READ_Anatenna_Info                    0x00005ddd   Thumb Code     0  bb_rom_sym_m0.txt ABSOLUTE
    LL_RX_bm_alloc                           0x00005df1   Thumb Code     0  bb_rom_sym_m0.txt ABSOLUTE
    LL_Rand                                  0x00005e05   Thumb Code     0  bb_rom_sym_m0.txt ABSOLUTE
    LL_RandCback                             0x00005e65   Thumb Code     0  bb_rom_sym_m0.txt ABSOLUTE
    LL_ReadAdvChanTxPower                    0x00005e89   Thumb Code     0  bb_rom_sym_m0.txt ABSOLUTE
    LL_ReadBDADDR                            0x00005eb9   Thumb Code     0  bb_rom_sym_m0.txt ABSOLUTE
    LL_ReadCarrSens                          0x00005edd   Thumb Code     0  bb_rom_sym_m0.txt ABSOLUTE
    LL_ReadChanMap                           0x00005ef9   Thumb Code     0  bb_rom_sym_m0.txt ABSOLUTE
    LL_ReadFoff                              0x00005f31   Thumb Code     0  bb_rom_sym_m0.txt ABSOLUTE
    LL_ReadLocalSupportedFeatures            0x00005f71   Thumb Code     0  bb_rom_sym_m0.txt ABSOLUTE
    LL_ReadLocalVersionInfo                  0x00005f8d   Thumb Code     0  bb_rom_sym_m0.txt ABSOLUTE
    LL_ReadRemoteUsedFeatures                0x00006021   Thumb Code     0  bb_rom_sym_m0.txt ABSOLUTE
    LL_ReadRemoteUsedFeaturesCompleteCback   0x00006061   Thumb Code     0  bb_rom_sym_m0.txt ABSOLUTE
    LL_ReadRemoteVersionInfo                 0x000060d5   Thumb Code     0  bb_rom_sym_m0.txt ABSOLUTE
    LL_ReadRemoteVersionInfoCback            0x00006131   Thumb Code     0  bb_rom_sym_m0.txt ABSOLUTE
    LL_ReadResolvingListSize                 0x000061a9   Thumb Code     0  bb_rom_sym_m0.txt ABSOLUTE
    LL_ReadRssi                              0x000061b1   Thumb Code     0  bb_rom_sym_m0.txt ABSOLUTE
    LL_ReadSupportedStates                   0x000061e5   Thumb Code     0  bb_rom_sym_m0.txt ABSOLUTE
    LL_ReadTxPowerLevel                      0x00006269   Thumb Code     0  bb_rom_sym_m0.txt ABSOLUTE
    LL_ReadWlSize                            0x000062e5   Thumb Code     0  bb_rom_sym_m0.txt ABSOLUTE
    LL_RemoveResolvingListDevice             0x000064a5   Thumb Code     0  bb_rom_sym_m0.txt ABSOLUTE
    LL_RemoveWhiteListDevice                 0x00006561   Thumb Code     0  bb_rom_sym_m0.txt ABSOLUTE
    LL_Reset                                 0x000065f1   Thumb Code     0  bb_rom_sym_m0.txt ABSOLUTE
    LL_Reset0                                0x00006609   Thumb Code     0  bb_rom_sym_m0.txt ABSOLUTE
    LL_RxDataCompleteCback                   0x00006791   Thumb Code     0  bb_rom_sym_m0.txt ABSOLUTE
    LL_SetAddressResolutionEnable            0x00006831   Thumb Code     0  bb_rom_sym_m0.txt ABSOLUTE
    LL_SetAdvControl                         0x00006881   Thumb Code     0  bb_rom_sym_m0.txt ABSOLUTE
    LL_SetAdvControl0                        0x00006899   Thumb Code     0  bb_rom_sym_m0.txt ABSOLUTE
    LL_SetAdvData                            0x00006a05   Thumb Code     0  bb_rom_sym_m0.txt ABSOLUTE
    LL_SetAdvParam                           0x00006a6d   Thumb Code     0  bb_rom_sym_m0.txt ABSOLUTE
    LL_SetAdvParam0                          0x00006a9d   Thumb Code     0  bb_rom_sym_m0.txt ABSOLUTE
    LL_SetDataLengh                          0x00006df9   Thumb Code     0  bb_rom_sym_m0.txt ABSOLUTE
    LL_SetDataLengh0                         0x00006e11   Thumb Code     0  bb_rom_sym_m0.txt ABSOLUTE
    LL_SetDefaultPhyMode                     0x00006ead   Thumb Code     0  bb_rom_sym_m0.txt ABSOLUTE
    LL_SetPeriodicAdvData                    0x0000751d   Thumb Code     0  bb_rom_sym_m0.txt ABSOLUTE
    LL_SetPeriodicAdvEnable                  0x000075cd   Thumb Code     0  bb_rom_sym_m0.txt ABSOLUTE
    LL_SetPeriodicAdvParameter               0x00007715   Thumb Code     0  bb_rom_sym_m0.txt ABSOLUTE
    LL_SetPhyMode                            0x000077e1   Thumb Code     0  bb_rom_sym_m0.txt ABSOLUTE
    LL_SetPhyMode0                           0x000077fd   Thumb Code     0  bb_rom_sym_m0.txt ABSOLUTE
    LL_SetResolvablePrivateAddressTimeout    0x00007929   Thumb Code     0  bb_rom_sym_m0.txt ABSOLUTE
    LL_SetScanControl                        0x00007935   Thumb Code     0  bb_rom_sym_m0.txt ABSOLUTE
    LL_SetScanControl0                       0x0000794d   Thumb Code     0  bb_rom_sym_m0.txt ABSOLUTE
    LL_SetScanParam                          0x00007a59   Thumb Code     0  bb_rom_sym_m0.txt ABSOLUTE
    LL_SetScanParam0                         0x00007a75   Thumb Code     0  bb_rom_sym_m0.txt ABSOLUTE
    LL_SetScanRspData                        0x00007b15   Thumb Code     0  bb_rom_sym_m0.txt ABSOLUTE
    LL_SetTxPowerLevel                       0x00007b65   Thumb Code     0  bb_rom_sym_m0.txt ABSOLUTE
    LL_Set_ConnectionCTE_ReceiveParam        0x00007b91   Thumb Code     0  bb_rom_sym_m0.txt ABSOLUTE
    LL_Set_ConnectionCTE_TransmitParam       0x00007c99   Thumb Code     0  bb_rom_sym_m0.txt ABSOLUTE
    LL_StartEncrypt                          0x00007e01   Thumb Code     0  bb_rom_sym_m0.txt ABSOLUTE
    LL_TX_bm_alloc                           0x00007f01   Thumb Code     0  bb_rom_sym_m0.txt ABSOLUTE
    LL_TxData                                0x00007f1d   Thumb Code     0  bb_rom_sym_m0.txt ABSOLUTE
    LL_TxData0                               0x00007f35   Thumb Code     0  bb_rom_sym_m0.txt ABSOLUTE
    LL_WriteSuggestedDefaultDataLength       0x00007fb9   Thumb Code     0  bb_rom_sym_m0.txt ABSOLUTE
    LL_evt_schedule                          0x00007ff9   Thumb Code     0  bb_rom_sym_m0.txt ABSOLUTE
    LL_master_conn_event                     0x000080bd   Thumb Code     0  bb_rom_sym_m0.txt ABSOLUTE
    LL_master_conn_event0                    0x000080d5   Thumb Code     0  bb_rom_sym_m0.txt ABSOLUTE
    LL_prdAdvTimerExpProcess                 0x0000826d   Thumb Code     0  bb_rom_sym_m0.txt ABSOLUTE
    LL_prdScanTimerExpProcess                0x00008271   Thumb Code     0  bb_rom_sym_m0.txt ABSOLUTE
    LL_set_default_conn_params               0x00008275   Thumb Code     0  bb_rom_sym_m0.txt ABSOLUTE
    LL_set_default_conn_params0              0x0000828d   Thumb Code     0  bb_rom_sym_m0.txt ABSOLUTE
    LL_slave_conn_event                      0x000082b9   Thumb Code     0  bb_rom_sym_m0.txt ABSOLUTE
    LL_slave_conn_event0                     0x000082d1   Thumb Code     0  bb_rom_sym_m0.txt ABSOLUTE
    NMI_Handler                              0x00008481   Thumb Code     0  bb_rom_sym_m0.txt ABSOLUTE
    PendSV_Handler                           0x000084cd   Thumb Code     0  bb_rom_sym_m0.txt ABSOLUTE
    TIM1_IRQHandler                          0x00008545   Thumb Code     0  bb_rom_sym_m0.txt ABSOLUTE
    WaitRTCCount                             0x00008901   Thumb Code     0  bb_rom_sym_m0.txt ABSOLUTE
    __ARM_common_switch8                     0x00008961   Thumb Code     0  bb_rom_sym_m0.txt ABSOLUTE
    _spif_read_status_reg                    0x0000961d   Thumb Code     0  bb_rom_sym_m0.txt ABSOLUTE
    _spif_wait_nobusy                        0x00009645   Thumb Code     0  bb_rom_sym_m0.txt ABSOLUTE
    app_sleep_process                        0x00009769   Thumb Code     0  bb_rom_sym_m0.txt ABSOLUTE
    app_wakeup_process                       0x00009779   Thumb Code     0  bb_rom_sym_m0.txt ABSOLUTE
    ate_fun_test                             0x00009789   Thumb Code     0  bb_rom_sym_m0.txt ABSOLUTE
    ate_sleep_process                        0x00009d11   Thumb Code     0  bb_rom_sym_m0.txt ABSOLUTE
    ate_wakeup_process                       0x0000a121   Thumb Code     0  bb_rom_sym_m0.txt ABSOLUTE
    bit_to_byte                              0x0000a1e9   Thumb Code     0  bb_rom_sym_m0.txt ABSOLUTE
    ble_crc24_gen                            0x0000a201   Thumb Code     0  bb_rom_sym_m0.txt ABSOLUTE
    boot_init                                0x0000a361   Thumb Code     0  bb_rom_sym_m0.txt ABSOLUTE
    boot_init0                               0x0000a379   Thumb Code     0  bb_rom_sym_m0.txt ABSOLUTE
    boot_m0                                  0x0000a3c1   Thumb Code     0  bb_rom_sym_m0.txt ABSOLUTE
    byte_to_bit                              0x0000a535   Thumb Code     0  bb_rom_sym_m0.txt ABSOLUTE
    calculate_whiten_seed                    0x0000a549   Thumb Code     0  bb_rom_sym_m0.txt ABSOLUTE
    clear_timer                              0x0000a5c1   Thumb Code     0  bb_rom_sym_m0.txt ABSOLUTE
    clear_timer_int                          0x0000a5cb   Thumb Code     0  bb_rom_sym_m0.txt ABSOLUTE
    clk_get_pclk                             0x0000a5d1   Thumb Code     0  bb_rom_sym_m0.txt ABSOLUTE
    clk_set_pclk_div                         0x0000a681   Thumb Code     0  bb_rom_sym_m0.txt ABSOLUTE
    clk_spif_ref_clk                         0x0000a6a1   Thumb Code     0  bb_rom_sym_m0.txt ABSOLUTE
    config_RTC                               0x0000a6f9   Thumb Code     0  bb_rom_sym_m0.txt ABSOLUTE
    config_RTC0                              0x0000a711   Thumb Code     0  bb_rom_sym_m0.txt ABSOLUTE
    rom_crc16                                0x0000a755   Thumb Code     0  bb_rom_sym_m0.txt ABSOLUTE
    debug_print                              0x0000a791   Thumb Code     0  bb_rom_sym_m0.txt ABSOLUTE
    disableSleep                             0x0000a921   Thumb Code     0  bb_rom_sym_m0.txt ABSOLUTE
    drv_disable_irq                          0x0000a975   Thumb Code     0  bb_rom_sym_m0.txt ABSOLUTE
    drv_enable_irq                           0x0000a99d   Thumb Code     0  bb_rom_sym_m0.txt ABSOLUTE
    drv_irq_init                             0x0000a9c9   Thumb Code     0  bb_rom_sym_m0.txt ABSOLUTE
    dwc_connect                              0x0000a9fd   Thumb Code     0  bb_rom_sym_m0.txt ABSOLUTE
    dwc_data_process                         0x0000aa35   Thumb Code     0  bb_rom_sym_m0.txt ABSOLUTE
    dwc_loop                                 0x0000abd1   Thumb Code     0  bb_rom_sym_m0.txt ABSOLUTE
    efuse_read                               0x0000ace1   Thumb Code     0  bb_rom_sym_m0.txt ABSOLUTE
    enableSleep                              0x0000aead   Thumb Code     0  bb_rom_sym_m0.txt ABSOLUTE
    enterSleepProcess                        0x0000aeb9   Thumb Code     0  bb_rom_sym_m0.txt ABSOLUTE
    enterSleepProcess0                       0x0000aed1   Thumb Code     0  bb_rom_sym_m0.txt ABSOLUTE
    enter_sleep_off_mode                     0x0000afa1   Thumb Code     0  bb_rom_sym_m0.txt ABSOLUTE
    enter_sleep_off_mode0                    0x0000afb9   Thumb Code     0  bb_rom_sym_m0.txt ABSOLUTE
    getMcuPrecisionCount                     0x0000afe9   Thumb Code     0  bb_rom_sym_m0.txt ABSOLUTE
    getPN23RandNumber                        0x0000aff5   Thumb Code     0  bb_rom_sym_m0.txt ABSOLUTE
    getRxBufferFree                          0x0000b01d   Thumb Code     0  bb_rom_sym_m0.txt ABSOLUTE
    getRxBufferSize                          0x0000b031   Thumb Code     0  bb_rom_sym_m0.txt ABSOLUTE
    getSleepMode                             0x0000b051   Thumb Code     0  bb_rom_sym_m0.txt ABSOLUTE
    getTxBufferFree                          0x0000b05d   Thumb Code     0  bb_rom_sym_m0.txt ABSOLUTE
    getTxBufferSize                          0x0000b071   Thumb Code     0  bb_rom_sym_m0.txt ABSOLUTE
    get_rx_read_ptr                          0x0000b0b1   Thumb Code     0  bb_rom_sym_m0.txt ABSOLUTE
    get_rx_write_ptr                         0x0000b0b9   Thumb Code     0  bb_rom_sym_m0.txt ABSOLUTE
    get_sleep_flag                           0x0000b0c1   Thumb Code     0  bb_rom_sym_m0.txt ABSOLUTE
    get_timer_count                          0x0000b0cd   Thumb Code     0  bb_rom_sym_m0.txt ABSOLUTE
    get_timer_int                            0x0000b0d1   Thumb Code     0  bb_rom_sym_m0.txt ABSOLUTE
    get_tx_read_ptr                          0x0000b0d9   Thumb Code     0  bb_rom_sym_m0.txt ABSOLUTE
    get_tx_write_ptr                         0x0000b0e1   Thumb Code     0  bb_rom_sym_m0.txt ABSOLUTE
    gpio_cfg_analog_io                       0x0000b0e9   Thumb Code     0  bb_rom_sym_m0.txt ABSOLUTE
    gpio_dir                                 0x0000b119   Thumb Code     0  bb_rom_sym_m0.txt ABSOLUTE
    gpio_fmux_control                        0x0000b15d   Thumb Code     0  bb_rom_sym_m0.txt ABSOLUTE
    gpio_fmux_set                            0x0000b179   Thumb Code     0  bb_rom_sym_m0.txt ABSOLUTE
    gpio_in_trigger                          0x0000b1b1   Thumb Code     0  bb_rom_sym_m0.txt ABSOLUTE
    gpio_init                                0x0000b219   Thumb Code     0  bb_rom_sym_m0.txt ABSOLUTE
    gpio_interrupt_set                       0x0000b22d   Thumb Code     0  bb_rom_sym_m0.txt ABSOLUTE
    gpio_pull_set                            0x0000b249   Thumb Code     0  bb_rom_sym_m0.txt ABSOLUTE
    gpio_read                                0x0000b291   Thumb Code     0  bb_rom_sym_m0.txt ABSOLUTE
    gpio_wakeup_set                          0x0000b2b5   Thumb Code     0  bb_rom_sym_m0.txt ABSOLUTE
    gpio_write                               0x0000b319   Thumb Code     0  bb_rom_sym_m0.txt ABSOLUTE
    rom_uart_init                            0x0000b379   Thumb Code     0  bb_rom_sym_m0.txt ABSOLUTE
    hciInitEventMasks                        0x0000b52d   Thumb Code     0  bb_rom_sym_m0.txt ABSOLUTE
    isSleepAllow                             0x0000b555   Thumb Code     0  bb_rom_sym_m0.txt ABSOLUTE
    isTimer1Running                          0x0000b561   Thumb Code     0  bb_rom_sym_m0.txt ABSOLUTE
    isTimer4Running                          0x0000b571   Thumb Code     0  bb_rom_sym_m0.txt ABSOLUTE
    jump_area_init                           0x0000b581   Thumb Code     0  bb_rom_sym_m0.txt ABSOLUTE
    ll24BitTimeCompare                       0x0000b5a9   Thumb Code     0  bb_rom_sym_m0.txt ABSOLUTE
    llAdjSlaveLatencyValue                   0x0000b609   Thumb Code     0  bb_rom_sym_m0.txt ABSOLUTE
    llAllocConnId                            0x0000b629   Thumb Code     0  bb_rom_sym_m0.txt ABSOLUTE
    llAllocateSyncHandle                     0x0000b679   Thumb Code     0  bb_rom_sym_m0.txt ABSOLUTE
    llAtLeastTwoChans                        0x0000b6a9   Thumb Code     0  bb_rom_sym_m0.txt ABSOLUTE
    llCalcMaxScanTime                        0x0000b6ed   Thumb Code     0  bb_rom_sym_m0.txt ABSOLUTE
    llCalcScaFactor                          0x0000b745   Thumb Code     0  bb_rom_sym_m0.txt ABSOLUTE
    llCalcTimerDrift                         0x0000b76d   Thumb Code     0  bb_rom_sym_m0.txt ABSOLUTE
    llCheckForLstoDuringSL                   0x0000b7b1   Thumb Code     0  bb_rom_sym_m0.txt ABSOLUTE
    llCheckWhiteListUsage                    0x0000b7ed   Thumb Code     0  bb_rom_sym_m0.txt ABSOLUTE
    llConnCleanup                            0x0000b809   Thumb Code     0  bb_rom_sym_m0.txt ABSOLUTE
    llConnTerminate                          0x0000b839   Thumb Code     0  bb_rom_sym_m0.txt ABSOLUTE
    llConnTerminate0                         0x0000b851   Thumb Code     0  bb_rom_sym_m0.txt ABSOLUTE
    llConvertCtrlProcTimeoutToEvent          0x0000b87d   Thumb Code     0  bb_rom_sym_m0.txt ABSOLUTE
    llConvertLstoToEvent                     0x0000b899   Thumb Code     0  bb_rom_sym_m0.txt ABSOLUTE
    llDeleteSyncHandle                       0x0000b8bd   Thumb Code     0  bb_rom_sym_m0.txt ABSOLUTE
    llDequeueCtrlPkt                         0x0000b8ed   Thumb Code     0  bb_rom_sym_m0.txt ABSOLUTE
    llDequeueDataQ                           0x0000b929   Thumb Code     0  bb_rom_sym_m0.txt ABSOLUTE
    llEnqueueCtrlPkt                         0x0000b953   Thumb Code     0  bb_rom_sym_m0.txt ABSOLUTE
    llEnqueueDataQ                           0x0000b98b   Thumb Code     0  bb_rom_sym_m0.txt ABSOLUTE
    llEqAlreadyValidAddr                     0x0000b9b1   Thumb Code     0  bb_rom_sym_m0.txt ABSOLUTE
    llEqSynchWord                            0x0000b9b5   Thumb Code     0  bb_rom_sym_m0.txt ABSOLUTE
    llEqualBytes                             0x0000b9c9   Thumb Code     0  bb_rom_sym_m0.txt ABSOLUTE
    llEventDelta                             0x0000b9e9   Thumb Code     0  bb_rom_sym_m0.txt ABSOLUTE
    llEventInRange                           0x0000b9fd   Thumb Code     0  bb_rom_sym_m0.txt ABSOLUTE
    llGenerateCRC                            0x0000ba1b   Thumb Code     0  bb_rom_sym_m0.txt ABSOLUTE
    llGenerateValidAccessAddr                0x0000ba3d   Thumb Code     0  bb_rom_sym_m0.txt ABSOLUTE
    llGetNextAdvChn                          0x0000ba6d   Thumb Code     0  bb_rom_sym_m0.txt ABSOLUTE
    llGetNextAuxAdvChn                       0x0000bac1   Thumb Code     0  bb_rom_sym_m0.txt ABSOLUTE
    llGetNextDataChan                        0x0000bae5   Thumb Code     0  bb_rom_sym_m0.txt ABSOLUTE
    llGetNextDataChanCSA2                    0x0000bb23   Thumb Code     0  bb_rom_sym_m0.txt ABSOLUTE
    llGtSixConsecZerosOrOnes                 0x0000bb81   Thumb Code     0  bb_rom_sym_m0.txt ABSOLUTE
    llGtTwentyFourTransitions                0x0000bbb3   Thumb Code     0  bb_rom_sym_m0.txt ABSOLUTE
    llInitFeatureSet                         0x0000bbe5   Thumb Code     0  bb_rom_sym_m0.txt ABSOLUTE
    llInitFeatureSet2MPHY                    0x0000bc1d   Thumb Code     0  bb_rom_sym_m0.txt ABSOLUTE
    llInitFeatureSetCodedPHY                 0x0000bc45   Thumb Code     0  bb_rom_sym_m0.txt ABSOLUTE
    llInitFeatureSetDLE                      0x0000bc6d   Thumb Code     0  bb_rom_sym_m0.txt ABSOLUTE
    llLtTwoChangesInLastSixBits              0x0000bc89   Thumb Code     0  bb_rom_sym_m0.txt ABSOLUTE
    llMasterEvt_TaskEndOk                    0x0000bcb9   Thumb Code     0  bb_rom_sym_m0.txt ABSOLUTE
    llMemCopyDst                             0x0000be05   Thumb Code     0  bb_rom_sym_m0.txt ABSOLUTE
    llMemCopySrc                             0x0000be1b   Thumb Code     0  bb_rom_sym_m0.txt ABSOLUTE
    llOneBitSynchWordDiffer                  0x0000be35   Thumb Code     0  bb_rom_sym_m0.txt ABSOLUTE
    llPduLengthManagmentReset                0x0000be4d   Thumb Code     0  bb_rom_sym_m0.txt ABSOLUTE
    llPduLengthUpdate                        0x0000bf01   Thumb Code     0  bb_rom_sym_m0.txt ABSOLUTE
    llPendingUpdateParam                     0x0000c00d   Thumb Code     0  bb_rom_sym_m0.txt ABSOLUTE
    llPhyModeCtrlReset                       0x0000c051   Thumb Code     0  bb_rom_sym_m0.txt ABSOLUTE
    llPhyModeCtrlUpdateNotify                0x0000c0b9   Thumb Code     0  bb_rom_sym_m0.txt ABSOLUTE
    llPrdAdvDecideNextChn                    0x0000c0f5   Thumb Code     0  bb_rom_sym_m0.txt ABSOLUTE
    llProcessChanMap                         0x0000c185   Thumb Code     0  bb_rom_sym_m0.txt ABSOLUTE
    llProcessMasterControlPacket             0x0000c1d1   Thumb Code     0  bb_rom_sym_m0.txt ABSOLUTE
    llProcessMasterControlPacket0            0x0000c1e9   Thumb Code     0  bb_rom_sym_m0.txt ABSOLUTE
    llProcessMasterControlProcedures         0x0000c5b9   Thumb Code     0  bb_rom_sym_m0.txt ABSOLUTE
    llProcessRxData                          0x0000ca85   Thumb Code     0  bb_rom_sym_m0.txt ABSOLUTE
    llProcessRxData0                         0x0000ca9d   Thumb Code     0  bb_rom_sym_m0.txt ABSOLUTE
    llProcessSlaveControlPacket              0x0000cc31   Thumb Code     0  bb_rom_sym_m0.txt ABSOLUTE
    llProcessSlaveControlPacket0             0x0000cc49   Thumb Code     0  bb_rom_sym_m0.txt ABSOLUTE
    llProcessSlaveControlProcedures          0x0000d169   Thumb Code     0  bb_rom_sym_m0.txt ABSOLUTE
    llProcessTxData                          0x0000d4d1   Thumb Code     0  bb_rom_sym_m0.txt ABSOLUTE
    llProcessTxData0                         0x0000d4e9   Thumb Code     0  bb_rom_sym_m0.txt ABSOLUTE
    llReleaseAllConnId                       0x0000d55d   Thumb Code     0  bb_rom_sym_m0.txt ABSOLUTE
    llReleaseConnId                          0x0000d561   Thumb Code     0  bb_rom_sym_m0.txt ABSOLUTE
    llReleaseConnId0                         0x0000d579   Thumb Code     0  bb_rom_sym_m0.txt ABSOLUTE
    llReplaceCtrlPkt                         0x0000d5f5   Thumb Code     0  bb_rom_sym_m0.txt ABSOLUTE
    llResetConnId                            0x0000d60d   Thumb Code     0  bb_rom_sym_m0.txt ABSOLUTE
    llResetRfCounters                        0x0000d6ed   Thumb Code     0  bb_rom_sym_m0.txt ABSOLUTE
    llSecAdvAllow                            0x0000d701   Thumb Code     0  bb_rom_sym_m0.txt ABSOLUTE
    llSetNextDataChan                        0x0000d769   Thumb Code     0  bb_rom_sym_m0.txt ABSOLUTE
    llSetNextPhyMode                         0x0000d839   Thumb Code     0  bb_rom_sym_m0.txt ABSOLUTE
    llSetupAdv                               0x0000d8a9   Thumb Code     0  bb_rom_sym_m0.txt ABSOLUTE
    llSetupAdv0                              0x0000d8c1   Thumb Code     0  bb_rom_sym_m0.txt ABSOLUTE
    llSetupAdvExtIndPDU                      0x0000d949   Thumb Code     0  bb_rom_sym_m0.txt ABSOLUTE
    llSetupAuxAdvIndPDU                      0x0000db4d   Thumb Code     0  bb_rom_sym_m0.txt ABSOLUTE
    llSetupAuxChainIndPDU                    0x0000dda1   Thumb Code     0  bb_rom_sym_m0.txt ABSOLUTE
    llSetupAuxConnectReqPDU                  0x0000df91   Thumb Code     0  bb_rom_sym_m0.txt ABSOLUTE
    llSetupAuxConnectRspPDU                  0x0000e025   Thumb Code     0  bb_rom_sym_m0.txt ABSOLUTE
    llSetupAuxScanRspPDU                     0x0000e09d   Thumb Code     0  bb_rom_sym_m0.txt ABSOLUTE
    llSetupAuxSyncIndPDU                     0x0000e109   Thumb Code     0  bb_rom_sym_m0.txt ABSOLUTE
    llSetupCTEReq                            0x0000e2c1   Thumb Code     0  bb_rom_sym_m0.txt ABSOLUTE
    llSetupCTERsp                            0x0000e38d   Thumb Code     0  bb_rom_sym_m0.txt ABSOLUTE
    llSetupConn                              0x0000e457   Thumb Code     0  bb_rom_sym_m0.txt ABSOLUTE
    llSetupDataLenghtReq                     0x0000e459   Thumb Code     0  bb_rom_sym_m0.txt ABSOLUTE
    llSetupDataLenghtRsp                     0x0000e4d5   Thumb Code     0  bb_rom_sym_m0.txt ABSOLUTE
    llSetupDirectedAdvEvt                    0x0000e551   Thumb Code     0  bb_rom_sym_m0.txt ABSOLUTE
    llSetupEncReq                            0x0000e6a1   Thumb Code     0  bb_rom_sym_m0.txt ABSOLUTE
    llSetupEncRsp                            0x0000e725   Thumb Code     0  bb_rom_sym_m0.txt ABSOLUTE
    llSetupExtAdvEvent                       0x0000e7b1   Thumb Code     0  bb_rom_sym_m0.txt ABSOLUTE
    llSetupFeatureSetReq                     0x0000ec01   Thumb Code     0  bb_rom_sym_m0.txt ABSOLUTE
    llSetupFeatureSetRsp                     0x0000ec63   Thumb Code     0  bb_rom_sym_m0.txt ABSOLUTE
    llSetupInit                              0x0000ecc1   Thumb Code     0  bb_rom_sym_m0.txt ABSOLUTE
    llSetupNextMasterEvent                   0x0000ed39   Thumb Code     0  bb_rom_sym_m0.txt ABSOLUTE
    llSetupNextSlaveEvent                    0x0000ede1   Thumb Code     0  bb_rom_sym_m0.txt ABSOLUTE
    llSetupNextSlaveEvent0                   0x0000edf9   Thumb Code     0  bb_rom_sym_m0.txt ABSOLUTE
    llSetupNonConnectableAdvEvt              0x0000ef65   Thumb Code     0  bb_rom_sym_m0.txt ABSOLUTE
    llSetupPauseEncReq                       0x0000f075   Thumb Code     0  bb_rom_sym_m0.txt ABSOLUTE
    llSetupPauseEncRsp                       0x0000f0c5   Thumb Code     0  bb_rom_sym_m0.txt ABSOLUTE
    llSetupPhyReq                            0x0000f121   Thumb Code     0  bb_rom_sym_m0.txt ABSOLUTE
    llSetupPhyRsp                            0x0000f177   Thumb Code     0  bb_rom_sym_m0.txt ABSOLUTE
    llSetupPhyUpdateInd                      0x0000f1cd   Thumb Code     0  bb_rom_sym_m0.txt ABSOLUTE
    llSetupPrdAdvEvent                       0x0000f239   Thumb Code     0  bb_rom_sym_m0.txt ABSOLUTE
    llSetupPrdScan                           0x0000f3b9   Thumb Code     0  bb_rom_sym_m0.txt ABSOLUTE
    llSetupRejectExtInd                      0x0000f44d   Thumb Code     0  bb_rom_sym_m0.txt ABSOLUTE
    llSetupRejectInd                         0x0000f479   Thumb Code     0  bb_rom_sym_m0.txt ABSOLUTE
    llSetupScan                              0x0000f4a5   Thumb Code     0  bb_rom_sym_m0.txt ABSOLUTE
    llSetupScan0                             0x0000f4bd   Thumb Code     0  bb_rom_sym_m0.txt ABSOLUTE
    llSetupScanInit                          0x0000f54d   Thumb Code     0  bb_rom_sym_m0.txt ABSOLUTE
    llSetupScannableAdvEvt                   0x0000f55d   Thumb Code     0  bb_rom_sym_m0.txt ABSOLUTE
    llSetupSecAdvEvt                         0x0000f66d   Thumb Code     0  bb_rom_sym_m0.txt ABSOLUTE
    llSetupSecConnectableAdvEvt              0x0000f6e9   Thumb Code     0  bb_rom_sym_m0.txt ABSOLUTE
    llSetupSecInit                           0x0000f7c1   Thumb Code     0  bb_rom_sym_m0.txt ABSOLUTE
    llSetupSecNonConnectableAdvEvt           0x0000f875   Thumb Code     0  bb_rom_sym_m0.txt ABSOLUTE
    llSetupSecScan                           0x0000f94d   Thumb Code     0  bb_rom_sym_m0.txt ABSOLUTE
    llSetupSecScannableAdvEvt                0x0000fa19   Thumb Code     0  bb_rom_sym_m0.txt ABSOLUTE
    llSetupStartEncReq                       0x0000faf1   Thumb Code     0  bb_rom_sym_m0.txt ABSOLUTE
    llSetupSyncInfo                          0x0000fb59   Thumb Code     0  bb_rom_sym_m0.txt ABSOLUTE
    llSetupTermInd                           0x0000fc2d   Thumb Code     0  bb_rom_sym_m0.txt ABSOLUTE
    llSetupUndirectedAdvEvt                  0x0000fc91   Thumb Code     0  bb_rom_sym_m0.txt ABSOLUTE
    llSetupUnknownRsp                        0x0000fda5   Thumb Code     0  bb_rom_sym_m0.txt ABSOLUTE
    llSetupUpdateChanReq                     0x0000fdf9   Thumb Code     0  bb_rom_sym_m0.txt ABSOLUTE
    llSetupUpdateParamReq                    0x0000fe6d   Thumb Code     0  bb_rom_sym_m0.txt ABSOLUTE
    llSetupVersionIndReq                     0x0000ff05   Thumb Code     0  bb_rom_sym_m0.txt ABSOLUTE
    llSlaveEvt_TaskAbort                     0x0000ff79   Thumb Code     0  bb_rom_sym_m0.txt ABSOLUTE
    llSlaveEvt_TaskEndOk                     0x0000ff95   Thumb Code     0  bb_rom_sym_m0.txt ABSOLUTE
    llSlaveEvt_TaskEndOk0                    0x0000ffad   Thumb Code     0  bb_rom_sym_m0.txt ABSOLUTE
    llTrxNumAdaptiveConfig                   0x00010181   Thumb Code     0  bb_rom_sym_m0.txt ABSOLUTE
    llValidAccessAddr                        0x0001019b   Thumb Code     0  bb_rom_sym_m0.txt ABSOLUTE
    llWaitUs                                 0x000101e1   Thumb Code     0  bb_rom_sym_m0.txt ABSOLUTE
    llWriteTxData                            0x00010209   Thumb Code     0  bb_rom_sym_m0.txt ABSOLUTE
    ll_CalcRandomAddr                        0x0001028f   Thumb Code     0  bb_rom_sym_m0.txt ABSOLUTE
    ll_ResolveRandomAddrs                    0x000102cd   Thumb Code     0  bb_rom_sym_m0.txt ABSOLUTE
    ll_addTask                               0x00010315   Thumb Code     0  bb_rom_sym_m0.txt ABSOLUTE
    ll_add_adv_task                          0x00010445   Thumb Code     0  bb_rom_sym_m0.txt ABSOLUTE
    ll_add_adv_task_periodic                 0x00010461   Thumb Code     0  bb_rom_sym_m0.txt ABSOLUTE
    ll_adptive_adj_next_time                 0x0001047d   Thumb Code     0  bb_rom_sym_m0.txt ABSOLUTE
    ll_adptive_smart_window                  0x000104fd   Thumb Code     0  bb_rom_sym_m0.txt ABSOLUTE
    ll_adv_scheduler                         0x000105ad   Thumb Code     0  bb_rom_sym_m0.txt ABSOLUTE
    ll_adv_scheduler_periodic                0x000105c9   Thumb Code     0  bb_rom_sym_m0.txt ABSOLUTE
    ll_allocAuxAdvTimeSlot                   0x000105e5   Thumb Code     0  bb_rom_sym_m0.txt ABSOLUTE
    ll_allocAuxAdvTimeSlot_prd               0x00010679   Thumb Code     0  bb_rom_sym_m0.txt ABSOLUTE
    ll_debug_output                          0x00010719   Thumb Code     0  bb_rom_sym_m0.txt ABSOLUTE
    ll_deleteTask                            0x00010731   Thumb Code     0  bb_rom_sym_m0.txt ABSOLUTE
    ll_delete_adv_task                       0x00010765   Thumb Code     0  bb_rom_sym_m0.txt ABSOLUTE
    ll_delete_adv_task_periodic              0x00010781   Thumb Code     0  bb_rom_sym_m0.txt ABSOLUTE
    ll_ext_adv_schedule_next_event           0x0001079d   Thumb Code     0  bb_rom_sym_m0.txt ABSOLUTE
    ll_ext_init_schedule_next_event          0x000107c1   Thumb Code     0  bb_rom_sym_m0.txt ABSOLUTE
    ll_ext_scan_schedule_next_event          0x000107dd   Thumb Code     0  bb_rom_sym_m0.txt ABSOLUTE
    ll_generateExtAdvDid                     0x000107f9   Thumb Code     0  bb_rom_sym_m0.txt ABSOLUTE
    ll_generateTxBuffer                      0x00010801   Thumb Code     0  bb_rom_sym_m0.txt ABSOLUTE
    ll_getFirstAdvChn                        0x000109c1   Thumb Code     0  bb_rom_sym_m0.txt ABSOLUTE
    ll_getRPAListEntry                       0x000109cd   Thumb Code     0  bb_rom_sym_m0.txt ABSOLUTE
    ll_get_next_active_conn                  0x00010a39   Thumb Code     0  bb_rom_sym_m0.txt ABSOLUTE
    ll_get_next_timer                        0x00010aa1   Thumb Code     0  bb_rom_sym_m0.txt ABSOLUTE
    ll_hw_clr_irq                            0x00010add   Thumb Code     0  bb_rom_sym_m0.txt ABSOLUTE
    ll_hw_config                             0x00010aed   Thumb Code     0  bb_rom_sym_m0.txt ABSOLUTE
    ll_hw_get_anchor                         0x00010b6d   Thumb Code     0  bb_rom_sym_m0.txt ABSOLUTE
    ll_hw_get_fsm_status                     0x00010b79   Thumb Code     0  bb_rom_sym_m0.txt ABSOLUTE
    ll_hw_get_iq_RawSample                   0x00010b89   Thumb Code     0  bb_rom_sym_m0.txt ABSOLUTE
    ll_hw_get_irq_status                     0x00010bbd   Thumb Code     0  bb_rom_sym_m0.txt ABSOLUTE
    ll_hw_get_last_ack                       0x00010bcd   Thumb Code     0  bb_rom_sym_m0.txt ABSOLUTE
    ll_hw_get_loop_cycle                     0x00010be9   Thumb Code     0  bb_rom_sym_m0.txt ABSOLUTE
    ll_hw_get_loop_time                      0x00010bf5   Thumb Code     0  bb_rom_sym_m0.txt ABSOLUTE
    ll_hw_get_nAck                           0x00010c01   Thumb Code     0  bb_rom_sym_m0.txt ABSOLUTE
    ll_hw_get_rfifo_depth                    0x00010c11   Thumb Code     0  bb_rom_sym_m0.txt ABSOLUTE
    ll_hw_get_rfifo_info                     0x00010c25   Thumb Code     0  bb_rom_sym_m0.txt ABSOLUTE
    ll_hw_get_rxPkt_CrcErr_num               0x00010c45   Thumb Code     0  bb_rom_sym_m0.txt ABSOLUTE
    ll_hw_get_rxPkt_CrcOk_num                0x00010c55   Thumb Code     0  bb_rom_sym_m0.txt ABSOLUTE
    ll_hw_get_rxPkt_Total_num                0x00010c69   Thumb Code     0  bb_rom_sym_m0.txt ABSOLUTE
    ll_hw_get_rxPkt_num                      0x00010c79   Thumb Code     0  bb_rom_sym_m0.txt ABSOLUTE
    ll_hw_get_rxPkt_stats                    0x00010c85   Thumb Code     0  bb_rom_sym_m0.txt ABSOLUTE
    ll_hw_get_snNesn                         0x00010c9d   Thumb Code     0  bb_rom_sym_m0.txt ABSOLUTE
    ll_hw_get_tfifo_info                     0x00010cad   Thumb Code     0  bb_rom_sym_m0.txt ABSOLUTE
    ll_hw_get_tfifo_wrptr                    0x00010ccd   Thumb Code     0  bb_rom_sym_m0.txt ABSOLUTE
    ll_hw_get_tr_mode                        0x00010cdd   Thumb Code     0  bb_rom_sym_m0.txt ABSOLUTE
    ll_hw_get_txAck                          0x00010ced   Thumb Code     0  bb_rom_sym_m0.txt ABSOLUTE
    ll_hw_go                                 0x00010cf9   Thumb Code     0  bb_rom_sym_m0.txt ABSOLUTE
    ll_hw_ign_rfifo                          0x00010df9   Thumb Code     0  bb_rom_sym_m0.txt ABSOLUTE
    ll_hw_process_RTO                        0x00010e05   Thumb Code     0  bb_rom_sym_m0.txt ABSOLUTE
    ll_hw_read_rfifo                         0x00010e6d   Thumb Code     0  bb_rom_sym_m0.txt ABSOLUTE
    ll_hw_read_rfifo_pplus                   0x00010ee9   Thumb Code     0  bb_rom_sym_m0.txt ABSOLUTE
    ll_hw_read_rfifo_zb                      0x00010f51   Thumb Code     0  bb_rom_sym_m0.txt ABSOLUTE
    ll_hw_read_tfifo_packet                  0x00010fad   Thumb Code     0  bb_rom_sym_m0.txt ABSOLUTE
    ll_hw_read_tfifo_rtlp                    0x00010ff5   Thumb Code     0  bb_rom_sym_m0.txt ABSOLUTE
    ll_hw_read_tfifo_rtlp0                   0x0001100d   Thumb Code     0  bb_rom_sym_m0.txt ABSOLUTE
    ll_hw_rst_rfifo                          0x000110b1   Thumb Code     0  bb_rom_sym_m0.txt ABSOLUTE
    ll_hw_rst_tfifo                          0x000110e9   Thumb Code     0  bb_rom_sym_m0.txt ABSOLUTE
    ll_hw_set_ant_pattern                    0x000110f5   Thumb Code     0  bb_rom_sym_m0.txt ABSOLUTE
    ll_hw_set_ant_switch_mode                0x00011101   Thumb Code     0  bb_rom_sym_m0.txt ABSOLUTE
    ll_hw_set_ant_switch_timing              0x00011115   Thumb Code     0  bb_rom_sym_m0.txt ABSOLUTE
    ll_hw_set_crc_fmt                        0x0001112d   Thumb Code     0  bb_rom_sym_m0.txt ABSOLUTE
    ll_hw_set_cte_rxSupp                     0x0001113d   Thumb Code     0  bb_rom_sym_m0.txt ABSOLUTE
    ll_hw_set_cte_txSupp                     0x00011155   Thumb Code     0  bb_rom_sym_m0.txt ABSOLUTE
    ll_hw_set_empty_head                     0x00011169   Thumb Code     0  bb_rom_sym_m0.txt ABSOLUTE
    ll_hw_set_irq                            0x00011175   Thumb Code     0  bb_rom_sym_m0.txt ABSOLUTE
    ll_hw_set_loop_nack_num                  0x00011181   Thumb Code     0  bb_rom_sym_m0.txt ABSOLUTE
    ll_hw_set_loop_timeout                   0x0001118d   Thumb Code     0  bb_rom_sym_m0.txt ABSOLUTE
    ll_hw_set_pplus_pktfmt                   0x000111a1   Thumb Code     0  bb_rom_sym_m0.txt ABSOLUTE
    ll_hw_set_rtlp                           0x000111cd   Thumb Code     0  bb_rom_sym_m0.txt ABSOLUTE
    ll_hw_set_rtlp_1st                       0x0001121d   Thumb Code     0  bb_rom_sym_m0.txt ABSOLUTE
    ll_hw_set_rtx                            0x00011265   Thumb Code     0  bb_rom_sym_m0.txt ABSOLUTE
    ll_hw_set_rx_timeout                     0x00011279   Thumb Code     0  bb_rom_sym_m0.txt ABSOLUTE
    ll_hw_set_rx_timeout_1st                 0x00011285   Thumb Code     0  bb_rom_sym_m0.txt ABSOLUTE
    ll_hw_set_rx_tx_interval                 0x00011291   Thumb Code     0  bb_rom_sym_m0.txt ABSOLUTE
    ll_hw_set_srx                            0x000112a5   Thumb Code     0  bb_rom_sym_m0.txt ABSOLUTE
    ll_hw_set_stx                            0x000112b9   Thumb Code     0  bb_rom_sym_m0.txt ABSOLUTE
    ll_hw_set_tfifo_space                    0x000112cd   Thumb Code     0  bb_rom_sym_m0.txt ABSOLUTE
    ll_hw_set_timing                         0x000112e5   Thumb Code     0  bb_rom_sym_m0.txt ABSOLUTE
    ll_hw_set_trlp                           0x00011381   Thumb Code     0  bb_rom_sym_m0.txt ABSOLUTE
    ll_hw_set_trx                            0x000113c9   Thumb Code     0  bb_rom_sym_m0.txt ABSOLUTE
    ll_hw_set_trx_settle                     0x000113dd   Thumb Code     0  bb_rom_sym_m0.txt ABSOLUTE
    ll_hw_set_tx_rx_interval                 0x000113f1   Thumb Code     0  bb_rom_sym_m0.txt ABSOLUTE
    ll_hw_set_tx_rx_release                  0x00011405   Thumb Code     0  bb_rom_sym_m0.txt ABSOLUTE
    ll_hw_trigger                            0x00011421   Thumb Code     0  bb_rom_sym_m0.txt ABSOLUTE
    ll_hw_trx_settle_config                  0x00011445   Thumb Code     0  bb_rom_sym_m0.txt ABSOLUTE
    ll_hw_tx2rx_timing_config                0x00011489   Thumb Code     0  bb_rom_sym_m0.txt ABSOLUTE
    ll_hw_update                             0x000114dd   Thumb Code     0  bb_rom_sym_m0.txt ABSOLUTE
    ll_hw_update_rtlp_mode                   0x00011539   Thumb Code     0  bb_rom_sym_m0.txt ABSOLUTE
    ll_hw_update_trlp_mode                   0x00011579   Thumb Code     0  bb_rom_sym_m0.txt ABSOLUTE
    ll_hw_write_tfifo                        0x000115c1   Thumb Code     0  bb_rom_sym_m0.txt ABSOLUTE
    ll_isAddrInWhiteList                     0x00011649   Thumb Code     0  bb_rom_sym_m0.txt ABSOLUTE
    ll_isFirstAdvChn                         0x000116a9   Thumb Code     0  bb_rom_sym_m0.txt ABSOLUTE
    ll_isIrkAllZero                          0x000116c7   Thumb Code     0  bb_rom_sym_m0.txt ABSOLUTE
    ll_isLegacyAdv                           0x000116dd   Thumb Code     0  bb_rom_sym_m0.txt ABSOLUTE
    ll_parseExtHeader                        0x000116ed   Thumb Code     0  bb_rom_sym_m0.txt ABSOLUTE
    ll_prd_adv_schedule_next_event           0x000117a9   Thumb Code     0  bb_rom_sym_m0.txt ABSOLUTE
    ll_prd_scan_schedule_next_event          0x000117cd   Thumb Code     0  bb_rom_sym_m0.txt ABSOLUTE
    ll_processBasicIRQ                       0x000117e9   Thumb Code     0  bb_rom_sym_m0.txt ABSOLUTE
    ll_processExtAdvIRQ                      0x00013401   Thumb Code     0  bb_rom_sym_m0.txt ABSOLUTE
    ll_processExtInitIRQ                     0x00013405   Thumb Code     0  bb_rom_sym_m0.txt ABSOLUTE
    ll_processExtScanIRQ                     0x00013409   Thumb Code     0  bb_rom_sym_m0.txt ABSOLUTE
    ll_processMissMasterEvt                  0x0001340d   Thumb Code     0  bb_rom_sym_m0.txt ABSOLUTE
    ll_processMissSlaveEvt                   0x000134ed   Thumb Code     0  bb_rom_sym_m0.txt ABSOLUTE
    ll_processPrdAdvIRQ                      0x000135f5   Thumb Code     0  bb_rom_sym_m0.txt ABSOLUTE
    ll_processPrdScanIRQ                     0x000135f9   Thumb Code     0  bb_rom_sym_m0.txt ABSOLUTE
    ll_readLocalIRK                          0x000135fd   Thumb Code     0  bb_rom_sym_m0.txt ABSOLUTE
    ll_readPeerIRK                           0x00013661   Thumb Code     0  bb_rom_sym_m0.txt ABSOLUTE
    ll_read_rxfifo                           0x000136c5   Thumb Code     0  bb_rom_sym_m0.txt ABSOLUTE
    ll_read_rxfifo0                          0x000136cd   Thumb Code     0  bb_rom_sym_m0.txt ABSOLUTE
    ll_schedule_next_event                   0x00013761   Thumb Code     0  bb_rom_sym_m0.txt ABSOLUTE
    ll_scheduler                             0x00013771   Thumb Code     0  bb_rom_sym_m0.txt ABSOLUTE
    ll_scheduler0                            0x00013789   Thumb Code     0  bb_rom_sym_m0.txt ABSOLUTE
    ll_updateAuxAdvTimeSlot                  0x00013a11   Thumb Code     0  bb_rom_sym_m0.txt ABSOLUTE
    ll_updateExtAdvRemainderTime             0x00013a39   Thumb Code     0  bb_rom_sym_m0.txt ABSOLUTE
    log_clr_putc                             0x00013ab9   Thumb Code     0  bb_rom_sym_m0.txt ABSOLUTE
    log_debug_level                          0x00013ac5   Thumb Code     0  bb_rom_sym_m0.txt ABSOLUTE
    log_get_debug_level                      0x00013ad9   Thumb Code     0  bb_rom_sym_m0.txt ABSOLUTE
    log_printf                               0x00013ae5   Thumb Code     0  bb_rom_sym_m0.txt ABSOLUTE
    log_set_putc                             0x00013b05   Thumb Code     0  bb_rom_sym_m0.txt ABSOLUTE
    log_vsprintf                             0x00013b11   Thumb Code     0  bb_rom_sym_m0.txt ABSOLUTE
    move_to_master_function                  0x00013f09   Thumb Code     0  bb_rom_sym_m0.txt ABSOLUTE
    move_to_master_function0                 0x00013f21   Thumb Code     0  bb_rom_sym_m0.txt ABSOLUTE
    move_to_slave_function                   0x0001406d   Thumb Code     0  bb_rom_sym_m0.txt ABSOLUTE
    move_to_slave_function0                  0x00014085   Thumb Code     0  bb_rom_sym_m0.txt ABSOLUTE
    osalAddTimer                             0x00014439   Thumb Code     0  bb_rom_sym_m0.txt ABSOLUTE
    osalDeleteTimer                          0x000144a9   Thumb Code     0  bb_rom_sym_m0.txt ABSOLUTE
    osalFindTimer                            0x000144b5   Thumb Code     0  bb_rom_sym_m0.txt ABSOLUTE
    osalTimeUpdate                           0x000144d5   Thumb Code     0  bb_rom_sym_m0.txt ABSOLUTE
    osalTimeUpdate1                          0x00014541   Thumb Code     0  bb_rom_sym_m0.txt ABSOLUTE
    osalTimerInit                            0x0001457d   Thumb Code     0  bb_rom_sym_m0.txt ABSOLUTE
    osalTimerUpdate                          0x00014589   Thumb Code     0  bb_rom_sym_m0.txt ABSOLUTE
    osal_CbTimerInit                         0x00014621   Thumb Code     0  bb_rom_sym_m0.txt ABSOLUTE
    osal_CbTimerProcessEvent                 0x00014641   Thumb Code     0  bb_rom_sym_m0.txt ABSOLUTE
    osal_CbTimerStart                        0x000146a9   Thumb Code     0  bb_rom_sym_m0.txt ABSOLUTE
    osal_CbTimerStop                         0x00014711   Thumb Code     0  bb_rom_sym_m0.txt ABSOLUTE
    osal_CbTimerUpdate                       0x00014751   Thumb Code     0  bb_rom_sym_m0.txt ABSOLUTE
    osal_ConvertUTCSecs                      0x000147a1   Thumb Code     0  bb_rom_sym_m0.txt ABSOLUTE
    osal_ConvertUTCTime                      0x00014841   Thumb Code     0  bb_rom_sym_m0.txt ABSOLUTE
    osal_GetSystemClock                      0x00014949   Thumb Code     0  bb_rom_sym_m0.txt ABSOLUTE
    osal_bm_adjust_header                    0x00014955   Thumb Code     0  bb_rom_sym_m0.txt ABSOLUTE
    osal_bm_adjust_tail                      0x0001497d   Thumb Code     0  bb_rom_sym_m0.txt ABSOLUTE
    osal_bm_alloc                            0x000149a9   Thumb Code     0  bb_rom_sym_m0.txt ABSOLUTE
    osal_bm_free                             0x000149d9   Thumb Code     0  bb_rom_sym_m0.txt ABSOLUTE
    osal_buffer_uint24                       0x00014a21   Thumb Code     0  bb_rom_sym_m0.txt ABSOLUTE
    osal_buffer_uint32                       0x00014a2f   Thumb Code     0  bb_rom_sym_m0.txt ABSOLUTE
    osal_build_uint16                        0x00014a41   Thumb Code     0  bb_rom_sym_m0.txt ABSOLUTE
    osal_build_uint32                        0x00014a4d   Thumb Code     0  bb_rom_sym_m0.txt ABSOLUTE
    osal_clear_event                         0x00014a89   Thumb Code     0  bb_rom_sym_m0.txt ABSOLUTE
    osal_getClock                            0x00014abd   Thumb Code     0  bb_rom_sym_m0.txt ABSOLUTE
    osal_get_timeoutEx                       0x00014ac9   Thumb Code     0  bb_rom_sym_m0.txt ABSOLUTE
    osal_init_system                         0x00014aed   Thumb Code     0  bb_rom_sym_m0.txt ABSOLUTE
    osal_isbufset                            0x00014b1d   Thumb Code     0  bb_rom_sym_m0.txt ABSOLUTE
    osal_mem_alloc                           0x00014b3d   Thumb Code     0  bb_rom_sym_m0.txt ABSOLUTE
    osal_mem_free                            0x00014c01   Thumb Code     0  bb_rom_sym_m0.txt ABSOLUTE
    osal_mem_init                            0x00014c25   Thumb Code     0  bb_rom_sym_m0.txt ABSOLUTE
    osal_mem_kick                            0x00014c8d   Thumb Code     0  bb_rom_sym_m0.txt ABSOLUTE
    osal_mem_set_heap                        0x00014cb5   Thumb Code     0  bb_rom_sym_m0.txt ABSOLUTE
    osal_memcmp                              0x00014ccd   Thumb Code     0  bb_rom_sym_m0.txt ABSOLUTE
    osal_memcpy                              0x00014ce9   Thumb Code     0  bb_rom_sym_m0.txt ABSOLUTE
    osal_memdup                              0x00014cf9   Thumb Code     0  bb_rom_sym_m0.txt ABSOLUTE
    osal_memset                              0x00014d15   Thumb Code     0  bb_rom_sym_m0.txt ABSOLUTE
    osal_msg_allocate                        0x00014d1d   Thumb Code     0  bb_rom_sym_m0.txt ABSOLUTE
    osal_msg_deallocate                      0x00014d43   Thumb Code     0  bb_rom_sym_m0.txt ABSOLUTE
    osal_msg_dequeue                         0x00014d65   Thumb Code     0  bb_rom_sym_m0.txt ABSOLUTE
    osal_msg_enqueue                         0x00014d91   Thumb Code     0  bb_rom_sym_m0.txt ABSOLUTE
    osal_msg_enqueue_max                     0x00014dc3   Thumb Code     0  bb_rom_sym_m0.txt ABSOLUTE
    osal_msg_extract                         0x00014e6d   Thumb Code     0  bb_rom_sym_m0.txt ABSOLUTE
    osal_msg_find                            0x00014e9d   Thumb Code     0  bb_rom_sym_m0.txt ABSOLUTE
    osal_msg_push                            0x00014ed1   Thumb Code     0  bb_rom_sym_m0.txt ABSOLUTE
    osal_msg_push_front                      0x00014eeb   Thumb Code     0  bb_rom_sym_m0.txt ABSOLUTE
    osal_msg_receive                         0x00014ef5   Thumb Code     0  bb_rom_sym_m0.txt ABSOLUTE
    osal_msg_send                            0x00014f59   Thumb Code     0  bb_rom_sym_m0.txt ABSOLUTE
    osal_next_timeout                        0x00014f7d   Thumb Code     0  bb_rom_sym_m0.txt ABSOLUTE
    osal_pwrmgr_device                       0x00014fa5   Thumb Code     0  bb_rom_sym_m0.txt ABSOLUTE
    osal_pwrmgr_init                         0x00014fb1   Thumb Code     0  bb_rom_sym_m0.txt ABSOLUTE
    osal_pwrmgr_powerconserve                0x00014fc1   Thumb Code     0  bb_rom_sym_m0.txt ABSOLUTE
    osal_pwrmgr_powerconserve0               0x00014fd9   Thumb Code     0  bb_rom_sym_m0.txt ABSOLUTE
    osal_pwrmgr_task_state                   0x000150f9   Thumb Code     0  bb_rom_sym_m0.txt ABSOLUTE
    osal_rand                                0x00015129   Thumb Code     0  bb_rom_sym_m0.txt ABSOLUTE
    osal_revmemcpy                           0x00015145   Thumb Code     0  bb_rom_sym_m0.txt ABSOLUTE
    osal_run_system                          0x00015159   Thumb Code     0  bb_rom_sym_m0.txt ABSOLUTE
    osal_self                                0x000151f5   Thumb Code     0  bb_rom_sym_m0.txt ABSOLUTE
    osal_setClock                            0x00015201   Thumb Code     0  bb_rom_sym_m0.txt ABSOLUTE
    osal_set_event                           0x0001520d   Thumb Code     0  bb_rom_sym_m0.txt ABSOLUTE
    osal_start_reload_timer                  0x00015259   Thumb Code     0  bb_rom_sym_m0.txt ABSOLUTE
    osal_start_system                        0x00015285   Thumb Code     0  bb_rom_sym_m0.txt ABSOLUTE
    osal_start_timerEx                       0x0001528b   Thumb Code     0  bb_rom_sym_m0.txt ABSOLUTE
    osal_stop_timerEx                        0x000152b3   Thumb Code     0  bb_rom_sym_m0.txt ABSOLUTE
    osal_strlen                              0x000152dd   Thumb Code     0  bb_rom_sym_m0.txt ABSOLUTE
    osal_timer_num_active                    0x000152e5   Thumb Code     0  bb_rom_sym_m0.txt ABSOLUTE
    phy_sec_app_key                          0x00015315   Thumb Code     0  bb_rom_sym_m0.txt ABSOLUTE
    phy_sec_decrypt                          0x0001531d   Thumb Code     0  bb_rom_sym_m0.txt ABSOLUTE
    phy_sec_efuse_lock                       0x0001532d   Thumb Code     0  bb_rom_sym_m0.txt ABSOLUTE
    phy_sec_encrypt                          0x00015339   Thumb Code     0  bb_rom_sym_m0.txt ABSOLUTE
    phy_sec_init                             0x00015349   Thumb Code     0  bb_rom_sym_m0.txt ABSOLUTE
    phy_sec_key_valid                        0x0001540d   Thumb Code     0  bb_rom_sym_m0.txt ABSOLUTE
    prog_process_data                        0x00015b19   Thumb Code     0  bb_rom_sym_m0.txt ABSOLUTE
    prog_uart_command                        0x00015c51   Thumb Code     0  bb_rom_sym_m0.txt ABSOLUTE
    prog_uart_fct_command                    0x00015c71   Thumb Code     0  bb_rom_sym_m0.txt ABSOLUTE
    prog_uart_handle                         0x00015c8d   Thumb Code     0  bb_rom_sym_m0.txt ABSOLUTE
    read_LL_remainder_time                   0x00015cbd   Thumb Code     0  bb_rom_sym_m0.txt ABSOLUTE
    read_current_fine_time                   0x00015cc9   Thumb Code     0  bb_rom_sym_m0.txt ABSOLUTE
    read_ll_adv_remainder_time               0x00015cf1   Thumb Code     0  bb_rom_sym_m0.txt ABSOLUTE
    reset_conn_buf                           0x00015cfd   Thumb Code     0  bb_rom_sym_m0.txt ABSOLUTE
    rom_board_init                           0x00016a09   Thumb Code     0  bb_rom_sym_m0.txt ABSOLUTE
    rtc_clear                                0x00016ab5   Thumb Code     0  bb_rom_sym_m0.txt ABSOLUTE
    rtc_config_prescale                      0x00016ad1   Thumb Code     0  bb_rom_sym_m0.txt ABSOLUTE
    rtc_get_counter                          0x00016b15   Thumb Code     0  bb_rom_sym_m0.txt ABSOLUTE
    rtc_start                                0x00016b25   Thumb Code     0  bb_rom_sym_m0.txt ABSOLUTE
    rtc_stop                                 0x00016b35   Thumb Code     0  bb_rom_sym_m0.txt ABSOLUTE
    setSleepMode                             0x00016b45   Thumb Code     0  bb_rom_sym_m0.txt ABSOLUTE
    set_access_address                       0x00016b51   Thumb Code     0  bb_rom_sym_m0.txt ABSOLUTE
    set_channel                              0x00016b5d   Thumb Code     0  bb_rom_sym_m0.txt ABSOLUTE
    set_crc_seed                             0x00016b9d   Thumb Code     0  bb_rom_sym_m0.txt ABSOLUTE
    set_gpio_pull_down_ate                   0x00016bb5   Thumb Code     0  bb_rom_sym_m0.txt ABSOLUTE
    set_gpio_pull_up_ate                     0x00016bcb   Thumb Code     0  bb_rom_sym_m0.txt ABSOLUTE
    set_int                                  0x00016be1   Thumb Code     0  bb_rom_sym_m0.txt ABSOLUTE
    set_max_length                           0x00016bed   Thumb Code     0  bb_rom_sym_m0.txt ABSOLUTE
    set_sleep_flag                           0x00016c01   Thumb Code     0  bb_rom_sym_m0.txt ABSOLUTE
    set_timer                                0x00016c2d   Thumb Code     0  bb_rom_sym_m0.txt ABSOLUTE
    set_whiten_seed                          0x00016cc9   Thumb Code     0  bb_rom_sym_m0.txt ABSOLUTE
    spif_cmd                                 0x00016d49   Thumb Code     0  bb_rom_sym_m0.txt ABSOLUTE
    spif_config                              0x00016dc5   Thumb Code     0  bb_rom_sym_m0.txt ABSOLUTE
    spif_erase_all                           0x00016ea1   Thumb Code     0  bb_rom_sym_m0.txt ABSOLUTE
    spif_erase_block64                       0x00016ed1   Thumb Code     0  bb_rom_sym_m0.txt ABSOLUTE
    spif_erase_chip                          0x00016f55   Thumb Code     0  bb_rom_sym_m0.txt ABSOLUTE
    spif_erase_sector                        0x00016fa9   Thumb Code     0  bb_rom_sym_m0.txt ABSOLUTE
    spif_flash_size                          0x00017029   Thumb Code     0  bb_rom_sym_m0.txt ABSOLUTE
    spif_flash_status_reg_0                  0x0001703d   Thumb Code     0  bb_rom_sym_m0.txt ABSOLUTE
    spif_flash_status_reg_1                  0x00017047   Thumb Code     0  bb_rom_sym_m0.txt ABSOLUTE
    spif_init                                0x00017051   Thumb Code     0  bb_rom_sym_m0.txt ABSOLUTE
    spif_rddata                              0x0001713d   Thumb Code     0  bb_rom_sym_m0.txt ABSOLUTE
    spif_read                                0x00017165   Thumb Code     0  bb_rom_sym_m0.txt ABSOLUTE
    spif_read_dma                            0x0001717d   Thumb Code     0  bb_rom_sym_m0.txt ABSOLUTE
    spif_read_id                             0x00017209   Thumb Code     0  bb_rom_sym_m0.txt ABSOLUTE
    spif_release_deep_sleep                  0x000172cd   Thumb Code     0  bb_rom_sym_m0.txt ABSOLUTE
    spif_set_deep_sleep                      0x00017349   Thumb Code     0  bb_rom_sym_m0.txt ABSOLUTE
    spif_wrdata                              0x0001736d   Thumb Code     0  bb_rom_sym_m0.txt ABSOLUTE
    spif_write                               0x00017395   Thumb Code     0  bb_rom_sym_m0.txt ABSOLUTE
    spif_write_dma                           0x0001744d   Thumb Code     0  bb_rom_sym_m0.txt ABSOLUTE
    spif_write_protect                       0x000174f9   Thumb Code     0  bb_rom_sym_m0.txt ABSOLUTE
    sram_ret_patch                           0x00017591   Thumb Code     0  bb_rom_sym_m0.txt ABSOLUTE
    update_rx_read_ptr                       0x00017609   Thumb Code     0  bb_rom_sym_m0.txt ABSOLUTE
    update_rx_write_ptr                      0x00017635   Thumb Code     0  bb_rom_sym_m0.txt ABSOLUTE
    update_tx_read_ptr                       0x00017659   Thumb Code     0  bb_rom_sym_m0.txt ABSOLUTE
    update_tx_write_ptr                      0x00017685   Thumb Code     0  bb_rom_sym_m0.txt ABSOLUTE
    wakeupProcess                            0x000176a9   Thumb Code     0  bb_rom_sym_m0.txt ABSOLUTE
    wakeupProcess0                           0x000176c5   Thumb Code     0  bb_rom_sym_m0.txt ABSOLUTE
    wakeup_init                              0x000178a5   Thumb Code     0  bb_rom_sym_m0.txt ABSOLUTE
    wakeup_init0                             0x000178bd   Thumb Code     0  bb_rom_sym_m0.txt ABSOLUTE
    zigbee_crc16_gen                         0x0001798d   Thumb Code     0  bb_rom_sym_m0.txt ABSOLUTE
    g_hclk_table                             0x00017be0   Data           0  bb_rom_sym_m0.txt ABSOLUTE
    supportedCmdsTable                       0x00017c00   Data           0  bb_rom_sym_m0.txt ABSOLUTE
    hciCmdTable                              0x00017c44   Data           0  bb_rom_sym_m0.txt ABSOLUTE
    SCA                                      0x00017c4c   Data           0  bb_rom_sym_m0.txt ABSOLUTE
    Long Thumb to Thumb Veneer to drv_disable_irq 0x11020001   Thumb Code    12  anon$$obj.o(Veneer$$Code)
    Long Thumb to Thumb Veneer to LL_Disconnect0 0x1102000d   Thumb Code    12  anon$$obj.o(Veneer$$Code)
    Long Thumb to Thumb Veneer to drv_enable_irq 0x11020019   Thumb Code    12  anon$$obj.o(Veneer$$Code)
    Long Thumb to Thumb Veneer to __aeabi_memclr4 0x11020025   Thumb Code    12  anon$$obj.o(Veneer$$Code)
    Long Thumb to Thumb Veneer to ll_osal_mem_alloc 0x11020031   Thumb Code    12  anon$$obj.o(Veneer$$Code)
    Long Thumb to Thumb Veneer to LL_SetDataLengh0 0x1102003d   Thumb Code    12  anon$$obj.o(Veneer$$Code)
    Long Thumb to Thumb Veneer to llEnqueueDataQ 0x11020049   Thumb Code    12  anon$$obj.o(Veneer$$Code)
    Long Thumb to Thumb Veneer to llProcessTxData 0x11020055   Thumb Code    12  anon$$obj.o(Veneer$$Code)
    Long Thumb to Thumb Veneer to LL_CreateConnCancel0 0x11020061   Thumb Code    12  anon$$obj.o(Veneer$$Code)
    Long Thumb to Thumb Veneer to _rom_efuse_version_init 0x1102006d   Thumb Code    12  anon$$obj.o(Veneer$$Code)
    Long Thumb to Thumb Veneer to global_config_hclk_related 0x11020079   Thumb Code    12  anon$$obj.o(Veneer$$Code)
    Long Thumb to Thumb Veneer to enableSleep 0x11020085   Thumb Code    12  anon$$obj.o(Veneer$$Code)
    Long Thumb to Thumb Veneer to setSleepMode 0x11020091   Thumb Code    12  anon$$obj.o(Veneer$$Code)
    Long Thumb to Thumb Veneer to hal_pwrmgr_register 0x110200b5   Thumb Code    12  anon$$obj.o(Veneer$$Code)
    Long Thumb to Thumb Veneer to __aeabi_memcpy 0x110200c1   Thumb Code    12  anon$$obj.o(Veneer$$Code)
    Long Thumb to Thumb Veneer to hal_pwrmgr_lock 0x110200cd   Thumb Code    12  anon$$obj.o(Veneer$$Code)
    Long Thumb to Thumb Veneer to hal_clk_reset 0x110200d9   Thumb Code    12  anon$$obj.o(Veneer$$Code)
    Long Thumb to Thumb Veneer to hal_clk_gate_disable 0x110200e5   Thumb Code    12  anon$$obj.o(Veneer$$Code)
    Long Thumb to Thumb Veneer to clk_get_pclk 0x110200f1   Thumb Code    12  anon$$obj.o(Veneer$$Code)
    Long Thumb to Thumb Veneer to hal_clk_gate_enable 0x110200fd   Thumb Code    12  anon$$obj.o(Veneer$$Code)
    Long Thumb to Thumb Veneer to __aeabi_uidivmod 0x11020109   Thumb Code    12  anon$$obj.o(Veneer$$Code)
    LL_Disconnect1                           0x11020115   Thumb Code    28  patch.o(_func_xip_code_.LL_Disconnect1)
    LL_InitConnectContext                    0x11020131   Thumb Code   250  patch.o(_func_xip_code_.LL_InitConnectContext)
    LL_SetDataLengh1                         0x1102024d   Thumb Code    40  patch.o(_func_xip_code_.LL_SetDataLengh1)
    LL_TxData1                               0x1102027d   Thumb Code   150  patch.o(_func_xip_code_.LL_TxData1)
    LL_CreateConnCancel1                     0x11020321   Thumb Code    30  patch.o(_section_xip_code_)
    global_config_maxscanrsplen              0x1102033f   Thumb Code    12  patch.o(_section_xip_code_)
    init_config                              0x1102034b   Thumb Code   540  patch.o(_section_xip_code_)
    hal_GPIO_IRQHandler                      0x11020735   Thumb Code    24  gpio.o(i.hal_GPIO_IRQHandler)
    hal_UART0_IRQHandler                     0x11020751   Thumb Code    78  uart.o(i.hal_UART0_IRQHandler)
    hal_UART1_IRQHandler                     0x110207a5   Thumb Code    78  uart.o(i.hal_UART1_IRQHandler)
    hal_gpio_cfg_analog_io                   0x110207f9   Thumb Code    76  gpio.o(i.hal_gpio_cfg_analog_io)
    hal_gpio_fmux                            0x11020849   Thumb Code    44  gpio.o(i.hal_gpio_fmux)
    hal_gpio_fmux_set                        0x11020879   Thumb Code    84  gpio.o(i.hal_gpio_fmux_set)
    hal_gpio_init                            0x110208d1   Thumb Code    72  gpio.o(i.hal_gpio_init)
    hal_gpio_pin2pin3_control                0x110209d1   Thumb Code    42  gpio.o(i.hal_gpio_pin2pin3_control)
    hal_gpio_pin_init                        0x11020a01   Thumb Code   122  gpio.o(i.hal_gpio_pin_init)
    hal_gpio_pull_set                        0x11020a85   Thumb Code   112  gpio.o(i.hal_gpio_pull_set)
    hal_gpio_read                            0x11020afd   Thumb Code    46  gpio.o(i.hal_gpio_read)
    hal_gpio_wakeup_set                      0x11020d35   Thumb Code   158  gpio.o(i.hal_gpio_wakeup_set)
    hal_gpio_write                           0x11020de5   Thumb Code    58  gpio.o(i.hal_gpio_write)
    hal_gpioin_disable                       0x11020e25   Thumb Code    42  gpio.o(i.hal_gpioin_disable)
    hal_gpioin_enable                        0x11020e55   Thumb Code   158  gpio.o(i.hal_gpioin_enable)
    hal_uart_init                            0x11021021   Thumb Code   102  uart.o(i.hal_uart_init)
    hal_uart_send_buff                       0x11021095   Thumb Code    44  uart.o(i.hal_uart_send_buff)
    c_gpio_index                             0x11021480   Data          23  gpio.o(.constdata)
    c_gpio_pull                              0x11021497   Data          69  gpio.o(.constdata)
    retention_reg                            0x110214dc   Data          46  gpio.o(.constdata)
    jump_table_base                          0x1fff0000   Data        1024  jump_table.o(jump_table_mem_area)
    global_config                            0x1fff0400   Data        1024  jump_table.o(global_config_area)
    hclk_per_us                              0x1fff0818   Data           0  bb_rom_sym_m0.txt ABSOLUTE
    hclk_per_us_shift                        0x1fff081c   Data           0  bb_rom_sym_m0.txt ABSOLUTE
    s_prog_time_save                         0x1fff0828   Data           0  bb_rom_sym_m0.txt ABSOLUTE
    s_prog_timeout                           0x1fff082c   Data           0  bb_rom_sym_m0.txt ABSOLUTE
    DFL_ENTRY_BASE                           0x1fff0830   Data           0  bb_rom_sym_m0.txt ABSOLUTE
    receive_timeout_flag                     0x1fff0850   Data           0  bb_rom_sym_m0.txt ABSOLUTE
    osal_sys_tick                            0x1fff0860   Data           0  bb_rom_sym_m0.txt ABSOLUTE
    g_timer4_irq_pending_time                0x1fff0864   Data           0  bb_rom_sym_m0.txt ABSOLUTE
    g_hclk                                   0x1fff0874   Data           0  bb_rom_sym_m0.txt ABSOLUTE
    m_in_critical_region                     0x1fff0878   Data           0  bb_rom_sym_m0.txt ABSOLUTE
    s_rom_debug_level                        0x1fff0888   Data           0  bb_rom_sym_m0.txt ABSOLUTE
    s_spif_ctx                               0x1fff0894   Data           0  bb_rom_sym_m0.txt ABSOLUTE
    osal_qHead                               0x1fff08b8   Data           0  bb_rom_sym_m0.txt ABSOLUTE
    baseTaskID                               0x1fff08c0   Data           0  bb_rom_sym_m0.txt ABSOLUTE
    OSAL_timeSeconds                         0x1fff08cc   Data           0  bb_rom_sym_m0.txt ABSOLUTE
    osalMemStat                              0x1fff08d0   Data           0  bb_rom_sym_m0.txt ABSOLUTE
    theHeap                                  0x1fff08d4   Data           0  bb_rom_sym_m0.txt ABSOLUTE
    ff1                                      0x1fff08d8   Data           0  bb_rom_sym_m0.txt ABSOLUTE
    heapSize                                 0x1fff08dc   Data           0  bb_rom_sym_m0.txt ABSOLUTE
    ll_remain_time                           0x1fff08e4   Data           0  bb_rom_sym_m0.txt ABSOLUTE
    pwrmgr_attribute                         0x1fff08e8   Data           0  bb_rom_sym_m0.txt ABSOLUTE
    timerHead                                0x1fff08f0   Data           0  bb_rom_sym_m0.txt ABSOLUTE
    hciPTMenabled                            0x1fff08f8   Data           0  bb_rom_sym_m0.txt ABSOLUTE
    ctrlToHostEnable                         0x1fff08f9   Data           0  bb_rom_sym_m0.txt ABSOLUTE
    numHostBufs                              0x1fff08fa   Data           0  bb_rom_sym_m0.txt ABSOLUTE
    hciCtrlCmdToken                          0x1fff08fc   Data           0  bb_rom_sym_m0.txt ABSOLUTE
    bleEvtMask                               0x1fff0900   Data           0  bb_rom_sym_m0.txt ABSOLUTE
    pHciEvtMask                              0x1fff0904   Data           0  bb_rom_sym_m0.txt ABSOLUTE
    hciTaskID                                0x1fff090c   Data           0  bb_rom_sym_m0.txt ABSOLUTE
    hciTestTaskID                            0x1fff090d   Data           0  bb_rom_sym_m0.txt ABSOLUTE
    hciGapTaskID                             0x1fff090e   Data           0  bb_rom_sym_m0.txt ABSOLUTE
    hciL2capTaskID                           0x1fff090f   Data           0  bb_rom_sym_m0.txt ABSOLUTE
    hciSmpTaskID                             0x1fff0910   Data           0  bb_rom_sym_m0.txt ABSOLUTE
    hciExtTaskID                             0x1fff0911   Data           0  bb_rom_sym_m0.txt ABSOLUTE
    g_maxConnNum                             0x1fff0914   Data           0  bb_rom_sym_m0.txt ABSOLUTE
    g_maxPktPerEventTx                       0x1fff0915   Data           0  bb_rom_sym_m0.txt ABSOLUTE
    g_maxPktPerEventRx                       0x1fff0916   Data           0  bb_rom_sym_m0.txt ABSOLUTE
    g_blePktVersion                          0x1fff0917   Data           0  bb_rom_sym_m0.txt ABSOLUTE
    g_llRlEnable                             0x1fff0918   Data           0  bb_rom_sym_m0.txt ABSOLUTE
    g_llScanMode                             0x1fff0919   Data           0  bb_rom_sym_m0.txt ABSOLUTE
    g_llAdvMode                              0x1fff091a   Data           0  bb_rom_sym_m0.txt ABSOLUTE
    LL_TaskID                                0x1fff091b   Data           0  bb_rom_sym_m0.txt ABSOLUTE
    llState                                  0x1fff091c   Data           0  bb_rom_sym_m0.txt ABSOLUTE
    numComplPkts                             0x1fff091d   Data           0  bb_rom_sym_m0.txt ABSOLUTE
    numComplPktsLimit                        0x1fff091e   Data           0  bb_rom_sym_m0.txt ABSOLUTE
    fastTxRespTime                           0x1fff091f   Data           0  bb_rom_sym_m0.txt ABSOLUTE
    g_llWlDeviceNum                          0x1fff0920   Data           0  bb_rom_sym_m0.txt ABSOLUTE
    g_llRlDeviceNum                          0x1fff0921   Data           0  bb_rom_sym_m0.txt ABSOLUTE
    rxFifoFlowCtrl                           0x1fff0922   Data           0  bb_rom_sym_m0.txt ABSOLUTE
    llSecondaryState                         0x1fff0923   Data           0  bb_rom_sym_m0.txt ABSOLUTE
    g_extAdvNumber                           0x1fff0924   Data           0  bb_rom_sym_m0.txt ABSOLUTE
    g_perioAdvNumber                         0x1fff0925   Data           0  bb_rom_sym_m0.txt ABSOLUTE
    g_schExtAdvNum                           0x1fff0926   Data           0  bb_rom_sym_m0.txt ABSOLUTE
    g_currentExtAdv                          0x1fff0927   Data           0  bb_rom_sym_m0.txt ABSOLUTE
    g_schExtAdvNum_periodic                  0x1fff0928   Data           0  bb_rom_sym_m0.txt ABSOLUTE
    g_currentExtAdv_periodic                 0x1fff0929   Data           0  bb_rom_sym_m0.txt ABSOLUTE
    g_llPrdAdvDeviceNum                      0x1fff092a   Data           0  bb_rom_sym_m0.txt ABSOLUTE
    g_llRlTimeout                            0x1fff092c   Data           0  bb_rom_sym_m0.txt ABSOLUTE
    g_advSetMaximumLen                       0x1fff0930   Data           0  bb_rom_sym_m0.txt ABSOLUTE
    conn_param                               0x1fff0934   Data           0  bb_rom_sym_m0.txt ABSOLUTE
    g_pExtendedAdvInfo                       0x1fff0938   Data           0  bb_rom_sym_m0.txt ABSOLUTE
    g_pPeriodicAdvInfo                       0x1fff093c   Data           0  bb_rom_sym_m0.txt ABSOLUTE
    g_pLLcteISample                          0x1fff0940   Data           0  bb_rom_sym_m0.txt ABSOLUTE
    g_pLLcteQSample                          0x1fff0944   Data           0  bb_rom_sym_m0.txt ABSOLUTE
    g_llHdcDirAdvTime                        0x1fff0948   Data           0  bb_rom_sym_m0.txt ABSOLUTE
    g_pAdvSchInfo                            0x1fff094c   Data           0  bb_rom_sym_m0.txt ABSOLUTE
    g_advPerSlotTick                         0x1fff0950   Data           0  bb_rom_sym_m0.txt ABSOLUTE
    g_advSlotPeriodic                        0x1fff0954   Data           0  bb_rom_sym_m0.txt ABSOLUTE
    g_pAdvSchInfo_periodic                   0x1fff0958   Data           0  bb_rom_sym_m0.txt ABSOLUTE
    g_timerExpiryTick                        0x1fff095c   Data           0  bb_rom_sym_m0.txt ABSOLUTE
    chanMapUpdate                            0x1fff0960   Data           0  bb_rom_sym_m0.txt ABSOLUTE
    ownPublicAddr                            0x1fff0965   Data           0  bb_rom_sym_m0.txt ABSOLUTE
    ownRandomAddr                            0x1fff096b   Data           0  bb_rom_sym_m0.txt ABSOLUTE
    verInfo                                  0x1fff0972   Data           0  bb_rom_sym_m0.txt ABSOLUTE
    peerInfo                                 0x1fff0978   Data           0  bb_rom_sym_m0.txt ABSOLUTE
    g_currentAdvTimer                        0x1fff0980   Data           0  bb_rom_sym_m0.txt ABSOLUTE
    g_currentTimerTask                       0x1fff0984   Data           0  bb_rom_sym_m0.txt ABSOLUTE
    g_adv_taskID                             0x1fff0988   Data           0  bb_rom_sym_m0.txt ABSOLUTE
    g_conn_taskID                            0x1fff0989   Data           0  bb_rom_sym_m0.txt ABSOLUTE
    g_smartWindowRTOCnt                      0x1fff098a   Data           0  bb_rom_sym_m0.txt ABSOLUTE
    isPeerRpaStore                           0x1fff098b   Data           0  bb_rom_sym_m0.txt ABSOLUTE
    g_same_rf_channel_flag                   0x1fff098c   Data           0  bb_rom_sym_m0.txt ABSOLUTE
    g_currentPeerAddrType                    0x1fff098d   Data           0  bb_rom_sym_m0.txt ABSOLUTE
    g_currentLocalAddrType                   0x1fff098e   Data           0  bb_rom_sym_m0.txt ABSOLUTE
    storeRpaListIndex                        0x1fff098f   Data           0  bb_rom_sym_m0.txt ABSOLUTE
    llTaskState                              0x1fff0990   Data           0  bb_rom_sym_m0.txt ABSOLUTE
    g_adv_taskEvent                          0x1fff0992   Data           0  bb_rom_sym_m0.txt ABSOLUTE
    g_conn_taskEvent                         0x1fff0994   Data           0  bb_rom_sym_m0.txt ABSOLUTE
    llWaitingIrq                             0x1fff0998   Data           0  bb_rom_sym_m0.txt ABSOLUTE
    ISR_entry_time                           0x1fff099c   Data           0  bb_rom_sym_m0.txt ABSOLUTE
    slave_conn_event_recv_delay              0x1fff09a0   Data           0  bb_rom_sym_m0.txt ABSOLUTE
    g_smartWindowLater                       0x1fff09a4   Data           0  bb_rom_sym_m0.txt ABSOLUTE
    g_smartWindowActiveCnt                   0x1fff09a8   Data           0  bb_rom_sym_m0.txt ABSOLUTE
    g_smartWindowPreAnchPoint                0x1fff09ac   Data           0  bb_rom_sym_m0.txt ABSOLUTE
    g_getPn23_cnt                            0x1fff09b0   Data           0  bb_rom_sym_m0.txt ABSOLUTE
    g_getPn23_seed                           0x1fff09b4   Data           0  bb_rom_sym_m0.txt ABSOLUTE
    llScanTime                               0x1fff09b8   Data           0  bb_rom_sym_m0.txt ABSOLUTE
    p_perStatsByChan                         0x1fff09bc   Data           0  bb_rom_sym_m0.txt ABSOLUTE
    LL_PLUS_AdvDataFilterCBack               0x1fff09c0   Data           0  bb_rom_sym_m0.txt ABSOLUTE
    LL_PLUS_ScanRequestFilterCBack           0x1fff09c4   Data           0  bb_rom_sym_m0.txt ABSOLUTE
    g_new_master_delta                       0x1fff09c8   Data           0  bb_rom_sym_m0.txt ABSOLUTE
    llScanT1                                 0x1fff09cc   Data           0  bb_rom_sym_m0.txt ABSOLUTE
    llCurrentScanChn                         0x1fff09d0   Data           0  bb_rom_sym_m0.txt ABSOLUTE
    g_currentLocalRpa                        0x1fff09d4   Data           0  bb_rom_sym_m0.txt ABSOLUTE
    g_currentPeerRpa                         0x1fff09da   Data           0  bb_rom_sym_m0.txt ABSOLUTE
    currentPeerRpa                           0x1fff09e0   Data           0  bb_rom_sym_m0.txt ABSOLUTE
    g_dle_taskID                             0x1fff09e6   Data           0  bb_rom_sym_m0.txt ABSOLUTE
    g_dle_taskEvent                          0x1fff09e8   Data           0  bb_rom_sym_m0.txt ABSOLUTE
    g_phyChg_taskID                          0x1fff09ea   Data           0  bb_rom_sym_m0.txt ABSOLUTE
    g_phyChg_taskEvent                       0x1fff09ec   Data           0  bb_rom_sym_m0.txt ABSOLUTE
    g_smartWindowSize                        0x1fff09f0   Data           0  bb_rom_sym_m0.txt ABSOLUTE
    g_smartWindowSizeNew                     0x1fff09f4   Data           0  bb_rom_sym_m0.txt ABSOLUTE
    g_smartWindowActive                      0x1fff09f8   Data           0  bb_rom_sym_m0.txt ABSOLUTE
    g_interAuxPduDuration                    0x1fff09fc   Data           0  bb_rom_sym_m0.txt ABSOLUTE
    g_rfTxPathCompensation                   0x1fff0a00   Data           0  bb_rom_sym_m0.txt ABSOLUTE
    g_rfRxPathCompensation                   0x1fff0a02   Data           0  bb_rom_sym_m0.txt ABSOLUTE
    connUpdateTimer                          0x1fff0a04   Data           0  bb_rom_sym_m0.txt ABSOLUTE
    sleep_flag                               0x1fff0a0c   Data           0  bb_rom_sym_m0.txt ABSOLUTE
    g_wakeup_rtc_tick                        0x1fff0a10   Data           0  bb_rom_sym_m0.txt ABSOLUTE
    g_counter_traking_avg                    0x1fff0a14   Data           0  bb_rom_sym_m0.txt ABSOLUTE
    g_TIM2_IRQ_TIM3_CurrCount                0x1fff0a18   Data           0  bb_rom_sym_m0.txt ABSOLUTE
    g_TIM2_IRQ_to_Sleep_DeltTick             0x1fff0a1c   Data           0  bb_rom_sym_m0.txt ABSOLUTE
    g_TIM2_IRQ_PendingTick                   0x1fff0a20   Data           0  bb_rom_sym_m0.txt ABSOLUTE
    g_osal_tick_trim                         0x1fff0a24   Data           0  bb_rom_sym_m0.txt ABSOLUTE
    g_osalTickTrim_mod                       0x1fff0a28   Data           0  bb_rom_sym_m0.txt ABSOLUTE
    rtc_mod_value                            0x1fff0a2c   Data           0  bb_rom_sym_m0.txt ABSOLUTE
    g_counter_traking_cnt                    0x1fff0a30   Data           0  bb_rom_sym_m0.txt ABSOLUTE
    sleep_tick                               0x1fff0a34   Data           0  bb_rom_sym_m0.txt ABSOLUTE
    counter_tracking                         0x1fff0a38   Data           0  bb_rom_sym_m0.txt ABSOLUTE
    forever_write                            0x1fff0a3c   Data           0  bb_rom_sym_m0.txt ABSOLUTE
    g_TIM2_wakeup_delay                      0x1fff0a40   Data           0  bb_rom_sym_m0.txt ABSOLUTE
    g_rfPhyTpCal0                            0x1fff0a44   Data           0  bb_rom_sym_m0.txt ABSOLUTE
    g_rfPhyTpCal1                            0x1fff0a45   Data           0  bb_rom_sym_m0.txt ABSOLUTE
    g_rfPhyTpCal0_2Mbps                      0x1fff0a46   Data           0  bb_rom_sym_m0.txt ABSOLUTE
    g_rfPhyTpCal1_2Mbps                      0x1fff0a47   Data           0  bb_rom_sym_m0.txt ABSOLUTE
    g_rfPhyTxPower                           0x1fff0a48   Data           0  bb_rom_sym_m0.txt ABSOLUTE
    g_rfPhyPktFmt                            0x1fff0a49   Data           0  bb_rom_sym_m0.txt ABSOLUTE
    g_system_clk                             0x1fff0a4a   Data           0  bb_rom_sym_m0.txt ABSOLUTE
    g_rfPhyClkSel                            0x1fff0a4b   Data           0  bb_rom_sym_m0.txt ABSOLUTE
    g_rxAdcClkSel                            0x1fff0a4c   Data           0  bb_rom_sym_m0.txt ABSOLUTE
    g_dtmModeType                            0x1fff0a4d   Data           0  bb_rom_sym_m0.txt ABSOLUTE
    g_dtmLength                              0x1fff0a4e   Data           0  bb_rom_sym_m0.txt ABSOLUTE
    g_dtmExtLen                              0x1fff0a4f   Data           0  bb_rom_sym_m0.txt ABSOLUTE
    g_dtmPKT                                 0x1fff0a50   Data           0  bb_rom_sym_m0.txt ABSOLUTE
    g_dtmTxPower                             0x1fff0a51   Data           0  bb_rom_sym_m0.txt ABSOLUTE
    g_dtmRssi                                0x1fff0a52   Data           0  bb_rom_sym_m0.txt ABSOLUTE
    g_dtmCarrSens                            0x1fff0a53   Data           0  bb_rom_sym_m0.txt ABSOLUTE
    g_dtmPktIntv                             0x1fff0a54   Data           0  bb_rom_sym_m0.txt ABSOLUTE
    g_dtmPktCount                            0x1fff0a56   Data           0  bb_rom_sym_m0.txt ABSOLUTE
    g_dtmRxCrcNum                            0x1fff0a58   Data           0  bb_rom_sym_m0.txt ABSOLUTE
    g_dtmRxTONum                             0x1fff0a5a   Data           0  bb_rom_sym_m0.txt ABSOLUTE
    g_dtmRsp                                 0x1fff0a5c   Data           0  bb_rom_sym_m0.txt ABSOLUTE
    g_dtmFoff                                0x1fff0a5e   Data           0  bb_rom_sym_m0.txt ABSOLUTE
    g_rfPhyRxDcIQ                            0x1fff0a60   Data           0  bb_rom_sym_m0.txt ABSOLUTE
    g_dtmTick                                0x1fff0a64   Data           0  bb_rom_sym_m0.txt ABSOLUTE
    g_rfPhyFreqOffSet                        0x1fff0a68   Data           0  bb_rom_sym_m0.txt ABSOLUTE
    g_rfPhyDtmCmd                            0x1fff0a69   Data           0  bb_rom_sym_m0.txt ABSOLUTE
    g_rfPhyDtmEvt                            0x1fff0a6b   Data           0  bb_rom_sym_m0.txt ABSOLUTE
    g_dtmCmd                                 0x1fff0a6d   Data           0  bb_rom_sym_m0.txt ABSOLUTE
    g_dtmFreq                                0x1fff0a6e   Data           0  bb_rom_sym_m0.txt ABSOLUTE
    g_dtmCtrl                                0x1fff0a6f   Data           0  bb_rom_sym_m0.txt ABSOLUTE
    g_dtmPara                                0x1fff0a70   Data           0  bb_rom_sym_m0.txt ABSOLUTE
    g_dtmEvt                                 0x1fff0a71   Data           0  bb_rom_sym_m0.txt ABSOLUTE
    g_dtmStatus                              0x1fff0a72   Data           0  bb_rom_sym_m0.txt ABSOLUTE
    g_dtmTpCalEnable                         0x1fff0a73   Data           0  bb_rom_sym_m0.txt ABSOLUTE
    g_dtmPerAutoIntv                         0x1fff0a74   Data           0  bb_rom_sym_m0.txt ABSOLUTE
    g_dtmAccessCode                          0x1fff0a78   Data           0  bb_rom_sym_m0.txt ABSOLUTE
    g_system_reset_cause                     0x1fff0a80   Data           0  bb_rom_sym_m0.txt ABSOLUTE
    cbTimers                                 0x1fff0afc   Data           0  bb_rom_sym_m0.txt ABSOLUTE
    g_llSleepContext                         0x1fff0b74   Data           0  bb_rom_sym_m0.txt ABSOLUTE
    syncInfo                                 0x1fff0b84   Data           0  bb_rom_sym_m0.txt ABSOLUTE
    scanSyncInfo                             0x1fff0b96   Data           0  bb_rom_sym_m0.txt ABSOLUTE
    adv_param                                0x1fff0ba6   Data           0  bb_rom_sym_m0.txt ABSOLUTE
    scanInfo                                 0x1fff0bbc   Data           0  bb_rom_sym_m0.txt ABSOLUTE
    initInfo                                 0x1fff0bd4   Data           0  bb_rom_sym_m0.txt ABSOLUTE
    extScanInfo                              0x1fff0be8   Data           0  bb_rom_sym_m0.txt ABSOLUTE
    extInitInfo                              0x1fff0c10   Data           0  bb_rom_sym_m0.txt ABSOLUTE
    g_llPeriodAdvSyncInfo                    0x1fff0c50   Data           0  bb_rom_sym_m0.txt ABSOLUTE
    g_ll_conn_ctx                            0x1fff0d30   Data           0  bb_rom_sym_m0.txt ABSOLUTE
    deviceFeatureSet                         0x1fff0e48   Data           0  bb_rom_sym_m0.txt ABSOLUTE
    g_llWhitelist                            0x1fff0e51   Data           0  bb_rom_sym_m0.txt ABSOLUTE
    g_llResolvinglist                        0x1fff0e89   Data           0  bb_rom_sym_m0.txt ABSOLUTE
    g_pmCounters                             0x1fff0ffc   Data           0  bb_rom_sym_m0.txt ABSOLUTE
    g_llPduLen                               0x1fff1084   Data           0  bb_rom_sym_m0.txt ABSOLUTE
    g_llPeriodicAdvlist                      0x1fff10a0   Data           0  bb_rom_sym_m0.txt ABSOLUTE
    rfCounters                               0x1fff10e0   Data           0  bb_rom_sym_m0.txt ABSOLUTE
    ext_adv_hdr                              0x1fff10ec   Data           0  bb_rom_sym_m0.txt ABSOLUTE
    dataPkt                                  0x1fff1118   Data           0  bb_rom_sym_m0.txt ABSOLUTE
    cachedTRNGdata                           0x1fff1138   Data           0  bb_rom_sym_m0.txt ABSOLUTE
    whiten_seed                              0x1fff1144   Data           0  bb_rom_sym_m0.txt ABSOLUTE
    g_tx_adv_buf                             0x1fff116c   Data           0  bb_rom_sym_m0.txt ABSOLUTE
    g_tx_ext_adv_buf                         0x1fff1278   Data           0  bb_rom_sym_m0.txt ABSOLUTE
    tx_scanRsp_desc                          0x1fff1384   Data           0  bb_rom_sym_m0.txt ABSOLUTE
    g_rx_adv_buf                             0x1fff1490   Data           0  bb_rom_sym_m0.txt ABSOLUTE
    __Vectors                                0x1fff1838   Data           4  startup_armcm0.o(RESET)
    __Vectors_End                            0x1fff18f8   Data           0  startup_armcm0.o(RESET)
    __main                                   0x1fff18f9   Thumb Code     0  entry.o(.ARM.Collect$$$$00000000)
    _main_stk                                0x1fff18f9   Thumb Code     0  entry2.o(.ARM.Collect$$$$00000001)
    _main_scatterload                        0x1fff18fd   Thumb Code     0  entry5.o(.ARM.Collect$$$$00000004)
    __main_after_scatterload                 0x1fff1901   Thumb Code     0  entry5.o(.ARM.Collect$$$$00000004)
    _main_clock                              0x1fff1901   Thumb Code     0  entry7b.o(.ARM.Collect$$$$00000008)
    _main_cpp_init                           0x1fff1901   Thumb Code     0  entry8b.o(.ARM.Collect$$$$0000000A)
    _main_init                               0x1fff1901   Thumb Code     0  entry9a.o(.ARM.Collect$$$$0000000B)
    __rt_final_cpp                           0x1fff1909   Thumb Code     0  entry10a.o(.ARM.Collect$$$$0000000D)
    __rt_final_exit                          0x1fff1909   Thumb Code     0  entry11a.o(.ARM.Collect$$$$0000000F)
    hard_fault                               0x1fff190d   Thumb Code    44  jump_table.o(.emb_text)
    Reset_Handler                            0x1fff1945   Thumb Code     8  startup_armcm0.o(.text)
    SVC_Handler                              0x1fff1951   Thumb Code     2  startup_armcm0.o(.text)
    SysTick_Handler                          0x1fff1955   Thumb Code     2  startup_armcm0.o(.text)
    AACI_IRQHandler                          0x1fff1957   Thumb Code     0  startup_armcm0.o(.text)
    CAN_IRQHandler                           0x1fff1957   Thumb Code     0  startup_armcm0.o(.text)
    CHLCD_IRQHandler                         0x1fff1957   Thumb Code     0  startup_armcm0.o(.text)
    CLCD_IRQHandler                          0x1fff1957   Thumb Code     0  startup_armcm0.o(.text)
    CPU_CLCD_IRQHandler                      0x1fff1957   Thumb Code     0  startup_armcm0.o(.text)
    ENET_IRQHandler                          0x1fff1957   Thumb Code     0  startup_armcm0.o(.text)
    FLEXRAY_IRQHandler                       0x1fff1957   Thumb Code     0  startup_armcm0.o(.text)
    I2C_IRQHandler                           0x1fff1957   Thumb Code     0  startup_armcm0.o(.text)
    LIN_IRQHandler                           0x1fff1957   Thumb Code     0  startup_armcm0.o(.text)
    MCIA_IRQHandler                          0x1fff1957   Thumb Code     0  startup_armcm0.o(.text)
    MCIB_IRQHandler                          0x1fff1957   Thumb Code     0  startup_armcm0.o(.text)
    RTC_IRQHandler                           0x1fff1957   Thumb Code     0  startup_armcm0.o(.text)
    SPI_IRQHandler                           0x1fff1957   Thumb Code     0  startup_armcm0.o(.text)
    TIM0_IRQHandler                          0x1fff1957   Thumb Code     0  startup_armcm0.o(.text)
    TIM2_IRQHandler                          0x1fff1957   Thumb Code     0  startup_armcm0.o(.text)
    UART0_IRQHandler                         0x1fff1957   Thumb Code     0  startup_armcm0.o(.text)
    UART1_IRQHandler                         0x1fff1957   Thumb Code     0  startup_armcm0.o(.text)
    UART2_IRQHandler                         0x1fff1957   Thumb Code     0  startup_armcm0.o(.text)
    UART3_IRQHandler                         0x1fff1957   Thumb Code     0  startup_armcm0.o(.text)
    UART4_IRQHandler                         0x1fff1957   Thumb Code     0  startup_armcm0.o(.text)
    USBDC_IRQHandler                         0x1fff1957   Thumb Code     0  startup_armcm0.o(.text)
    USBHC_IRQHandler                         0x1fff1957   Thumb Code     0  startup_armcm0.o(.text)
    WDT_IRQHandler                           0x1fff1957   Thumb Code     0  startup_armcm0.o(.text)
    __scatterload                            0x1fff1961   Thumb Code    28  init.o(.text)
    __scatterload_rt2                        0x1fff1961   Thumb Code     0  init.o(.text)
    __decompress                             0x1fff1985   Thumb Code     0  __dczerorl.o(.text)
    __decompress0                            0x1fff1985   Thumb Code    58  __dczerorl.o(.text)
    Long Thumb to Thumb Veneer to drv_disable_irq 0x1fff19c1   Thumb Code    12  anon$$obj.o(Veneer$$Code)
    Long Thumb to Thumb Veneer to config_RTC 0x1fff19cd   Thumb Code    12  anon$$obj.o(Veneer$$Code)
    Long Thumb to Thumb Veneer to enter_sleep_off_mode 0x1fff19d9   Thumb Code    12  anon$$obj.o(Veneer$$Code)
    Long Thumb to Thumb Veneer to LL_ENC_AES128_Encrypt0 0x1fff19e5   Thumb Code    12  anon$$obj.o(Veneer$$Code)
    Long Thumb to Thumb Veneer to LL_ENC_LoadKey 0x1fff19f1   Thumb Code    12  anon$$obj.o(Veneer$$Code)
    Long Thumb to Thumb Veneer to LL_ENC_GenerateNonce 0x1fff19fd   Thumb Code    12  anon$$obj.o(Veneer$$Code)
    Long Thumb to Thumb Veneer to __aeabi_uread4 0x1fff1a09   Thumb Code    12  anon$$obj.o(Veneer$$Code)
    Long Thumb to Thumb Veneer to read_current_fine_time 0x1fff1a15   Thumb Code    12  anon$$obj.o(Veneer$$Code)
    Long Thumb to Thumb Veneer to ll_debug_output 0x1fff1a21   Thumb Code    12  anon$$obj.o(Veneer$$Code)
    Long Thumb to Thumb Veneer to ll_hw_get_irq_status 0x1fff1a2d   Thumb Code    12  anon$$obj.o(Veneer$$Code)
    Long Thumb to Thumb Veneer to ll_hw_get_tr_mode 0x1fff1a39   Thumb Code    12  anon$$obj.o(Veneer$$Code)
    Long Thumb to Thumb Veneer to ll_hw_clr_irq 0x1fff1a45   Thumb Code    12  anon$$obj.o(Veneer$$Code)
    Long Thumb to Thumb Veneer to ll_processExtAdvIRQ 0x1fff1a51   Thumb Code    12  anon$$obj.o(Veneer$$Code)
    Long Thumb to Thumb Veneer to ll_processExtScanIRQ 0x1fff1a5d   Thumb Code    12  anon$$obj.o(Veneer$$Code)
    Long Thumb to Thumb Veneer to ll_processExtInitIRQ 0x1fff1a69   Thumb Code    12  anon$$obj.o(Veneer$$Code)
    Long Thumb to Thumb Veneer to ll_processPrdAdvIRQ 0x1fff1a75   Thumb Code    12  anon$$obj.o(Veneer$$Code)
    Long Thumb to Thumb Veneer to ll_processPrdScanIRQ 0x1fff1a81   Thumb Code    12  anon$$obj.o(Veneer$$Code)
    Long Thumb to Thumb Veneer to ll_processBasicIRQ 0x1fff1a8d   Thumb Code    12  anon$$obj.o(Veneer$$Code)
    Long Thumb to Thumb Veneer to ll_schedule_next_event 0x1fff1a99   Thumb Code    12  anon$$obj.o(Veneer$$Code)
    Long Thumb to Thumb Veneer to llSecAdvAllow 0x1fff1aa5   Thumb Code    12  anon$$obj.o(Veneer$$Code)
    Long Thumb to Thumb Veneer to llSetupSecAdvEvt 0x1fff1ab1   Thumb Code    12  anon$$obj.o(Veneer$$Code)
    Long Thumb to Thumb Veneer to ll_hw_set_rx_timeout 0x1fff1abd   Thumb Code    12  anon$$obj.o(Veneer$$Code)
    Long Thumb to Thumb Veneer to llSetupSecScan 0x1fff1ac9   Thumb Code    12  anon$$obj.o(Veneer$$Code)
    Long Thumb to Thumb Veneer to llSetupSecInit 0x1fff1ad5   Thumb Code    12  anon$$obj.o(Veneer$$Code)
    Long Thumb to Thumb Veneer to LL_DisconnectCback 0x1fff1ae1   Thumb Code    12  anon$$obj.o(Veneer$$Code)
    Long Thumb to Thumb Veneer to LL_ProcessEvent0 0x1fff1aed   Thumb Code    12  anon$$obj.o(Veneer$$Code)
    Long Thumb to Thumb Veneer to LL_Reset0  0x1fff1af9   Thumb Code    12  anon$$obj.o(Veneer$$Code)
    Long Thumb to Thumb Veneer to LL_set_default_conn_params0 0x1fff1b05   Thumb Code    12  anon$$obj.o(Veneer$$Code)
    Long Thumb to Thumb Veneer to efuse_read 0x1fff1b11   Thumb Code    12  anon$$obj.o(Veneer$$Code)
    Long Thumb to Thumb Veneer to rom_uart_init 0x1fff1b1d   Thumb Code    12  anon$$obj.o(Veneer$$Code)
    Long Thumb to Thumb Veneer to log_printf 0x1fff1b29   Thumb Code    12  anon$$obj.o(Veneer$$Code)
    Long Thumb to Thumb Veneer to rtc_get_counter 0x1fff1b35   Thumb Code    12  anon$$obj.o(Veneer$$Code)
    Long Thumb to Thumb Veneer to hal_uart_send_buff 0x1fff1b41   Thumb Code    12  anon$$obj.o(Veneer$$Code)
    Long Thumb to Thumb Veneer to osal_init_system 0x1fff1b4d   Thumb Code    12  anon$$obj.o(Veneer$$Code)
    Long Thumb to Thumb Veneer to osal_pwrmgr_device 0x1fff1b59   Thumb Code    12  anon$$obj.o(Veneer$$Code)
    Long Thumb to Thumb Veneer to osal_start_system 0x1fff1b65   Thumb Code    12  anon$$obj.o(Veneer$$Code)
    Long Thumb to Thumb Veneer to osal_mem_set_heap 0x1fff1b71   Thumb Code    12  anon$$obj.o(Veneer$$Code)
    Long Thumb to Thumb Veneer to LL_InitConnectContext 0x1fff1b7d   Thumb Code    12  anon$$obj.o(Veneer$$Code)
    Long Thumb to Thumb Veneer to WaitRTCCount 0x1fff1b89   Thumb Code    12  anon$$obj.o(Veneer$$Code)
    Long Thumb to Thumb Veneer to set_sleep_flag 0x1fff1b95   Thumb Code    12  anon$$obj.o(Veneer$$Code)
    Long Thumb to Thumb Veneer to __aeabi_memclr4 0x1fff1ba1   Thumb Code    12  anon$$obj.o(Veneer$$Code)
    Long Thumb to Thumb Veneer to read_LL_remainder_time 0x1fff1bad   Thumb Code    12  anon$$obj.o(Veneer$$Code)
    Long Thumb to Thumb Veneer to hal_uart_init 0x1fff1bb9   Thumb Code    12  anon$$obj.o(Veneer$$Code)
    Long Thumb to Thumb Veneer to hal_gpio_cfg_analog_io 0x1fff1bc5   Thumb Code    12  anon$$obj.o(Veneer$$Code)
    Long Thumb to Thumb Veneer to hal_gpio_pin_init 0x1fff1bd1   Thumb Code    12  anon$$obj.o(Veneer$$Code)
    Long Thumb to Thumb Veneer to hal_gpio_pull_set 0x1fff1bdd   Thumb Code    12  anon$$obj.o(Veneer$$Code)
    Long Thumb to Thumb Veneer to ll_hw_set_rx_timeout_1st 0x1fff1be9   Thumb Code    12  anon$$obj.o(Veneer$$Code)
    Long Thumb to Thumb Veneer to enterSleepProcess0 0x1fff1bf5   Thumb Code    12  anon$$obj.o(Veneer$$Code)
    Long Thumb to Thumb Veneer to LL_ENC_AES128_Encrypt 0x1fff1c01   Thumb Code    12  anon$$obj.o(Veneer$$Code)
    Long Thumb to Thumb Veneer to osal_memcmp 0x1fff1c0d   Thumb Code    12  anon$$obj.o(Veneer$$Code)
    Long Thumb to Thumb Veneer to drv_enable_irq 0x1fff1c19   Thumb Code    12  anon$$obj.o(Veneer$$Code)
    Long Thumb to Thumb Veneer to spif_read_id 0x1fff1c25   Thumb Code    12  anon$$obj.o(Veneer$$Code)
    Long Thumb to Thumb Veneer to hal_gpio_init 0x1fff1c31   Thumb Code    12  anon$$obj.o(Veneer$$Code)
    Long Thumb to Thumb Veneer to __aeabi_memcpy4 0x1fff1c3d   Thumb Code    12  anon$$obj.o(Veneer$$Code)
    Long Thumb to Thumb Veneer to disableSleep 0x1fff1c49   Thumb Code    12  anon$$obj.o(Veneer$$Code)
    Long Thumb to Thumb Veneer to enableSleep 0x1fff1c55   Thumb Code    12  anon$$obj.o(Veneer$$Code)
    Long Thumb to Thumb Veneer to spif_config 0x1fff1c61   Thumb Code    12  anon$$obj.o(Veneer$$Code)
    Long Thumb to Thumb Veneer to llProcessTxData0 0x1fff1c6d   Thumb Code    12  anon$$obj.o(Veneer$$Code)
    Long Thumb to Thumb Veneer to llReleaseConnId0 0x1fff1c79   Thumb Code    12  anon$$obj.o(Veneer$$Code)
    Long Thumb to Thumb Veneer to llSlaveEvt_TaskEndOk0 0x1fff1c85   Thumb Code    12  anon$$obj.o(Veneer$$Code)
    Long Thumb to Thumb Veneer to getTxBufferFree 0x1fff1c91   Thumb Code    12  anon$$obj.o(Veneer$$Code)
    Long Thumb to Thumb Veneer to get_tx_write_ptr 0x1fff1c9d   Thumb Code    12  anon$$obj.o(Veneer$$Code)
    Long Thumb to Thumb Veneer to LL_ENC_Encrypt 0x1fff1ca9   Thumb Code    12  anon$$obj.o(Veneer$$Code)
    Long Thumb to Thumb Veneer to __aeabi_memcpy 0x1fff1cb5   Thumb Code    12  anon$$obj.o(Veneer$$Code)
    Long Thumb to Thumb Veneer to update_tx_write_ptr 0x1fff1cc1   Thumb Code    12  anon$$obj.o(Veneer$$Code)
    Long Thumb to Thumb Veneer to ll_hw_write_tfifo 0x1fff1ccd   Thumb Code    12  anon$$obj.o(Veneer$$Code)
    Long Thumb to Thumb Veneer to ll_hw_get_tfifo_wrptr 0x1fff1cd9   Thumb Code    12  anon$$obj.o(Veneer$$Code)
    Long Thumb to Thumb Veneer to getTxBufferSize 0x1fff1ce5   Thumb Code    12  anon$$obj.o(Veneer$$Code)
    Long Thumb to Thumb Veneer to get_tx_read_ptr 0x1fff1cf1   Thumb Code    12  anon$$obj.o(Veneer$$Code)
    Long Thumb to Thumb Veneer to update_tx_read_ptr 0x1fff1cfd   Thumb Code    12  anon$$obj.o(Veneer$$Code)
    Long Thumb to Thumb Veneer to llEnqueueCtrlPkt 0x1fff1d09   Thumb Code    12  anon$$obj.o(Veneer$$Code)
    Long Thumb to Thumb Veneer to ll_hw_set_loop_timeout 0x1fff1d15   Thumb Code    12  anon$$obj.o(Veneer$$Code)
    Long Thumb to Thumb Veneer to get_rx_write_ptr 0x1fff1d21   Thumb Code    12  anon$$obj.o(Veneer$$Code)
    Long Thumb to Thumb Veneer to getRxBufferFree 0x1fff1d2d   Thumb Code    12  anon$$obj.o(Veneer$$Code)
    Long Thumb to Thumb Veneer to set_max_length 0x1fff1d39   Thumb Code    12  anon$$obj.o(Veneer$$Code)
    Long Thumb to Thumb Veneer to ll_hw_read_tfifo_packet 0x1fff1d45   Thumb Code    12  anon$$obj.o(Veneer$$Code)
    Long Thumb to Thumb Veneer to osal_mem_alloc 0x1fff1d51   Thumb Code    12  anon$$obj.o(Veneer$$Code)
    Long Thumb to Thumb Veneer to ll_read_rxfifo0 0x1fff1d5d   Thumb Code    12  anon$$obj.o(Veneer$$Code)
    Long Thumb to Thumb Veneer to drv_irq_init 0x1fff1d69   Thumb Code    12  anon$$obj.o(Veneer$$Code)
    Long Thumb to Thumb Veneer to init_config 0x1fff1d75   Thumb Code    12  anon$$obj.o(Veneer$$Code)
    Long Thumb to Thumb Veneer to __aeabi_uidivmod 0x1fff1d81   Thumb Code    12  anon$$obj.o(Veneer$$Code)
    Long Thumb to Thumb Veneer to osal_memset 0x1fff1d8d   Thumb Code    12  anon$$obj.o(Veneer$$Code)
    Long Thumb to Thumb Veneer to LL_Init    0x1fff1d99   Thumb Code    12  anon$$obj.o(Veneer$$Code)
    Long Thumb to Thumb Veneer to osal_pwrmgr_powerconserve0 0x1fff1da5   Thumb Code    12  anon$$obj.o(Veneer$$Code)
    Long Thumb to Thumb Veneer to ll_hw_set_crc_fmt 0x1fff1db1   Thumb Code    12  anon$$obj.o(Veneer$$Code)
    Long Thumb to Thumb Veneer to ll_hw_tx2rx_timing_config 0x1fff1dbd   Thumb Code    12  anon$$obj.o(Veneer$$Code)
    Long Thumb to Thumb Veneer to __ARM_common_switch8 0x1fff1dc9   Thumb Code    12  anon$$obj.o(Veneer$$Code)
    Long Thumb to Thumb Veneer to osalTimeUpdate 0x1fff1dd5   Thumb Code    12  anon$$obj.o(Veneer$$Code)
    Long Thumb to Thumb Veneer to set_timer  0x1fff1de1   Thumb Code    12  anon$$obj.o(Veneer$$Code)
    Long Thumb to Thumb Veneer to app_wakeup_process 0x1fff1ded   Thumb Code    12  anon$$obj.o(Veneer$$Code)
    Long Thumb to Thumb Veneer to ll_hw_set_empty_head 0x1fff1df9   Thumb Code    12  anon$$obj.o(Veneer$$Code)
    Long Thumb to Thumb Veneer to ll_hw_set_timing 0x1fff1e05   Thumb Code    12  anon$$obj.o(Veneer$$Code)
    Long Thumb to Thumb Veneer to ll_hw_ign_rfifo 0x1fff1e11   Thumb Code    12  anon$$obj.o(Veneer$$Code)
    hal_pwrmgr_enter_sleep_rtc_reset         0x1fff1f55   Thumb Code    54  pwrmgr.o(_section_sram_code_)
    LL_ENC_AES128_Encrypt1                   0x1fff1f91   Thumb Code    26  patch.o(i.LL_ENC_AES128_Encrypt1)
    LL_ENC_Decrypt1                          0x1fff1fad   Thumb Code   364  patch.o(i.LL_ENC_Decrypt1)
    LL_ENC_Encrypt1                          0x1fff2125   Thumb Code   342  patch.o(i.LL_ENC_Encrypt1)
    LL_IRQHandler1                           0x1fff2285   Thumb Code   406  patch.o(i.LL_IRQHandler1)
    LL_ProcessEvent1                         0x1fff2441   Thumb Code    72  patch.o(i.LL_ProcessEvent1)
    LL_Reset1                                0x1fff2495   Thumb Code    24  patch.o(i.LL_Reset1)
    LL_set_default_conn_params1              0x1fff24ad   Thumb Code    72  patch.o(i.LL_set_default_conn_params1)
    SystemInit                               0x1fff2509   Thumb Code     8  system_armcm0.o(i.SystemInit)
    __scatterload_copy                       0x1fff26a1   Thumb Code    14  handlers.o(i.__scatterload_copy)
    __scatterload_null                       0x1fff26af   Thumb Code     2  handlers.o(i.__scatterload_null)
    __scatterload_zeroinit                   0x1fff26b1   Thumb Code    14  handlers.o(i.__scatterload_zeroinit)
    __wdt_init                               0x1fff26c1   Thumb Code    12  patch.o(i.__wdt_init)
    _efuse_chip_version_check                0x1fff27dd   Thumb Code    26  phy_sec_ext.o(i._efuse_chip_version_check)
    _hard_fault                              0x1fff27fd   Thumb Code   258  jump_table.o(i._hard_fault)
    _rom_efuse_version_init                  0x1fff2a6d   Thumb Code    32  phy_sec_ext.o(i._rom_efuse_version_init)
    _rom_sec_boot_init                       0x1fff2a8d   Thumb Code    22  phy_sec_ext.o(i._rom_sec_boot_init)
    _uart_putc                               0x1fff2ac7   Thumb Code    18  my_printf.o(i._uart_putc)
    adc_set_high_threshold_flag              0x1fff2cf1   Thumb Code     6  adc.o(i.adc_set_high_threshold_flag)
    app_main                                 0x1fff2d49   Thumb Code    20  gpio_main.o(i.app_main)
    clear_adcc_cfg                           0x1fff2ff1   Thumb Code    22  adc.o(i.clear_adcc_cfg)
    clk_init                                 0x1fff300d   Thumb Code   108  patch.o(i.clk_init)
    config_RTC1                              0x1fff308d   Thumb Code   144  patch.o(i.config_RTC1)
    dbg_printf                               0x1fff31cd   Thumb Code    30  my_printf.o(i.dbg_printf)
    dbg_printf_init                          0x1fff31f1   Thumb Code    30  my_printf.o(i.dbg_printf_init)
    efuse_init                               0x1fff3245   Thumb Code    14  phy_sec_ext.o(i.efuse_init)
    enterSleepProcess1                       0x1fff3315   Thumb Code    56  patch.o(i.enterSleepProcess1)
    finidv                                   0x1fff3359   Thumb Code   126  phy_sec_ext.o(i.finidv)
    global_config_hclk_related               0x1fff33e5   Thumb Code   140  patch.o(i.global_config_hclk_related)
    hal_ADC_IRQHandler                       0x1fff3479   Thumb Code   250  adc.o(i.hal_ADC_IRQHandler)
    hal_adc_stop                             0x1fff3739   Thumb Code   186  adc.o(i.hal_adc_stop)
    hal_cache_tag_flush                      0x1fff3849   Thumb Code    86  flash.o(i.hal_cache_tag_flush)
    hal_clk_gate_disable                     0x1fff38a5   Thumb Code    80  clock.o(i.hal_clk_gate_disable)
    hal_clk_gate_enable                      0x1fff38f5   Thumb Code    80  clock.o(i.hal_clk_gate_enable)
    hal_clk_reset                            0x1fff3945   Thumb Code   216  clock.o(i.hal_clk_reset)
    hal_get_flash_info                       0x1fff3a1d   Thumb Code    12  flash.o(i.hal_get_flash_info)
    hal_poilling_adc_stop                    0x1fff3ae1   Thumb Code   134  adc.o(i.hal_poilling_adc_stop)
    hal_pwrmgr_LowCurrentLdo_enable          0x1fff3b85   Thumb Code    18  pwrmgr.o(i.hal_pwrmgr_LowCurrentLdo_enable)
    hal_pwrmgr_RAM_retention                 0x1fff3b9d   Thumb Code    48  pwrmgr.o(i.hal_pwrmgr_RAM_retention)
    hal_pwrmgr_RAM_retention_clr             0x1fff3bd1   Thumb Code    18  pwrmgr.o(i.hal_pwrmgr_RAM_retention_clr)
    hal_pwrmgr_RAM_retention_set             0x1fff3be9   Thumb Code    28  pwrmgr.o(i.hal_pwrmgr_RAM_retention_set)
    hal_pwrmgr_init                          0x1fff3c0d   Thumb Code    48  pwrmgr.o(i.hal_pwrmgr_init)
    hal_pwrmgr_lock                          0x1fff3c45   Thumb Code   100  pwrmgr.o(i.hal_pwrmgr_lock)
    hal_pwrmgr_register                      0x1fff3cb1   Thumb Code   108  pwrmgr.o(i.hal_pwrmgr_register)
    hal_pwrmgr_sleep_process                 0x1fff3d25   Thumb Code    74  pwrmgr.o(i.hal_pwrmgr_sleep_process)
    hal_pwrmgr_unlock                        0x1fff3d81   Thumb Code   122  pwrmgr.o(i.hal_pwrmgr_unlock)
    hal_pwrmgr_wakeup_process                0x1fff3e05   Thumb Code   146  pwrmgr.o(i.hal_pwrmgr_wakeup_process)
    hal_rc32k_clk_tracking_init              0x1fff3ec1   Thumb Code    24  clock.o(i.hal_rc32k_clk_tracking_init)
    hal_rom_boot_init                        0x1fff3f59   Thumb Code     8  patch.o(i.hal_rom_boot_init)
    hal_rtc_clock_config                     0x1fff3f61   Thumb Code   156  clock.o(i.hal_rtc_clock_config)
    hal_spif_cache_init                      0x1fff4009   Thumb Code    30  flash.o(i.hal_spif_cache_init)
    hal_system_clock_change_process          0x1fff4031   Thumb Code    12  patch.o(i.hal_system_clock_change_process)
    isTimer5Running                          0x1fff40e1   Thumb Code    12  patch.o(i.isTimer5Running)
    l2capPocessFragmentTxData                0x1fff40f1   Thumb Code     2  patch.o(i.l2capPocessFragmentTxData)
    lib_efuse_load                           0x1fff40f5   Thumb Code   168  lib_efuse3.o(i.lib_efuse_load)
    llProcessTxData1                         0x1fff41ad   Thumb Code    80  patch.o(i.llProcessTxData1)
    llReleaseConnId1                         0x1fff4201   Thumb Code   192  patch.o(i.llReleaseConnId1)
    llSlaveEvt_TaskEndOk1                    0x1fff42c1   Thumb Code    46  patch.o(i.llSlaveEvt_TaskEndOk1)
    llWriteTxData1                           0x1fff42f9   Thumb Code   162  patch.o(i.llWriteTxData1)
    ll_generateTxBuffer1                     0x1fff43fd   Thumb Code   614  patch.o(i.ll_generateTxBuffer1)
    ll_hw_go1                                0x1fff4679   Thumb Code   628  patch.o(i.ll_hw_go1)
    ll_hw_read_tfifo_rtlp1                   0x1fff4955   Thumb Code   198  patch.o(i.ll_hw_read_tfifo_rtlp1)
    ll_osal_mem_alloc                        0x1fff4a31   Thumb Code   122  patch.o(i.ll_osal_mem_alloc)
    ll_osal_mem_free                         0x1fff4ac5   Thumb Code    74  patch.o(i.ll_osal_mem_free)
    ll_processBasicIRQ_SRX                   0x1fff4b15   Thumb Code    20  patch.o(i.ll_processBasicIRQ_SRX)
    ll_processBasicIRQ_ScanTRX               0x1fff4b2d   Thumb Code    20  patch.o(i.ll_processBasicIRQ_ScanTRX)
    ll_processBasicIRQ_secScanTRX            0x1fff4b45   Thumb Code    20  patch.o(i.ll_processBasicIRQ_secScanTRX)
    ll_processBasicIRQ_secondaryAdvSTX       0x1fff4b5d   Thumb Code    20  patch.o(i.ll_processBasicIRQ_secondaryAdvSTX)
    ll_processBasicIRQ_secondaryAdvTRX       0x1fff4b75   Thumb Code    20  patch.o(i.ll_processBasicIRQ_secondaryAdvTRX)
    ll_processBasicIRQ_secondaryInitSRX      0x1fff4b8d   Thumb Code    20  patch.o(i.ll_processBasicIRQ_secondaryInitSRX)
    ll_processBasicIRQ_secondaryScanSRX      0x1fff4ba5   Thumb Code    20  patch.o(i.ll_processBasicIRQ_secondaryScanSRX)
    ll_read_rxfifo1                          0x1fff4bbd   Thumb Code    44  patch.o(i.ll_read_rxfifo1)
    llbuf_alloc_time_statics                 0x1fff4bf9   Thumb Code    62  patch.o(i.llbuf_alloc_time_statics)
    main                                     0x1fff4f81   Thumb Code    38  main.o(i.main)
    osalInitTasks                            0x1fff5169   Thumb Code    36  osal_gpio.o(i.osalInitTasks)
    osal_idle_task0                          0x1fff5191   Thumb Code    20  patch.o(i.osal_idle_task0)
    osal_search_active_task                  0x1fff51a9   Thumb Code    52  patch.o(i.osal_search_active_task)
    patch_linkBuf_init                       0x1fff51e1   Thumb Code   142  patch.o(i.patch_linkBuf_init)
    rc32k_calibration                        0x1fff52e5   Thumb Code   122  rf_phy_driver.o(i.rc32k_calibration)
    rc32k_cap_cal                            0x1fff5365   Thumb Code    74  patch.o(i.rc32k_cap_cal)
    rf_calibrate1                            0x1fff53c9   Thumb Code    12  rf_phy_driver.o(i.rf_calibrate1)
    rf_phy_ana_cfg                           0x1fff53d5   Thumb Code   232  rf_phy_driver.o(i.rf_phy_ana_cfg)
    rf_phy_bb_cfg                            0x1fff54f1   Thumb Code   310  rf_phy_driver.o(i.rf_phy_bb_cfg)
    rf_phy_change_cfg0                       0x1fff569d   Thumb Code   138  rf_phy_driver.o(i.rf_phy_change_cfg0)
    rf_phy_ini                               0x1fff5745   Thumb Code    42  rf_phy_driver.o(i.rf_phy_ini)
    rf_phy_set_txPower                       0x1fff5781   Thumb Code   108  rf_phy_driver.o(i.rf_phy_set_txPower)
    rf_tpCal_gen_cap_arrary                  0x1fff57f5   Thumb Code    60  rf_phy_driver.o(i.rf_tpCal_gen_cap_arrary)
    rf_tp_cal                                0x1fff5841   Thumb Code   236  rf_phy_driver.o(i.rf_tp_cal)
    wakeupProcess1                           0x1fff5989   Thumb Code   444  patch.o(i.wakeupProcess1)
    wakeup_init1                             0x1fff5b9d   Thumb Code   294  patch.o(i.wakeup_init1)
    Region$$Table$$Base                      0x1fff5e14   Number         0  anon$$obj.o(Region$$Table)
    Region$$Table$$Limit                     0x1fff5e44   Number         0  anon$$obj.o(Region$$Table)
    tasksArr                                 0x1fff5e44   Data           4  osal_gpio.o(_section_sram_code_)
    tasksCnt                                 0x1fff5e48   Data           1  osal_gpio.o(_section_sram_code_)
    g_clk32K_config                          0x1fff5e4c   Data           1  main.o(.data)
    g_spif_clk_config                        0x1fff5e4d   Data           1  main.o(.data)
    trap_c_callback                          0x1fff5e50   Data           4  jump_table.o(.data)
    tasksEvents                              0x1fff5e54   Data           4  osal_gpio.o(.data)
    s_config_swClk1                          0x1fff5e6c   Data           4  pwrmgr.o(.data)
    s_gpio_wakeup_src_group1                 0x1fff5e70   Data           4  pwrmgr.o(.data)
    s_gpio_wakeup_src_group2                 0x1fff5e74   Data           4  pwrmgr.o(.data)
    pwroff_register_number                   0x1fff5e78   Data           1  pwrmgr.o(.data)
    s_pinmap                                 0x1fff5e8a   Data           9  adc.o(.data)
    spif_dma_use                             0x1fff5e98   Data           1  flash.o(.data)
    g_chipMAddr                              0x1fff5e99   Data           7  flash.o(.data)
    SystemCoreClock                          0x1fff5ea0   Data           4  system_armcm0.o(.data)
    ll_recv_scan_all_cnt                     0x1fff5ea4   Data           1  patch.o(.data)
    g_ll_adv_scan_concurrent                 0x1fff5ea5   Data           1  patch.o(.data)
    g_ll_sleep_timer5_recoverRequired        0x1fff5ea6   Data           1  patch.o(.data)
    g_txdata_content                         0x1fff5ea7   Data           1  patch.o(.data)
    g_recvphyupdate                          0x1fff5ea8   Data           1  patch.o(.data)
    g_msater_recv_phyrsp                     0x1fff5ea9   Data           1  patch.o(.data)
    g_system_clk_change                      0x1fff5eaa   Data           1  patch.o(.data)
    _clk_change_flg                          0x1fff5eab   Data           1  patch.o(.data)
    chip_hw_version                          0x1fff5ead   Data           1  patch.o(.data)
    g_clock_check_flag                       0x1fff5eae   Data           1  patch.o(.data)
    pGlobal_config                           0x1fff5eb0   Data           4  patch.o(.data)
    g_t_llhwgo                               0x1fff5eb4   Data           4  patch.o(.data)
    ll_timer5_remain_time                    0x1fff5eb8   Data           4  patch.o(.data)
    p_g_llDevList                            0x1fff5ebc   Data           4  patch.o(.data)
    g_llbuf_alloc_Max                        0x1fff5ec0   Data           4  patch.o(.data)
    g_llbuf_alloc_Min                        0x1fff5ec4   Data           4  patch.o(.data)
    g_llbuf_alloc_avg                        0x1fff5ec8   Data           4  patch.o(.data)
    g_xtal16M_tmp                            0x1fff5ecc   Data           4  patch.o(.data)
    g_xtal96M_temp                           0x1fff5ed0   Data           4  patch.o(.data)
    DLL_enable_num                           0x1fff5ed4   Data           4  patch.o(.data)
    tracking_cnt                             0x1fff5ed8   Data           4  patch.o(.data)
    ff1_llLink                               0x1fff5edc   Data           4  patch.o(.data)
    theHeap_llLink                           0x1fff5ee0   Data           4  patch.o(.data)
    heapSize_llLink                          0x1fff5ee4   Data           4  patch.o(.data)
    ff1_mesh                                 0x1fff5ee8   Data           4  patch.o(.data)
    theHeap_mesh                             0x1fff5eec   Data           4  patch.o(.data)
    heapSize_mesh                            0x1fff5ef0   Data           4  patch.o(.data)
    sleep_total                              0x1fff5ef4   Data           4  patch.o(.data)
    restore_index                            0x1fff5efd   Data          16  patch.o(.data)
    g_ota_sec_key_valid                      0x1fff5f0d   Data           1  phy_sec_ext.o(.data)
    g_pConnectionBuffer                      0x1fff5f18   Data        1876  main.o(.bss)
    pConnContext                             0x1fff666c   Data         644  main.o(.bss)
    g_largeHeap                              0x1fff68f0   Data        4096  main.o(.bss)
    s_pwroff_cfg                             0x1fff7ad8   Data          12  pwrmgr.o(.bss)
    restore_patch                            0x1fff7b0c   Data          64  patch.o(.bss)
    g_tx_scanreq_buf                         0x1fff7b4c   Data         268  patch.o(.bss)
    g_ll_flowCtrl                            0x1fff7c58   Data          32  patch.o(.bss)
    llBuf_Res                                0x1fff7c78   Data         448  patch.o(.bss)
    g_ota_sec_key                            0x1fff7e98   Data          16  phy_sec_ext.o(.bss)
    __initial_sp                             0x1fff82a8   Data           0  startup_armcm0.o(STACK)



==============================================================================

Memory Map of the image

  Image Entry point : 0x1fff18f9

  Load Region LR_IROM1 (Base: 0x1fff1838, Size: 0x000046e0, Max: 0x0000e7c8, ABSOLUTE)

    Execution Region ER_IROM1 (Exec base: 0x1fff1838, Load base: 0x1fff1838, Size: 0x00006a70, Max: 0x0000e7c8, ABSOLUTE)

    Exec Addr    Load Addr    Size         Type   Attr      Idx    E Section Name        Object

    0x1fff1838   0x1fff1838   0x000000c0   Data   RO         1566    RESET               startup_armcm0.o
    0x1fff18f8   0x1fff18f8   0x00000000   Code   RO         2110  * .ARM.Collect$$$$00000000  mc_p.l(entry.o)
    0x1fff18f8   0x1fff18f8   0x00000004   Code   RO         2133    .ARM.Collect$$$$00000001  mc_p.l(entry2.o)
    0x1fff18fc   0x1fff18fc   0x00000004   Code   RO         2136    .ARM.Collect$$$$00000004  mc_p.l(entry5.o)
    0x1fff1900   0x1fff1900   0x00000000   Code   RO         2138    .ARM.Collect$$$$00000008  mc_p.l(entry7b.o)
    0x1fff1900   0x1fff1900   0x00000000   Code   RO         2140    .ARM.Collect$$$$0000000A  mc_p.l(entry8b.o)
    0x1fff1900   0x1fff1900   0x00000008   Code   RO         2141    .ARM.Collect$$$$0000000B  mc_p.l(entry9a.o)
    0x1fff1908   0x1fff1908   0x00000000   Code   RO         2143    .ARM.Collect$$$$0000000D  mc_p.l(entry10a.o)
    0x1fff1908   0x1fff1908   0x00000000   Code   RO         2145    .ARM.Collect$$$$0000000F  mc_p.l(entry11a.o)
    0x1fff1908   0x1fff1908   0x00000004   Code   RO         2134    .ARM.Collect$$$$00002712  mc_p.l(entry2.o)
    0x1fff190c   0x1fff190c   0x00000038   Code   RO          179    .emb_text           jump_table.o
    0x1fff1944   0x1fff1944   0x0000001c   Code   RO         1567    .text               startup_armcm0.o
    0x1fff1960   0x1fff1960   0x00000024   Code   RO         2154    .text               mc_p.l(init.o)
    0x1fff1984   0x1fff1984   0x0000003a   Code   RO         2167    .text               mc_p.l(__dczerorl.o)
    0x1fff19be   0x1fff19be   0x00000002   PAD
    0x1fff19c0   0x1fff19c0   0x0000000c   Ven    RO         2169    Veneer$$Code        anon$$obj.o
    0x1fff19cc   0x1fff19cc   0x0000000c   Ven    RO         2170    Veneer$$Code        anon$$obj.o
    0x1fff19d8   0x1fff19d8   0x0000000c   Ven    RO         2171    Veneer$$Code        anon$$obj.o
    0x1fff19e4   0x1fff19e4   0x0000000c   Ven    RO         2172    Veneer$$Code        anon$$obj.o
    0x1fff19f0   0x1fff19f0   0x0000000c   Ven    RO         2173    Veneer$$Code        anon$$obj.o
    0x1fff19fc   0x1fff19fc   0x0000000c   Ven    RO         2174    Veneer$$Code        anon$$obj.o
    0x1fff1a08   0x1fff1a08   0x0000000c   Ven    RO         2175    Veneer$$Code        anon$$obj.o
    0x1fff1a14   0x1fff1a14   0x0000000c   Ven    RO         2176    Veneer$$Code        anon$$obj.o
    0x1fff1a20   0x1fff1a20   0x0000000c   Ven    RO         2177    Veneer$$Code        anon$$obj.o
    0x1fff1a2c   0x1fff1a2c   0x0000000c   Ven    RO         2178    Veneer$$Code        anon$$obj.o
    0x1fff1a38   0x1fff1a38   0x0000000c   Ven    RO         2179    Veneer$$Code        anon$$obj.o
    0x1fff1a44   0x1fff1a44   0x0000000c   Ven    RO         2180    Veneer$$Code        anon$$obj.o
    0x1fff1a50   0x1fff1a50   0x0000000c   Ven    RO         2181    Veneer$$Code        anon$$obj.o
    0x1fff1a5c   0x1fff1a5c   0x0000000c   Ven    RO         2182    Veneer$$Code        anon$$obj.o
    0x1fff1a68   0x1fff1a68   0x0000000c   Ven    RO         2183    Veneer$$Code        anon$$obj.o
    0x1fff1a74   0x1fff1a74   0x0000000c   Ven    RO         2184    Veneer$$Code        anon$$obj.o
    0x1fff1a80   0x1fff1a80   0x0000000c   Ven    RO         2185    Veneer$$Code        anon$$obj.o
    0x1fff1a8c   0x1fff1a8c   0x0000000c   Ven    RO         2186    Veneer$$Code        anon$$obj.o
    0x1fff1a98   0x1fff1a98   0x0000000c   Ven    RO         2187    Veneer$$Code        anon$$obj.o
    0x1fff1aa4   0x1fff1aa4   0x0000000c   Ven    RO         2188    Veneer$$Code        anon$$obj.o
    0x1fff1ab0   0x1fff1ab0   0x0000000c   Ven    RO         2189    Veneer$$Code        anon$$obj.o
    0x1fff1abc   0x1fff1abc   0x0000000c   Ven    RO         2190    Veneer$$Code        anon$$obj.o
    0x1fff1ac8   0x1fff1ac8   0x0000000c   Ven    RO         2191    Veneer$$Code        anon$$obj.o
    0x1fff1ad4   0x1fff1ad4   0x0000000c   Ven    RO         2192    Veneer$$Code        anon$$obj.o
    0x1fff1ae0   0x1fff1ae0   0x0000000c   Ven    RO         2193    Veneer$$Code        anon$$obj.o
    0x1fff1aec   0x1fff1aec   0x0000000c   Ven    RO         2194    Veneer$$Code        anon$$obj.o
    0x1fff1af8   0x1fff1af8   0x0000000c   Ven    RO         2195    Veneer$$Code        anon$$obj.o
    0x1fff1b04   0x1fff1b04   0x0000000c   Ven    RO         2196    Veneer$$Code        anon$$obj.o
    0x1fff1b10   0x1fff1b10   0x0000000c   Ven    RO         2197    Veneer$$Code        anon$$obj.o
    0x1fff1b1c   0x1fff1b1c   0x0000000c   Ven    RO         2198    Veneer$$Code        anon$$obj.o
    0x1fff1b28   0x1fff1b28   0x0000000c   Ven    RO         2199    Veneer$$Code        anon$$obj.o
    0x1fff1b34   0x1fff1b34   0x0000000c   Ven    RO         2200    Veneer$$Code        anon$$obj.o
    0x1fff1b40   0x1fff1b40   0x0000000c   Ven    RO         2201    Veneer$$Code        anon$$obj.o
    0x1fff1b4c   0x1fff1b4c   0x0000000c   Ven    RO         2202    Veneer$$Code        anon$$obj.o
    0x1fff1b58   0x1fff1b58   0x0000000c   Ven    RO         2203    Veneer$$Code        anon$$obj.o
    0x1fff1b64   0x1fff1b64   0x0000000c   Ven    RO         2204    Veneer$$Code        anon$$obj.o
    0x1fff1b70   0x1fff1b70   0x0000000c   Ven    RO         2205    Veneer$$Code        anon$$obj.o
    0x1fff1b7c   0x1fff1b7c   0x0000000c   Ven    RO         2206    Veneer$$Code        anon$$obj.o
    0x1fff1b88   0x1fff1b88   0x0000000c   Ven    RO         2207    Veneer$$Code        anon$$obj.o
    0x1fff1b94   0x1fff1b94   0x0000000c   Ven    RO         2208    Veneer$$Code        anon$$obj.o
    0x1fff1ba0   0x1fff1ba0   0x0000000c   Ven    RO         2209    Veneer$$Code        anon$$obj.o
    0x1fff1bac   0x1fff1bac   0x0000000c   Ven    RO         2210    Veneer$$Code        anon$$obj.o
    0x1fff1bb8   0x1fff1bb8   0x0000000c   Ven    RO         2211    Veneer$$Code        anon$$obj.o
    0x1fff1bc4   0x1fff1bc4   0x0000000c   Ven    RO         2212    Veneer$$Code        anon$$obj.o
    0x1fff1bd0   0x1fff1bd0   0x0000000c   Ven    RO         2213    Veneer$$Code        anon$$obj.o
    0x1fff1bdc   0x1fff1bdc   0x0000000c   Ven    RO         2214    Veneer$$Code        anon$$obj.o
    0x1fff1be8   0x1fff1be8   0x0000000c   Ven    RO         2215    Veneer$$Code        anon$$obj.o
    0x1fff1bf4   0x1fff1bf4   0x0000000c   Ven    RO         2216    Veneer$$Code        anon$$obj.o
    0x1fff1c00   0x1fff1c00   0x0000000c   Ven    RO         2217    Veneer$$Code        anon$$obj.o
    0x1fff1c0c   0x1fff1c0c   0x0000000c   Ven    RO         2218    Veneer$$Code        anon$$obj.o
    0x1fff1c18   0x1fff1c18   0x0000000c   Ven    RO         2219    Veneer$$Code        anon$$obj.o
    0x1fff1c24   0x1fff1c24   0x0000000c   Ven    RO         2220    Veneer$$Code        anon$$obj.o
    0x1fff1c30   0x1fff1c30   0x0000000c   Ven    RO         2221    Veneer$$Code        anon$$obj.o
    0x1fff1c3c   0x1fff1c3c   0x0000000c   Ven    RO         2222    Veneer$$Code        anon$$obj.o
    0x1fff1c48   0x1fff1c48   0x0000000c   Ven    RO         2223    Veneer$$Code        anon$$obj.o
    0x1fff1c54   0x1fff1c54   0x0000000c   Ven    RO         2224    Veneer$$Code        anon$$obj.o
    0x1fff1c60   0x1fff1c60   0x0000000c   Ven    RO         2225    Veneer$$Code        anon$$obj.o
    0x1fff1c6c   0x1fff1c6c   0x0000000c   Ven    RO         2226    Veneer$$Code        anon$$obj.o
    0x1fff1c78   0x1fff1c78   0x0000000c   Ven    RO         2227    Veneer$$Code        anon$$obj.o
    0x1fff1c84   0x1fff1c84   0x0000000c   Ven    RO         2228    Veneer$$Code        anon$$obj.o
    0x1fff1c90   0x1fff1c90   0x0000000c   Ven    RO         2229    Veneer$$Code        anon$$obj.o
    0x1fff1c9c   0x1fff1c9c   0x0000000c   Ven    RO         2230    Veneer$$Code        anon$$obj.o
    0x1fff1ca8   0x1fff1ca8   0x0000000c   Ven    RO         2231    Veneer$$Code        anon$$obj.o
    0x1fff1cb4   0x1fff1cb4   0x0000000c   Ven    RO         2232    Veneer$$Code        anon$$obj.o
    0x1fff1cc0   0x1fff1cc0   0x0000000c   Ven    RO         2233    Veneer$$Code        anon$$obj.o
    0x1fff1ccc   0x1fff1ccc   0x0000000c   Ven    RO         2234    Veneer$$Code        anon$$obj.o
    0x1fff1cd8   0x1fff1cd8   0x0000000c   Ven    RO         2235    Veneer$$Code        anon$$obj.o
    0x1fff1ce4   0x1fff1ce4   0x0000000c   Ven    RO         2236    Veneer$$Code        anon$$obj.o
    0x1fff1cf0   0x1fff1cf0   0x0000000c   Ven    RO         2237    Veneer$$Code        anon$$obj.o
    0x1fff1cfc   0x1fff1cfc   0x0000000c   Ven    RO         2238    Veneer$$Code        anon$$obj.o
    0x1fff1d08   0x1fff1d08   0x0000000c   Ven    RO         2239    Veneer$$Code        anon$$obj.o
    0x1fff1d14   0x1fff1d14   0x0000000c   Ven    RO         2240    Veneer$$Code        anon$$obj.o
    0x1fff1d20   0x1fff1d20   0x0000000c   Ven    RO         2241    Veneer$$Code        anon$$obj.o
    0x1fff1d2c   0x1fff1d2c   0x0000000c   Ven    RO         2242    Veneer$$Code        anon$$obj.o
    0x1fff1d38   0x1fff1d38   0x0000000c   Ven    RO         2243    Veneer$$Code        anon$$obj.o
    0x1fff1d44   0x1fff1d44   0x0000000c   Ven    RO         2244    Veneer$$Code        anon$$obj.o
    0x1fff1d50   0x1fff1d50   0x0000000c   Ven    RO         2245    Veneer$$Code        anon$$obj.o
    0x1fff1d5c   0x1fff1d5c   0x0000000c   Ven    RO         2246    Veneer$$Code        anon$$obj.o
    0x1fff1d68   0x1fff1d68   0x0000000c   Ven    RO         2247    Veneer$$Code        anon$$obj.o
    0x1fff1d74   0x1fff1d74   0x0000000c   Ven    RO         2248    Veneer$$Code        anon$$obj.o
    0x1fff1d80   0x1fff1d80   0x0000000c   Ven    RO         2249    Veneer$$Code        anon$$obj.o
    0x1fff1d8c   0x1fff1d8c   0x0000000c   Ven    RO         2250    Veneer$$Code        anon$$obj.o
    0x1fff1d98   0x1fff1d98   0x0000000c   Ven    RO         2251    Veneer$$Code        anon$$obj.o
    0x1fff1da4   0x1fff1da4   0x0000000c   Ven    RO         2252    Veneer$$Code        anon$$obj.o
    0x1fff1db0   0x1fff1db0   0x0000000c   Ven    RO         2253    Veneer$$Code        anon$$obj.o
    0x1fff1dbc   0x1fff1dbc   0x0000000c   Ven    RO         2254    Veneer$$Code        anon$$obj.o
    0x1fff1dc8   0x1fff1dc8   0x0000000c   Ven    RO         2255    Veneer$$Code        anon$$obj.o
    0x1fff1dd4   0x1fff1dd4   0x0000000c   Ven    RO         2256    Veneer$$Code        anon$$obj.o
    0x1fff1de0   0x1fff1de0   0x0000000c   Ven    RO         2257    Veneer$$Code        anon$$obj.o
    0x1fff1dec   0x1fff1dec   0x0000000c   Ven    RO         2258    Veneer$$Code        anon$$obj.o
    0x1fff1df8   0x1fff1df8   0x0000000c   Ven    RO         2259    Veneer$$Code        anon$$obj.o
    0x1fff1e04   0x1fff1e04   0x0000000c   Ven    RO         2260    Veneer$$Code        anon$$obj.o
    0x1fff1e10   0x1fff1e10   0x0000000c   Ven    RO         2261    Veneer$$Code        anon$$obj.o
    0x1fff1e1c   0x1fff1e1c   0x00000138   Code   RO          669    _section_sram_code_  uart.o
    0x1fff1f54   0x1fff1f54   0x0000003c   Code   RO          826    _section_sram_code_  pwrmgr.o
    0x1fff1f90   0x1fff1f90   0x0000001a   Code   RO         1657    i.LL_ENC_AES128_Encrypt1  rf.lib(patch.o)
    0x1fff1faa   0x1fff1faa   0x00000002   PAD
    0x1fff1fac   0x1fff1fac   0x00000178   Code   RO         1658    i.LL_ENC_Decrypt1   rf.lib(patch.o)
    0x1fff2124   0x1fff2124   0x00000160   Code   RO         1659    i.LL_ENC_Encrypt1   rf.lib(patch.o)
    0x1fff2284   0x1fff2284   0x000001bc   Code   RO         1660    i.LL_IRQHandler1    rf.lib(patch.o)
    0x1fff2440   0x1fff2440   0x00000054   Code   RO         1664    i.LL_ProcessEvent1  rf.lib(patch.o)
    0x1fff2494   0x1fff2494   0x00000018   Code   RO         1665    i.LL_Reset1         rf.lib(patch.o)
    0x1fff24ac   0x1fff24ac   0x00000048   Code   RO         1667    i.LL_set_default_conn_params1  rf.lib(patch.o)
    0x1fff24f4   0x1fff24f4   0x00000014   Code   RO         1670    i.NVIC_EnableIRQ    rf.lib(patch.o)
    0x1fff2508   0x1fff2508   0x00000010   Code   RO         1574    i.SystemInit        system_armcm0.o
    0x1fff2518   0x1fff2518   0x00000020   Code   RO         1066    i.__NVIC_DisableIRQ  adc.o
    0x1fff2538   0x1fff2538   0x00000078   Code   RO            3    i.__NVIC_SetPriority  main.o
    0x1fff25b0   0x1fff25b0   0x00000078   Code   RO          829    i.__NVIC_SetPriority  pwrmgr.o
    0x1fff2628   0x1fff2628   0x00000078   Code   RO         1319    i.__NVIC_SetPriority  flash.o
    0x1fff26a0   0x1fff26a0   0x0000000e   Code   RO         2161    i.__scatterload_copy  mc_p.l(handlers.o)
    0x1fff26ae   0x1fff26ae   0x00000002   Code   RO         2162    i.__scatterload_null  mc_p.l(handlers.o)
    0x1fff26b0   0x1fff26b0   0x0000000e   Code   RO         2163    i.__scatterload_zeroinit  mc_p.l(handlers.o)
    0x1fff26be   0x1fff26be   0x00000002   PAD
    0x1fff26c0   0x1fff26c0   0x00000010   Code   RO         1672    i.__wdt_init        rf.lib(patch.o)
    0x1fff26d0   0x1fff26d0   0x0000010c   Code   RO         1673    i._clk_apply_setting1  rf.lib(patch.o)
    0x1fff27dc   0x1fff27dc   0x00000020   Code   RO         2024    i._efuse_chip_version_check  rf.lib(phy_sec_ext.o)
    0x1fff27fc   0x1fff27fc   0x00000270   Code   RO          180    i._hard_fault       jump_table.o
    0x1fff2a6c   0x1fff2a6c   0x00000020   Code   RO         2025    i._rom_efuse_version_init  rf.lib(phy_sec_ext.o)
    0x1fff2a8c   0x1fff2a8c   0x0000001c   Code   RO         2026    i._rom_sec_boot_init  rf.lib(phy_sec_ext.o)
    0x1fff2aa8   0x1fff2aa8   0x0000001e   Code   RO          604    i._strnlen          my_printf.o
    0x1fff2ac6   0x1fff2ac6   0x00000012   Code   RO          605    i._uart_putc        my_printf.o
    0x1fff2ad8   0x1fff2ad8   0x00000218   Code   RO         1069    i.adc_compare_cb    adc.o
    0x1fff2cf0   0x1fff2cf0   0x0000000c   Code   RO         1071    i.adc_set_high_threshold_flag  adc.o
    0x1fff2cfc   0x1fff2cfc   0x0000004c   Code   RO          971    i.aon_register_init  clock.o
    0x1fff2d48   0x1fff2d48   0x00000014   Code   RO          353    i.app_main          gpio_main.o
    0x1fff2d5c   0x1fff2d5c   0x00000030   Code   RO            4    i.ble_mem_init_config  main.o
    0x1fff2d8c   0x1fff2d8c   0x00000154   Code   RO         1674    i.check_16MXtal_by_rcTracking  rf.lib(patch.o)
    0x1fff2ee0   0x1fff2ee0   0x00000110   Code   RO         1675    i.check_96MXtal_by_rcTracking  rf.lib(patch.o)
    0x1fff2ff0   0x1fff2ff0   0x0000001c   Code   RO         1073    i.clear_adcc_cfg    adc.o
    0x1fff300c   0x1fff300c   0x00000080   Code   RO         1677    i.clk_init          rf.lib(patch.o)
    0x1fff308c   0x1fff308c   0x000000b4   Code   RO         1678    i.config_RTC1       rf.lib(patch.o)
    0x1fff3140   0x1fff3140   0x0000008c   Code   RO         1679    i.cusum_advance_slave_rx_window  rf.lib(patch.o)
    0x1fff31cc   0x1fff31cc   0x00000024   Code   RO          606    i.dbg_printf        my_printf.o
    0x1fff31f0   0x1fff31f0   0x00000024   Code   RO          607    i.dbg_printf_init   my_printf.o
    0x1fff3214   0x1fff3214   0x00000030   Code   RO         1074    i.disable_analog_pin  adc.o
    0x1fff3244   0x1fff3244   0x00000018   Code   RO         2027    i.efuse_init        rf.lib(phy_sec_ext.o)
    0x1fff325c   0x1fff325c   0x000000b8   Code   RO         1682    i.enlarge_rx_timeout_1st  rf.lib(patch.o)
    0x1fff3314   0x1fff3314   0x00000044   Code   RO         1683    i.enterSleepProcess1  rf.lib(patch.o)
    0x1fff3358   0x1fff3358   0x0000008c   Code   RO         2028    i.finidv            rf.lib(phy_sec_ext.o)
    0x1fff33e4   0x1fff33e4   0x00000094   Code   RO         1686    i.global_config_hclk_related  rf.lib(patch.o)
    0x1fff3478   0x1fff3478   0x0000010c   Code   RO         1075    i.hal_ADC_IRQHandler  adc.o
    0x1fff3584   0x1fff3584   0x000001b4   Code   RO         1076    i.hal_ADC_compare_IRQHandler  adc.o
    0x1fff3738   0x1fff3738   0x000000d4   Code   RO         1086    i.hal_adc_stop      adc.o
    0x1fff380c   0x1fff380c   0x0000003a   Code   RO         1324    i.hal_cache_init    flash.o
    0x1fff3846   0x1fff3846   0x00000002   PAD
    0x1fff3848   0x1fff3848   0x0000005c   Code   RO         1325    i.hal_cache_tag_flush  flash.o
    0x1fff38a4   0x1fff38a4   0x00000050   Code   RO          972    i.hal_clk_gate_disable  clock.o
    0x1fff38f4   0x1fff38f4   0x00000050   Code   RO          973    i.hal_clk_gate_enable  clock.o
    0x1fff3944   0x1fff3944   0x000000d8   Code   RO          976    i.hal_clk_reset     clock.o
    0x1fff3a1c   0x1fff3a1c   0x0000000c   Code   RO         1332    i.hal_get_flash_info  flash.o
    0x1fff3a28   0x1fff3a28   0x0000003c   Code   RO            5    i.hal_init          main.o
    0x1fff3a64   0x1fff3a64   0x0000007c   Code   RO            6    i.hal_low_power_io_init  main.o
    0x1fff3ae0   0x1fff3ae0   0x000000a4   Code   RO         1089    i.hal_poilling_adc_stop  adc.o
    0x1fff3b84   0x1fff3b84   0x00000018   Code   RO          832    i.hal_pwrmgr_LowCurrentLdo_enable  pwrmgr.o
    0x1fff3b9c   0x1fff3b9c   0x00000034   Code   RO          833    i.hal_pwrmgr_RAM_retention  pwrmgr.o
    0x1fff3bd0   0x1fff3bd0   0x00000018   Code   RO          834    i.hal_pwrmgr_RAM_retention_clr  pwrmgr.o
    0x1fff3be8   0x1fff3be8   0x00000024   Code   RO          835    i.hal_pwrmgr_RAM_retention_set  pwrmgr.o
    0x1fff3c0c   0x1fff3c0c   0x00000038   Code   RO          837    i.hal_pwrmgr_init   pwrmgr.o
    0x1fff3c44   0x1fff3c44   0x0000006c   Code   RO          839    i.hal_pwrmgr_lock   pwrmgr.o
    0x1fff3cb0   0x1fff3cb0   0x00000074   Code   RO          841    i.hal_pwrmgr_register  pwrmgr.o
    0x1fff3d24   0x1fff3d24   0x0000005c   Code   RO          842    i.hal_pwrmgr_sleep_process  pwrmgr.o
    0x1fff3d80   0x1fff3d80   0x00000084   Code   RO          843    i.hal_pwrmgr_unlock  pwrmgr.o
    0x1fff3e04   0x1fff3e04   0x000000bc   Code   RO          845    i.hal_pwrmgr_wakeup_process  pwrmgr.o
    0x1fff3ec0   0x1fff3ec0   0x00000028   Code   RO          978    i.hal_rc32k_clk_tracking_init  clock.o
    0x1fff3ee8   0x1fff3ee8   0x00000070   Code   RO            7    i.hal_rfphy_init    main.o
    0x1fff3f58   0x1fff3f58   0x00000008   Code   RO         1687    i.hal_rom_boot_init  rf.lib(patch.o)
    0x1fff3f60   0x1fff3f60   0x000000a8   Code   RO          979    i.hal_rtc_clock_config  clock.o
    0x1fff4008   0x1fff4008   0x00000028   Code   RO         1333    i.hal_spif_cache_init  flash.o
    0x1fff4030   0x1fff4030   0x00000010   Code   RO         1689    i.hal_system_clock_change_process  rf.lib(patch.o)
    0x1fff4040   0x1fff4040   0x000000a0   Code   RO         1334    i.hw_spif_cache_config  flash.o
    0x1fff40e0   0x1fff40e0   0x00000010   Code   RO         1692    i.isTimer5Running   rf.lib(patch.o)
    0x1fff40f0   0x1fff40f0   0x00000002   Code   RO         1693    i.l2capPocessFragmentTxData  rf.lib(patch.o)
    0x1fff40f2   0x1fff40f2   0x00000002   PAD
    0x1fff40f4   0x1fff40f4   0x000000b8   Code   RO         2049    i.lib_efuse_load    rf.lib(lib_efuse3.o)
    0x1fff41ac   0x1fff41ac   0x00000054   Code   RO         1702    i.llProcessTxData1  rf.lib(patch.o)
    0x1fff4200   0x1fff4200   0x000000c0   Code   RO         1703    i.llReleaseConnId1  rf.lib(patch.o)
    0x1fff42c0   0x1fff42c0   0x00000038   Code   RO         1710    i.llSlaveEvt_TaskEndOk1  rf.lib(patch.o)
    0x1fff42f8   0x1fff42f8   0x000000a8   Code   RO         1711    i.llWriteTxData1    rf.lib(patch.o)
    0x1fff43a0   0x1fff43a0   0x0000005c   Code   RO         1716    i.ll_flow_ctrl_restore  rf.lib(patch.o)
    0x1fff43fc   0x1fff43fc   0x0000027c   Code   RO         1717    i.ll_generateTxBuffer1  rf.lib(patch.o)
    0x1fff4678   0x1fff4678   0x000002dc   Code   RO         1718    i.ll_hw_go1         rf.lib(patch.o)
    0x1fff4954   0x1fff4954   0x000000dc   Code   RO         1720    i.ll_hw_read_tfifo_rtlp1  rf.lib(patch.o)
    0x1fff4a30   0x1fff4a30   0x00000094   Code   RO         1722    i.ll_osal_mem_alloc  rf.lib(patch.o)
    0x1fff4ac4   0x1fff4ac4   0x00000050   Code   RO         1723    i.ll_osal_mem_free  rf.lib(patch.o)
    0x1fff4b14   0x1fff4b14   0x00000018   Code   RO         1735    i.ll_processBasicIRQ_SRX  rf.lib(patch.o)
    0x1fff4b2c   0x1fff4b2c   0x00000018   Code   RO         1737    i.ll_processBasicIRQ_ScanTRX  rf.lib(patch.o)
    0x1fff4b44   0x1fff4b44   0x00000018   Code   RO         1739    i.ll_processBasicIRQ_secScanTRX  rf.lib(patch.o)
    0x1fff4b5c   0x1fff4b5c   0x00000018   Code   RO         1741    i.ll_processBasicIRQ_secondaryAdvSTX  rf.lib(patch.o)
    0x1fff4b74   0x1fff4b74   0x00000018   Code   RO         1743    i.ll_processBasicIRQ_secondaryAdvTRX  rf.lib(patch.o)
    0x1fff4b8c   0x1fff4b8c   0x00000018   Code   RO         1746    i.ll_processBasicIRQ_secondaryInitSRX  rf.lib(patch.o)
    0x1fff4ba4   0x1fff4ba4   0x00000018   Code   RO         1748    i.ll_processBasicIRQ_secondaryScanSRX  rf.lib(patch.o)
    0x1fff4bbc   0x1fff4bbc   0x0000003c   Code   RO         1751    i.ll_read_rxfifo1   rf.lib(patch.o)
    0x1fff4bf8   0x1fff4bf8   0x00000048   Code   RO         1756    i.llbuf_alloc_time_statics  rf.lib(patch.o)
    0x1fff4c40   0x1fff4c40   0x00000340   Code   RO          608    i.log_vsprintf      my_printf.o
    0x1fff4f80   0x1fff4f80   0x00000030   Code   RO            8    i.main              main.o
    0x1fff4fb0   0x1fff4fb0   0x000001b8   Code   RO          610    i.number            my_printf.o
    0x1fff5168   0x1fff5168   0x00000028   Code   RO          377    i.osalInitTasks     osal_gpio.o
    0x1fff5190   0x1fff5190   0x00000018   Code   RO         1765    i.osal_idle_task0   rf.lib(patch.o)
    0x1fff51a8   0x1fff51a8   0x00000038   Code   RO         1769    i.osal_search_active_task  rf.lib(patch.o)
    0x1fff51e0   0x1fff51e0   0x00000098   Code   RO         1770    i.patch_linkBuf_init  rf.lib(patch.o)
    0x1fff5278   0x1fff5278   0x0000006c   Code   RO          846    i.peripheral_interrupt_restore_default  pwrmgr.o
    0x1fff52e4   0x1fff52e4   0x00000080   Code   RO         1959    i.rc32k_calibration  rf.lib(rf_phy_driver.o)
    0x1fff5364   0x1fff5364   0x00000058   Code   RO         1771    i.rc32k_cap_cal     rf.lib(patch.o)
    0x1fff53bc   0x1fff53bc   0x0000000c   Code   RO         1773    i.read_TIM5_remainder_timer  rf.lib(patch.o)
    0x1fff53c8   0x1fff53c8   0x0000000c   Code   RO         1960    i.rf_calibrate1     rf.lib(rf_phy_driver.o)
    0x1fff53d4   0x1fff53d4   0x0000011c   Code   RO         1961    i.rf_phy_ana_cfg    rf.lib(rf_phy_driver.o)
    0x1fff54f0   0x1fff54f0   0x000001ac   Code   RO         1962    i.rf_phy_bb_cfg     rf.lib(rf_phy_driver.o)
    0x1fff569c   0x1fff569c   0x000000a8   Code   RO         1963    i.rf_phy_change_cfg0  rf.lib(rf_phy_driver.o)
    0x1fff5744   0x1fff5744   0x0000003c   Code   RO         1980    i.rf_phy_ini        rf.lib(rf_phy_driver.o)
    0x1fff5780   0x1fff5780   0x00000074   Code   RO         1981    i.rf_phy_set_txPower  rf.lib(rf_phy_driver.o)
    0x1fff57f4   0x1fff57f4   0x0000004c   Code   RO         1985    i.rf_tpCal_gen_cap_arrary  rf.lib(rf_phy_driver.o)
    0x1fff5840   0x1fff5840   0x0000011c   Code   RO         1986    i.rf_tp_cal         rf.lib(rf_phy_driver.o)
    0x1fff595c   0x1fff595c   0x0000002a   Code   RO          611    i.skip_atoi         my_printf.o
    0x1fff5986   0x1fff5986   0x00000002   PAD
    0x1fff5988   0x1fff5988   0x00000214   Code   RO         1775    i.wakeupProcess1    rf.lib(patch.o)
    0x1fff5b9c   0x1fff5b9c   0x0000015c   Code   RO         1776    i.wakeup_init1      rf.lib(patch.o)
    0x1fff5cf8   0x1fff5cf8   0x00000034   Data   RO           10    .constdata          main.o
    0x1fff5d2c   0x1fff5d2c   0x00000010   Data   RO          612    .constdata          my_printf.o
    0x1fff5d3c   0x1fff5d3c   0x0000004d   Data   RO          613    .conststring        my_printf.o
    0x1fff5d89   0x1fff5d89   0x00000003   PAD
    0x1fff5d8c   0x1fff5d8c   0x00000085   Data   RO         1095    .conststring        adc.o
    0x1fff5e11   0x1fff5e11   0x00000003   PAD
    0x1fff5e14   0x1fff5e14   0x00000030   Data   RO         2160    Region$$Table       anon$$obj.o
    0x1fff5e44   0x1fff5e44   0x00000005   Data   RO          379    _section_sram_code_  osal_gpio.o
    0x1fff5e49   0x1fff5e49   0x00000003   PAD
    0x1fff5e4c   0x1fff5e4c   0x00000002   Data   RW           11    .data               main.o
    0x1fff5e4e   0x1fff5e4e   0x00000002   PAD
    0x1fff5e50   0x1fff5e50   0x00000004   Data   RW          181    .data               jump_table.o
    0x1fff5e54   0x1fff5e54   0x00000004   Data   RW          378    .data               osal_gpio.o
    0x1fff5e58   0x1fff5e58   0x00000008   Data   RW          614    .data               my_printf.o
    0x1fff5e60   0x1fff5e60   0x00000002   Data   RW          689    .data               uart.o
    0x1fff5e62   0x1fff5e62   0x00000002   PAD
    0x1fff5e64   0x1fff5e64   0x00000015   Data   RW          848    .data               pwrmgr.o
    0x1fff5e79   0x1fff5e79   0x00000003   PAD
    0x1fff5e7c   0x1fff5e7c   0x00000018   Data   RW         1096    .data               adc.o
    0x1fff5e94   0x1fff5e94   0x0000000c   Data   RW         1337    .data               flash.o
    0x1fff5ea0   0x1fff5ea0   0x00000004   Data   RW         1575    .data               system_armcm0.o
    0x1fff5ea4   0x1fff5ea4   0x00000069   Data   RW         1781    .data               rf.lib(patch.o)
    0x1fff5f0d   0x1fff5f0d   0x00000001   Data   RW         2034    .data               rf.lib(phy_sec_ext.o)
    0x1fff5f0e   0x1fff5f0e   0x00000002   PAD
    0x1fff5f10   0x1fff5f10   0x00000008   Data   RW         2060    .data               rf.lib(lib_efuse3.o)
    0x1fff5f18        -       0x000019d8   Zero   RW            9    .bss                main.o
    0x1fff78f0        -       0x00000130   Zero   RW          435    .bss                gpio.o
    0x1fff7a20        -       0x00000040   Zero   RW          687    .bss                uart.o
    0x1fff7a60        -       0x00000084   Zero   RW          847    .bss                pwrmgr.o
    0x1fff7ae4        -       0x00000028   Zero   RW         1093    .bss                adc.o
    0x1fff7b0c        -       0x0000038c   Zero   RW         1777    .bss                rf.lib(patch.o)
    0x1fff7e98        -       0x00000010   Zero   RW         2030    .bss                rf.lib(phy_sec_ext.o)
    0x1fff7ea8        -       0x00000400   Zero   RW         1564    STACK               startup_armcm0.o



  Load Region LR_IROM2 (Base: 0x1fff0000, Size: 0x00000800, Max: 0x00000800, ABSOLUTE, COMPRESSED[0x0000040c])

    Execution Region JUMP_TABLE (Exec base: 0x1fff0000, Load base: 0x1fff0000, Size: 0x00000400, Max: 0x00000400, ABSOLUTE)

    Exec Addr    Load Addr    Size         Type   Attr      Idx    E Section Name        Object

    0x1fff0000   0x1fff0000   0x00000400   Data   RO          183    jump_table_mem_area  jump_table.o


    Execution Region GOLBAL_CONFIG (Exec base: 0x1fff0400, Load base: 0x1fff0400, Size: 0x00000400, Max: 0x00000400, ABSOLUTE, COMPRESSED[0x0000000c])

    Exec Addr    Load Addr    Size         Type   Attr      Idx    E Section Name        Object

    0x1fff0400   COMPRESSED   0x00000400   Data   RW          182    global_config_area  jump_table.o



  Load Region LR_ROM_XIP (Base: 0x11020000, Size: 0x00001518, Max: 0x00020000, ABSOLUTE)

    Execution Region ER_ROM_XIP (Exec base: 0x11020000, Load base: 0x11020000, Size: 0x00001518, Max: 0x00020000, ABSOLUTE)

    Exec Addr    Load Addr    Size         Type   Attr      Idx    E Section Name        Object

    0x11020000   0x11020000   0x0000000c   Ven    RO         2262    Veneer$$Code        anon$$obj.o
    0x1102000c   0x1102000c   0x0000000c   Ven    RO         2263    Veneer$$Code        anon$$obj.o
    0x11020018   0x11020018   0x0000000c   Ven    RO         2264    Veneer$$Code        anon$$obj.o
    0x11020024   0x11020024   0x0000000c   Ven    RO         2265    Veneer$$Code        anon$$obj.o
    0x11020030   0x11020030   0x0000000c   Ven    RO         2266    Veneer$$Code        anon$$obj.o
    0x1102003c   0x1102003c   0x0000000c   Ven    RO         2267    Veneer$$Code        anon$$obj.o
    0x11020048   0x11020048   0x0000000c   Ven    RO         2268    Veneer$$Code        anon$$obj.o
    0x11020054   0x11020054   0x0000000c   Ven    RO         2269    Veneer$$Code        anon$$obj.o
    0x11020060   0x11020060   0x0000000c   Ven    RO         2270    Veneer$$Code        anon$$obj.o
    0x1102006c   0x1102006c   0x0000000c   Ven    RO         2271    Veneer$$Code        anon$$obj.o
    0x11020078   0x11020078   0x0000000c   Ven    RO         2272    Veneer$$Code        anon$$obj.o
    0x11020084   0x11020084   0x0000000c   Ven    RO         2273    Veneer$$Code        anon$$obj.o
    0x11020090   0x11020090   0x0000000c   Ven    RO         2274    Veneer$$Code        anon$$obj.o
    0x1102009c   0x1102009c   0x0000000c   Ven    RO         2275    Veneer$$Code        anon$$obj.o
    0x110200a8   0x110200a8   0x0000000c   Ven    RO         2276    Veneer$$Code        anon$$obj.o
    0x110200b4   0x110200b4   0x0000000c   Ven    RO         2277    Veneer$$Code        anon$$obj.o
    0x110200c0   0x110200c0   0x0000000c   Ven    RO         2278    Veneer$$Code        anon$$obj.o
    0x110200cc   0x110200cc   0x0000000c   Ven    RO         2279    Veneer$$Code        anon$$obj.o
    0x110200d8   0x110200d8   0x0000000c   Ven    RO         2280    Veneer$$Code        anon$$obj.o
    0x110200e4   0x110200e4   0x0000000c   Ven    RO         2281    Veneer$$Code        anon$$obj.o
    0x110200f0   0x110200f0   0x0000000c   Ven    RO         2282    Veneer$$Code        anon$$obj.o
    0x110200fc   0x110200fc   0x0000000c   Ven    RO         2283    Veneer$$Code        anon$$obj.o
    0x11020108   0x11020108   0x0000000c   Ven    RO         2284    Veneer$$Code        anon$$obj.o
    0x11020114   0x11020114   0x0000001c   Code   RO         1618    _func_xip_code_.LL_Disconnect1  rf.lib(patch.o)
    0x11020130   0x11020130   0x0000011c   Code   RO         1621    _func_xip_code_.LL_InitConnectContext  rf.lib(patch.o)
    0x1102024c   0x1102024c   0x00000030   Code   RO         1627    _func_xip_code_.LL_SetDataLengh1  rf.lib(patch.o)
    0x1102027c   0x1102027c   0x000000a4   Code   RO         1633    _func_xip_code_.LL_TxData1  rf.lib(patch.o)
    0x11020320   0x11020320   0x00000304   Code   RO         1655    _section_xip_code_  rf.lib(patch.o)
    0x11020624   0x11020624   0x00000020   Code   RO          404    i.__NVIC_EnableIRQ  gpio.o
    0x11020644   0x11020644   0x00000078   Code   RO          405    i.__NVIC_SetPriority  gpio.o
    0x110206bc   0x110206bc   0x00000078   Code   RO          670    i.__NVIC_SetPriority  uart.o
    0x11020734   0x11020734   0x0000001c   Code   RO          406    i.hal_GPIO_IRQHandler  gpio.o
    0x11020750   0x11020750   0x00000054   Code   RO          671    i.hal_UART0_IRQHandler  uart.o
    0x110207a4   0x110207a4   0x00000054   Code   RO          672    i.hal_UART1_IRQHandler  uart.o
    0x110207f8   0x110207f8   0x00000050   Code   RO          407    i.hal_gpio_cfg_analog_io  gpio.o
    0x11020848   0x11020848   0x00000030   Code   RO          411    i.hal_gpio_fmux     gpio.o
    0x11020878   0x11020878   0x00000058   Code   RO          412    i.hal_gpio_fmux_set  gpio.o
    0x110208d0   0x110208d0   0x0000005c   Code   RO          413    i.hal_gpio_init     gpio.o
    0x1102092c   0x1102092c   0x00000048   Code   RO          414    i.hal_gpio_interrupt_disable  gpio.o
    0x11020974   0x11020974   0x0000005c   Code   RO          415    i.hal_gpio_interrupt_enable  gpio.o
    0x110209d0   0x110209d0   0x00000030   Code   RO          416    i.hal_gpio_pin2pin3_control  gpio.o
    0x11020a00   0x11020a00   0x00000084   Code   RO          417    i.hal_gpio_pin_init  gpio.o
    0x11020a84   0x11020a84   0x00000078   Code   RO          418    i.hal_gpio_pull_set  gpio.o
    0x11020afc   0x11020afc   0x00000034   Code   RO          419    i.hal_gpio_read     gpio.o
    0x11020b30   0x11020b30   0x000000b4   Code   RO          420    i.hal_gpio_retention_enable  gpio.o
    0x11020be4   0x11020be4   0x00000060   Code   RO          421    i.hal_gpio_sleep_handler  gpio.o
    0x11020c44   0x11020c44   0x0000006c   Code   RO          422    i.hal_gpio_wakeup_control  gpio.o
    0x11020cb0   0x11020cb0   0x00000084   Code   RO          423    i.hal_gpio_wakeup_handler  gpio.o
    0x11020d34   0x11020d34   0x000000b0   Code   RO          424    i.hal_gpio_wakeup_set  gpio.o
    0x11020de4   0x11020de4   0x00000040   Code   RO          425    i.hal_gpio_write    gpio.o
    0x11020e24   0x11020e24   0x00000030   Code   RO          426    i.hal_gpioin_disable  gpio.o
    0x11020e54   0x11020e54   0x000000a4   Code   RO          427    i.hal_gpioin_enable  gpio.o
    0x11020ef8   0x11020ef8   0x00000098   Code   RO          428    i.hal_gpioin_event  gpio.o
    0x11020f90   0x11020f90   0x00000054   Code   RO          429    i.hal_gpioin_event_pin  gpio.o
    0x11020fe4   0x11020fe4   0x0000003c   Code   RO          432    i.hal_gpioin_wakeup_trigger  gpio.o
    0x11021020   0x11021020   0x00000074   Code   RO          676    i.hal_uart_init     uart.o
    0x11021094   0x11021094   0x00000030   Code   RO          677    i.hal_uart_send_buff  uart.o
    0x110210c4   0x110210c4   0x00000090   Code   RO          681    i.txmit_buf_polling  uart.o
    0x11021154   0x11021154   0x000000e0   Code   RO          682    i.txmit_buf_use_tx_buf  uart.o
    0x11021234   0x11021234   0x00000094   Code   RO          683    i.uart_hw_deinit    uart.o
    0x110212c8   0x110212c8   0x000001a4   Code   RO          684    i.uart_hw_init      uart.o
    0x1102146c   0x1102146c   0x0000000a   Code   RO          685    i.uart_wakeup_process_0  uart.o
    0x11021476   0x11021476   0x0000000a   Code   RO          686    i.uart_wakeup_process_1  uart.o
    0x11021480   0x11021480   0x0000008a   Data   RO          436    .constdata          gpio.o
    0x1102150a   0x1102150a   0x00000002   PAD
    0x1102150c   0x1102150c   0x0000000c   Data   RO          688    .constdata          uart.o


==============================================================================

Image component sizes


      Code (inc. data)   RO Data    RW Data    ZI Data      Debug   Object Name

      1736        216        133         24         40      17701   adc.o
       660         46          0          0          0       3326   clock.o
       482         50          0         12          0      13552   flash.o
      2268        168        138          0        304      25104   gpio.o
        20          0          0          0          0        475   gpio_main.o
       680        380       1024       1028          0       3654   jump_table.o
       512         72         52          2       6616      63150   main.o
      1434         30         93          8          0       6648   my_printf.o
        40          4          5          4          0       1664   osal_gpio.o
      1116        134          0         21        132       9871   pwrmgr.o
        28          8        192          0       1024        644   startup_armcm0.o
        16          8          0          4          0        723   system_armcm0.o
      1720        142         12          2         64      18243   uart.o

    ----------------------------------------------------------------------
     12108       1722       1708       1112       8180     164755   Object Totals
      1392        464         48          0          0          0   (incl. Generated)
         4          0         11          7          0          0   (incl. Padding)

    ----------------------------------------------------------------------

      Code (inc. data)   RO Data    RW Data    ZI Data      Debug   Library Member Name

        58          0          0          0          0          0   __dczerorl.o
         0          0          0          0          0          0   entry.o
         0          0          0          0          0          0   entry10a.o
         0          0          0          0          0          0   entry11a.o
         8          4          0          0          0          0   entry2.o
         4          0          0          0          0          0   entry5.o
         0          0          0          0          0          0   entry7b.o
         0          0          0          0          0          0   entry8b.o
         8          4          0          0          0          0   entry9a.o
        30          0          0          0          0          0   handlers.o
        36          8          0          0          0         68   init.o
       184         16          0          8          0         72   lib_efuse3.o
      8400        964          0        105        908       3900   patch.o
       256         36          0          1         16        344   phy_sec_ext.o
      1556        304          0          0          0        656   rf_phy_driver.o

    ----------------------------------------------------------------------
     10548       1336          0        116        924       5040   Library Totals
         8          0          0          2          0          0   (incl. Padding)

    ----------------------------------------------------------------------

      Code (inc. data)   RO Data    RW Data    ZI Data      Debug   Library Name

       144         16          0          0          0         68   mc_p.l
     10396       1320          0        114        924       4972   rf.lib

    ----------------------------------------------------------------------
     10548       1336          0        116        924       5040   Library Totals

    ----------------------------------------------------------------------

==============================================================================


      Code (inc. data)   RO Data    RW Data    ZI Data      Debug   

     22656       3058       1708       1228       9104     163367   Grand Totals
     22656       3058       1708        216       9104     163367   ELF Image Totals (compressed)
     22656       3058       1708        216          0          0   ROM Totals

==============================================================================

    Total RO  Size (Code + RO Data)                24364 (  23.79kB)
    Total RW  Size (RW Data + ZI Data)             10332 (  10.09kB)
    Total ROM Size (Code + RO Data + RW Data)      24580 (  24.00kB)

==============================================================================

