build/BK3633_GATT_ALLROLES.elf
SYMBOL TABLE:
0002dd00 l    d  .vectors	00000000 .vectors
0002e000 l    d  FAST_CALL_SEG	00000000 FAST_CALL_SEG
0002e050 l    d  .text	00000000 .text
00042148 l    d  .rodata	00000000 .rodata
00045340 l    d  .ARM.exidx	00000000 .ARM.exidx
00400f00 l    d  .data	00000000 .data
004019cc l    d  ke_heap	00000000 ke_heap
00402874 l    d  .bss	00000000 .bss
0040824c l    d  .stack	00000000 .stack
00000000 l    d  .comment	00000000 .comment
00000000 l    d  .ARM.attributes	00000000 .ARM.attributes
00000000 l    d  .debug_frame	00000000 .debug_frame
00000000 l    d  .stab	00000000 .stab
00000000 l    d  .stabstr	00000000 .stabstr
00000000 l    df *ABS*	00000000 build/dd2/src/system/startup_boot.o
0002dd20 l       .vectors	00000000 _reset_handler
0002df80 l       .vectors	00000000 _STACK_SIZE_UND
0002df7c l       .vectors	00000000 _STACK_ADDR_UND
0002df70 l       .vectors	00000000 _STACK_SIZE_IRQ
0002df6c l       .vectors	00000000 _STACK_ADDR_IRQ
0002df68 l       .vectors	00000000 _STACK_SIZE_FIQ
0002df64 l       .vectors	00000000 _STACK_ADDR_FIQ
0002df78 l       .vectors	00000000 _STACK_SIZE_SVC
0002df74 l       .vectors	00000000 _STACK_ADDR_SVC
0002deb8 l       .vectors	00000000 _data_init
0002ded8 l       .vectors	00000000 _zi_init
00000000 l    df *ABS*	00000000 
0002f238 l     F .text	00000004 rf_rpl_reg_rd
0002f23c l     F .text	00000004 rf_rpl_reg_wr
0002f240 l     F .text	00000004 rf_txpwr_dbm_get
0002f244 l     F .text	00000010 rf_sleep
0002f254 l     F .text	00000024 rf_force_agc_enable
0002f278 l     F .text	0000000a rf_rssi_convert
0002f284 l     F .text	00000034 rf_txpwr_cs_get
0002f2b8 l     F .text	00000002 app_dis_init
0002f2b8 l     F .text	00000002 uart_flow_on
0002f2bc l     F .text	00000034 prf_get_id_from_task
004033a4 l     O .bss	00000168 prf_env
0002f324 l     F .text	0000000c rwble_sleep_wakeup_end
0002f330 l     F .text	00000004 app_sec_msg_dflt_handler
0002f334 l     F .text	00000004 bass_batt_level_ntf_cfg_ind_handler
0002f338 l     F .text	00000004 batt_level_upd_handler
0002f33c l     F .text	00000004 bass_enable_rsp_handler
0002f340 l     F .text	00000004 app_batt_msg_dflt_handler
0002f344 l     F .text	00000004 oads_enable_rsp_handler
0002f348 l     F .text	00000044 app_get_handler
0002f38c l     F .text	00000074 appm_msg_handler
0002f400 l     F .text	00000004 app_ancs_req_handler
0002f404 l     F .text	00000004 app_period_timer_handler
0002f408 l     F .text	0000003c nvds_walk_tag
0002f444 l     F .text	00000034 nvds_browse_tag
0002f478 l     F .text	00000040 nvds_get
0002f4b8 l     F .text	0000003c nvds_del
0002f4f4 l     F .text	00000024 nvds_init_memory
0002f518 l     F .text	00000060 prf_itf_get
0002f578 l     F .text	0000002c prf_create
0002f5a4 l     F .text	00000030 prf_cleanup
0002f5d4 l     F .text	0000008c prf_env_get_from_handle
0002f660 l     F .text	00000020 cpu_reset
0002f680 l     F .text	00000004 uart_flow_off
0002f684 l     F .text	00000018 uart_read
0002f69c l     F .text	00000018 uart_write
0002f6b4 l     F .text	00000002 rf_reset
0002f6b6 l     F .text	0000000a bass_create
0002f6c0 l     F .text	0000000a bass_cleanup
0002f6ca l     F .text	00000002 diss_create
0002f6cc l     F .text	00000002 diss_cleanup
0002f6ce l     F .text	00000034 diss_value_to_handle
0002f704 l     F .text	00000014 fee0s_create
0002f718 l     F .text	00000014 fee0s_cleanup
0002f72c l     F .text	0000000e fcc0s_create
0002f73a l     F .text	0000000e fcc0s_cleanup
0002f748 l     F .text	00000012 oads_create
0002f75a l     F .text	00000012 oads_cleanup
0002f76c l     F .text	00000004 sdp_enable_req_handler
0002f770 l     F .text	00000008 nvds_write
0002f778 l     F .text	0000001c bass_destroy
0002f794 l     F .text	0000001c fee0s_destroy
0002f7b0 l     F .text	0000001c fcc0s_destroy
0002f7cc l     F .text	0000001c oads_destroy
0002f7e8 l     F .text	00000028 gapm_gen_rand_nb_ind_handler
0002f810 l     F .text	00000024 oad_save_reciveData
00402e70 l     O .bss	000000c0 bsec
0002f834 l     F .text	00000158 nvds_put
0002f98c l     F .text	00000012 fee4_val_upd_rsp_handler
0002f99e l     F .text	00000010 sdp_create
0002f9b0 l     F .text	0000002c app_batt_add_bas
0002f9dc l     F .text	00000054 diss_value_req_ind_handler
0002fa30 l     F .text	0000002c app_dis_add_dis
0002fa5c l     F .text	00000078 gapc_get_dev_info_req_ind_handler
0002fad4 l     F .text	00000024 gapc_set_dev_info_req_ind_handler
0002faf8 l     F .text	00000028 app_fcc0_add_fcc0s
0002fb20 l     F .text	0000003c app_fee0_add_fee0s
0002fbbc l     F .text	00000068 prf_init
0002fc24 l     F .text	000000b0 prf_add_profile
0002fcd4 l     F .text	00000078 gapc_encrypt_req_ind_handler
0002fd4c l     F .text	00000024 gapc_encrypt_ind_handler
0002fd70 l     F .text	0000003c appm_add_svc
0002fdac l     F .text	00000044 app_oad_add_oads
0002fdf0 l     F .text	0000002c app_oads_msg_dflt_handler
0002fe1c l     F .text	00000018 app_ffc2_writer_req_handler
0002fe34 l     F .text	00000018 oads_ffc1_upd_rsp_handler
0002fe4c l     F .text	00000018 oads_ffc2_upd_rsp_handler
0002fe64 l     F .text	00000074 gapm_activity_created_ind_handler
0002fed8 l     F .text	0000003c gapc_param_updated_ind_handler
0002ff14 l     F .text	00000050 gapm_scan_request_ind_handler
0002ff64 l     F .text	00000040 app_mtu_exchange_req_handler
0002ffa4 l     F .text	00000090 gapm_mesh_pub_key_ind_handler
00030034 l     F .text	00000034 gapm_mesh_gen_dh_key_ind_handler
00030068 l     F .text	0000006c app_start_smpc_handler
000300d4 l     F .text	000000d4 app_start_encrypt_handler
000301a8 l     F .text	00000014 fcc0s_fcc2_val_ntf_cfg_ind_handler
000301bc l     F .text	00000028 fcc2_val_upd_rsp_handler
000301e4 l     F .text	00000018 app_fcc0_msg_dflt_handler
000301fc l     F .text	00000014 fee0s_fee4_val_ntf_cfg_ind_handler
00030210 l     F .text	00000014 fee0s_fee5_val_ind_cfg_ind_handler
00030224 l     F .text	00000028 fee5_val_upd_rsp_handler
0003024c l     F .text	00000018 app_fee0_msg_dflt_handler
00030264 l     F .text	00000040 fee3_writer_req_handler
000302a4 l     F .text	000001b8 appm_adv_fsm_next
0003045c l     F .text	00000050 gapc_param_update_req_ind_handler
000304ac l     F .text	000000fc appm_scan_fsm_next
000305a8 l     F .text	00000028 app_start_scan_handler
000305d0 l     F .text	00000120 appm_init_fsm_next
000306f0 l     F .text	00000018 appm_mesh_adv_fsm_next
00030708 l     F .text	0000010c gapm_activity_stopped_ind_handler
00030814 l     F .text	0000030c gapm_cmp_evt_handler
00030b20 l     F .text	00000010 oads_ffc1_upd_req_handler
00030b30 l     F .text	00000018 oads_ffc2_upd_req_handler
00030b48 l     F .text	00000018 gattc_cmp_evt_handler.lto_priv.4
00030b60 l     F .text	0000002c sdp_default_msg_handler
00030b8c l     F .text	0000008c sdp_service_status_reset
00407f5c l     O .bss	0000012c sdp_env_init
00030c18 l     F .text	00000034 sdp_destroy
00030c4c l     F .text	00000078 sdp_cleanup
00030cc4 l     F .text	00000048 sdp_discover_all_service
00030d0c l     F .text	00000008 nvds_read
00030d14 l     F .text	00000058 app_sec_send_security_req
00030d6c l     F .text	00000014 app_send_security_req_handler
00030d80 l     F .text	00000034 gattc_mtu_changed_ind_handler
00030db4 l     F .text	000000f8 gapc_bond_req_ind_handler
00030eac l     F .text	00000260 gapc_bond_ind_handler
0003110c l     F .text	00000028 gapm_profile_added_ind_handler
00031134 l     F .text	0000004c app_gattc_event_ind_handler
00031180 l     F .text	0000003c app_gattc_event_req_ind_handler
000311bc l     F .text	00000058 gattc_cmp_evt_handler.lto_priv.5
00031214 l     F .text	00000058 gattc_read_ind_handler
0003126c l     F .text	00000098 gattc_event_req_ind_handler
00031304 l     F .text	00000020 app_ffc1_writer_req_handler
00031324 l     F .text	00000170 gapc_connection_req_ind_handler
00031494 l     F .text	0000004c gapc_disconnect_ind_handler
000314e0 l     F .text	00000074 app_gattc_sdp_timer_handler
00031554 l     F .text	000004d0 gattc_sdp_svc_ind_handler
00031a24 l     F .text	0000002c app_update_conn_param_req_ind_handler
00031a50 l     F .text	00000088 appm_adv_data_decode
00031ad8 l     F .text	00000124 gapm_ext_adv_report_ind_handler
00031bfc l     F .text	00000024 rwip_timer_10ms_handler
00031c20 l     F .text	00000024 rwip_crypt_evt_handler
00031c44 l     F .text	00000198 rwip_driver_init
00031ddc l     F .text	00000094 rwip_reset
00031e70 l     F .text	00000064 prf_register_atthdl2gatt
00031ed4 l     F .text	00000138 gapc_cmp_evt_handler
0003200c l     F .text	00000060 prf_gatt_write.part.0
0003206c l     F .text	00000090 sdp_write_value_info_req_handler
000320fc l     F .text	000000b0 sdp_write_ntf_cfg_req_handler
000321ac l     F .text	00000054 gattc_att_info_req_ind_handler.lto_priv.0
00032200 l     F .text	00000022 diss_destroy
00032224 l     F .text	000001a4 sdp_read_info_req_handler
000323c8 l     F .text	0000018c gattc_event_ind_handler
00032554 l     F .text	0000016c sdp_enable_all_server_ntf_ind
000326c0 l     F .text	0000012c gattc_cmp_evt_handler.lto_priv.0
00032814 l     F .text	000000a4 fcc1_writer_cmd_handler
000328b8 l     F .text	00000108 fee2_writer_cmd_handler
000329c0 l     F .text	00000164 bass_init
00032b24 l     F .text	00000072 bass_notify_batt_lvl
00032b98 l     F .text	000000d8 bass_exe_operation
00032c70 l     F .text	00000024 gattc_cmp_evt_handler.lto_priv.1
00032c94 l     F .text	00000080 bass_enable_req_handler
00032d14 l     F .text	00000068 bass_batt_level_upd_req_handler
00032d7c l     F .text	000000b4 gattc_write_req_ind_handler.lto_priv.0
00032e30 l     F .text	000000d4 gattc_read_req_ind_handler.lto_priv.0
00032f04 l     F .text	000000b4 diss_init
000443b4 l     O .rodata	00000098 diss_att_db
00032fb8 l     F .text	000000b0 diss_set_value_req_handler
00033068 l     F .text	000000e0 gattc_read_req_ind_handler.lto_priv.1
00033148 l     F .text	0000007c diss_value_cfm_handler
000331c4 l     F .text	0000010c fee0s_init
000332d0 l     F .text	00000020 fee0s_get_att_idx
000332f0 l     F .text	00000070 gattc_att_info_req_ind_handler.lto_priv.1
00033360 l     F .text	0000008c fee0s_fee4_val_upd_req_handler
000333ec l     F .text	0000009c fee0s_fee5_val_upd_req_handler
00033488 l     F .text	0000013c gattc_write_req_ind_handler.lto_priv.1
000335c4 l     F .text	00000128 gattc_read_req_ind_handler.lto_priv.2
000336ec l     F .text	00000078 gattc_cmp_evt_handler.lto_priv.2
00033764 l     F .text	000000dc fcc0s_init
00044474 l     O .rodata	00000084 fcc0_att_db
00033840 l     F .text	0000001e fcc0s_get_att_idx
00033860 l     F .text	00000068 gattc_att_info_req_ind_handler.lto_priv.2
000338c8 l     F .text	00000098 fcc0s_fcc2_val_upd_req_handler
00033960 l     F .text	000000d8 gattc_write_req_ind_handler.lto_priv.2
00033a38 l     F .text	000000d0 gattc_read_req_ind_handler.lto_priv.3
00033b08 l     F .text	0000005c gattc_cmp_evt_handler.lto_priv.3
00033b64 l     F .text	000000d8 oads_init
00033c3c l     F .text	00000084 oads_enable_req_handler
00033cc0 l     F .text	000002e0 gattc_write_req_ind_handler.lto_priv.3
00033fa0 l     F .text	00000100 gattc_read_req_ind_handler.lto_priv.4
000340a0 l     F .text	000000c4 sdp_init
004080d8 l     O .bss	00000080 uart_rx_buf
0003468c l     F .text	000000ac flash_write_sr
00034738 l     F .text	00000058 flash_wp_256k
00034790 l     F .text	00000054 flash_wp_ALL
000347e4 l     F .text	000000c4 nvds_erase
00403510 l     O .bss	00000dbc rwip_heap_env
00401c68 l     O ke_heap	00000c0c rwip_heap_db
004042cc l     O .bss	00003c8c rwip_heap_msg
004019cc l     O ke_heap	0000029c rwip_heap_non_ret
00402d64 l     O .bss	00000080 XVR_ANALOG_REG_BAK
00402acc l     O .bss	00000280 QueueData.0
00402874 l     O .bss	0000000c MGC_ControllerList
00402880 l     O .bss	00000100 MGC_aControlData
00402980 l     O .bss	00000038 MGC_aDeviceDriver
004029b8 l     O .bss	00000100 MGC_aMsdPeripheralList
00402ab8 l     O .bss	00000004 MGC_apAfsUds
00402abc l     O .bss	00000001 MGC_bAfsUdsCount
00402abd l     O .bss	00000001 MGC_bBoardInitDone
00402abe l     O .bss	00000001 MGC_bMcpSelfPowered
00402abf l     O .bss	00000001 MGC_bNoneSystemCount
00402ac4 l     O .bss	00000002 MGC_iController
00402ac8 l     O .bss	00000004 MGC_pCdiPort
00402d4c l     O .bss	00000018 Timerwrapper.0
00402de4 l     O .bss	00000002 app_batt_env
00402e40 l     O .bss	00000001 app_oads_env
00402e41 l     O .bss	0000002c app_sec_env
00402e6d l     O .bss	00000003 appm_state
00402f30 l     O .bss	00000001 chars_num.1
00402f31 l     O .bss	00000001 cmd_status.3
00402f32 l     O .bss	00000007 device_addr.0
00402f39 l     O .bss	00000001 flash_enable_erase_flag1
00402f3a l     O .bss	00000001 flash_enable_erase_flag2
00402f3d l     O .bss	00000001 flash_enable_write_flag3
00402f3e l     O .bss	00000001 flash_enable_write_flag4
00402f44 l     O .bss	00000007 g_bdaddr
00402f4c l     O .bss	00000048 host_cmd_data
00402f94 l     O .bss	00000048 host_event_data
00402fdc l     O .bss	00000002 index.1
00402fe0 l     O .bss	00000002 length.2
00402fe2 l     O .bss	00000001 mesh_adv_data_cnt.2
00403064 l     O .bss	00000018 nvds_env
00403084 l     O .bss	00000048 pSystem.1
004030cc l     O .bss	00000020 pUds.1
0040350c l     O .bss	00000004 rtc_cnt
00407f58 l     O .bss	00000001 rx_cmd_count.4
00408088 l     O .bss	00000001 server_num.2
00408089 l     O .bss	00000001 system_clk
0040808a l     O .bss	00000001 system_mode
0040808b l     O .bss	00000001 uart2_rx_done
0040808c l     O .bss	00000004 uart2_rx_index
00408090 l     O .bss	00000020 uart_cmd.0
004080b0 l     O .bss	00000028 uart_env
00408158 l     O .bss	00000001 uart_rx_done
0040815c l     O .bss	00000004 uart_rx_index
00408160 l     O .bss	00000002 validBlockCnt.0
00400f00 l     O .data	0000002c MGC_McpFunctionClient
00043928 l     O .rodata	00000109 MGC_aDescriptorData
00043a31 l     O .rodata	000000b7 MGC_aHighSpeedDescriptorData
00400f2c l     O .data	00000010 MGC_MsdHostClient
00400f3c l     O .data	00000010 MGC_MsdOtgClient
00400f50 l     O .data	00000001 MGC_bDesireHostRole
00400f4c l     O .data	00000004 MGC_aOneTimer10Ms
00400f54 l     O .data	00000010 MGC_gNoneUtils
00400f64 l     O .data	00000010 MUSB_aNoneController
000438cc l     O .rodata	0000002c Bond_event_type_str
000438f8 l     O .rodata	00000009 CSWTCH.1
00043904 l     O .rodata	00000024 CSWTCH.2
00043ae8 l     O .rodata	0000000f RF_RPL_TX_PW_CONV_TBL
00043af8 l     O .rodata	0000000c TASK_DESC_APP
00044254 l     O .rodata	000000f8 appm_msg_handler_tab
00043b04 l     O .rodata	00000010 USER_FCC0_SERV_UUID_128
00043b14 l     O .rodata	00000019 __func__.0.lto_priv.0
00043b2d l     O .rodata	00000010 __func__.0.lto_priv.1
00043b3d l     O .rodata	0000001f __func__.0.lto_priv.10
00043b5c l     O .rodata	00000018 __func__.0.lto_priv.11
00043b74 l     O .rodata	00000018 __func__.0.lto_priv.12
00043b8c l     O .rodata	0000001a __func__.0.lto_priv.2
00043ba6 l     O .rodata	0000001f __func__.0.lto_priv.3
00043bc5 l     O .rodata	0000001a __func__.0.lto_priv.4
00043bdf l     O .rodata	0000001a __func__.0.lto_priv.5
00043bf9 l     O .rodata	00000016 __func__.0.lto_priv.6
00043c0f l     O .rodata	0000000a __func__.0.lto_priv.7
00043c19 l     O .rodata	00000016 __func__.0.lto_priv.8
00043c2f l     O .rodata	0000001f __func__.0.lto_priv.9
00043c4e l     O .rodata	00000015 __func__.1.lto_priv.0
00043c63 l     O .rodata	0000000d __func__.1.lto_priv.1
00043c70 l     O .rodata	0000001a __func__.1.lto_priv.10
00043c8a l     O .rodata	0000001a __func__.1.lto_priv.11
00043ca4 l     O .rodata	0000001c __func__.1.lto_priv.2
00043cc0 l     O .rodata	00000022 __func__.1.lto_priv.3
00043ce2 l     O .rodata	00000019 __func__.1.lto_priv.4
00043cfb l     O .rodata	00000019 __func__.1.lto_priv.5
00043d14 l     O .rodata	00000017 __func__.1.lto_priv.6
00043d2b l     O .rodata	00000013 __func__.1.lto_priv.7
00043d3e l     O .rodata	0000001f __func__.1.lto_priv.8
00043d5d l     O .rodata	0000001f __func__.1.lto_priv.9
00043d7c l     O .rodata	00000016 __func__.10.lto_priv.0
00043d92 l     O .rodata	00000016 __func__.10.lto_priv.1
00043da8 l     O .rodata	0000001d __func__.11
00043dc5 l     O .rodata	0000001c __func__.12
00043de1 l     O .rodata	00000017 __func__.13
00043df8 l     O .rodata	0000001a __func__.14
00043e12 l     O .rodata	00000017 __func__.15
00043e29 l     O .rodata	0000001a __func__.2.lto_priv.0
00043e43 l     O .rodata	0000001a __func__.2.lto_priv.1
00043e5d l     O .rodata	00000012 __func__.2.lto_priv.2
00043e6f l     O .rodata	00000014 __func__.2.lto_priv.3
00043e83 l     O .rodata	0000001c __func__.2.lto_priv.4
00043e9f l     O .rodata	0000001c __func__.2.lto_priv.5
00043ebb l     O .rodata	00000016 __func__.2.lto_priv.6
00043ed1 l     O .rodata	0000001e __func__.2.lto_priv.7
00043eef l     O .rodata	0000001c __func__.3.lto_priv.0
00043f0b l     O .rodata	00000022 __func__.3.lto_priv.1
00043f2d l     O .rodata	00000013 __func__.3.lto_priv.2
00043f40 l     O .rodata	0000001b __func__.3.lto_priv.3
00043f5b l     O .rodata	0000001b __func__.3.lto_priv.4
00043f76 l     O .rodata	00000020 __func__.3.lto_priv.5
00043f96 l     O .rodata	00000017 __func__.3.lto_priv.6
00043fad l     O .rodata	0000001e __func__.3.lto_priv.7
00043fcb l     O .rodata	0000001a __func__.4.lto_priv.0
00043fe5 l     O .rodata	00000015 __func__.4.lto_priv.1
00043ffa l     O .rodata	00000013 __func__.4.lto_priv.2
0004400d l     O .rodata	00000016 __func__.4.lto_priv.3
00044023 l     O .rodata	00000016 __func__.4.lto_priv.4
00044039 l     O .rodata	00000016 __func__.4.lto_priv.5
0004404f l     O .rodata	00000011 __func__.4.lto_priv.6
00044060 l     O .rodata	0000001e __func__.5.lto_priv.0
0004407e l     O .rodata	00000015 __func__.5.lto_priv.1
00044093 l     O .rodata	00000020 __func__.6.lto_priv.0
000440b3 l     O .rodata	00000009 __func__.6.lto_priv.1
000440bc l     O .rodata	0000001f __func__.7.lto_priv.0
000440db l     O .rodata	00000011 __func__.7.lto_priv.1
000440ec l     O .rodata	0000001e __func__.8.lto_priv.0
0004410a l     O .rodata	00000013 __func__.8.lto_priv.1
0004411d l     O .rodata	0000001a __func__.9
00044138 l     O .rodata	00000008 app_batt_handlers
00044140 l     O .rodata	00000020 app_batt_msg_handler_list
00044160 l     O .rodata	00000008 app_dis_handlers
00044168 l     O .rodata	00000008 app_dis_msg_handler_list
00044170 l     O .rodata	00000008 app_fcc0_handler
00044178 l     O .rodata	00000020 app_fcc0_msg_handler_list
00044198 l     O .rodata	00000008 app_fee0_handler
000441a0 l     O .rodata	00000038 app_fee0_msg_handler_list
000441d8 l     O .rodata	00000008 app_oads_handler
000441e0 l     O .rodata	00000030 app_oads_msg_handler_list
00044210 l     O .rodata	00000008 app_sec_handlers
00044218 l     O .rodata	00000028 app_sec_msg_handler_list
00044240 l     O .rodata	00000014 appm_add_svc_func_list
0004434c l     O .rodata	00000028 bas_att_db
00044374 l     O .rodata	00000010 bass_itf
00044384 l     O .rodata	00000030 bass_msg_handler_tab
0004444c l     O .rodata	00000010 diss_itf
0004445c l     O .rodata	00000018 diss_msg_handler_tab
000444f8 l     O .rodata	00000010 fcc0s_itf
00044508 l     O .rodata	00000028 fcc0s_msg_handler_tab
00044530 l     O .rodata	00000070 fee0_att_db
000445a0 l     O .rodata	00000010 fee0s_itf
000445b0 l     O .rodata	00000030 fee0s_msg_handler_tab
000445e0 l     O .rodata	00000004 nvds_magic_number
000445e4 l     O .rodata	00000048 oads_att_db
0004462c l     O .rodata	00000010 oads_itf
0004463c l     O .rodata	00000030 oads_msg_handler_tab
0004466c l     O .rodata	00000010 sdp_itf
0004467c l     O .rodata	00000048 sdp_msg_handler_tab
000446c4 l     O .rodata	00000010 uart_api
00000000 l    df *ABS*	00000000 
0003614c l     F .text	00000034 MGC_HostResetStart
00036810 l     F .text	00000134 MGC_HostResetComplete
00036180 l     F .text	00000004 MGC_SetHnpSupportIrpComplete
00036184 l     F .text	00000034 MGC_SetHnpEnableIrpComplete
000394a8 l     F .text	00000022 MGC_AidlBdisTimeout
000361b8 l     F .text	00000014 MGC_RemoveSuspend
000361cc l     F .text	00000018 MGC_CompleteOtgTransition
0003654e l     F .text	00000022 MGC_FunctionChangeState
00036570 l     F .text	0000001a MUSB_ListLength
0003658a l     F .text	00000010 MGC_EhsetResume
0003659c l     F .text	00000040 MGC_EhsetGetDescriptorSetup
000365dc l     F .text	00000010 MGC_EhsetGetDescriptorIn
000365ec l     F .text	00000038 MGC_SkipEntry
00036624 l     F .text	00000020 MGC_ReleaseAddress
00036644 l     F .text	000000c2 MGC_PipeTransmitReady
00038c50 l     F .text	00000608 MGC_HostEnumerator
00039258 l     F .text	00000060 MGC_HostSetDeviceAddress
00036944 l     F .text	00000052 MUSB_ListRemoveItem
000369fe l     F .text	0000014e MGC_PipePacketReceived.constprop.0
00036e8a l     F .text	000000d8 MGC_DrcFlushAll
00036fc2 l     F .text	00000056 MGC_DrcCompleteResume
00037256 l     F .text	000000de MGC_StartNextIrp.isra.0
000373e2 l     F .text	00000104 MGC_CompleteIrp
000378b0 l     F .text	0000004c MGC_StartNextControlTransfer.isra.0
00037944 l     F .text	000001d8 MGC_FunctionBindConfig
000449ed l     O .rodata	000000ae gHidKeyboardReportDescriptor
00038940 l     F .text	000000f8 MUSB_StartTransfer.constprop.0.isra.0
00038a38 l     F .text	00000044 USBD_KeyboardStartTx
00038b6c l     F .text	00000014 USBD_KeyboardTxDataComplete
00038b44 l     F .text	00000014 USBD_IsocTxDataComplete
00038b58 l     F .text	00000014 USBD_MouseTxDataComplete
00039da4 l     F .text	00000068 USBD_RxDataCallback
00038be4 l     F .text	0000006c MUSB_StartControlTransfer.isra.0
00039c2c l     F .text	00000054 MGC_HostGetShortDescriptor
00039c80 l     F .text	00000054 MGC_HostGetFullDescriptor
00039cd4 l     F .text	00000050 MGC_HostGetConfig
000392b8 l     F .text	000001f0 MGC_DrcChangeOtgState
000394d2 l     F .text	0000005a MGC_BSrpFailed
000394ca l     F .text	00000008 MGC_WaitSessReqTimeout
0003952c l     F .text	00000038 MGC_BAase0BrstTimeout
00408162 l     O .bss	00000040 MGC_RX_Buffer
004081a2 l     O .bss	00000040 MGC_aJunk
004081e2 l     O .bss	00000001 MGC_bMcpInterface
004081e3 l     O .bss	00000001 b_isConnected
004081e4 l     O .bss	00000001 b_isDataing
004081e5 l     O .bss	00000001 b_isTRxing
004081e6 l     O .bss	00000001 oad_uid_check_status
004081e7 l     O .bss	00000001 reduce_voltage_set
00400f78 l     O .data	00000020 MGC_McpKeyboardTxDataIrp
00400f98 l     O .data	00000020 MGC_McpUsbRxDataIrp
00400fb8 l     O .data	0000002c MGC_SetHnpEnableIrp
00044960 l     O .rodata	00000008 MGC_aSetHnpEnableData
00400fe4 l     O .data	0000002c MGC_SetHnpSupportIrp
00044968 l     O .rodata	00000008 MGC_aSetHnpSupportData
00401010 l     O .data	00000010 user_flash_data1
00044958 l     O .rodata	00000008 MGC_aGetDeviceDescriptor
00044970 l     O .rodata	0000001e __func__.0
0004498e l     O .rodata	00000012 __func__.1
000449a0 l     O .rodata	00000014 __func__.2
000449b4 l     O .rodata	00000039 gHidISOCVoiceReportDescriptor
00044a9b l     O .rodata	0000001c gHidMouseReportDescriptor
00000000 l    df *ABS*	00000000 _thumb1_case_sqi.o
00000000 l    df *ABS*	00000000 _thumb1_case_uqi.o
00000000 l    df *ABS*	00000000 _thumb1_case_shi.o
00000000 l    df *ABS*	00000000 _thumb1_case_uhi.o
00000000 l    df *ABS*	00000000 _arm_muldf3.o
00000000 l    df *ABS*	00000000 _arm_addsubdf3.o
00000000 l    df *ABS*	00000000 _arm_muldivdf3.o
00000000 l    df *ABS*	00000000 _arm_cmpdf2.o
00000000 l    df *ABS*	00000000 _arm_unorddf2.o
00000000 l    df *ABS*	00000000 _arm_fixdfsi.o
00000000 l    df *ABS*	00000000 _aeabi_uldivmod.o
00000000 l    df *ABS*	00000000 libgcc2.c
00000000 l    df *ABS*	00000000 _dvmd_tls.o
00000000 l    df *ABS*	00000000 _clzdi2.o
00000000 l    df *ABS*	00000000 _clzsi2.o
00000000 l    df *ABS*	00000000 memcpy-stub.c
00000000 l    df *ABS*	00000000 memset.c
00000000 l    df *ABS*	00000000 sprintf.c
00000000 l    df *ABS*	00000000 strcat.c
00000000 l    df *ABS*	00000000 strcpy.c
00000000 l    df *ABS*	00000000 strlen-stub.c
00000000 l    df *ABS*	00000000 strncmp.c
00000000 l    df *ABS*	00000000 vfprintf.c
00044c68 l     O .rodata	00000010 blanks.1
00044c78 l     O .rodata	00000010 zeroes.0
00000000 l    df *ABS*	00000000 vsprintf.c
00000000 l    df *ABS*	00000000 dtoa.c
0003c17c l     F .text	0000014a quorem
00000000 l    df *ABS*	00000000 mallocr.c
00000000 l    df *ABS*	00000000 impure.c
00401028 l     O .data	00000428 impure_data
00000000 l    df *ABS*	00000000 localeconv.c
00000000 l    df *ABS*	00000000 mallocr.c
00000000 l    df *ABS*	00000000 memchr-stub.c
00000000 l    df *ABS*	00000000 mlock.c
00000000 l    df *ABS*	00000000 mprec.c
00044ec8 l     O .rodata	0000000c p05.0
00000000 l    df *ABS*	00000000 s_frexp.c
00000000 l    df *ABS*	00000000 sbrkr.c
00000000 l    df *ABS*	00000000 strncpy.c
00000000 l    df *ABS*	00000000 vfprintf.c
00045040 l     O .rodata	00000010 blanks.1
00045050 l     O .rodata	00000010 zeroes.0
00000000 l    df *ABS*	00000000 assert.c
00000000 l    df *ABS*	00000000 mallocr.c
00000000 l    df *ABS*	00000000 fiprintf.c
00000000 l    df *ABS*	00000000 locale.c
00000000 l    df *ABS*	00000000 lock.c
00000000 l    df *ABS*	00000000 mbtowc_r.c
00000000 l    df *ABS*	00000000 memmove.c
00000000 l    df *ABS*	00000000 mallocr.c
00000000 l    df *ABS*	00000000 reent.c
00000000 l    df *ABS*	00000000 lib_a-strcmp.o
00000000 l    df *ABS*	00000000 vfprintf.c
0003fc08 l     F .text	0000008a __sprint_r.part.0
00040a9c l     F .text	00000090 __sbprintf
0004521c l     O .rodata	00000010 blanks.1
0004522c l     O .rodata	00000010 zeroes.0
00000000 l    df *ABS*	00000000 wctomb_r.c
00000000 l    df *ABS*	00000000 wsetup.c
00000000 l    df *ABS*	00000000 abort.c
00000000 l    df *ABS*	00000000 ctype_.c
00000000 l    df *ABS*	00000000 fflush.c
00000000 l    df *ABS*	00000000 findfp.c
00040ec8 l     F .text	0000001e __fp_lock
00040ee8 l     F .text	0000001e __fp_unlock
00000000 l    df *ABS*	00000000 fputwc.c
00000000 l    df *ABS*	00000000 fvwrite.c
00000000 l    df *ABS*	00000000 fwalk.c
00000000 l    df *ABS*	00000000 makebuf.c
00000000 l    df *ABS*	00000000 signal.c
00000000 l    df *ABS*	00000000 signalr.c
00000000 l    df *ABS*	00000000 stdio.c
00000000 l    df *ABS*	00000000 wbuf.c
00000000 l    df *ABS*	00000000 wcrtomb.c
00000000 l    df *ABS*	00000000 writer.c
00000000 l    df *ABS*	00000000 closer.c
00000000 l    df *ABS*	00000000 fclose.c
00000000 l    df *ABS*	00000000 fstatr.c
00000000 l    df *ABS*	00000000 isattyr.c
00000000 l    df *ABS*	00000000 lseekr.c
00000000 l    df *ABS*	00000000 readr.c
00000000 l    df *ABS*	00000000 close.c
00000000 l    df *ABS*	00000000 fstat.c
00000000 l    df *ABS*	00000000 getpid.c
00000000 l    df *ABS*	00000000 isatty.c
00000000 l    df *ABS*	00000000 kill.c
00000000 l    df *ABS*	00000000 lseek.c
00000000 l    df *ABS*	00000000 read.c
00000000 l    df *ABS*	00000000 sbrk.c
00408248 l     O .bss	00000004 heap_end.0
00000000 l    df *ABS*	00000000 write.c
00000000 l    df *ABS*	00000000 _exit.c
0002dfd0 l     F .vectors	0000000c __main_from_arm
0002e030 l     F FAST_CALL_SEG	0000000c __FIQ_Exception_from_arm
0002e03c l     F FAST_CALL_SEG	0000000c __IRQ_Exception_from_arm
00042070 l     F .text	00000008 ____aeabi_dcmpun_from_thumb
00042078 l     F .text	00000008 ____aeabi_dmul_from_thumb
00042080 l     F .text	00000008 ____aeabi_dcmple_from_thumb
00042088 l     F .text	0000000c ____udivmoddi4_from_arm
00042094 l     F .text	00000008 ____aeabi_ui2d_from_thumb
0004209c l     F .text	00000008 ____aeabi_uidivmod_from_thumb
000420a4 l     F .text	00000008 ____aeabi_dcmpgt_from_thumb
000420ac l     F .text	0000000c ____aeabi_ldiv0_from_arm
000420b8 l     F .text	00000008 ____aeabi_dcmpeq_from_thumb
000420c0 l     F .text	00000008 ____disable_irq_from_thumb
000420c8 l     F .text	00000008 ____aeabi_idivmod_from_thumb
000420d0 l     F .text	00000008 ____enable_irq_from_thumb
000420d8 l     F .text	00000008 ____aeabi_uidiv_from_thumb
000420e0 l     F .text	00000008 ____aeabi_d2iz_from_thumb
000420e8 l     F .text	00000008 ____aeabi_dsub_from_thumb
000420f0 l     F .text	00000008 ____aeabi_idiv_from_thumb
000420f8 l     F .text	00000008 ____disable_fiq_from_thumb
00042100 l     F .text	00000008 ____enable_fiq_from_thumb
00042108 l     F .text	00000008 ____aeabi_dadd_from_thumb
00042110 l     F .text	00000008 ____aeabi_dcmplt_from_thumb
00042118 l     F .text	00000008 ____clzdi2_from_thumb
00042120 l     F .text	00000008 ____aeabi_i2d_from_thumb
00042128 l     F .text	00000008 ____aeabi_ddiv_from_thumb
00042130 l     F .text	00000008 ____aeabi_uldivmod_from_thumb
00042138 l     F .text	00000008 __strcmp_from_thumb
0002759c g     F *ABS*	0000002c ke_state_get
00026770 g     F *ABS*	00000044 ke_mem_is_empty
0003e5f4 g     F .text	00000038 _mprec_log10
00025fe0 g     F *ABS*	00000030 co_list_extract
0002ed34 g     F .text	00000038 .hidden __aeabi_dcmpun
0040307e g     O .bss	00000001 .hidden oad_firmware_type
0003e670 g     F .text	00000054 __any_on
00041f50 g     F .text	00000028 _isatty_r
00044ea0 g     O .rodata	00000028 __mprec_tinytens
0002ecec g     F .text	00000018 .hidden __aeabi_dcmple
0003a484 g     F .text	00000010 strcpy
0003fb08 g     F .text	00000052 cleanup_glue
00039f58 g     F .text	00000012 .hidden prf_dst_task_get.isra.0
00025e14 g     F *ABS*	00000012 hci_cmd_get_max_param_size
00041ff0 g     F .text	00000010 _getpid
0002ec00 g     F .text	00000088 .hidden __cmpdf2
0002bf6c g     O *ABS*	00000030 hci_cmd_desc_root_tab
00041f78 g     F .text	0000002c _lseek_r
0000a3a0 g     F *ABS*	000000c4 attm_att_set_permission
00036380 g     F .text	00000090 .hidden MGC_FdrcStartTx
000367a0 g     F .text	00000050 .hidden MGC_NoneControllerIsr
0000a64c g     F *ABS*	000000dc attc_send_read_ind
000027ae g     F *ABS*	00000002 PrefetchAbort_Exception
0002ec00 g     F .text	00000088 .hidden __eqdf2
00002898 g     F *ABS*	00000010 gapc_set_operation_ptr
00036c38 g     F .text	00000238 .hidden MGC_FdrcBindEndpoint
000267b4 g     F *ABS*	0000009c ke_check_malloc
0000f484 g     F *ABS*	0000007c l2cc_lecb_pdu_unpack
00400f00 g       .data	00000000 _data_addr_begin
0001f280 g     F *ABS*	00000014 hci_fc_init
000096d4 g     F *ABS*	00000044 attmdb_uuid16_comp
0001d438 g     F *ABS*	000003e4 lld_init
0002e6f4 g     F .text	00000060 .hidden __floatdidf
00025e4c g     F *ABS*	00000018 sch_plan_init
00041b5c g     F .text	0000002c _kill_r
0002df20 g     F .vectors	00000000 __disable_irq
000099b8 g     F *ABS*	00000198 attm_get_value
00408228 g     O .bss	00000001 __lock___atexit_recursive_mutex
0003c114 g     F .text	0000003c vsprintf
00041d38 g     F .text	0000004a _wcrtomb_r
00400464 g     O *ABS*	00000003 gapc_state
000418c0 g     F .text	0000005c _signal_r
00041c08 g     F .text	00000030 __sseek
00040f58 g     F .text	00000124 __sinit
00400c47 g     O *ABS*	00000001 latency_disable
00041c48 g     F .text	000000d4 __swbuf_r
000105b8 g     F *ABS*	000000a8 l2cc_lecb_free
00009428 g     F *ABS*	00000052 attm_uuid_comp
00026930 g     F *ABS*	000000d8 ke_free
0003f54c g     F .text	00000048 _setlocale_r
00040f08 g     F .text	00000032 __sfmoreglue
0000d5cc g     F *ABS*	00000008 gattm_create
0003db78 g     F .text	00000014 __malloc_unlock
0001f2e4 g     F *ABS*	00000028 hci_fc_check_host_available_nb_acl_packets
000374e6 g     F .text	00000152 .hidden MGC_FdrcStartRx
00027654 g     F *ABS*	00000018 ke_timer_adjust_all
00039d24 g     F .text	00000080 .hidden flash_write.constprop.0.isra.0
0000d698 g     F *ABS*	00000068 gattc_send_complete_evt
00009c94 g     F *ABS*	00000018 gattc_get_operation
0001f914 g     F *ABS*	00000040 hci_init
00002a38 g     F *ABS*	0000000c gapm_get_irk
00408220 g     O .bss	00000001 __lock___arc4random_mutex
00027380 g     F *ABS*	0000000e ke_msg_send_basic
0003f664 g     F .text	000000ba memmove
0002b350 g     O *ABS*	00000068 atts_handlers
00010088 g     F *ABS*	00000030 l2cc_pdu_alloc
00040f3c g     F .text	0000001c _cleanup
0003db8c g     F .text	00000052 _Balloc
0002745c g     F *ABS*	00000048 ke_init
00025da8 g     F *ABS*	00000024 hci_look_for_evt_desc
0000fab8 g     F *ABS*	00000008 l2cm_create
004004cc g     O *ABS*	00000001 gapm_state
000281a0 g     F *ABS*	00000030 rwip_prevent_sleep_set
00002a60 g     F *ABS*	00000010 gapm_is_legacy_pairing_supp
00036be4 g     F .text	00000032 .hidden MGC_NoneCancelTimer
00037740 g     F .text	00000170 .hidden MGC_FdrcServiceReceiveReady
0002ebf0 g     F .text	00000098 .hidden __gtdf2
0003f5f4 g     F .text	00000002 __retarget_lock_close
00026056 g     F *ABS*	0000002c co_list_insert_before
0003d550 g     F .text	00000004 __localeconv_l
00002ae0 g     F *ABS*	00000020 gapm_dle_val_check
00002928 g     F *ABS*	0000001c gapc_enc_keysize_get
00041f24 g     F .text	0000002c _fstat_r
00025e38 g     F *ABS*	00000014 sch_arb_init
000086f8 g     F *ABS*	00000038 gapm_get_task_from_id
000027b2 g     F *ABS*	00000002 Reserved_Exception
00002d00 g     F *ABS*	0000002c gapc_update_state
00408244 g     O .bss	00000004 errno
00041bc0 g     F .text	00000004 __seofread
0001f238 g     F *ABS*	00000034 hci_evt_mask_set
00037b1c g     F .text	00000ca2 .hidden MGC_FdrcServiceDefaultEnd
00026082 g     F *ABS*	0000002e co_list_insert_after
0002c4b8 g     O *ABS*	00000030 hci_cmd_desc_tab_vs
004006e4 g     O *ABS*	0000000c l2cc_env
00026a08 g     F *ABS*	00000008 ke_msg_free
0001f26c g     F *ABS*	00000014 hci_fc_acl_buf_size_set
0002eca4 g     F .text	00000018 .hidden __aeabi_cdcmple
004006f4 g     O *ABS*	00000018 llc_env
000094f4 g     F *ABS*	0000003c attm_convert_to128_ti
00002944 g     F *ABS*	00000054 gapc_auth_set
00012d38 g     F *ABS*	0000003c l2cm_init
0003654a g     F .text	00000004 .hidden MGC_FdrcDmaChannelStatusChanged
0002760c g     F *ABS*	00000024 ke_task_check
000032e0 g     F *ABS*	00000088 gapc_process_op
000367f0 g     F .text	00000020 .hidden MGC_NoneArmTimer
0000c7bc g     F *ABS*	0000004c attc_l2cc_pdu_recv_handler
000349d8 g     F .text	000000b8 .hidden flash_read_data.part.0
00009660 g     F *ABS*	00000074 attmdb_get_next_att
0002602a g     F *ABS*	00000012 co_list_find
000281d0 g     F *ABS*	00000040 h4tl_write
0002a35c g     F *ABS*	00000108 hci_tl_send
00036996 g     F .text	0000002c .hidden MGC_NoneQueueBackgroundItem.lto_priv.0
00009e38 g     F *ABS*	00000010 gattc_set_operation_ptr
0002df10 g     F .vectors	00000000 __enable_irq
0003a264 g     F .text	000000a6 memcpy
0002ec88 g     F .text	00000034 .hidden __aeabi_cdrcmple
00039f7c g     F .text	0000004a .hidden oadImgBlockReq.constprop.0
0000fa18 g     F *ABS*	00000010 l2cm_set_link_layer_buff_size
00024e30 g     F *ABS*	00000078 hci_send_2_controller
0000f37c g     F *ABS*	00000010 l2cc_get_operation_ptr
00027630 g     F *ABS*	00000024 ke_timer_active
00026610 g     F *ABS*	00000014 ke_event_init
00010224 g     F *ABS*	0000003c l2cc_sig_pdu_recv_handler
00040eb4 g     F .text	00000014 _cleanup_r
0003a56c g     F .text	00001ba8 _svfprintf_r
0002e670 g     F .text	00000028 .hidden __floatsidf
00025dcc g     F *ABS*	00000020 hci_look_for_le_evt_desc
0002df00 g       .vectors	00000000 _swi_handler
0000a2b8 g     F *ABS*	00000030 gattc_reschedule_operation
0002ebf8 g     F .text	00000090 .hidden __ltdf2
00027b70 g     F *ABS*	000000a4 sch_arb_event_start_isr
00010e3c g     F *ABS*	00000604 llc_start
000100fa g     F *ABS*	00000026 l2cc_lecb_send_disc_rsp
00010120 g     F *ABS*	00000026 l2cc_lecb_send_credit_add
00002f74 g     F *ABS*	00000060 gapc_init
000260c4 g     F *ABS*	0000001a co_bdaddr_compare
0002edc8 g     F .text	00000000 .hidden __aeabi_uldivmod
0000f38c g     F *ABS*	00000010 l2cc_set_operation_ptr
0000efbc g     F *ABS*	0000002c hci_command_handler
0002defc g       .vectors	00000000 _undefined_handler
0001dbfc g     F *ABS*	00000064 lld_con_stop
00400695 g     O *ABS*	0000001e hci_env
0003e588 g     F .text	0000006c __ratio
0002bd40 g     O *ABS*	00000014 rwip_priority
00400df9 g     O *ABS*	00000001 uart_rx_en
000266d8 g     F *ABS*	0000002c ke_event_schedule
00002524 g     F *ABS*	00000068 gapc_hci_handler
0002a5d0 g     F *ABS*	00000012 __aeabi_memset
0004191c g     F .text	00000062 _raise_r
00041fe0 g     F .text	00000010 _fstat
0003f464 g     F .text	00000040 __assert_func
00026a84 g     F *ABS*	00000040 ke_flush
0000a798 g     F *ABS*	00000020 attm_init
00044dd8 g     O .rodata	000000c8 __mprec_tens
00027768 g     F *ABS*	00000040 sch_alarm_timer_isr
000265b8 g     F *ABS*	00000010 h4tl_start
000276ac g     F *ABS*	00000030 rwip_time_get
00402874 g       .bss	00000000 _bss_start
00008730 g     F *ABS*	0000001c gapm_le_psm_cleanup
0002a5c4 g     F *ABS*	0000000c __aeabi_memcpy
00408218 g     O .bss	00000004 __malloc_top_pad
0000b806 g     F *ABS*	0000013e attm_svc_create_db128
00041b88 g     F .text	0000000c _getpid_r
000395c8 g     F .text	00000294 .hidden MGC_DrcBsr
00026a38 g     F *ABS*	0000004c ecc_init
0002e64c g     F .text	00000024 .hidden __aeabi_ui2d
0003d554 g     F .text	00000008 _localeconv_r
00041384 g     F .text	0000031c __sfvwrite_r
0003dde8 g     F .text	00000064 __i2b
00041980 g     F .text	00000068 __sigtramp_r
0002fb5c g     F .text	00000044 .hidden uart2_printf
000027c0 g     F *ABS*	00000028 gapc_get_conidx
0002ee04 g     F .text	0000019a .hidden __udivmoddi4
0002e330 g     F .text	00000000 .hidden __aeabi_drsub
0003e72c g     F .text	00000028 _sbrk_r
00002e6c g     F *ABS*	00000024 gapc_send_disconect_ind
00028524 g     F *ABS*	00000030 rwip_prevent_sleep_clear
0003620e g     F .text	00000002 .hidden MGC_FdrcDynamicFifoLocation
00041fa4 g     F .text	0000002c _read_r
00025e64 g     F *ABS*	00000030 sch_prog_init
0002df84 g       .vectors	00000000 boot_stack_base_FIQ
000128d8 g     F *ABS*	00000020 l2cm_tx_status
0002e064 g     F .text	00000012 .hidden __gnu_thumb1_case_uqi
000265c8 g     F *ABS*	0000001c h4tl_stop
0002ecd4 g     F .text	00000018 .hidden __aeabi_dcmplt
00002a54 g     F *ABS*	0000000c gapm_get_bdaddr
00041e28 g     F .text	000000e2 _fclose_r
00040e38 g     F .text	0000007c fflush
00025f84 g     F *ABS*	00000024 co_list_pool_init
00408210 g     O .bss	00000004 __malloc_max_sbrked_mem
000273c8 g     F *ABS*	00000040 ke_queue_extract
0002f2f0 g     F .text	00000034 .hidden prf_get_task_from_id
000327ec g     F .text	00000028 .hidden prf_env_get
0002e698 g     F .text	00000048 .hidden __extendsfdf2
0002e9e4 g     F .text	0000020c .hidden __aeabi_ddiv
000265e4 g     F *ABS*	00000010 ke_timer_init
0002e33c g     F .text	00000310 .hidden __adddf3
00400558 g     O *ABS*	00000001 gattm_state
0003e3e0 g     F .text	000000cc __b2d
00408230 g     O .bss	00000001 __lock___env_recursive_mutex
0002e754 g     F .text	00000290 .hidden __aeabi_dmul
0002a5c4 g     F *ABS*	0000000c __aeabi_memcpy4
0002afe8 g     O *ABS*	00000018 gapc_sig_handlers
00042000 g     F .text	00000010 _isatty
0001f198 g     F *ABS*	00000024 ble_addr_add1
00026c1c g     F *ABS*	00000054 hci_acl_tx_data_received
000098fc g     F *ABS*	000000bc attmdb_get_uuid
0040823c g     O .bss	00000001 __lock___sinit_recursive_mutex
00044d2c g     O .rodata	00000004 _global_impure_ptr
0003f720 g     F .text	000003e6 _realloc_r
00002bbc g     F *ABS*	00000010 gapm_is_pref_con_param_pres
0000280c g     F *ABS*	00000020 gapc_get_conhdl
000412a4 g     F .text	00000064 _fputwc_r
00044db0 g     O .rodata	00000028 __mprec_bigtens
0003dca0 g     F .text	000000b4 __s2b
00040c4c g     F .text	0000000e abort
000273b6 g     F *ABS*	00000006 ke_msg_src_id_get
0002e64c g     F .text	00000024 .hidden __floatunsidf
00008664 g     F *ABS*	0000003c gapm_con_cleanup
00042040 g     F .text	0000001c _sbrk
0003e1d0 g     F .text	00000038 __mcmp
00002e90 g     F *ABS*	00000060 gapc_send_complete_evt
0000f364 g     F *ABS*	00000018 l2cc_get_operation
000411a8 g     F .text	00000024 __fp_lock_all
00025fa8 g     F *ABS*	00000016 co_list_push_back
00036458 g     F .text	0000003c .hidden MGC_FdrcLoadFifo
0000c798 g     F *ABS*	00000024 attc_send_execute
00026604 g     F *ABS*	0000000c ke_event_get_all
00403080 g     O .bss	00000004 .hidden oad_uuid
0002fba0 g     F .text	0000001c .hidden platform_reset
00009858 g     F *ABS*	00000078 attmdb_get_max_len
00039b30 g     F .text	000000fc .hidden MGC_DrcAcceptDevice
00009b50 g     F *ABS*	00000128 attmdb_att_get_permission
0003679c g     F .text	00000004 .hidden MGC_NoneUnlock.lto_priv.0
00039eb8 g     F .text	000000a0 .hidden sdp_write_service_ntf_cfg_req.constprop.0.isra.0
000042a8 g     F *ABS*	00000020 gapm_send_error_evt
0002bd5b g     O *ABS*	00000003 LLM_AA_CT1
00002b94 g     F *ABS*	00000028 gapm_lecb_unregister
00026850 g     F *ABS*	000000e0 ke_malloc
0040824c g       .bss	00000000 _bss_end
0002603c g     F *ABS*	0000001a co_list_merge
00025e28 g     F *ABS*	00000010 sch_alarm_init
000101c8 g     F *ABS*	0000005a l2cc_sig_send_cmd_reject
00036790 g     F .text	00000002 .hidden MGC_MsdOtgError.lto_priv.0
0002df88 g       .vectors	00000000 boot_stack_base_IRQ
00010b48 g     F *ABS*	0000005c l2cc_lecb_send_con_req
0000fd9c g     F *ABS*	000002c4 l2cc_pdu_header_check
0003fb5c g     F .text	000000aa _reclaim_reent
0000a800 g     F *ABS*	00000020 atts_clear_read_cache
0003dd54 g     F .text	00000036 __hi0bits
0000948c g     F *ABS*	00000034 attm_is_bt16_uuid
000265a0 g     F *ABS*	00000018 ke_event_callback_set
0002ed6c g     F .text	0000005c .hidden __fixdfsi
00036512 g     F .text	00000038 .hidden MGC_FdrcUnloadFifo
0000dfd0 g     F *ABS*	00000098 atts_l2cc_pdu_recv_handler
00408234 g     O .bss	00000001 __lock___malloc_recursive_mutex
00009626 g     F *ABS*	00000038 attmdb_get_attribute
000093cc g     F *ABS*	00000010 gattc_get_operation_ptr
0002a5b4 g     F *ABS*	0000000e __aeabi_memclr8
0002df04 g       .vectors	00000000 _pabort_handler
0001f2b8 g     F *ABS*	00000014 hci_fc_acl_packet_sent
00025fcc g     F *ABS*	00000014 co_list_pop_front
00400f74 g     O .data	00000002 .hidden oadBlkTot.lto_priv.0
00036b74 g     F .text	00000070 .hidden MUSB_BoardMessageNumber
0000b680 g     F *ABS*	00000038 gattm_init_attr
000084e4 g     F *ABS*	00000034 gapm_init_attr
00002df0 g     F *ABS*	00000030 gapc_reschedule_operation
0000c2a4 g     F *ABS*	00000026 atts_send_error
0001f490 g     F *ABS*	00000158 llm_init
0000f784 g     F *ABS*	00000288 l2cc_pdu_unpack
0002e33c g     F .text	00000310 .hidden __aeabi_dadd
00400458 g     O *ABS*	0000000c gapc_env
0002ebf8 g     F .text	00000090 .hidden __ledf2
00012b50 g     F *ABS*	00000014 l2cm_cleanup
0003678c g     F .text	00000004 .hidden MUSB_BoardSystemToBusAddress
0003a434 g     F .text	00000050 strcat
000286c4 g     F *ABS*	0000004c h4tl_init
000274e8 g     F *ABS*	00000038 ke_task_delete
000041a8 g     F *ABS*	00000044 gapm_send_complete_evt
0003dff4 g     F .text	000000dc __pow5mult
0002e6e0 g     F .text	00000074 .hidden __aeabi_ul2d
00038b80 g     F .text	00000064 .hidden MGC_McpDeviceConfigSelected
0002808c g     F *ABS*	000000a8 ke_timer_set
00036410 g     F .text	00000048 .hidden MGC_FdrcFlushEndpoint
0003985c g     F .text	00000002 .hidden MGC_MsdNewOtgState.lto_priv.0
0040824c g       .bss	00000000 end
000022e4 g     F *ABS*	00000000 .hidden __aeabi_idiv
000029d0 g     F *ABS*	0000003c gapc_param_update_sanity
00025d44 g     F *ABS*	00000064 hci_look_for_cmd_desc
0003f610 g     F .text	00000002 __retarget_lock_release_recursive
000028c4 g     F *ABS*	00000044 gapc_is_sec_set
00002888 g     F *ABS*	00000010 gapc_get_operation_ptr
00037334 g     F .text	000000ae .hidden MGC_FdrcHaltEndpoint
00036788 g     F .text	00000004 .hidden MUSB_BoardPrintDiag
0002df44 g     F .vectors	00000000 __disable_fiq
00027520 g     F *ABS*	0000007c ke_state_set
0003f608 g     F .text	00000004 __retarget_lock_try_acquire_recursive
000095a0 g     F *ABS*	00000048 attmdb_get_service
00400c7c g     O *ABS*	0000001c rwip_env
0000b54c g     F *ABS*	00000134 attm_svc_create_db
00009e20 g     F *ABS*	00000018 gattc_get_op_seq_num
0002ed1c g     F .text	00000018 .hidden __aeabi_dcmpgt
0002efcc g     F .text	00000048 .hidden __clzsi2
00041158 g     F .text	00000014 __sfp_lock_acquire
0003daec g     F .text	00000078 memchr
0003a3bc g     F .text	00000038 _sprintf_r
00036798 g     F .text	00000004 .hidden MGC_NoneLock.lto_priv.0
0003d388 g     F .text	000001c8 _free_r
0002e078 g     F .text	00000014 .hidden __gnu_thumb1_case_shi
0003f594 g     F .text	00000010 __locale_mb_cur_max
000388fc g     F .text	00000044 .hidden MUSB_ListAppendItem.constprop.0
0002ed04 g     F .text	00000018 .hidden __aeabi_dcmpge
000388a8 g     F .text	00000044 .hidden appm_update_param.constprop.0
00002fd4 g     F *ABS*	00000010 gapc_con_cleanup
0002e338 g     F .text	00000314 .hidden __aeabi_dsub
00401858 g     O .data	00000004 __malloc_sbrk_base
000284c8 g     F *ABS*	0000005c aes_result_handler
0002dd00 g       *ABS*	00000000 _vector_start
00036f62 g     F .text	00000060 .hidden MGC_DrcResetPort
0000d5d4 g     F *ABS*	000000c4 gattc_con_enable
0003f604 g     F .text	00000004 __retarget_lock_try_acquire
000094c0 g     F *ABS*	00000034 attm_is_bt32_uuid
0002e6e0 g     F .text	00000074 .hidden __floatundidf
0002a79c g     F *ABS*	00000038 rand
00042020 g     F .text	00000010 _lseek
0003e0d0 g     F .text	00000100 __lshift
00002a9c g     F *ABS*	0000002c gapm_get_id_from_task
000275cc g     F *ABS*	00000040 ke_task_msg_flush
00041a50 g     F .text	00000058 signal
0003e7c8 g     F .text	00000118 __ssprint_r
0002c038 g     O *ABS*	0000045c hci_cmd_desc_tab_le
0002e020 g     F FAST_CALL_SEG	00000000 _irq_handler
0003a4f4 g     F .text	00000078 strncmp
00038a7c g     F .text	000000c8 .hidden test_usb_device
0003de4c g     F .text	000001a8 __multiply
0002743c g     F *ABS*	00000020 ke_task_init
000275c8 g     F *ABS*	00000004 ke_msg_save
0003e754 g     F .text	00000074 strncpy
004081e8 g     O .bss	00000028 __malloc_current_mallinfo
0000fd68 g     F *ABS*	00000034 l2cc_lecb_init_disconnect
0002a5b4 g     F *ABS*	0000000e __aeabi_memclr
0003e4ac g     F .text	000000dc __d2b
00028554 g     F *ABS*	00000150 sch_prog_fifo_isr
000273b0 g     F *ABS*	00000006 ke_msg_dest_id_get
00012d90 g     F *ABS*	0000017c ble_util_buf_init
000273bc g     F *ABS*	0000000c ke_msg_in_queue
0000a768 g     F *ABS*	00000030 attmdb_destroy
0002b806 g     O *ABS*	00000010 co_sca2ppm
00009718 g     F *ABS*	000000c8 attm_att_set_value
00027408 g     F *ABS*	00000032 ke_queue_insert
0002bd30 g     O *ABS*	00000010 one_bits
0000d56c g     F *ABS*	00000060 gattc_create
00041e00 g     F .text	00000028 _close_r
0001f294 g     F *ABS*	00000024 hci_fc_acl_en
00034400 g     F .text	0000024c FIQ_Exception
0002e670 g     F .text	00000028 .hidden __aeabi_i2d
0000f410 g     F *ABS*	00000074 l2cc_lecb_pdu_pack
000100b8 g     F *ABS*	00000042 l2cc_lecb_send_con_rsp
000027ac g     F *ABS*	00000002 SoftwareInterrupt_Exception
00039f6a g     F .text	00000012 .hidden prf_src_task_get.isra.0
00400e58 g     O *ABS*	00000030 ke_env
0002a5e4 g     F *ABS*	0000004a memcmp
00036784 g     F .text	00000004 .hidden MUSB_BoardGetTime
0040051c g     O *ABS*	00000003 gattc_state
0003f5f8 g     F .text	00000002 __retarget_lock_close_recursive
0002b7d4 g     O *ABS*	00000006 co_null_bdaddr
0001f2cc g     F *ABS*	00000018 hci_fc_host_nb_acl_pkts_complete
00040b64 g     F .text	000000e8 __swsetup_r
0000f39c g     F *ABS*	0000003e l2cc_lecb_h2l_err
0002efa0  w    F .text	00000002 .hidden __aeabi_ldiv0
00009e48 g     F *ABS*	0000001c gattc_get_requester
0002e9e4 g     F .text	0000020c .hidden __divdf3
0004107c g     F .text	000000dc __sfp
0003e62c g     F .text	00000042 __copybits
0002d1e8 g     O *ABS*	00000048 hci_evt_desc_tab
00401450 g     O .data	00000408 __malloc_av_
00041194 g     F .text	00000014 __sinit_lock_release
00012d74 g     F *ABS*	0000001c rwble_hl_init
0002e754 g     F .text	00000290 .hidden __muldf3
00002bcc g     F *ABS*	00000028 gapm_get_att_handle
00041b94 g     F .text	0000002c __sread
004006f0 g     O *ABS*	00000003 l2cc_state
0003db64 g     F .text	00000014 __malloc_lock
0000c760 g     F *ABS*	00000020 attc_send_hdl_cfm
00040dc8 g     F .text	00000070 _fflush_r
0003f4b0 g     F .text	0000005e _calloc_r
0002739e g     F *ABS*	00000012 ke_msg_forward_new_id
000348a8 g     F .text	00000130 .hidden flash_write_data
0003f600 g     F .text	00000002 __retarget_lock_acquire_recursive
00036260 g     F .text	0000001a .hidden MGC_FdrcStop
00002ad4 g     F *ABS*	0000000c gapm_get_max_mps
0000e180 g     F *ABS*	00000068 gattc_init
0002766c g     F *ABS*	00000040 rwip_sw_int_handler
00039fc8 g     F .text	00000268 .hidden oadImgIdentifyWrite.constprop.0.isra.0
0003a30c g     F .text	000000ae memset
00034a90 g     F .text	000016bc main
000128f8 g     F *ABS*	00000258 l2cc_data_send
00004d84 g     F *ABS*	00000168 gapc_con_create
00408214 g     O .bss	00000004 __malloc_max_total_mem
0002e000 g     F FAST_CALL_SEG	00000000 _fiq_handler
0003f5f0 g     F .text	00000002 __retarget_lock_init_recursive
00041d1c g     F .text	0000001c __swbuf
0002a788 g     F *ABS*	00000014 srand
00002ac8 g     F *ABS*	0000000c gapm_get_max_mtu
000021c8 g     F *ABS*	00000000 .hidden __aeabi_uidiv
00041c38 g     F .text	00000010 __sclose
0000b6b8 g     F *ABS*	0000014e attm_svc_create_db_128
00026010 g     F *ABS*	0000001a co_list_extract_after
00402874 g       .bss	00000000 _data_addr_end
00041f0c g     F .text	00000018 fclose
00028134 g     F *ABS*	0000006c ke_timer_clear
00025e0c g     F *ABS*	00000008 co_list_init
0003c2c8 g     F .text	0000101e _dtoa_r
0003d564 g     F .text	00000588 _malloc_r
00040b48 g     F .text	0000001c __ascii_wctomb
0002e6f4 g     F .text	00000060 .hidden __aeabi_l2d
0002df90 g       .vectors	00000000 boot_stack_base_UNUSED
0003f510 g     F .text	00000018 _fiprintf_r
00041aa8 g     F .text	00000040 _init_signal
000416a0 g     F .text	00000048 _fwalk
0000c328 g     F *ABS*	00000028 atts_write_rsp_send
0000947a g     F *ABS*	00000012 attm_uuid16_comp
00039564 g     F .text	00000062 .hidden MGC_OtgStateGetId.lto_priv.0
00010ba4 g     F *ABS*	0000003c l2cc_lecb_send_disc_req
0003f614 g     F .text	00000022 _mbtowc_r
00002b00 g     F *ABS*	00000010 gapm_is_sec_con_pairing_supp
0003d2e8 g     F .text	000000a0 _malloc_trim_r
0002df0c g       .vectors	00000000 _reserved_handler
0002b940 g     O *ABS*	00000040 l2cc_sig_handlers
0002f014 g     F .text	00000224 strcmp
0000fc9c g     F *ABS*	00000090 l2cc_process_op
00402de6 g     O .bss	0000005a .hidden app_env
00040a80 g     F .text	0000001c vfiprintf
0003f5ec g     F .text	00000002 __retarget_lock_init
0000284c g     F *ABS*	00000024 gapc_get_bdaddr
00009530 g     F *ABS*	00000050 attmdb_svc_check_hdl
0002bf9c g     O *ABS*	0000006c hci_cmd_desc_tab_ctrl_bb
0002ec00 g     F .text	00000088 .hidden __nedf2
0000fb1c g     F *ABS*	00000028 l2cc_update_state
0001a970 g     F *ABS*	00000078 lld_adv_stop
0003a3f4 g     F .text	00000040 sprintf
0040821c g     O .bss	00000004 _PathLocale
000027b4 g     F *ABS*	0000000c stack_main
00400694 g     O *ABS*	00000001 enable_phy_2m
000378fc g     F .text	00000046 .hidden MGC_FindDescriptor
00402fde g     O .bss	00000001 .hidden latency_disable_state
00002a70 g     F *ABS*	00000014 gapm_get_operation
00041dd4 g     F .text	0000002c _write_r
0000f3dc g     F *ABS*	00000034 l2cc_lecb_find
0003c150 g     F .text	0000002c _vsprintf_r
0003f5a4 g     F .text	00000048 setlocale
004004d0 g     O *ABS*	0000000c l2cm_env
00400510 g     O *ABS*	0000000c gattc_env
0002bd5e g     O *ABS*	00000002 LLM_AA_CT2
00036e70 g     F .text	0000001a .hidden MUSB_ListFindItem
0002df08 g       .vectors	00000000 _dabort_handler
0000a8a4 g     F *ABS*	00000064 atts_process_pdu
00401020 g     O .data	00000004 _impure_ptr
0000b10c g     F *ABS*	00000440 attmdb_add_service
000274a4 g     F *ABS*	00000044 ke_task_create
00040c5c g     F .text	0000016c __sflush_r
004030ec g     O .bss	000002b8 .hidden pWrapper.0.lto_priv.0
0003627a g     F .text	0000008c .hidden MGC_FdrcReadBusState
00037638 g     F .text	00000108 .hidden MGC_FdrcServiceTransmitAvail
00026624 g     F *ABS*	00000038 ke_event_set
0002c4f0 g     O *ABS*	000000c0 hci_evt_le_desc_tab
0003e8e0 g     F .text	00000b84 _svfiprintf_r
00026704 g     F *ABS*	0000006c ke_mem_init
000027a4 g     F *ABS*	00000002 uart_stack_register
0003f638 g     F .text	0000002c __ascii_mbtowc
0003671c g     F .text	00000068 .hidden MGC_McpDeviceRequest
0003e398 g     F .text	00000048 __ulp
0002c494 g     O *ABS*	00000018 hci_cmd_desc_tab_lk_ctrl
000411cc g     F .text	00000024 __fp_unlock_all
0000e1e8 g     F *ABS*	0000000a gattm_cleanup
0002df34 g     F .vectors	00000000 __enable_fiq
00400bc8 g     O *ABS*	00000034 rwip_rf
00002d90 g     F *ABS*	00000032 gapm_update_state
004004dc g     O *ABS*	00000028 rom_env
000266cc g     F *ABS*	0000000c ke_event_flush
00012f0c g     F *ABS*	00000034 llc_stop
0000fa3c g     F *ABS*	00000040 llc_init
000190cc g     F *ABS*	00000690 lld_adv_start
00002b60 g     F *ABS*	00000034 gapm_lecb_register
00402f40 g     O .bss	00000004 .hidden flash_mid
0000fc60 g     F *ABS*	0000000a l2cc_pdu_send
00026bb0 g     F *ABS*	00000032 ke_msg_alloc
0003d55c g     F .text	00000008 localeconv
00041824 g     F .text	00000064 __swhatbuf_r
00402fe3 g     O .bss	0000007f .hidden notify_data
000388ec g     F .text	0000000e .hidden DelayNops.constprop.0
0002b2d0 g     O *ABS*	00000070 attc_handlers
000022c4 g     F *ABS*	00000020 .hidden __aeabi_uidivmod
0002ecbc g     F .text	00000018 .hidden __aeabi_dcmpeq
0000fa7c g     F *ABS*	0000003c l2cc_create
0004205c g     F .text	00000010 _write
00034164 g     F .text	0000029c IRQ_Exception
0002e050 g     F .text	00000012 .hidden __gnu_thumb1_case_sqi
00036306 g     F .text	0000007a .hidden MGC_FdrcProgramBusState
00038822 g     F .text	00000086 .hidden bass_get_att_idx.constprop.0
00002870 g     F *ABS*	00000018 gapc_get_operation
0000a290 g     F *ABS*	00000028 gattc_send_error_evt
000260b0 g     F *ABS*	00000014 co_list_size
00039e0c g     F .text	0000006c .hidden MUSB_ArrayAppend.part.0.constprop.0.isra.0
000411f0 g     F .text	000000b4 __fputwc
000027b0 g     F *ABS*	00000002 DataAbort_Exception
00029f7c g     F *ABS*	00000058 hci_acl_tx_data_alloc
00408224 g     O .bss	00000001 __lock___at_quick_exit_mutex
0002c4ac g     O *ABS*	0000000c hci_cmd_desc_tab_stat_par
0000ebe4 g     F *ABS*	00000028 gattm_init
00045348 g       .data	00000000 data_load_begin
00026be4 g     F *ABS*	00000038 ke_msg_send
00002a44 g     F *ABS*	00000010 gapm_get_address_type
0000c730 g     F *ABS*	00000030 attc_send_att_req
0002a5b4 g     F *ABS*	0000000e __aeabi_memclr4
00041bc4 g     F .text	00000044 __swrite
0040185c g     O .data	00000004 __malloc_trim_threshold
000097e0 g     F *ABS*	00000078 attm_att_update_perm
00026b9c g     F *ABS*	00000014 ke_is_free
0003f528 g     F .text	00000024 fiprintf
0003fcac g     F .text	00000dd4 _vfiprintf_r
00036c16 g     F .text	00000022 .hidden MUSB_ArrayFetch
000416e8 g     F .text	00000050 _fwalk_reent
0003e208 g     F .text	00000190 __mdiff
0000cf30 g     F *ABS*	000000bc atts_send_event
0002ed6c g     F .text	0000005c .hidden __aeabi_d2iz
00042010 g     F .text	00000010 _kill
000093ec g     F *ABS*	0000003c attm_convert_to128
0002c008 g     O *ABS*	00000030 hci_cmd_desc_tab_info_par
00029dac g     F *ABS*	00000144 hci_cmd_received
00400468 g     O *ABS*	00000064 gapm_env
0000282c g     F *ABS*	00000020 gapc_get_role
00045348 g       *ABS*	00000000 _data_load_begin
0004116c g     F .text	00000014 __sfp_lock_release
00400020 g     O *ABS*	00000006 co_default_bdaddr
00400504 g     O *ABS*	0000000c rwip_param
0004523c g     O .rodata	00000101 _ctype_
0002df58 g     F .vectors	00000000 WFI
00042030 g     F .text	00000010 _read
0002efa0  w    F .text	00000002 .hidden __aeabi_idiv0
0003f5fc g     F .text	00000002 __retarget_lock_acquire
0002ed34 g     F .text	00000038 .hidden __unorddf2
0003f60c g     F .text	00000002 __retarget_lock_release
0000a220 g     F *ABS*	00000070 gattc_set_mtu
00002908 g     F *ABS*	00000020 gapc_lk_sec_lvl_get
0004206c g     F .text	00000002 _exit
0000d544 g     F *ABS*	00000028 gattc_update_state
0003464c g     F .text	00000040 .hidden get_flash_ID
0000e0dc g     F *ABS*	000000a4 gattc_cleanup
0040822c g     O .bss	00000001 __lock___dd_hash_mutex
0000cef4 g     F *ABS*	0000003c atts_write_signed_cfm
00041738 g     F .text	000000ec __smakebuf_r
00408240 g     O .bss	00000001 __lock___tz_mutex
00036792 g     F .text	00000006 .hidden MGC_NoneFlushBackgroundQueue.lto_priv.0
0003a494 g     F .text	00000060 strlen
00041888 g     F .text	00000036 _init_signal_r
0000a7dc g     F *ABS*	00000024 atts_clear_rsp_data
0002eca4 g     F .text	00000018 .hidden __aeabi_cdcmpeq
00025fbe g     F *ABS*	0000000e co_list_push_front
0002ebf0 g     F .text	00000098 .hidden __gedf2
00002b10 g     F *ABS*	0000001c gapm_le_psm_find
0002738e g     F *ABS*	00000010 ke_msg_forward
000093dc g     F *ABS*	00000010 gattc_get_mtu
000031b8 g     F *ABS*	00000022 gapc_send_error_evt
0000a7b8 g     F *ABS*	00000024 atts_clear_prep_data
00026694 g     F *ABS*	00000038 ke_event_get
00037018 g     F .text	0000023e .hidden MGC_FdrcDestroy
000027aa g     F *ABS*	00000002 Undefined_Exception
00002b2c g     F *ABS*	00000034 gapm_le_psm_get_info
0003f4a4 g     F .text	0000000a __assert
000095e8 g     F *ABS*	00000022 attm_svc_set_permission
0000fa0c g     F *ABS*	0000000c l2cm_get_nb_buffer_available
0003fc94 g     F .text	00000018 __sprint_r
0000f500 g     F *ABS*	00000284 l2cc_pdu_pack
0002e698 g     F .text	00000048 .hidden __aeabi_f2d
000387c0 g     F .text	00000062 .hidden MGC_FunctionVerifyResources.lto_priv.0
000087b8 g     F *ABS*	000000b8 gapm_init
0001f954 g     F *ABS*	00000148 hci_send_2_host
00040b2c g     F .text	0000001a _wctomb_r
0002efa4 g     F .text	00000028 .hidden __clzdi2
0002e338 g     F .text	00000314 .hidden __subdf3
000361e4 g     F .text	0000002a .hidden MGC_DrcSetHostPower
0000960a g     F *ABS*	0000001c attm_svc_get_permission
0002e08c g     F .text	00000014 .hidden __gnu_thumb1_case_uhi
000251aa g     F *ABS*	00000004 ke_msg_discard
0003dd8c g     F .text	0000005a __lo0bits
00039e78 g     F .text	00000040 .hidden flash_read.constprop.0.isra.0
00002414 g     F *ABS*	00000020 .hidden __aeabi_idivmod
000369c2 g     F .text	0000003c .hidden MGC_NoneDequeueBackgroundItem.lto_priv.0
00041ae8 g     F .text	00000072 __sigtramp
00036708 g     F .text	00000014 .hidden MGC_McpNewUsbState
00402ac0 g     O .bss	00000004 .hidden MGC_hCdiBus.lto_priv.0
00036210 g     F .text	00000050 .hidden MGC_FdrcStart
00041d84 g     F .text	0000004e wcrtomb
0003a230 g     F .text	00000034 .hidden prf_read_char_send.constprop.0.isra.0
00402f3c g     O .bss	00000001 .hidden flash_enable_write_flag2
00036494 g     F .text	0000007e .hidden MGC_FdrcDefaultEndResponse
00402f3b g     O .bss	00000001 .hidden flash_enable_write_flag1
0003e6c4 g     F .text	00000068 frexp
000028a8 g     F *ABS*	0000001c gapc_get_requester
00025dec g     F *ABS*	00000020 hci_tl_init
00026a10 g     F *ABS*	00000028 aes_init
00401860 g     O .data	0000016c __global_locale
00009580 g     F *ABS*	00000020 attm_reserve_handle_range
00002998 g     F *ABS*	00000038 gapc_auth_get
00010660 g     F *ABS*	000000c4 l2cc_cleanup
00025f20 g     F *ABS*	0000004c sch_slice_init
0003985e g     F .text	000002d0 .hidden MGC_FdrcIsr
00008518 g     F *ABS*	0000007c gapm_con_create
00002a84 g     F *ABS*	00000018 gapm_get_requester
00408238 g     O .bss	00000001 __lock___sfp_recursive_mutex
0002665c g     F *ABS*	00000038 ke_event_clear
000265f4 g     F *ABS*	00000010 ke_sleep_check
00036b4c g     F .text	00000028 .hidden MUSB_BoardMessageString
00041308 g     F .text	0000007c fputwc
00041fd0 g     F .text	00000010 _close
000419e8 g     F .text	00000066 raise
00010724 g     F *ABS*	00000064 l2cc_init
00041180 g     F .text	00000014 __sinit_lock_acquire
0003dbf4 g     F .text	000000ac __multadd
00002a0c g     F *ABS*	0000002c gapc_sig_pdu_recv_handler
0003dbe0 g     F .text	00000014 _Bfree
0040307c g     O .bss	00000002 .hidden oadBlkNum.lto_priv.0
0002df8c g       .vectors	00000000 boot_stack_base_SVC
00400520 g     O *ABS*	00000038 gattm_env



Disassembly of section .vectors:

0002dd00 <_reset_handler-0x20>:
   2dd00:	ea000006 	b	2dd20 <_reset_handler>
   2dd04:	e59ff1f0 	ldr	pc, [pc, #496]	; 2defc <_undefined_handler>
   2dd08:	e59ff1f0 	ldr	pc, [pc, #496]	; 2df00 <_swi_handler>
   2dd0c:	e59ff1f0 	ldr	pc, [pc, #496]	; 2df04 <_pabort_handler>
   2dd10:	e59ff1f0 	ldr	pc, [pc, #496]	; 2df08 <_dabort_handler>
   2dd14:	e59ff1f0 	ldr	pc, [pc, #496]	; 2df0c <_reserved_handler>
   2dd18:	e59ff280 	ldr	pc, [pc, #640]	; 2dfa0 <boot_stack_base_UNUSED+0x10>
   2dd1c:	e59ff280 	ldr	pc, [pc, #640]	; 2dfa4 <boot_stack_base_UNUSED+0x14>

0002dd20 <_reset_handler>:
   2dd20:	e10f0000 	mrs	r0, CPSR
   2dd24:	e38000c0 	orr	r0, r0, #192	; 0xc0
   2dd28:	e121f000 	msr	CPSR_c, r0
   2dd2c:	e10f0000 	mrs	r0, CPSR
   2dd30:	e3c0001f 	bic	r0, r0, #31
   2dd34:	e380001f 	orr	r0, r0, #31
   2dd38:	e121f000 	msr	CPSR_c, r0
   2dd3c:	e59f023c 	ldr	r0, [pc, #572]	; 2df80 <_STACK_SIZE_UND>
   2dd40:	e59f1234 	ldr	r1, [pc, #564]	; 2df7c <_STACK_ADDR_UND>
   2dd44:	e59f225c 	ldr	r2, [pc, #604]	; 2dfa8 <boot_stack_base_UNUSED+0x18>
   2dd48:	e1a0d001 	mov	sp, r1
   2dd4c:	e0410000 	sub	r0, r1, r0
   2dd50:	e1500001 	cmp	r0, r1
   2dd54:	b5802000 	strlt	r2, [r0]
   2dd58:	b2800004 	addlt	r0, r0, #4
   2dd5c:	bafffffb 	blt	2dd50 <_reset_handler+0x30>
   2dd60:	e10f0000 	mrs	r0, CPSR
   2dd64:	e3c0001f 	bic	r0, r0, #31
   2dd68:	e3800017 	orr	r0, r0, #23
   2dd6c:	e121f000 	msr	CPSR_c, r0
   2dd70:	e59f0208 	ldr	r0, [pc, #520]	; 2df80 <_STACK_SIZE_UND>
   2dd74:	e59f1200 	ldr	r1, [pc, #512]	; 2df7c <_STACK_ADDR_UND>
   2dd78:	e59f2228 	ldr	r2, [pc, #552]	; 2dfa8 <boot_stack_base_UNUSED+0x18>
   2dd7c:	e1a0d001 	mov	sp, r1
   2dd80:	e0410000 	sub	r0, r1, r0
   2dd84:	e1500001 	cmp	r0, r1
   2dd88:	b5802000 	strlt	r2, [r0]
   2dd8c:	b2800004 	addlt	r0, r0, #4
   2dd90:	bafffffb 	blt	2dd84 <_reset_handler+0x64>
   2dd94:	e10f0000 	mrs	r0, CPSR
   2dd98:	e3c0001f 	bic	r0, r0, #31
   2dd9c:	e380001b 	orr	r0, r0, #27
   2dda0:	e121f000 	msr	CPSR_c, r0
   2dda4:	e59f01d4 	ldr	r0, [pc, #468]	; 2df80 <_STACK_SIZE_UND>
   2dda8:	e59f11cc 	ldr	r1, [pc, #460]	; 2df7c <_STACK_ADDR_UND>
   2ddac:	e59f21f4 	ldr	r2, [pc, #500]	; 2dfa8 <boot_stack_base_UNUSED+0x18>
   2ddb0:	e1a0d001 	mov	sp, r1
   2ddb4:	e0410000 	sub	r0, r1, r0
   2ddb8:	e1500001 	cmp	r0, r1
   2ddbc:	b5802000 	strlt	r2, [r0]
   2ddc0:	b2800004 	addlt	r0, r0, #4
   2ddc4:	bafffffb 	blt	2ddb8 <_reset_handler+0x98>
   2ddc8:	e10f0000 	mrs	r0, CPSR
   2ddcc:	e3c0001f 	bic	r0, r0, #31
   2ddd0:	e3800012 	orr	r0, r0, #18
   2ddd4:	e121f000 	msr	CPSR_c, r0
   2ddd8:	e59f0190 	ldr	r0, [pc, #400]	; 2df70 <_STACK_SIZE_IRQ>
   2dddc:	e59f1188 	ldr	r1, [pc, #392]	; 2df6c <_STACK_ADDR_IRQ>
   2dde0:	e59f21c4 	ldr	r2, [pc, #452]	; 2dfac <boot_stack_base_UNUSED+0x1c>
   2dde4:	e1a0d001 	mov	sp, r1
   2dde8:	e0410000 	sub	r0, r1, r0
   2ddec:	e1500001 	cmp	r0, r1
   2ddf0:	b5802000 	strlt	r2, [r0]
   2ddf4:	b2800004 	addlt	r0, r0, #4
   2ddf8:	bafffffb 	blt	2ddec <_reset_handler+0xcc>
   2ddfc:	e10f0000 	mrs	r0, CPSR
   2de00:	e3c0001f 	bic	r0, r0, #31
   2de04:	e3800011 	orr	r0, r0, #17
   2de08:	e121f000 	msr	CPSR_c, r0
   2de0c:	e59f0154 	ldr	r0, [pc, #340]	; 2df68 <_STACK_SIZE_FIQ>
   2de10:	e59f114c 	ldr	r1, [pc, #332]	; 2df64 <_STACK_ADDR_FIQ>
   2de14:	e59f2194 	ldr	r2, [pc, #404]	; 2dfb0 <boot_stack_base_UNUSED+0x20>
   2de18:	e1a0d001 	mov	sp, r1
   2de1c:	e0410000 	sub	r0, r1, r0
   2de20:	e1500001 	cmp	r0, r1
   2de24:	b5802000 	strlt	r2, [r0]
   2de28:	b2800004 	addlt	r0, r0, #4
   2de2c:	bafffffb 	blt	2de20 <_reset_handler+0x100>
   2de30:	e3a08000 	mov	r8, #0
   2de34:	e3a09000 	mov	r9, #0
   2de38:	e3a0a000 	mov	sl, #0
   2de3c:	e3a0b000 	mov	fp, #0
   2de40:	e3a0c000 	mov	ip, #0
   2de44:	e10f0000 	mrs	r0, CPSR
   2de48:	e3c0001f 	bic	r0, r0, #31
   2de4c:	e3800013 	orr	r0, r0, #19
   2de50:	e121f000 	msr	CPSR_c, r0
   2de54:	e59f011c 	ldr	r0, [pc, #284]	; 2df78 <_STACK_SIZE_SVC>
   2de58:	e59f1114 	ldr	r1, [pc, #276]	; 2df74 <_STACK_ADDR_SVC>
   2de5c:	e59f2150 	ldr	r2, [pc, #336]	; 2dfb4 <boot_stack_base_UNUSED+0x24>
   2de60:	e1a0d001 	mov	sp, r1
   2de64:	e0410000 	sub	r0, r1, r0
   2de68:	e1500001 	cmp	r0, r1
   2de6c:	b5802000 	strlt	r2, [r0]
   2de70:	b2800004 	addlt	r0, r0, #4
   2de74:	bafffffb 	blt	2de68 <_reset_handler+0x148>
   2de78:	eb00000e 	bl	2deb8 <_data_init>
   2de7c:	eb000015 	bl	2ded8 <_zi_init>
   2de80:	e3a00000 	mov	r0, #0
   2de84:	e3a01000 	mov	r1, #0
   2de88:	e3a02000 	mov	r2, #0
   2de8c:	e3a03000 	mov	r3, #0
   2de90:	e3a04000 	mov	r4, #0
   2de94:	e3a05000 	mov	r5, #0
   2de98:	e3a06000 	mov	r6, #0
   2de9c:	e3a07000 	mov	r7, #0
   2dea0:	e3a08000 	mov	r8, #0
   2dea4:	e3a09000 	mov	r9, #0
   2dea8:	e3a0a000 	mov	sl, #0
   2deac:	e3a0b000 	mov	fp, #0
   2deb0:	e3a0c000 	mov	ip, #0
   2deb4:	ea000045 	b	2dfd0 <__main_from_arm>

0002deb8 <_data_init>:
   2deb8:	e59f00f8 	ldr	r0, [pc, #248]	; 2dfb8 <boot_stack_base_UNUSED+0x28>
   2debc:	e59f10f8 	ldr	r1, [pc, #248]	; 2dfbc <boot_stack_base_UNUSED+0x2c>
   2dec0:	e59f20f8 	ldr	r2, [pc, #248]	; 2dfc0 <boot_stack_base_UNUSED+0x30>
   2dec4:	e1510002 	cmp	r1, r2
   2dec8:	34904004 	ldrcc	r4, [r0], #4
   2decc:	34814004 	strcc	r4, [r1], #4
   2ded0:	3afffffb 	bcc	2dec4 <_data_init+0xc>
   2ded4:	e12fff1e 	bx	lr

0002ded8 <_zi_init>:
   2ded8:	e59f00e4 	ldr	r0, [pc, #228]	; 2dfc4 <boot_stack_base_UNUSED+0x34>
   2dedc:	e59f10e4 	ldr	r1, [pc, #228]	; 2dfc8 <boot_stack_base_UNUSED+0x38>
   2dee0:	e1a03001 	mov	r3, r1
   2dee4:	e1a04000 	mov	r4, r0
   2dee8:	e3a02000 	mov	r2, #0
   2deec:	e1540003 	cmp	r4, r3
   2def0:	34842004 	strcc	r2, [r4], #4
   2def4:	3afffffc 	bcc	2deec <_zi_init+0x14>
   2def8:	e12fff1e 	bx	lr

0002defc <_undefined_handler>:
   2defc:	000027ab 	.word	0x000027ab

0002df00 <_swi_handler>:
   2df00:	000027ad 	.word	0x000027ad

0002df04 <_pabort_handler>:
   2df04:	000027af 	.word	0x000027af

0002df08 <_dabort_handler>:
   2df08:	000027b1 	.word	0x000027b1

0002df0c <_reserved_handler>:
   2df0c:	000027b3 	.word	0x000027b3

0002df10 <__enable_irq>:
   2df10:	e10f0000 	mrs	r0, CPSR
   2df14:	e3c00080 	bic	r0, r0, #128	; 0x80
   2df18:	e121f000 	msr	CPSR_c, r0
   2df1c:	e12fff1e 	bx	lr

0002df20 <__disable_irq>:
   2df20:	e10f0000 	mrs	r0, CPSR
   2df24:	e3801080 	orr	r1, r0, #128	; 0x80
   2df28:	e121f001 	msr	CPSR_c, r1
   2df2c:	e2000080 	and	r0, r0, #128	; 0x80
   2df30:	e12fff1e 	bx	lr

0002df34 <__enable_fiq>:
   2df34:	e10f0000 	mrs	r0, CPSR
   2df38:	e3c00040 	bic	r0, r0, #64	; 0x40
   2df3c:	e121f000 	msr	CPSR_c, r0
   2df40:	e12fff1e 	bx	lr

0002df44 <__disable_fiq>:
   2df44:	e10f0000 	mrs	r0, CPSR
   2df48:	e3801040 	orr	r1, r0, #64	; 0x40
   2df4c:	e121f001 	msr	CPSR_c, r1
   2df50:	e2000040 	and	r0, r0, #64	; 0x40
   2df54:	e12fff1e 	bx	lr

0002df58 <WFI>:
   2df58:	e3a00000 	mov	r0, #0
   2df5c:	ee070f90 	mcr	15, 0, r0, cr7, cr0, {4}
   2df60:	e12fff1e 	bx	lr

0002df64 <_STACK_ADDR_FIQ>:
   2df64:	0040fffc 	.word	0x0040fffc

0002df68 <_STACK_SIZE_FIQ>:
   2df68:	000002f0 	.word	0x000002f0

0002df6c <_STACK_ADDR_IRQ>:
   2df6c:	0040fd0c 	.word	0x0040fd0c

0002df70 <_STACK_SIZE_IRQ>:
   2df70:	000003f0 	.word	0x000003f0

0002df74 <_STACK_ADDR_SVC>:
   2df74:	0040f91c 	.word	0x0040f91c

0002df78 <_STACK_SIZE_SVC>:
   2df78:	000006f0 	.word	0x000006f0

0002df7c <_STACK_ADDR_UND>:
   2df7c:	0040f22c 	.word	0x0040f22c

0002df80 <_STACK_SIZE_UND>:
   2df80:	00000100 	.word	0x00000100

0002df84 <boot_stack_base_FIQ>:
   2df84:	0040fd0c 	.word	0x0040fd0c

0002df88 <boot_stack_base_IRQ>:
   2df88:	0040f91c 	.word	0x0040f91c

0002df8c <boot_stack_base_SVC>:
   2df8c:	0040f22c 	.word	0x0040f22c

0002df90 <boot_stack_base_UNUSED>:
   2df90:	0040f12c 	.word	0x0040f12c
   2df94:	deadbeef 	.word	0xdeadbeef
   2df98:	deadbeef 	.word	0xdeadbeef
   2df9c:	deadbeef 	.word	0xdeadbeef
   2dfa0:	0002e020 	.word	0x0002e020
   2dfa4:	0002e000 	.word	0x0002e000
   2dfa8:	aaaaaaaa 	.word	0xaaaaaaaa
   2dfac:	cccccccc 	.word	0xcccccccc
   2dfb0:	dddddddd 	.word	0xdddddddd
   2dfb4:	bbbbbbbb 	.word	0xbbbbbbbb
   2dfb8:	00045348 	.word	0x00045348
   2dfbc:	00400f00 	.word	0x00400f00
   2dfc0:	00402874 	.word	0x00402874
   2dfc4:	00402874 	.word	0x00402874
   2dfc8:	0040824c 	.word	0x0040824c
   2dfcc:	00000000 	.word	0x00000000

0002dfd0 <__main_from_arm>:
   2dfd0:	e59fc000 	ldr	ip, [pc]	; 2dfd8 <__main_from_arm+0x8>
   2dfd4:	e12fff1c 	bx	ip
   2dfd8:	00034a91 	.word	0x00034a91
   2dfdc:	00000000 	.word	0x00000000

Disassembly of section FAST_CALL_SEG:

0002e000 <_fiq_handler>:
   2e000:	e92d500f 	push	{r0, r1, r2, r3, ip, lr}
   2e004:	eb000009 	bl	2e030 <__FIQ_Exception_from_arm>
   2e008:	e8bd500f 	pop	{r0, r1, r2, r3, ip, lr}
   2e00c:	e12fff1e 	bx	lr
	...

0002e020 <_irq_handler>:
   2e020:	e92d500f 	push	{r0, r1, r2, r3, ip, lr}
   2e024:	eb000004 	bl	2e03c <__IRQ_Exception_from_arm>
   2e028:	e8bd500f 	pop	{r0, r1, r2, r3, ip, lr}
   2e02c:	e12fff1e 	bx	lr

0002e030 <__FIQ_Exception_from_arm>:
   2e030:	e59fc000 	ldr	ip, [pc]	; 2e038 <__FIQ_Exception_from_arm+0x8>
   2e034:	e12fff1c 	bx	ip
   2e038:	00034401 	.word	0x00034401

0002e03c <__IRQ_Exception_from_arm>:
   2e03c:	e59fc000 	ldr	ip, [pc]	; 2e044 <__IRQ_Exception_from_arm+0x8>
   2e040:	e12fff1c 	bx	ip
   2e044:	00034165 	.word	0x00034165
	...

Disassembly of section .text:

0002e050 <__gnu_thumb1_case_sqi>:
   2e050:	b402      	push	{r1}
   2e052:	4671      	mov	r1, lr
   2e054:	0849      	lsrs	r1, r1, #1
   2e056:	0049      	lsls	r1, r1, #1
   2e058:	5609      	ldrsb	r1, [r1, r0]
   2e05a:	0049      	lsls	r1, r1, #1
   2e05c:	448e      	add	lr, r1
   2e05e:	bc02      	pop	{r1}
   2e060:	4770      	bx	lr
   2e062:	46c0      	nop			; (mov r8, r8)

0002e064 <__gnu_thumb1_case_uqi>:
   2e064:	b402      	push	{r1}
   2e066:	4671      	mov	r1, lr
   2e068:	0849      	lsrs	r1, r1, #1
   2e06a:	0049      	lsls	r1, r1, #1
   2e06c:	5c09      	ldrb	r1, [r1, r0]
   2e06e:	0049      	lsls	r1, r1, #1
   2e070:	448e      	add	lr, r1
   2e072:	bc02      	pop	{r1}
   2e074:	4770      	bx	lr
   2e076:	46c0      	nop			; (mov r8, r8)

0002e078 <__gnu_thumb1_case_shi>:
   2e078:	b403      	push	{r0, r1}
   2e07a:	4671      	mov	r1, lr
   2e07c:	0849      	lsrs	r1, r1, #1
   2e07e:	0040      	lsls	r0, r0, #1
   2e080:	0049      	lsls	r1, r1, #1
   2e082:	5e09      	ldrsh	r1, [r1, r0]
   2e084:	0049      	lsls	r1, r1, #1
   2e086:	448e      	add	lr, r1
   2e088:	bc03      	pop	{r0, r1}
   2e08a:	4770      	bx	lr

0002e08c <__gnu_thumb1_case_uhi>:
   2e08c:	b403      	push	{r0, r1}
   2e08e:	4671      	mov	r1, lr
   2e090:	0849      	lsrs	r1, r1, #1
   2e092:	0040      	lsls	r0, r0, #1
   2e094:	0049      	lsls	r1, r1, #1
   2e096:	5a09      	ldrh	r1, [r1, r0]
   2e098:	0049      	lsls	r1, r1, #1
   2e09a:	448e      	add	lr, r1
   2e09c:	bc03      	pop	{r0, r1}
   2e09e:	4770      	bx	lr
   2e0a0:	e92d4070 	push	{r4, r5, r6, lr}
   2e0a4:	e3a0c0ff 	mov	ip, #255	; 0xff
   2e0a8:	e38ccc07 	orr	ip, ip, #1792	; 0x700
   2e0ac:	e01c4a21 	ands	r4, ip, r1, lsr #20
   2e0b0:	101c5a23 	andsne	r5, ip, r3, lsr #20
   2e0b4:	1134000c 	teqne	r4, ip
   2e0b8:	1135000c 	teqne	r5, ip
   2e0bc:	0b000075 	bleq	2e298 <__gnu_thumb1_case_uhi+0x20c>
   2e0c0:	e0844005 	add	r4, r4, r5
   2e0c4:	e0216003 	eor	r6, r1, r3
   2e0c8:	e1c11a8c 	bic	r1, r1, ip, lsl #21
   2e0cc:	e1c33a8c 	bic	r3, r3, ip, lsl #21
   2e0d0:	e1905601 	orrs	r5, r0, r1, lsl #12
   2e0d4:	11925603 	orrsne	r5, r2, r3, lsl #12
   2e0d8:	e3811601 	orr	r1, r1, #1048576	; 0x100000
   2e0dc:	e3833601 	orr	r3, r3, #1048576	; 0x100000
   2e0e0:	0a00001d 	beq	2e15c <__gnu_thumb1_case_uhi+0xd0>
   2e0e4:	e08ec290 	umull	ip, lr, r0, r2
   2e0e8:	e3a05000 	mov	r5, #0
   2e0ec:	e0a5e291 	umlal	lr, r5, r1, r2
   2e0f0:	e2062102 	and	r2, r6, #-2147483648	; 0x80000000
   2e0f4:	e0a5e390 	umlal	lr, r5, r0, r3
   2e0f8:	e3a06000 	mov	r6, #0
   2e0fc:	e0a65391 	umlal	r5, r6, r1, r3
   2e100:	e33c0000 	teq	ip, #0
   2e104:	138ee001 	orrne	lr, lr, #1
   2e108:	e24440ff 	sub	r4, r4, #255	; 0xff
   2e10c:	e3560c02 	cmp	r6, #512	; 0x200
   2e110:	e2c44c03 	sbc	r4, r4, #768	; 0x300
   2e114:	2a000002 	bcs	2e124 <__gnu_thumb1_case_uhi+0x98>
   2e118:	e1b0e08e 	lsls	lr, lr, #1
   2e11c:	e0b55005 	adcs	r5, r5, r5
   2e120:	e0a66006 	adc	r6, r6, r6
   2e124:	e1821586 	orr	r1, r2, r6, lsl #11
   2e128:	e1811aa5 	orr	r1, r1, r5, lsr #21
   2e12c:	e1a00585 	lsl	r0, r5, #11
   2e130:	e1800aae 	orr	r0, r0, lr, lsr #21
   2e134:	e1a0e58e 	lsl	lr, lr, #11
   2e138:	e254c0fd 	subs	ip, r4, #253	; 0xfd
   2e13c:	835c0c07 	cmphi	ip, #1792	; 0x700
   2e140:	8a000011 	bhi	2e18c <__gnu_thumb1_case_uhi+0x100>
   2e144:	e35e0102 	cmp	lr, #-2147483648	; 0x80000000
   2e148:	01b0e0a0 	lsrseq	lr, r0, #1
   2e14c:	e2b00000 	adcs	r0, r0, #0
   2e150:	e0a11a04 	adc	r1, r1, r4, lsl #20
   2e154:	e8bd4070 	pop	{r4, r5, r6, lr}
   2e158:	e12fff1e 	bx	lr
   2e15c:	e2066102 	and	r6, r6, #-2147483648	; 0x80000000
   2e160:	e1861001 	orr	r1, r6, r1
   2e164:	e1800002 	orr	r0, r0, r2
   2e168:	e0211003 	eor	r1, r1, r3
   2e16c:	e05440ac 	subs	r4, r4, ip, lsr #1
   2e170:	c074500c 	rsbsgt	r5, r4, ip
   2e174:	c1811a04 	orrgt	r1, r1, r4, lsl #20
   2e178:	c8bd4070 	popgt	{r4, r5, r6, lr}
   2e17c:	c12fff1e 	bxgt	lr
   2e180:	e3811601 	orr	r1, r1, #1048576	; 0x100000
   2e184:	e3a0e000 	mov	lr, #0
   2e188:	e2544001 	subs	r4, r4, #1
   2e18c:	ca00005d 	bgt	2e308 <__gnu_thumb1_case_uhi+0x27c>
   2e190:	e3740036 	cmn	r4, #54	; 0x36
   2e194:	d3a00000 	movle	r0, #0
   2e198:	d2011102 	andle	r1, r1, #-2147483648	; 0x80000000
   2e19c:	d8bd4070 	pople	{r4, r5, r6, lr}
   2e1a0:	d12fff1e 	bxle	lr
   2e1a4:	e2644000 	rsb	r4, r4, #0
   2e1a8:	e2544020 	subs	r4, r4, #32
   2e1ac:	aa00001a 	bge	2e21c <__gnu_thumb1_case_uhi+0x190>
   2e1b0:	e294400c 	adds	r4, r4, #12
   2e1b4:	ca00000c 	bgt	2e1ec <__gnu_thumb1_case_uhi+0x160>
   2e1b8:	e2844014 	add	r4, r4, #20
   2e1bc:	e2645020 	rsb	r5, r4, #32
   2e1c0:	e1a03510 	lsl	r3, r0, r5
   2e1c4:	e1a00430 	lsr	r0, r0, r4
   2e1c8:	e1800511 	orr	r0, r0, r1, lsl r5
   2e1cc:	e2012102 	and	r2, r1, #-2147483648	; 0x80000000
   2e1d0:	e3c11102 	bic	r1, r1, #-2147483648	; 0x80000000
   2e1d4:	e0900fa3 	adds	r0, r0, r3, lsr #31
   2e1d8:	e0a21431 	adc	r1, r2, r1, lsr r4
   2e1dc:	e19ee083 	orrs	lr, lr, r3, lsl #1
   2e1e0:	01c00fa3 	biceq	r0, r0, r3, lsr #31
   2e1e4:	e8bd4070 	pop	{r4, r5, r6, lr}
   2e1e8:	e12fff1e 	bx	lr
   2e1ec:	e264400c 	rsb	r4, r4, #12
   2e1f0:	e2645020 	rsb	r5, r4, #32
   2e1f4:	e1a03410 	lsl	r3, r0, r4
   2e1f8:	e1a00530 	lsr	r0, r0, r5
   2e1fc:	e1800411 	orr	r0, r0, r1, lsl r4
   2e200:	e2011102 	and	r1, r1, #-2147483648	; 0x80000000
   2e204:	e0900fa3 	adds	r0, r0, r3, lsr #31
   2e208:	e2a11000 	adc	r1, r1, #0
   2e20c:	e19ee083 	orrs	lr, lr, r3, lsl #1
   2e210:	01c00fa3 	biceq	r0, r0, r3, lsr #31
   2e214:	e8bd4070 	pop	{r4, r5, r6, lr}
   2e218:	e12fff1e 	bx	lr
   2e21c:	e2645020 	rsb	r5, r4, #32
   2e220:	e18ee510 	orr	lr, lr, r0, lsl r5
   2e224:	e1a03430 	lsr	r3, r0, r4
   2e228:	e1833511 	orr	r3, r3, r1, lsl r5
   2e22c:	e1a00431 	lsr	r0, r1, r4
   2e230:	e2011102 	and	r1, r1, #-2147483648	; 0x80000000
   2e234:	e1c00431 	bic	r0, r0, r1, lsr r4
   2e238:	e0800fa3 	add	r0, r0, r3, lsr #31
   2e23c:	e19ee083 	orrs	lr, lr, r3, lsl #1
   2e240:	01c00fa3 	biceq	r0, r0, r3, lsr #31
   2e244:	e8bd4070 	pop	{r4, r5, r6, lr}
   2e248:	e12fff1e 	bx	lr
   2e24c:	e3340000 	teq	r4, #0
   2e250:	1a000008 	bne	2e278 <__gnu_thumb1_case_uhi+0x1ec>
   2e254:	e2016102 	and	r6, r1, #-2147483648	; 0x80000000
   2e258:	e1b00080 	lsls	r0, r0, #1
   2e25c:	e0a11001 	adc	r1, r1, r1
   2e260:	e3110601 	tst	r1, #1048576	; 0x100000
   2e264:	02444001 	subeq	r4, r4, #1
   2e268:	0afffffa 	beq	2e258 <__gnu_thumb1_case_uhi+0x1cc>
   2e26c:	e1811006 	orr	r1, r1, r6
   2e270:	e3350000 	teq	r5, #0
   2e274:	112fff1e 	bxne	lr
   2e278:	e2036102 	and	r6, r3, #-2147483648	; 0x80000000
   2e27c:	e1b02082 	lsls	r2, r2, #1
   2e280:	e0a33003 	adc	r3, r3, r3
   2e284:	e3130601 	tst	r3, #1048576	; 0x100000
   2e288:	02455001 	subeq	r5, r5, #1
   2e28c:	0afffffa 	beq	2e27c <__gnu_thumb1_case_uhi+0x1f0>
   2e290:	e1833006 	orr	r3, r3, r6
   2e294:	e12fff1e 	bx	lr
   2e298:	e134000c 	teq	r4, ip
   2e29c:	e00c5a23 	and	r5, ip, r3, lsr #20
   2e2a0:	1135000c 	teqne	r5, ip
   2e2a4:	0a000007 	beq	2e2c8 <__gnu_thumb1_case_uhi+0x23c>
   2e2a8:	e1906081 	orrs	r6, r0, r1, lsl #1
   2e2ac:	11926083 	orrsne	r6, r2, r3, lsl #1
   2e2b0:	1affffe5 	bne	2e24c <__gnu_thumb1_case_uhi+0x1c0>
   2e2b4:	e0211003 	eor	r1, r1, r3
   2e2b8:	e2011102 	and	r1, r1, #-2147483648	; 0x80000000
   2e2bc:	e3a00000 	mov	r0, #0
   2e2c0:	e8bd4070 	pop	{r4, r5, r6, lr}
   2e2c4:	e12fff1e 	bx	lr
   2e2c8:	e1906081 	orrs	r6, r0, r1, lsl #1
   2e2cc:	01a00002 	moveq	r0, r2
   2e2d0:	01a01003 	moveq	r1, r3
   2e2d4:	11926083 	orrsne	r6, r2, r3, lsl #1
   2e2d8:	0a000010 	beq	2e320 <__gnu_thumb1_case_uhi+0x294>
   2e2dc:	e134000c 	teq	r4, ip
   2e2e0:	1a000001 	bne	2e2ec <__gnu_thumb1_case_uhi+0x260>
   2e2e4:	e1906601 	orrs	r6, r0, r1, lsl #12
   2e2e8:	1a00000c 	bne	2e320 <__gnu_thumb1_case_uhi+0x294>
   2e2ec:	e135000c 	teq	r5, ip
   2e2f0:	1a000003 	bne	2e304 <__gnu_thumb1_case_uhi+0x278>
   2e2f4:	e1926603 	orrs	r6, r2, r3, lsl #12
   2e2f8:	11a00002 	movne	r0, r2
   2e2fc:	11a01003 	movne	r1, r3
   2e300:	1a000006 	bne	2e320 <__gnu_thumb1_case_uhi+0x294>
   2e304:	e0211003 	eor	r1, r1, r3
   2e308:	e2011102 	and	r1, r1, #-2147483648	; 0x80000000
   2e30c:	e381147f 	orr	r1, r1, #2130706432	; 0x7f000000
   2e310:	e381160f 	orr	r1, r1, #15728640	; 0xf00000
   2e314:	e3a00000 	mov	r0, #0
   2e318:	e8bd4070 	pop	{r4, r5, r6, lr}
   2e31c:	e12fff1e 	bx	lr
   2e320:	e381147f 	orr	r1, r1, #2130706432	; 0x7f000000
   2e324:	e381173e 	orr	r1, r1, #16252928	; 0xf80000
   2e328:	e8bd4070 	pop	{r4, r5, r6, lr}
   2e32c:	e12fff1e 	bx	lr

0002e330 <__aeabi_drsub>:
   2e330:	e2211102 	eor	r1, r1, #-2147483648	; 0x80000000
   2e334:	ea000000 	b	2e33c <__adddf3>

0002e338 <__aeabi_dsub>:
   2e338:	e2233102 	eor	r3, r3, #-2147483648	; 0x80000000

0002e33c <__adddf3>:
   2e33c:	e92d4030 	push	{r4, r5, lr}
   2e340:	e1a04081 	lsl	r4, r1, #1
   2e344:	e1a05083 	lsl	r5, r3, #1
   2e348:	e1340005 	teq	r4, r5
   2e34c:	01300002 	teqeq	r0, r2
   2e350:	1194c000 	orrsne	ip, r4, r0
   2e354:	1195c002 	orrsne	ip, r5, r2
   2e358:	11f0cac4 	mvnsne	ip, r4, asr #21
   2e35c:	11f0cac5 	mvnsne	ip, r5, asr #21
   2e360:	0a00008c 	beq	2e598 <__adddf3+0x25c>
   2e364:	e1a04aa4 	lsr	r4, r4, #21
   2e368:	e0745aa5 	rsbs	r5, r4, r5, lsr #21
   2e36c:	b2655000 	rsblt	r5, r5, #0
   2e370:	da000006 	ble	2e390 <__adddf3+0x54>
   2e374:	e0844005 	add	r4, r4, r5
   2e378:	e0202002 	eor	r2, r0, r2
   2e37c:	e0213003 	eor	r3, r1, r3
   2e380:	e0220000 	eor	r0, r2, r0
   2e384:	e0231001 	eor	r1, r3, r1
   2e388:	e0202002 	eor	r2, r0, r2
   2e38c:	e0213003 	eor	r3, r1, r3
   2e390:	e3550036 	cmp	r5, #54	; 0x36
   2e394:	88bd4030 	pophi	{r4, r5, lr}
   2e398:	812fff1e 	bxhi	lr
   2e39c:	e3110102 	tst	r1, #-2147483648	; 0x80000000
   2e3a0:	e1a01601 	lsl	r1, r1, #12
   2e3a4:	e3a0c601 	mov	ip, #1048576	; 0x100000
   2e3a8:	e18c1621 	orr	r1, ip, r1, lsr #12
   2e3ac:	0a000001 	beq	2e3b8 <__adddf3+0x7c>
   2e3b0:	e2700000 	rsbs	r0, r0, #0
   2e3b4:	e2e11000 	rsc	r1, r1, #0
   2e3b8:	e3130102 	tst	r3, #-2147483648	; 0x80000000
   2e3bc:	e1a03603 	lsl	r3, r3, #12
   2e3c0:	e18c3623 	orr	r3, ip, r3, lsr #12
   2e3c4:	0a000001 	beq	2e3d0 <__adddf3+0x94>
   2e3c8:	e2722000 	rsbs	r2, r2, #0
   2e3cc:	e2e33000 	rsc	r3, r3, #0
   2e3d0:	e1340005 	teq	r4, r5
   2e3d4:	0a000069 	beq	2e580 <__adddf3+0x244>
   2e3d8:	e2444001 	sub	r4, r4, #1
   2e3dc:	e275e020 	rsbs	lr, r5, #32
   2e3e0:	ba000005 	blt	2e3fc <__adddf3+0xc0>
   2e3e4:	e1a0ce12 	lsl	ip, r2, lr
   2e3e8:	e0900532 	adds	r0, r0, r2, lsr r5
   2e3ec:	e2a11000 	adc	r1, r1, #0
   2e3f0:	e0900e13 	adds	r0, r0, r3, lsl lr
   2e3f4:	e0b11553 	adcs	r1, r1, r3, asr r5
   2e3f8:	ea000006 	b	2e418 <__adddf3+0xdc>
   2e3fc:	e2455020 	sub	r5, r5, #32
   2e400:	e28ee020 	add	lr, lr, #32
   2e404:	e3520001 	cmp	r2, #1
   2e408:	e1a0ce13 	lsl	ip, r3, lr
   2e40c:	238cc002 	orrcs	ip, ip, #2
   2e410:	e0900553 	adds	r0, r0, r3, asr r5
   2e414:	e0b11fc3 	adcs	r1, r1, r3, asr #31
   2e418:	e2015102 	and	r5, r1, #-2147483648	; 0x80000000
   2e41c:	5a000002 	bpl	2e42c <__adddf3+0xf0>
   2e420:	e27cc000 	rsbs	ip, ip, #0
   2e424:	e2f00000 	rscs	r0, r0, #0
   2e428:	e2e11000 	rsc	r1, r1, #0
   2e42c:	e3510601 	cmp	r1, #1048576	; 0x100000
   2e430:	3a00000f 	bcc	2e474 <__adddf3+0x138>
   2e434:	e3510602 	cmp	r1, #2097152	; 0x200000
   2e438:	3a000006 	bcc	2e458 <__adddf3+0x11c>
   2e43c:	e1b010a1 	lsrs	r1, r1, #1
   2e440:	e1b00060 	rrxs	r0, r0
   2e444:	e1a0c06c 	rrx	ip, ip
   2e448:	e2844001 	add	r4, r4, #1
   2e44c:	e1a02a84 	lsl	r2, r4, #21
   2e450:	e3720501 	cmn	r2, #4194304	; 0x400000
   2e454:	2a00006b 	bcs	2e608 <__adddf3+0x2cc>
   2e458:	e35c0102 	cmp	ip, #-2147483648	; 0x80000000
   2e45c:	01b0c0a0 	lsrseq	ip, r0, #1
   2e460:	e2b00000 	adcs	r0, r0, #0
   2e464:	e0a11a04 	adc	r1, r1, r4, lsl #20
   2e468:	e1811005 	orr	r1, r1, r5
   2e46c:	e8bd4030 	pop	{r4, r5, lr}
   2e470:	e12fff1e 	bx	lr
   2e474:	e1b0c08c 	lsls	ip, ip, #1
   2e478:	e0b00000 	adcs	r0, r0, r0
   2e47c:	e0a11001 	adc	r1, r1, r1
   2e480:	e2544001 	subs	r4, r4, #1
   2e484:	23510601 	cmpcs	r1, #1048576	; 0x100000
   2e488:	2afffff2 	bcs	2e458 <__adddf3+0x11c>
   2e48c:	e3310000 	teq	r1, #0
   2e490:	13a03014 	movne	r3, #20
   2e494:	03a03034 	moveq	r3, #52	; 0x34
   2e498:	01a01000 	moveq	r1, r0
   2e49c:	03a00000 	moveq	r0, #0
   2e4a0:	e1a02001 	mov	r2, r1
   2e4a4:	e3520801 	cmp	r2, #65536	; 0x10000
   2e4a8:	21a02822 	lsrcs	r2, r2, #16
   2e4ac:	22433010 	subcs	r3, r3, #16
   2e4b0:	e3520c01 	cmp	r2, #256	; 0x100
   2e4b4:	21a02422 	lsrcs	r2, r2, #8
   2e4b8:	22433008 	subcs	r3, r3, #8
   2e4bc:	e3520010 	cmp	r2, #16
   2e4c0:	21a02222 	lsrcs	r2, r2, #4
   2e4c4:	22433004 	subcs	r3, r3, #4
   2e4c8:	e3520004 	cmp	r2, #4
   2e4cc:	22433002 	subcs	r3, r3, #2
   2e4d0:	304330a2 	subcc	r3, r3, r2, lsr #1
   2e4d4:	e04331a2 	sub	r3, r3, r2, lsr #3
   2e4d8:	e2532020 	subs	r2, r3, #32
   2e4dc:	aa000007 	bge	2e500 <__adddf3+0x1c4>
   2e4e0:	e292200c 	adds	r2, r2, #12
   2e4e4:	da000004 	ble	2e4fc <__adddf3+0x1c0>
   2e4e8:	e282c014 	add	ip, r2, #20
   2e4ec:	e262200c 	rsb	r2, r2, #12
   2e4f0:	e1a00c11 	lsl	r0, r1, ip
   2e4f4:	e1a01231 	lsr	r1, r1, r2
   2e4f8:	ea000004 	b	2e510 <__adddf3+0x1d4>
   2e4fc:	e2822014 	add	r2, r2, #20
   2e500:	d262c020 	rsble	ip, r2, #32
   2e504:	e1a01211 	lsl	r1, r1, r2
   2e508:	d1811c30 	orrle	r1, r1, r0, lsr ip
   2e50c:	d1a00210 	lslle	r0, r0, r2
   2e510:	e0544003 	subs	r4, r4, r3
   2e514:	a0811a04 	addge	r1, r1, r4, lsl #20
   2e518:	a1811005 	orrge	r1, r1, r5
   2e51c:	a8bd4030 	popge	{r4, r5, lr}
   2e520:	a12fff1e 	bxge	lr
   2e524:	e1e04004 	mvn	r4, r4
   2e528:	e254401f 	subs	r4, r4, #31
   2e52c:	aa00000f 	bge	2e570 <__adddf3+0x234>
   2e530:	e294400c 	adds	r4, r4, #12
   2e534:	ca000006 	bgt	2e554 <__adddf3+0x218>
   2e538:	e2844014 	add	r4, r4, #20
   2e53c:	e2642020 	rsb	r2, r4, #32
   2e540:	e1a00430 	lsr	r0, r0, r4
   2e544:	e1800211 	orr	r0, r0, r1, lsl r2
   2e548:	e1851431 	orr	r1, r5, r1, lsr r4
   2e54c:	e8bd4030 	pop	{r4, r5, lr}
   2e550:	e12fff1e 	bx	lr
   2e554:	e264400c 	rsb	r4, r4, #12
   2e558:	e2642020 	rsb	r2, r4, #32
   2e55c:	e1a00230 	lsr	r0, r0, r2
   2e560:	e1800411 	orr	r0, r0, r1, lsl r4
   2e564:	e1a01005 	mov	r1, r5
   2e568:	e8bd4030 	pop	{r4, r5, lr}
   2e56c:	e12fff1e 	bx	lr
   2e570:	e1a00431 	lsr	r0, r1, r4
   2e574:	e1a01005 	mov	r1, r5
   2e578:	e8bd4030 	pop	{r4, r5, lr}
   2e57c:	e12fff1e 	bx	lr
   2e580:	e3340000 	teq	r4, #0
   2e584:	e2233601 	eor	r3, r3, #1048576	; 0x100000
   2e588:	02211601 	eoreq	r1, r1, #1048576	; 0x100000
   2e58c:	02844001 	addeq	r4, r4, #1
   2e590:	12455001 	subne	r5, r5, #1
   2e594:	eaffff8f 	b	2e3d8 <__adddf3+0x9c>
   2e598:	e1f0cac4 	mvns	ip, r4, asr #21
   2e59c:	11f0cac5 	mvnsne	ip, r5, asr #21
   2e5a0:	0a00001d 	beq	2e61c <__adddf3+0x2e0>
   2e5a4:	e1340005 	teq	r4, r5
   2e5a8:	01300002 	teqeq	r0, r2
   2e5ac:	0a000004 	beq	2e5c4 <__adddf3+0x288>
   2e5b0:	e194c000 	orrs	ip, r4, r0
   2e5b4:	01a01003 	moveq	r1, r3
   2e5b8:	01a00002 	moveq	r0, r2
   2e5bc:	e8bd4030 	pop	{r4, r5, lr}
   2e5c0:	e12fff1e 	bx	lr
   2e5c4:	e1310003 	teq	r1, r3
   2e5c8:	13a01000 	movne	r1, #0
   2e5cc:	13a00000 	movne	r0, #0
   2e5d0:	18bd4030 	popne	{r4, r5, lr}
   2e5d4:	112fff1e 	bxne	lr
   2e5d8:	e1b0caa4 	lsrs	ip, r4, #21
   2e5dc:	1a000004 	bne	2e5f4 <__adddf3+0x2b8>
   2e5e0:	e1b00080 	lsls	r0, r0, #1
   2e5e4:	e0b11001 	adcs	r1, r1, r1
   2e5e8:	23811102 	orrcs	r1, r1, #-2147483648	; 0x80000000
   2e5ec:	e8bd4030 	pop	{r4, r5, lr}
   2e5f0:	e12fff1e 	bx	lr
   2e5f4:	e2944501 	adds	r4, r4, #4194304	; 0x400000
   2e5f8:	32811601 	addcc	r1, r1, #1048576	; 0x100000
   2e5fc:	38bd4030 	popcc	{r4, r5, lr}
   2e600:	312fff1e 	bxcc	lr
   2e604:	e2015102 	and	r5, r1, #-2147483648	; 0x80000000
   2e608:	e385147f 	orr	r1, r5, #2130706432	; 0x7f000000
   2e60c:	e381160f 	orr	r1, r1, #15728640	; 0xf00000
   2e610:	e3a00000 	mov	r0, #0
   2e614:	e8bd4030 	pop	{r4, r5, lr}
   2e618:	e12fff1e 	bx	lr
   2e61c:	e1f0cac4 	mvns	ip, r4, asr #21
   2e620:	11a01003 	movne	r1, r3
   2e624:	11a00002 	movne	r0, r2
   2e628:	01f0cac5 	mvnseq	ip, r5, asr #21
   2e62c:	11a03001 	movne	r3, r1
   2e630:	11a02000 	movne	r2, r0
   2e634:	e1904601 	orrs	r4, r0, r1, lsl #12
   2e638:	01925603 	orrseq	r5, r2, r3, lsl #12
   2e63c:	01310003 	teqeq	r1, r3
   2e640:	13811702 	orrne	r1, r1, #524288	; 0x80000
   2e644:	e8bd4030 	pop	{r4, r5, lr}
   2e648:	e12fff1e 	bx	lr

0002e64c <__aeabi_ui2d>:
   2e64c:	e3300000 	teq	r0, #0
   2e650:	03a01000 	moveq	r1, #0
   2e654:	012fff1e 	bxeq	lr
   2e658:	e92d4030 	push	{r4, r5, lr}
   2e65c:	e3a04b01 	mov	r4, #1024	; 0x400
   2e660:	e2844032 	add	r4, r4, #50	; 0x32
   2e664:	e3a05000 	mov	r5, #0
   2e668:	e3a01000 	mov	r1, #0
   2e66c:	eaffff86 	b	2e48c <__adddf3+0x150>

0002e670 <__aeabi_i2d>:
   2e670:	e3300000 	teq	r0, #0
   2e674:	03a01000 	moveq	r1, #0
   2e678:	012fff1e 	bxeq	lr
   2e67c:	e92d4030 	push	{r4, r5, lr}
   2e680:	e3a04b01 	mov	r4, #1024	; 0x400
   2e684:	e2844032 	add	r4, r4, #50	; 0x32
   2e688:	e2105102 	ands	r5, r0, #-2147483648	; 0x80000000
   2e68c:	42600000 	rsbmi	r0, r0, #0
   2e690:	e3a01000 	mov	r1, #0
   2e694:	eaffff7c 	b	2e48c <__adddf3+0x150>

0002e698 <__aeabi_f2d>:
   2e698:	e1b02080 	lsls	r2, r0, #1
   2e69c:	e1a011c2 	asr	r1, r2, #3
   2e6a0:	e1a01061 	rrx	r1, r1
   2e6a4:	e1a00e02 	lsl	r0, r2, #28
   2e6a8:	121234ff 	andsne	r3, r2, #-16777216	; 0xff000000
   2e6ac:	133304ff 	teqne	r3, #-16777216	; 0xff000000
   2e6b0:	1221130e 	eorne	r1, r1, #939524096	; 0x38000000
   2e6b4:	112fff1e 	bxne	lr
   2e6b8:	e3d224ff 	bics	r2, r2, #-16777216	; 0xff000000
   2e6bc:	012fff1e 	bxeq	lr
   2e6c0:	e33304ff 	teq	r3, #-16777216	; 0xff000000
   2e6c4:	03811702 	orreq	r1, r1, #524288	; 0x80000
   2e6c8:	012fff1e 	bxeq	lr
   2e6cc:	e92d4030 	push	{r4, r5, lr}
   2e6d0:	e3a04d0e 	mov	r4, #896	; 0x380
   2e6d4:	e2015102 	and	r5, r1, #-2147483648	; 0x80000000
   2e6d8:	e3c11102 	bic	r1, r1, #-2147483648	; 0x80000000
   2e6dc:	eaffff6a 	b	2e48c <__adddf3+0x150>

0002e6e0 <__aeabi_ul2d>:
   2e6e0:	e1902001 	orrs	r2, r0, r1
   2e6e4:	012fff1e 	bxeq	lr
   2e6e8:	e92d4030 	push	{r4, r5, lr}
   2e6ec:	e3a05000 	mov	r5, #0
   2e6f0:	ea000006 	b	2e710 <__aeabi_l2d+0x1c>

0002e6f4 <__aeabi_l2d>:
   2e6f4:	e1902001 	orrs	r2, r0, r1
   2e6f8:	012fff1e 	bxeq	lr
   2e6fc:	e92d4030 	push	{r4, r5, lr}
   2e700:	e2115102 	ands	r5, r1, #-2147483648	; 0x80000000
   2e704:	5a000001 	bpl	2e710 <__aeabi_l2d+0x1c>
   2e708:	e2700000 	rsbs	r0, r0, #0
   2e70c:	e2e11000 	rsc	r1, r1, #0
   2e710:	e3a04b01 	mov	r4, #1024	; 0x400
   2e714:	e2844032 	add	r4, r4, #50	; 0x32
   2e718:	e1b0cb21 	lsrs	ip, r1, #22
   2e71c:	0affff42 	beq	2e42c <__adddf3+0xf0>
   2e720:	e3a02003 	mov	r2, #3
   2e724:	e1b0c1ac 	lsrs	ip, ip, #3
   2e728:	12822003 	addne	r2, r2, #3
   2e72c:	e1b0c1ac 	lsrs	ip, ip, #3
   2e730:	12822003 	addne	r2, r2, #3
   2e734:	e08221ac 	add	r2, r2, ip, lsr #3
   2e738:	e2623020 	rsb	r3, r2, #32
   2e73c:	e1a0c310 	lsl	ip, r0, r3
   2e740:	e1a00230 	lsr	r0, r0, r2
   2e744:	e1800311 	orr	r0, r0, r1, lsl r3
   2e748:	e1a01231 	lsr	r1, r1, r2
   2e74c:	e0844002 	add	r4, r4, r2
   2e750:	eaffff35 	b	2e42c <__adddf3+0xf0>

0002e754 <__aeabi_dmul>:
   2e754:	e92d4070 	push	{r4, r5, r6, lr}
   2e758:	e3a0c0ff 	mov	ip, #255	; 0xff
   2e75c:	e38ccc07 	orr	ip, ip, #1792	; 0x700
   2e760:	e01c4a21 	ands	r4, ip, r1, lsr #20
   2e764:	101c5a23 	andsne	r5, ip, r3, lsr #20
   2e768:	1134000c 	teqne	r4, ip
   2e76c:	1135000c 	teqne	r5, ip
   2e770:	0b000075 	bleq	2e94c <__aeabi_dmul+0x1f8>
   2e774:	e0844005 	add	r4, r4, r5
   2e778:	e0216003 	eor	r6, r1, r3
   2e77c:	e1c11a8c 	bic	r1, r1, ip, lsl #21
   2e780:	e1c33a8c 	bic	r3, r3, ip, lsl #21
   2e784:	e1905601 	orrs	r5, r0, r1, lsl #12
   2e788:	11925603 	orrsne	r5, r2, r3, lsl #12
   2e78c:	e3811601 	orr	r1, r1, #1048576	; 0x100000
   2e790:	e3833601 	orr	r3, r3, #1048576	; 0x100000
   2e794:	0a00001d 	beq	2e810 <__aeabi_dmul+0xbc>
   2e798:	e08ec290 	umull	ip, lr, r0, r2
   2e79c:	e3a05000 	mov	r5, #0
   2e7a0:	e0a5e291 	umlal	lr, r5, r1, r2
   2e7a4:	e2062102 	and	r2, r6, #-2147483648	; 0x80000000
   2e7a8:	e0a5e390 	umlal	lr, r5, r0, r3
   2e7ac:	e3a06000 	mov	r6, #0
   2e7b0:	e0a65391 	umlal	r5, r6, r1, r3
   2e7b4:	e33c0000 	teq	ip, #0
   2e7b8:	138ee001 	orrne	lr, lr, #1
   2e7bc:	e24440ff 	sub	r4, r4, #255	; 0xff
   2e7c0:	e3560c02 	cmp	r6, #512	; 0x200
   2e7c4:	e2c44c03 	sbc	r4, r4, #768	; 0x300
   2e7c8:	2a000002 	bcs	2e7d8 <__aeabi_dmul+0x84>
   2e7cc:	e1b0e08e 	lsls	lr, lr, #1
   2e7d0:	e0b55005 	adcs	r5, r5, r5
   2e7d4:	e0a66006 	adc	r6, r6, r6
   2e7d8:	e1821586 	orr	r1, r2, r6, lsl #11
   2e7dc:	e1811aa5 	orr	r1, r1, r5, lsr #21
   2e7e0:	e1a00585 	lsl	r0, r5, #11
   2e7e4:	e1800aae 	orr	r0, r0, lr, lsr #21
   2e7e8:	e1a0e58e 	lsl	lr, lr, #11
   2e7ec:	e254c0fd 	subs	ip, r4, #253	; 0xfd
   2e7f0:	835c0c07 	cmphi	ip, #1792	; 0x700
   2e7f4:	8a000011 	bhi	2e840 <__aeabi_dmul+0xec>
   2e7f8:	e35e0102 	cmp	lr, #-2147483648	; 0x80000000
   2e7fc:	01b0e0a0 	lsrseq	lr, r0, #1
   2e800:	e2b00000 	adcs	r0, r0, #0
   2e804:	e0a11a04 	adc	r1, r1, r4, lsl #20
   2e808:	e8bd4070 	pop	{r4, r5, r6, lr}
   2e80c:	e12fff1e 	bx	lr
   2e810:	e2066102 	and	r6, r6, #-2147483648	; 0x80000000
   2e814:	e1861001 	orr	r1, r6, r1
   2e818:	e1800002 	orr	r0, r0, r2
   2e81c:	e0211003 	eor	r1, r1, r3
   2e820:	e05440ac 	subs	r4, r4, ip, lsr #1
   2e824:	c074500c 	rsbsgt	r5, r4, ip
   2e828:	c1811a04 	orrgt	r1, r1, r4, lsl #20
   2e82c:	c8bd4070 	popgt	{r4, r5, r6, lr}
   2e830:	c12fff1e 	bxgt	lr
   2e834:	e3811601 	orr	r1, r1, #1048576	; 0x100000
   2e838:	e3a0e000 	mov	lr, #0
   2e83c:	e2544001 	subs	r4, r4, #1
   2e840:	ca00005d 	bgt	2e9bc <__aeabi_dmul+0x268>
   2e844:	e3740036 	cmn	r4, #54	; 0x36
   2e848:	d3a00000 	movle	r0, #0
   2e84c:	d2011102 	andle	r1, r1, #-2147483648	; 0x80000000
   2e850:	d8bd4070 	pople	{r4, r5, r6, lr}
   2e854:	d12fff1e 	bxle	lr
   2e858:	e2644000 	rsb	r4, r4, #0
   2e85c:	e2544020 	subs	r4, r4, #32
   2e860:	aa00001a 	bge	2e8d0 <__aeabi_dmul+0x17c>
   2e864:	e294400c 	adds	r4, r4, #12
   2e868:	ca00000c 	bgt	2e8a0 <__aeabi_dmul+0x14c>
   2e86c:	e2844014 	add	r4, r4, #20
   2e870:	e2645020 	rsb	r5, r4, #32
   2e874:	e1a03510 	lsl	r3, r0, r5
   2e878:	e1a00430 	lsr	r0, r0, r4
   2e87c:	e1800511 	orr	r0, r0, r1, lsl r5
   2e880:	e2012102 	and	r2, r1, #-2147483648	; 0x80000000
   2e884:	e3c11102 	bic	r1, r1, #-2147483648	; 0x80000000
   2e888:	e0900fa3 	adds	r0, r0, r3, lsr #31
   2e88c:	e0a21431 	adc	r1, r2, r1, lsr r4
   2e890:	e19ee083 	orrs	lr, lr, r3, lsl #1
   2e894:	01c00fa3 	biceq	r0, r0, r3, lsr #31
   2e898:	e8bd4070 	pop	{r4, r5, r6, lr}
   2e89c:	e12fff1e 	bx	lr
   2e8a0:	e264400c 	rsb	r4, r4, #12
   2e8a4:	e2645020 	rsb	r5, r4, #32
   2e8a8:	e1a03410 	lsl	r3, r0, r4
   2e8ac:	e1a00530 	lsr	r0, r0, r5
   2e8b0:	e1800411 	orr	r0, r0, r1, lsl r4
   2e8b4:	e2011102 	and	r1, r1, #-2147483648	; 0x80000000
   2e8b8:	e0900fa3 	adds	r0, r0, r3, lsr #31
   2e8bc:	e2a11000 	adc	r1, r1, #0
   2e8c0:	e19ee083 	orrs	lr, lr, r3, lsl #1
   2e8c4:	01c00fa3 	biceq	r0, r0, r3, lsr #31
   2e8c8:	e8bd4070 	pop	{r4, r5, r6, lr}
   2e8cc:	e12fff1e 	bx	lr
   2e8d0:	e2645020 	rsb	r5, r4, #32
   2e8d4:	e18ee510 	orr	lr, lr, r0, lsl r5
   2e8d8:	e1a03430 	lsr	r3, r0, r4
   2e8dc:	e1833511 	orr	r3, r3, r1, lsl r5
   2e8e0:	e1a00431 	lsr	r0, r1, r4
   2e8e4:	e2011102 	and	r1, r1, #-2147483648	; 0x80000000
   2e8e8:	e1c00431 	bic	r0, r0, r1, lsr r4
   2e8ec:	e0800fa3 	add	r0, r0, r3, lsr #31
   2e8f0:	e19ee083 	orrs	lr, lr, r3, lsl #1
   2e8f4:	01c00fa3 	biceq	r0, r0, r3, lsr #31
   2e8f8:	e8bd4070 	pop	{r4, r5, r6, lr}
   2e8fc:	e12fff1e 	bx	lr
   2e900:	e3340000 	teq	r4, #0
   2e904:	1a000008 	bne	2e92c <__aeabi_dmul+0x1d8>
   2e908:	e2016102 	and	r6, r1, #-2147483648	; 0x80000000
   2e90c:	e1b00080 	lsls	r0, r0, #1
   2e910:	e0a11001 	adc	r1, r1, r1
   2e914:	e3110601 	tst	r1, #1048576	; 0x100000
   2e918:	02444001 	subeq	r4, r4, #1
   2e91c:	0afffffa 	beq	2e90c <__aeabi_dmul+0x1b8>
   2e920:	e1811006 	orr	r1, r1, r6
   2e924:	e3350000 	teq	r5, #0
   2e928:	112fff1e 	bxne	lr
   2e92c:	e2036102 	and	r6, r3, #-2147483648	; 0x80000000
   2e930:	e1b02082 	lsls	r2, r2, #1
   2e934:	e0a33003 	adc	r3, r3, r3
   2e938:	e3130601 	tst	r3, #1048576	; 0x100000
   2e93c:	02455001 	subeq	r5, r5, #1
   2e940:	0afffffa 	beq	2e930 <__aeabi_dmul+0x1dc>
   2e944:	e1833006 	orr	r3, r3, r6
   2e948:	e12fff1e 	bx	lr
   2e94c:	e134000c 	teq	r4, ip
   2e950:	e00c5a23 	and	r5, ip, r3, lsr #20
   2e954:	1135000c 	teqne	r5, ip
   2e958:	0a000007 	beq	2e97c <__aeabi_dmul+0x228>
   2e95c:	e1906081 	orrs	r6, r0, r1, lsl #1
   2e960:	11926083 	orrsne	r6, r2, r3, lsl #1
   2e964:	1affffe5 	bne	2e900 <__aeabi_dmul+0x1ac>
   2e968:	e0211003 	eor	r1, r1, r3
   2e96c:	e2011102 	and	r1, r1, #-2147483648	; 0x80000000
   2e970:	e3a00000 	mov	r0, #0
   2e974:	e8bd4070 	pop	{r4, r5, r6, lr}
   2e978:	e12fff1e 	bx	lr
   2e97c:	e1906081 	orrs	r6, r0, r1, lsl #1
   2e980:	01a00002 	moveq	r0, r2
   2e984:	01a01003 	moveq	r1, r3
   2e988:	11926083 	orrsne	r6, r2, r3, lsl #1
   2e98c:	0a000010 	beq	2e9d4 <__aeabi_dmul+0x280>
   2e990:	e134000c 	teq	r4, ip
   2e994:	1a000001 	bne	2e9a0 <__aeabi_dmul+0x24c>
   2e998:	e1906601 	orrs	r6, r0, r1, lsl #12
   2e99c:	1a00000c 	bne	2e9d4 <__aeabi_dmul+0x280>
   2e9a0:	e135000c 	teq	r5, ip
   2e9a4:	1a000003 	bne	2e9b8 <__aeabi_dmul+0x264>
   2e9a8:	e1926603 	orrs	r6, r2, r3, lsl #12
   2e9ac:	11a00002 	movne	r0, r2
   2e9b0:	11a01003 	movne	r1, r3
   2e9b4:	1a000006 	bne	2e9d4 <__aeabi_dmul+0x280>
   2e9b8:	e0211003 	eor	r1, r1, r3
   2e9bc:	e2011102 	and	r1, r1, #-2147483648	; 0x80000000
   2e9c0:	e381147f 	orr	r1, r1, #2130706432	; 0x7f000000
   2e9c4:	e381160f 	orr	r1, r1, #15728640	; 0xf00000
   2e9c8:	e3a00000 	mov	r0, #0
   2e9cc:	e8bd4070 	pop	{r4, r5, r6, lr}
   2e9d0:	e12fff1e 	bx	lr
   2e9d4:	e381147f 	orr	r1, r1, #2130706432	; 0x7f000000
   2e9d8:	e381173e 	orr	r1, r1, #16252928	; 0xf80000
   2e9dc:	e8bd4070 	pop	{r4, r5, r6, lr}
   2e9e0:	e12fff1e 	bx	lr

0002e9e4 <__aeabi_ddiv>:
   2e9e4:	e92d4070 	push	{r4, r5, r6, lr}
   2e9e8:	e3a0c0ff 	mov	ip, #255	; 0xff
   2e9ec:	e38ccc07 	orr	ip, ip, #1792	; 0x700
   2e9f0:	e01c4a21 	ands	r4, ip, r1, lsr #20
   2e9f4:	101c5a23 	andsne	r5, ip, r3, lsr #20
   2e9f8:	1134000c 	teqne	r4, ip
   2e9fc:	1135000c 	teqne	r5, ip
   2ea00:	0b00005e 	bleq	2eb80 <__aeabi_ddiv+0x19c>
   2ea04:	e0444005 	sub	r4, r4, r5
   2ea08:	e021e003 	eor	lr, r1, r3
   2ea0c:	e1925603 	orrs	r5, r2, r3, lsl #12
   2ea10:	e1a01601 	lsl	r1, r1, #12
   2ea14:	0a00004c 	beq	2eb4c <__aeabi_ddiv+0x168>
   2ea18:	e1a03603 	lsl	r3, r3, #12
   2ea1c:	e3a05201 	mov	r5, #268435456	; 0x10000000
   2ea20:	e1853223 	orr	r3, r5, r3, lsr #4
   2ea24:	e1833c22 	orr	r3, r3, r2, lsr #24
   2ea28:	e1a02402 	lsl	r2, r2, #8
   2ea2c:	e1855221 	orr	r5, r5, r1, lsr #4
   2ea30:	e1855c20 	orr	r5, r5, r0, lsr #24
   2ea34:	e1a06400 	lsl	r6, r0, #8
   2ea38:	e20e1102 	and	r1, lr, #-2147483648	; 0x80000000
   2ea3c:	e1550003 	cmp	r5, r3
   2ea40:	01560002 	cmpeq	r6, r2
   2ea44:	e2a440fd 	adc	r4, r4, #253	; 0xfd
   2ea48:	e2844c03 	add	r4, r4, #768	; 0x300
   2ea4c:	2a000001 	bcs	2ea58 <__aeabi_ddiv+0x74>
   2ea50:	e1b030a3 	lsrs	r3, r3, #1
   2ea54:	e1a02062 	rrx	r2, r2
   2ea58:	e0566002 	subs	r6, r6, r2
   2ea5c:	e0c55003 	sbc	r5, r5, r3
   2ea60:	e1b030a3 	lsrs	r3, r3, #1
   2ea64:	e1a02062 	rrx	r2, r2
   2ea68:	e3a00601 	mov	r0, #1048576	; 0x100000
   2ea6c:	e3a0c702 	mov	ip, #524288	; 0x80000
   2ea70:	e056e002 	subs	lr, r6, r2
   2ea74:	e0d5e003 	sbcs	lr, r5, r3
   2ea78:	20466002 	subcs	r6, r6, r2
   2ea7c:	21a0500e 	movcs	r5, lr
   2ea80:	2180000c 	orrcs	r0, r0, ip
   2ea84:	e1b030a3 	lsrs	r3, r3, #1
   2ea88:	e1a02062 	rrx	r2, r2
   2ea8c:	e056e002 	subs	lr, r6, r2
   2ea90:	e0d5e003 	sbcs	lr, r5, r3
   2ea94:	20466002 	subcs	r6, r6, r2
   2ea98:	21a0500e 	movcs	r5, lr
   2ea9c:	218000ac 	orrcs	r0, r0, ip, lsr #1
   2eaa0:	e1b030a3 	lsrs	r3, r3, #1
   2eaa4:	e1a02062 	rrx	r2, r2
   2eaa8:	e056e002 	subs	lr, r6, r2
   2eaac:	e0d5e003 	sbcs	lr, r5, r3
   2eab0:	20466002 	subcs	r6, r6, r2
   2eab4:	21a0500e 	movcs	r5, lr
   2eab8:	2180012c 	orrcs	r0, r0, ip, lsr #2
   2eabc:	e1b030a3 	lsrs	r3, r3, #1
   2eac0:	e1a02062 	rrx	r2, r2
   2eac4:	e056e002 	subs	lr, r6, r2
   2eac8:	e0d5e003 	sbcs	lr, r5, r3
   2eacc:	20466002 	subcs	r6, r6, r2
   2ead0:	21a0500e 	movcs	r5, lr
   2ead4:	218001ac 	orrcs	r0, r0, ip, lsr #3
   2ead8:	e195e006 	orrs	lr, r5, r6
   2eadc:	0a00000d 	beq	2eb18 <__aeabi_ddiv+0x134>
   2eae0:	e1a05205 	lsl	r5, r5, #4
   2eae4:	e1855e26 	orr	r5, r5, r6, lsr #28
   2eae8:	e1a06206 	lsl	r6, r6, #4
   2eaec:	e1a03183 	lsl	r3, r3, #3
   2eaf0:	e1833ea2 	orr	r3, r3, r2, lsr #29
   2eaf4:	e1a02182 	lsl	r2, r2, #3
   2eaf8:	e1b0c22c 	lsrs	ip, ip, #4
   2eafc:	1affffdb 	bne	2ea70 <__aeabi_ddiv+0x8c>
   2eb00:	e3110601 	tst	r1, #1048576	; 0x100000
   2eb04:	1a000006 	bne	2eb24 <__aeabi_ddiv+0x140>
   2eb08:	e1811000 	orr	r1, r1, r0
   2eb0c:	e3a00000 	mov	r0, #0
   2eb10:	e3a0c102 	mov	ip, #-2147483648	; 0x80000000
   2eb14:	eaffffd5 	b	2ea70 <__aeabi_ddiv+0x8c>
   2eb18:	e3110601 	tst	r1, #1048576	; 0x100000
   2eb1c:	01811000 	orreq	r1, r1, r0
   2eb20:	03a00000 	moveq	r0, #0
   2eb24:	e254c0fd 	subs	ip, r4, #253	; 0xfd
   2eb28:	835c0c07 	cmphi	ip, #1792	; 0x700
   2eb2c:	8affff43 	bhi	2e840 <__aeabi_dmul+0xec>
   2eb30:	e055c003 	subs	ip, r5, r3
   2eb34:	0056c002 	subseq	ip, r6, r2
   2eb38:	01b0c0a0 	lsrseq	ip, r0, #1
   2eb3c:	e2b00000 	adcs	r0, r0, #0
   2eb40:	e0a11a04 	adc	r1, r1, r4, lsl #20
   2eb44:	e8bd4070 	pop	{r4, r5, r6, lr}
   2eb48:	e12fff1e 	bx	lr
   2eb4c:	e20ee102 	and	lr, lr, #-2147483648	; 0x80000000
   2eb50:	e18e1621 	orr	r1, lr, r1, lsr #12
   2eb54:	e09440ac 	adds	r4, r4, ip, lsr #1
   2eb58:	c074500c 	rsbsgt	r5, r4, ip
   2eb5c:	c1811a04 	orrgt	r1, r1, r4, lsl #20
   2eb60:	c8bd4070 	popgt	{r4, r5, r6, lr}
   2eb64:	c12fff1e 	bxgt	lr
   2eb68:	e3811601 	orr	r1, r1, #1048576	; 0x100000
   2eb6c:	e3a0e000 	mov	lr, #0
   2eb70:	e2544001 	subs	r4, r4, #1
   2eb74:	eaffff31 	b	2e840 <__aeabi_dmul+0xec>
   2eb78:	e185e006 	orr	lr, r5, r6
   2eb7c:	eaffff2f 	b	2e840 <__aeabi_dmul+0xec>
   2eb80:	e00c5a23 	and	r5, ip, r3, lsr #20
   2eb84:	e134000c 	teq	r4, ip
   2eb88:	0135000c 	teqeq	r5, ip
   2eb8c:	0affff90 	beq	2e9d4 <__aeabi_dmul+0x280>
   2eb90:	e134000c 	teq	r4, ip
   2eb94:	1a000006 	bne	2ebb4 <__aeabi_ddiv+0x1d0>
   2eb98:	e1904601 	orrs	r4, r0, r1, lsl #12
   2eb9c:	1affff8c 	bne	2e9d4 <__aeabi_dmul+0x280>
   2eba0:	e135000c 	teq	r5, ip
   2eba4:	1affff83 	bne	2e9b8 <__aeabi_dmul+0x264>
   2eba8:	e1a00002 	mov	r0, r2
   2ebac:	e1a01003 	mov	r1, r3
   2ebb0:	eaffff87 	b	2e9d4 <__aeabi_dmul+0x280>
   2ebb4:	e135000c 	teq	r5, ip
   2ebb8:	1a000004 	bne	2ebd0 <__aeabi_ddiv+0x1ec>
   2ebbc:	e1925603 	orrs	r5, r2, r3, lsl #12
   2ebc0:	0affff68 	beq	2e968 <__aeabi_dmul+0x214>
   2ebc4:	e1a00002 	mov	r0, r2
   2ebc8:	e1a01003 	mov	r1, r3
   2ebcc:	eaffff80 	b	2e9d4 <__aeabi_dmul+0x280>
   2ebd0:	e1906081 	orrs	r6, r0, r1, lsl #1
   2ebd4:	11926083 	orrsne	r6, r2, r3, lsl #1
   2ebd8:	1affff48 	bne	2e900 <__aeabi_dmul+0x1ac>
   2ebdc:	e1904081 	orrs	r4, r0, r1, lsl #1
   2ebe0:	1affff74 	bne	2e9b8 <__aeabi_dmul+0x264>
   2ebe4:	e1925083 	orrs	r5, r2, r3, lsl #1
   2ebe8:	1affff5e 	bne	2e968 <__aeabi_dmul+0x214>
   2ebec:	eaffff78 	b	2e9d4 <__aeabi_dmul+0x280>

0002ebf0 <__gedf2>:
   2ebf0:	e3e0c000 	mvn	ip, #0
   2ebf4:	ea000002 	b	2ec04 <__cmpdf2+0x4>

0002ebf8 <__ledf2>:
   2ebf8:	e3a0c001 	mov	ip, #1
   2ebfc:	ea000000 	b	2ec04 <__cmpdf2+0x4>

0002ec00 <__cmpdf2>:
   2ec00:	e3a0c001 	mov	ip, #1
   2ec04:	e52dc004 	push	{ip}		; (str ip, [sp, #-4]!)
   2ec08:	e1a0c081 	lsl	ip, r1, #1
   2ec0c:	e1f0cacc 	mvns	ip, ip, asr #21
   2ec10:	e1a0c083 	lsl	ip, r3, #1
   2ec14:	11f0cacc 	mvnsne	ip, ip, asr #21
   2ec18:	0a00000e 	beq	2ec58 <__cmpdf2+0x58>
   2ec1c:	e28dd004 	add	sp, sp, #4
   2ec20:	e190c081 	orrs	ip, r0, r1, lsl #1
   2ec24:	0192c083 	orrseq	ip, r2, r3, lsl #1
   2ec28:	11310003 	teqne	r1, r3
   2ec2c:	01300002 	teqeq	r0, r2
   2ec30:	03a00000 	moveq	r0, #0
   2ec34:	012fff1e 	bxeq	lr
   2ec38:	e3700000 	cmn	r0, #0
   2ec3c:	e1310003 	teq	r1, r3
   2ec40:	51510003 	cmppl	r1, r3
   2ec44:	01500002 	cmpeq	r0, r2
   2ec48:	21a00fc3 	asrcs	r0, r3, #31
   2ec4c:	31e00fc3 	mvncc	r0, r3, asr #31
   2ec50:	e3800001 	orr	r0, r0, #1
   2ec54:	e12fff1e 	bx	lr
   2ec58:	e1a0c081 	lsl	ip, r1, #1
   2ec5c:	e1f0cacc 	mvns	ip, ip, asr #21
   2ec60:	1a000001 	bne	2ec6c <__cmpdf2+0x6c>
   2ec64:	e190c601 	orrs	ip, r0, r1, lsl #12
   2ec68:	1a000004 	bne	2ec80 <__cmpdf2+0x80>
   2ec6c:	e1a0c083 	lsl	ip, r3, #1
   2ec70:	e1f0cacc 	mvns	ip, ip, asr #21
   2ec74:	1affffe8 	bne	2ec1c <__cmpdf2+0x1c>
   2ec78:	e192c603 	orrs	ip, r2, r3, lsl #12
   2ec7c:	0affffe6 	beq	2ec1c <__cmpdf2+0x1c>
   2ec80:	e49d0004 	pop	{r0}		; (ldr r0, [sp], #4)
   2ec84:	e12fff1e 	bx	lr

0002ec88 <__aeabi_cdrcmple>:
   2ec88:	e1a0c000 	mov	ip, r0
   2ec8c:	e1a00002 	mov	r0, r2
   2ec90:	e1a0200c 	mov	r2, ip
   2ec94:	e1a0c001 	mov	ip, r1
   2ec98:	e1a01003 	mov	r1, r3
   2ec9c:	e1a0300c 	mov	r3, ip
   2eca0:	eaffffff 	b	2eca4 <__aeabi_cdcmpeq>

0002eca4 <__aeabi_cdcmpeq>:
   2eca4:	e92d4001 	push	{r0, lr}
   2eca8:	ebffffd4 	bl	2ec00 <__cmpdf2>
   2ecac:	e3500000 	cmp	r0, #0
   2ecb0:	43700000 	cmnmi	r0, #0
   2ecb4:	e8bd4001 	pop	{r0, lr}
   2ecb8:	e12fff1e 	bx	lr

0002ecbc <__aeabi_dcmpeq>:
   2ecbc:	e52de008 	str	lr, [sp, #-8]!
   2ecc0:	ebfffff7 	bl	2eca4 <__aeabi_cdcmpeq>
   2ecc4:	03a00001 	moveq	r0, #1
   2ecc8:	13a00000 	movne	r0, #0
   2eccc:	e49de008 	ldr	lr, [sp], #8
   2ecd0:	e12fff1e 	bx	lr

0002ecd4 <__aeabi_dcmplt>:
   2ecd4:	e52de008 	str	lr, [sp, #-8]!
   2ecd8:	ebfffff1 	bl	2eca4 <__aeabi_cdcmpeq>
   2ecdc:	33a00001 	movcc	r0, #1
   2ece0:	23a00000 	movcs	r0, #0
   2ece4:	e49de008 	ldr	lr, [sp], #8
   2ece8:	e12fff1e 	bx	lr

0002ecec <__aeabi_dcmple>:
   2ecec:	e52de008 	str	lr, [sp, #-8]!
   2ecf0:	ebffffeb 	bl	2eca4 <__aeabi_cdcmpeq>
   2ecf4:	93a00001 	movls	r0, #1
   2ecf8:	83a00000 	movhi	r0, #0
   2ecfc:	e49de008 	ldr	lr, [sp], #8
   2ed00:	e12fff1e 	bx	lr

0002ed04 <__aeabi_dcmpge>:
   2ed04:	e52de008 	str	lr, [sp, #-8]!
   2ed08:	ebffffde 	bl	2ec88 <__aeabi_cdrcmple>
   2ed0c:	93a00001 	movls	r0, #1
   2ed10:	83a00000 	movhi	r0, #0
   2ed14:	e49de008 	ldr	lr, [sp], #8
   2ed18:	e12fff1e 	bx	lr

0002ed1c <__aeabi_dcmpgt>:
   2ed1c:	e52de008 	str	lr, [sp, #-8]!
   2ed20:	ebffffd8 	bl	2ec88 <__aeabi_cdrcmple>
   2ed24:	33a00001 	movcc	r0, #1
   2ed28:	23a00000 	movcs	r0, #0
   2ed2c:	e49de008 	ldr	lr, [sp], #8
   2ed30:	e12fff1e 	bx	lr

0002ed34 <__aeabi_dcmpun>:
   2ed34:	e1a0c081 	lsl	ip, r1, #1
   2ed38:	e1f0cacc 	mvns	ip, ip, asr #21
   2ed3c:	1a000001 	bne	2ed48 <__aeabi_dcmpun+0x14>
   2ed40:	e190c601 	orrs	ip, r0, r1, lsl #12
   2ed44:	1a000006 	bne	2ed64 <__aeabi_dcmpun+0x30>
   2ed48:	e1a0c083 	lsl	ip, r3, #1
   2ed4c:	e1f0cacc 	mvns	ip, ip, asr #21
   2ed50:	1a000001 	bne	2ed5c <__aeabi_dcmpun+0x28>
   2ed54:	e192c603 	orrs	ip, r2, r3, lsl #12
   2ed58:	1a000001 	bne	2ed64 <__aeabi_dcmpun+0x30>
   2ed5c:	e3a00000 	mov	r0, #0
   2ed60:	e12fff1e 	bx	lr
   2ed64:	e3a00001 	mov	r0, #1
   2ed68:	e12fff1e 	bx	lr

0002ed6c <__aeabi_d2iz>:
   2ed6c:	e1a02081 	lsl	r2, r1, #1
   2ed70:	e2922602 	adds	r2, r2, #2097152	; 0x200000
   2ed74:	2a00000c 	bcs	2edac <__aeabi_d2iz+0x40>
   2ed78:	5a000009 	bpl	2eda4 <__aeabi_d2iz+0x38>
   2ed7c:	e3e03e3e 	mvn	r3, #992	; 0x3e0
   2ed80:	e0532ac2 	subs	r2, r3, r2, asr #21
   2ed84:	9a00000a 	bls	2edb4 <__aeabi_d2iz+0x48>
   2ed88:	e1a03581 	lsl	r3, r1, #11
   2ed8c:	e3833102 	orr	r3, r3, #-2147483648	; 0x80000000
   2ed90:	e1833aa0 	orr	r3, r3, r0, lsr #21
   2ed94:	e3110102 	tst	r1, #-2147483648	; 0x80000000
   2ed98:	e1a00233 	lsr	r0, r3, r2
   2ed9c:	12600000 	rsbne	r0, r0, #0
   2eda0:	e12fff1e 	bx	lr
   2eda4:	e3a00000 	mov	r0, #0
   2eda8:	e12fff1e 	bx	lr
   2edac:	e1900601 	orrs	r0, r0, r1, lsl #12
   2edb0:	1a000002 	bne	2edc0 <__aeabi_d2iz+0x54>
   2edb4:	e2110102 	ands	r0, r1, #-2147483648	; 0x80000000
   2edb8:	03e00102 	mvneq	r0, #-2147483648	; 0x80000000
   2edbc:	e12fff1e 	bx	lr
   2edc0:	e3a00000 	mov	r0, #0
   2edc4:	e12fff1e 	bx	lr

0002edc8 <__aeabi_uldivmod>:
   2edc8:	e3530000 	cmp	r3, #0
   2edcc:	03520000 	cmpeq	r2, #0
   2edd0:	1a000004 	bne	2ede8 <__aeabi_uldivmod+0x20>
   2edd4:	e3510000 	cmp	r1, #0
   2edd8:	03500000 	cmpeq	r0, #0
   2eddc:	13e01000 	mvnne	r1, #0
   2ede0:	13e00000 	mvnne	r0, #0
   2ede4:	ea004cb0 	b	420ac <____aeabi_ldiv0_from_arm>
   2ede8:	e24dd008 	sub	sp, sp, #8
   2edec:	e92d6000 	push	{sp, lr}
   2edf0:	eb004ca4 	bl	42088 <____udivmoddi4_from_arm>
   2edf4:	e59de004 	ldr	lr, [sp, #4]
   2edf8:	e28dd008 	add	sp, sp, #8
   2edfc:	e8bd000c 	pop	{r2, r3}
   2ee00:	e12fff1e 	bx	lr

0002ee04 <__udivmoddi4>:
   2ee04:	b5f0      	push	{r4, r5, r6, r7, lr}
   2ee06:	4657      	mov	r7, sl
   2ee08:	464e      	mov	r6, r9
   2ee0a:	4645      	mov	r5, r8
   2ee0c:	46de      	mov	lr, fp
   2ee0e:	b5e0      	push	{r5, r6, r7, lr}
   2ee10:	0004      	movs	r4, r0
   2ee12:	000d      	movs	r5, r1
   2ee14:	4692      	mov	sl, r2
   2ee16:	4699      	mov	r9, r3
   2ee18:	b083      	sub	sp, #12
   2ee1a:	428b      	cmp	r3, r1
   2ee1c:	d830      	bhi.n	2ee80 <__udivmoddi4+0x7c>
   2ee1e:	d02d      	beq.n	2ee7c <__udivmoddi4+0x78>
   2ee20:	4649      	mov	r1, r9
   2ee22:	4650      	mov	r0, sl
   2ee24:	f013 f978 	bl	42118 <____clzdi2_from_thumb>
   2ee28:	0029      	movs	r1, r5
   2ee2a:	0006      	movs	r6, r0
   2ee2c:	0020      	movs	r0, r4
   2ee2e:	f013 f973 	bl	42118 <____clzdi2_from_thumb>
   2ee32:	1a33      	subs	r3, r6, r0
   2ee34:	4698      	mov	r8, r3
   2ee36:	3b20      	subs	r3, #32
   2ee38:	469b      	mov	fp, r3
   2ee3a:	d435      	bmi.n	2eea8 <__udivmoddi4+0xa4>
   2ee3c:	465a      	mov	r2, fp
   2ee3e:	4653      	mov	r3, sl
   2ee40:	4093      	lsls	r3, r2
   2ee42:	4642      	mov	r2, r8
   2ee44:	001f      	movs	r7, r3
   2ee46:	4653      	mov	r3, sl
   2ee48:	4093      	lsls	r3, r2
   2ee4a:	001e      	movs	r6, r3
   2ee4c:	42af      	cmp	r7, r5
   2ee4e:	d83c      	bhi.n	2eeca <__udivmoddi4+0xc6>
   2ee50:	42af      	cmp	r7, r5
   2ee52:	d100      	bne.n	2ee56 <__udivmoddi4+0x52>
   2ee54:	e07a      	b.n	2ef4c <__udivmoddi4+0x148>
   2ee56:	465b      	mov	r3, fp
   2ee58:	1ba4      	subs	r4, r4, r6
   2ee5a:	41bd      	sbcs	r5, r7
   2ee5c:	2b00      	cmp	r3, #0
   2ee5e:	da00      	bge.n	2ee62 <__udivmoddi4+0x5e>
   2ee60:	e077      	b.n	2ef52 <__udivmoddi4+0x14e>
   2ee62:	2200      	movs	r2, #0
   2ee64:	2300      	movs	r3, #0
   2ee66:	9200      	str	r2, [sp, #0]
   2ee68:	9301      	str	r3, [sp, #4]
   2ee6a:	2301      	movs	r3, #1
   2ee6c:	465a      	mov	r2, fp
   2ee6e:	4093      	lsls	r3, r2
   2ee70:	9301      	str	r3, [sp, #4]
   2ee72:	2301      	movs	r3, #1
   2ee74:	4642      	mov	r2, r8
   2ee76:	4093      	lsls	r3, r2
   2ee78:	9300      	str	r3, [sp, #0]
   2ee7a:	e02a      	b.n	2eed2 <__udivmoddi4+0xce>
   2ee7c:	4282      	cmp	r2, r0
   2ee7e:	d9cf      	bls.n	2ee20 <__udivmoddi4+0x1c>
   2ee80:	2200      	movs	r2, #0
   2ee82:	2300      	movs	r3, #0
   2ee84:	9200      	str	r2, [sp, #0]
   2ee86:	9301      	str	r3, [sp, #4]
   2ee88:	9b0c      	ldr	r3, [sp, #48]	; 0x30
   2ee8a:	2b00      	cmp	r3, #0
   2ee8c:	d001      	beq.n	2ee92 <__udivmoddi4+0x8e>
   2ee8e:	601c      	str	r4, [r3, #0]
   2ee90:	605d      	str	r5, [r3, #4]
   2ee92:	9800      	ldr	r0, [sp, #0]
   2ee94:	9901      	ldr	r1, [sp, #4]
   2ee96:	b003      	add	sp, #12
   2ee98:	bcf0      	pop	{r4, r5, r6, r7}
   2ee9a:	46bb      	mov	fp, r7
   2ee9c:	46b2      	mov	sl, r6
   2ee9e:	46a9      	mov	r9, r5
   2eea0:	46a0      	mov	r8, r4
   2eea2:	bcf0      	pop	{r4, r5, r6, r7}
   2eea4:	bc04      	pop	{r2}
   2eea6:	4710      	bx	r2
   2eea8:	4642      	mov	r2, r8
   2eeaa:	2320      	movs	r3, #32
   2eeac:	1a9b      	subs	r3, r3, r2
   2eeae:	4652      	mov	r2, sl
   2eeb0:	40da      	lsrs	r2, r3
   2eeb2:	4641      	mov	r1, r8
   2eeb4:	0013      	movs	r3, r2
   2eeb6:	464a      	mov	r2, r9
   2eeb8:	408a      	lsls	r2, r1
   2eeba:	0017      	movs	r7, r2
   2eebc:	4642      	mov	r2, r8
   2eebe:	431f      	orrs	r7, r3
   2eec0:	4653      	mov	r3, sl
   2eec2:	4093      	lsls	r3, r2
   2eec4:	001e      	movs	r6, r3
   2eec6:	42af      	cmp	r7, r5
   2eec8:	d9c2      	bls.n	2ee50 <__udivmoddi4+0x4c>
   2eeca:	2200      	movs	r2, #0
   2eecc:	2300      	movs	r3, #0
   2eece:	9200      	str	r2, [sp, #0]
   2eed0:	9301      	str	r3, [sp, #4]
   2eed2:	4643      	mov	r3, r8
   2eed4:	2b00      	cmp	r3, #0
   2eed6:	d0d7      	beq.n	2ee88 <__udivmoddi4+0x84>
   2eed8:	07fb      	lsls	r3, r7, #31
   2eeda:	0872      	lsrs	r2, r6, #1
   2eedc:	431a      	orrs	r2, r3
   2eede:	4646      	mov	r6, r8
   2eee0:	087b      	lsrs	r3, r7, #1
   2eee2:	e00e      	b.n	2ef02 <__udivmoddi4+0xfe>
   2eee4:	42ab      	cmp	r3, r5
   2eee6:	d101      	bne.n	2eeec <__udivmoddi4+0xe8>
   2eee8:	42a2      	cmp	r2, r4
   2eeea:	d80c      	bhi.n	2ef06 <__udivmoddi4+0x102>
   2eeec:	1aa4      	subs	r4, r4, r2
   2eeee:	419d      	sbcs	r5, r3
   2eef0:	2001      	movs	r0, #1
   2eef2:	1924      	adds	r4, r4, r4
   2eef4:	416d      	adcs	r5, r5
   2eef6:	2100      	movs	r1, #0
   2eef8:	3e01      	subs	r6, #1
   2eefa:	1824      	adds	r4, r4, r0
   2eefc:	414d      	adcs	r5, r1
   2eefe:	2e00      	cmp	r6, #0
   2ef00:	d006      	beq.n	2ef10 <__udivmoddi4+0x10c>
   2ef02:	42ab      	cmp	r3, r5
   2ef04:	d9ee      	bls.n	2eee4 <__udivmoddi4+0xe0>
   2ef06:	3e01      	subs	r6, #1
   2ef08:	1924      	adds	r4, r4, r4
   2ef0a:	416d      	adcs	r5, r5
   2ef0c:	2e00      	cmp	r6, #0
   2ef0e:	d1f8      	bne.n	2ef02 <__udivmoddi4+0xfe>
   2ef10:	465b      	mov	r3, fp
   2ef12:	9800      	ldr	r0, [sp, #0]
   2ef14:	9901      	ldr	r1, [sp, #4]
   2ef16:	1900      	adds	r0, r0, r4
   2ef18:	4169      	adcs	r1, r5
   2ef1a:	2b00      	cmp	r3, #0
   2ef1c:	db24      	blt.n	2ef68 <__udivmoddi4+0x164>
   2ef1e:	002b      	movs	r3, r5
   2ef20:	465a      	mov	r2, fp
   2ef22:	4644      	mov	r4, r8
   2ef24:	40d3      	lsrs	r3, r2
   2ef26:	002a      	movs	r2, r5
   2ef28:	40e2      	lsrs	r2, r4
   2ef2a:	001c      	movs	r4, r3
   2ef2c:	465b      	mov	r3, fp
   2ef2e:	0015      	movs	r5, r2
   2ef30:	2b00      	cmp	r3, #0
   2ef32:	db2a      	blt.n	2ef8a <__udivmoddi4+0x186>
   2ef34:	0026      	movs	r6, r4
   2ef36:	409e      	lsls	r6, r3
   2ef38:	0033      	movs	r3, r6
   2ef3a:	0026      	movs	r6, r4
   2ef3c:	4647      	mov	r7, r8
   2ef3e:	40be      	lsls	r6, r7
   2ef40:	0032      	movs	r2, r6
   2ef42:	1a80      	subs	r0, r0, r2
   2ef44:	4199      	sbcs	r1, r3
   2ef46:	9000      	str	r0, [sp, #0]
   2ef48:	9101      	str	r1, [sp, #4]
   2ef4a:	e79d      	b.n	2ee88 <__udivmoddi4+0x84>
   2ef4c:	42a3      	cmp	r3, r4
   2ef4e:	d8bc      	bhi.n	2eeca <__udivmoddi4+0xc6>
   2ef50:	e781      	b.n	2ee56 <__udivmoddi4+0x52>
   2ef52:	4642      	mov	r2, r8
   2ef54:	2320      	movs	r3, #32
   2ef56:	2100      	movs	r1, #0
   2ef58:	1a9b      	subs	r3, r3, r2
   2ef5a:	2200      	movs	r2, #0
   2ef5c:	9100      	str	r1, [sp, #0]
   2ef5e:	9201      	str	r2, [sp, #4]
   2ef60:	2201      	movs	r2, #1
   2ef62:	40da      	lsrs	r2, r3
   2ef64:	9201      	str	r2, [sp, #4]
   2ef66:	e784      	b.n	2ee72 <__udivmoddi4+0x6e>
   2ef68:	4642      	mov	r2, r8
   2ef6a:	2320      	movs	r3, #32
   2ef6c:	1a9b      	subs	r3, r3, r2
   2ef6e:	002a      	movs	r2, r5
   2ef70:	4646      	mov	r6, r8
   2ef72:	409a      	lsls	r2, r3
   2ef74:	0023      	movs	r3, r4
   2ef76:	40f3      	lsrs	r3, r6
   2ef78:	4644      	mov	r4, r8
   2ef7a:	4313      	orrs	r3, r2
   2ef7c:	002a      	movs	r2, r5
   2ef7e:	40e2      	lsrs	r2, r4
   2ef80:	001c      	movs	r4, r3
   2ef82:	465b      	mov	r3, fp
   2ef84:	0015      	movs	r5, r2
   2ef86:	2b00      	cmp	r3, #0
   2ef88:	dad4      	bge.n	2ef34 <__udivmoddi4+0x130>
   2ef8a:	4642      	mov	r2, r8
   2ef8c:	002f      	movs	r7, r5
   2ef8e:	2320      	movs	r3, #32
   2ef90:	0026      	movs	r6, r4
   2ef92:	4097      	lsls	r7, r2
   2ef94:	1a9b      	subs	r3, r3, r2
   2ef96:	40de      	lsrs	r6, r3
   2ef98:	003b      	movs	r3, r7
   2ef9a:	4333      	orrs	r3, r6
   2ef9c:	e7cd      	b.n	2ef3a <__udivmoddi4+0x136>
   2ef9e:	46c0      	nop			; (mov r8, r8)

0002efa0 <__aeabi_idiv0>:
   2efa0:	4770      	bx	lr
   2efa2:	46c0      	nop			; (mov r8, r8)

0002efa4 <__clzdi2>:
   2efa4:	e92d4010 	push	{r4, lr}
   2efa8:	e3510000 	cmp	r1, #0
   2efac:	1a000002 	bne	2efbc <__clzdi2+0x18>
   2efb0:	eb000005 	bl	2efcc <__clzsi2>
   2efb4:	e2800020 	add	r0, r0, #32
   2efb8:	ea000001 	b	2efc4 <__clzdi2+0x20>
   2efbc:	e1a00001 	mov	r0, r1
   2efc0:	eb000001 	bl	2efcc <__clzsi2>
   2efc4:	e8bd4010 	pop	{r4, lr}
   2efc8:	e12fff1e 	bx	lr

0002efcc <__clzsi2>:
   2efcc:	e3a0101c 	mov	r1, #28
   2efd0:	e3500801 	cmp	r0, #65536	; 0x10000
   2efd4:	21a00820 	lsrcs	r0, r0, #16
   2efd8:	22411010 	subcs	r1, r1, #16
   2efdc:	e3500c01 	cmp	r0, #256	; 0x100
   2efe0:	21a00420 	lsrcs	r0, r0, #8
   2efe4:	22411008 	subcs	r1, r1, #8
   2efe8:	e3500010 	cmp	r0, #16
   2efec:	21a00220 	lsrcs	r0, r0, #4
   2eff0:	22411004 	subcs	r1, r1, #4
   2eff4:	e28f2008 	add	r2, pc, #8
   2eff8:	e7d20000 	ldrb	r0, [r2, r0]
   2effc:	e0800001 	add	r0, r0, r1
   2f000:	e12fff1e 	bx	lr
   2f004:	02020304 	.word	0x02020304
   2f008:	01010101 	.word	0x01010101
	...

0002f014 <strcmp>:
   2f014:	e020c001 	eor	ip, r0, r1
   2f018:	e31c0003 	tst	ip, #3
   2f01c:	1a000021 	bne	2f0a8 <strcmp+0x94>
   2f020:	e210c003 	ands	ip, r0, #3
   2f024:	e3c00003 	bic	r0, r0, #3
   2f028:	e3c11003 	bic	r1, r1, #3
   2f02c:	e4902004 	ldr	r2, [r0], #4
   2f030:	04913004 	ldreq	r3, [r1], #4
   2f034:	0a000006 	beq	2f054 <strcmp+0x40>
   2f038:	e22cc003 	eor	ip, ip, #3
   2f03c:	e3e034ff 	mvn	r3, #-16777216	; 0xff000000
   2f040:	e1a0c18c 	lsl	ip, ip, #3
   2f044:	e1a0cc33 	lsr	ip, r3, ip
   2f048:	e4913004 	ldr	r3, [r1], #4
   2f04c:	e182200c 	orr	r2, r2, ip
   2f050:	e183300c 	orr	r3, r3, ip
   2f054:	e52d4004 	push	{r4}		; (str r4, [sp, #-4]!)
   2f058:	e3a04001 	mov	r4, #1
   2f05c:	e1844404 	orr	r4, r4, r4, lsl #8
   2f060:	e1844804 	orr	r4, r4, r4, lsl #16
   2f064:	e042c004 	sub	ip, r2, r4
   2f068:	e1520003 	cmp	r2, r3
   2f06c:	01ccc002 	biceq	ip, ip, r2
   2f070:	011c0384 	tsteq	ip, r4, lsl #7
   2f074:	04902004 	ldreq	r2, [r0], #4
   2f078:	04913004 	ldreq	r3, [r1], #4
   2f07c:	0afffff8 	beq	2f064 <strcmp+0x50>
   2f080:	e1a00c02 	lsl	r0, r2, #24
   2f084:	e1a02422 	lsr	r2, r2, #8
   2f088:	e3500001 	cmp	r0, #1
   2f08c:	21500c03 	cmpcs	r0, r3, lsl #24
   2f090:	01a03423 	lsreq	r3, r3, #8
   2f094:	0afffff9 	beq	2f080 <strcmp+0x6c>
   2f098:	e20330ff 	and	r3, r3, #255	; 0xff
   2f09c:	e0630c20 	rsb	r0, r3, r0, lsr #24
   2f0a0:	e49d4004 	pop	{r4}		; (ldr r4, [sp], #4)
   2f0a4:	e12fff1e 	bx	lr
   2f0a8:	e3100003 	tst	r0, #3
   2f0ac:	0a000006 	beq	2f0cc <strcmp+0xb8>
   2f0b0:	e4d02001 	ldrb	r2, [r0], #1
   2f0b4:	e4d13001 	ldrb	r3, [r1], #1
   2f0b8:	e3520001 	cmp	r2, #1
   2f0bc:	21520003 	cmpcs	r2, r3
   2f0c0:	0afffff8 	beq	2f0a8 <strcmp+0x94>
   2f0c4:	e0420003 	sub	r0, r2, r3
   2f0c8:	e12fff1e 	bx	lr
   2f0cc:	e92d0030 	push	{r4, r5}
   2f0d0:	e3a04001 	mov	r4, #1
   2f0d4:	e1844404 	orr	r4, r4, r4, lsl #8
   2f0d8:	e1844804 	orr	r4, r4, r4, lsl #16
   2f0dc:	e4902004 	ldr	r2, [r0], #4
   2f0e0:	e2015003 	and	r5, r1, #3
   2f0e4:	e3c11003 	bic	r1, r1, #3
   2f0e8:	e4913004 	ldr	r3, [r1], #4
   2f0ec:	e3550002 	cmp	r5, #2
   2f0f0:	0a000017 	beq	2f154 <strcmp+0x140>
   2f0f4:	8a00002d 	bhi	2f1b0 <strcmp+0x19c>
   2f0f8:	e3c254ff 	bic	r5, r2, #-16777216	; 0xff000000
   2f0fc:	e1550423 	cmp	r5, r3, lsr #8
   2f100:	e042c004 	sub	ip, r2, r4
   2f104:	e1ccc002 	bic	ip, ip, r2
   2f108:	1a000007 	bne	2f12c <strcmp+0x118>
   2f10c:	e01cc384 	ands	ip, ip, r4, lsl #7
   2f110:	04913004 	ldreq	r3, [r1], #4
   2f114:	1a000006 	bne	2f134 <strcmp+0x120>
   2f118:	e0255002 	eor	r5, r5, r2
   2f11c:	e1550c03 	cmp	r5, r3, lsl #24
   2f120:	1a000008 	bne	2f148 <strcmp+0x134>
   2f124:	e4902004 	ldr	r2, [r0], #4
   2f128:	eafffff2 	b	2f0f8 <strcmp+0xe4>
   2f12c:	e1a03423 	lsr	r3, r3, #8
   2f130:	ea000036 	b	2f210 <strcmp+0x1fc>
   2f134:	e3dcc4ff 	bics	ip, ip, #-16777216	; 0xff000000
   2f138:	1a000031 	bne	2f204 <strcmp+0x1f0>
   2f13c:	e5d13000 	ldrb	r3, [r1]
   2f140:	e1a05c22 	lsr	r5, r2, #24
   2f144:	ea000031 	b	2f210 <strcmp+0x1fc>
   2f148:	e1a05c22 	lsr	r5, r2, #24
   2f14c:	e20330ff 	and	r3, r3, #255	; 0xff
   2f150:	ea00002e 	b	2f210 <strcmp+0x1fc>
   2f154:	e1a05802 	lsl	r5, r2, #16
   2f158:	e042c004 	sub	ip, r2, r4
   2f15c:	e1a05825 	lsr	r5, r5, #16
   2f160:	e1ccc002 	bic	ip, ip, r2
   2f164:	e1550823 	cmp	r5, r3, lsr #16
   2f168:	1a00000e 	bne	2f1a8 <strcmp+0x194>
   2f16c:	e01cc384 	ands	ip, ip, r4, lsl #7
   2f170:	04913004 	ldreq	r3, [r1], #4
   2f174:	1a000004 	bne	2f18c <strcmp+0x178>
   2f178:	e0255002 	eor	r5, r5, r2
   2f17c:	e1550803 	cmp	r5, r3, lsl #16
   2f180:	1a000006 	bne	2f1a0 <strcmp+0x18c>
   2f184:	e4902004 	ldr	r2, [r0], #4
   2f188:	eafffff1 	b	2f154 <strcmp+0x140>
   2f18c:	e1b0c80c 	lsls	ip, ip, #16
   2f190:	1a00001b 	bne	2f204 <strcmp+0x1f0>
   2f194:	e1d130b0 	ldrh	r3, [r1]
   2f198:	e1a05822 	lsr	r5, r2, #16
   2f19c:	ea00001b 	b	2f210 <strcmp+0x1fc>
   2f1a0:	e1a03803 	lsl	r3, r3, #16
   2f1a4:	e1a05822 	lsr	r5, r2, #16
   2f1a8:	e1a03823 	lsr	r3, r3, #16
   2f1ac:	ea000017 	b	2f210 <strcmp+0x1fc>
   2f1b0:	e20250ff 	and	r5, r2, #255	; 0xff
   2f1b4:	e1550c23 	cmp	r5, r3, lsr #24
   2f1b8:	e042c004 	sub	ip, r2, r4
   2f1bc:	e1ccc002 	bic	ip, ip, r2
   2f1c0:	1a000007 	bne	2f1e4 <strcmp+0x1d0>
   2f1c4:	e01cc384 	ands	ip, ip, r4, lsl #7
   2f1c8:	04913004 	ldreq	r3, [r1], #4
   2f1cc:	1a000006 	bne	2f1ec <strcmp+0x1d8>
   2f1d0:	e0255002 	eor	r5, r5, r2
   2f1d4:	e1550403 	cmp	r5, r3, lsl #8
   2f1d8:	1a000006 	bne	2f1f8 <strcmp+0x1e4>
   2f1dc:	e4902004 	ldr	r2, [r0], #4
   2f1e0:	eafffff2 	b	2f1b0 <strcmp+0x19c>
   2f1e4:	e1a03c23 	lsr	r3, r3, #24
   2f1e8:	ea000008 	b	2f210 <strcmp+0x1fc>
   2f1ec:	e31200ff 	tst	r2, #255	; 0xff
   2f1f0:	0a000003 	beq	2f204 <strcmp+0x1f0>
   2f1f4:	e4913004 	ldr	r3, [r1], #4
   2f1f8:	e1a05422 	lsr	r5, r2, #8
   2f1fc:	e3c334ff 	bic	r3, r3, #-16777216	; 0xff000000
   2f200:	ea000002 	b	2f210 <strcmp+0x1fc>
   2f204:	e3a00000 	mov	r0, #0
   2f208:	e8bd0030 	pop	{r4, r5}
   2f20c:	e12fff1e 	bx	lr
   2f210:	e20520ff 	and	r2, r5, #255	; 0xff
   2f214:	e20300ff 	and	r0, r3, #255	; 0xff
   2f218:	e3500001 	cmp	r0, #1
   2f21c:	21500002 	cmpcs	r0, r2
   2f220:	01a05425 	lsreq	r5, r5, #8
   2f224:	01a03423 	lsreq	r3, r3, #8
   2f228:	0afffff8 	beq	2f210 <strcmp+0x1fc>
   2f22c:	e0420000 	sub	r0, r2, r0
   2f230:	e8bd0030 	pop	{r4, r5}
   2f234:	e12fff1e 	bx	lr

0002f238 <rf_rpl_reg_rd>:
   2f238:	6800      	ldr	r0, [r0, #0]
   2f23a:	4770      	bx	lr

0002f23c <rf_rpl_reg_wr>:
   2f23c:	6001      	str	r1, [r0, #0]
   2f23e:	4770      	bx	lr

0002f240 <rf_txpwr_dbm_get>:
   2f240:	2000      	movs	r0, #0
   2f242:	4770      	bx	lr

0002f244 <rf_sleep>:
   2f244:	2307      	movs	r3, #7
   2f246:	4a02      	ldr	r2, [pc, #8]	; (2f250 <rf_sleep+0xc>)
   2f248:	6811      	ldr	r1, [r2, #0]
   2f24a:	430b      	orrs	r3, r1
   2f24c:	6013      	str	r3, [r2, #0]
   2f24e:	4770      	bx	lr
   2f250:	00820030 	.word	0x00820030

0002f254 <rf_force_agc_enable>:
   2f254:	4906      	ldr	r1, [pc, #24]	; (2f270 <rf_force_agc_enable+0x1c>)
   2f256:	07c2      	lsls	r2, r0, #31
   2f258:	680b      	ldr	r3, [r1, #0]
   2f25a:	005b      	lsls	r3, r3, #1
   2f25c:	085b      	lsrs	r3, r3, #1
   2f25e:	4313      	orrs	r3, r2
   2f260:	600b      	str	r3, [r1, #0]
   2f262:	4904      	ldr	r1, [pc, #16]	; (2f274 <rf_force_agc_enable+0x20>)
   2f264:	680b      	ldr	r3, [r1, #0]
   2f266:	005b      	lsls	r3, r3, #1
   2f268:	0858      	lsrs	r0, r3, #1
   2f26a:	4310      	orrs	r0, r2
   2f26c:	6008      	str	r0, [r1, #0]
   2f26e:	4770      	bx	lr
   2f270:	00820074 	.word	0x00820074
   2f274:	00820874 	.word	0x00820874

0002f278 <rf_rssi_convert>:
   2f278:	0840      	lsrs	r0, r0, #1
   2f27a:	3876      	subs	r0, #118	; 0x76
   2f27c:	0600      	lsls	r0, r0, #24
   2f27e:	1600      	asrs	r0, r0, #24
   2f280:	4770      	bx	lr
	...

0002f284 <rf_txpwr_cs_get>:
   2f284:	0002      	movs	r2, r0
   2f286:	2301      	movs	r3, #1
   2f288:	b530      	push	{r4, r5, lr}
   2f28a:	4c0a      	ldr	r4, [pc, #40]	; (2f2b4 <rf_txpwr_cs_get+0x30>)
   2f28c:	571d      	ldrsb	r5, [r3, r4]
   2f28e:	0618      	lsls	r0, r3, #24
   2f290:	0e00      	lsrs	r0, r0, #24
   2f292:	4295      	cmp	r5, r2
   2f294:	da03      	bge.n	2f29e <rf_txpwr_cs_get+0x1a>
   2f296:	3301      	adds	r3, #1
   2f298:	2b0d      	cmp	r3, #13
   2f29a:	d1f7      	bne.n	2f28c <rf_txpwr_cs_get+0x8>
   2f29c:	0018      	movs	r0, r3
   2f29e:	5623      	ldrsb	r3, [r4, r0]
   2f2a0:	4293      	cmp	r3, r2
   2f2a2:	d006      	beq.n	2f2b2 <rf_txpwr_cs_get+0x2e>
   2f2a4:	2900      	cmp	r1, #0
   2f2a6:	d104      	bne.n	2f2b2 <rf_txpwr_cs_get+0x2e>
   2f2a8:	2801      	cmp	r0, #1
   2f2aa:	d002      	beq.n	2f2b2 <rf_txpwr_cs_get+0x2e>
   2f2ac:	3801      	subs	r0, #1
   2f2ae:	0600      	lsls	r0, r0, #24
   2f2b0:	0e00      	lsrs	r0, r0, #24
   2f2b2:	bd30      	pop	{r4, r5, pc}
   2f2b4:	00043ae8 	.word	0x00043ae8

0002f2b8 <app_dis_init>:
   2f2b8:	4770      	bx	lr
	...

0002f2bc <prf_get_id_from_task>:
   2f2bc:	490b      	ldr	r1, [pc, #44]	; (2f2ec <prf_get_id_from_task+0x30>)
   2f2be:	b530      	push	{r4, r5, lr}
   2f2c0:	2200      	movs	r2, #0
   2f2c2:	000c      	movs	r4, r1
   2f2c4:	0a03      	lsrs	r3, r0, #8
   2f2c6:	0600      	lsls	r0, r0, #24
   2f2c8:	0e00      	lsrs	r0, r0, #24
   2f2ca:	8a0d      	ldrh	r5, [r1, #16]
   2f2cc:	4285      	cmp	r5, r0
   2f2ce:	d106      	bne.n	2f2de <prf_get_id_from_task+0x22>
   2f2d0:	2118      	movs	r1, #24
   2f2d2:	434a      	muls	r2, r1
   2f2d4:	18a4      	adds	r4, r4, r2
   2f2d6:	8a62      	ldrh	r2, [r4, #18]
   2f2d8:	0218      	lsls	r0, r3, #8
   2f2da:	4310      	orrs	r0, r2
   2f2dc:	bd30      	pop	{r4, r5, pc}
   2f2de:	3201      	adds	r2, #1
   2f2e0:	3118      	adds	r1, #24
   2f2e2:	2a0f      	cmp	r2, #15
   2f2e4:	d1f1      	bne.n	2f2ca <prf_get_id_from_task+0xe>
   2f2e6:	32f0      	adds	r2, #240	; 0xf0
   2f2e8:	e7f6      	b.n	2f2d8 <prf_get_id_from_task+0x1c>
   2f2ea:	46c0      	nop			; (mov r8, r8)
   2f2ec:	004033a4 	.word	0x004033a4

0002f2f0 <prf_get_task_from_id>:
   2f2f0:	490b      	ldr	r1, [pc, #44]	; (2f320 <prf_get_task_from_id+0x30>)
   2f2f2:	b530      	push	{r4, r5, lr}
   2f2f4:	2200      	movs	r2, #0
   2f2f6:	000c      	movs	r4, r1
   2f2f8:	0a03      	lsrs	r3, r0, #8
   2f2fa:	0600      	lsls	r0, r0, #24
   2f2fc:	0e00      	lsrs	r0, r0, #24
   2f2fe:	8a4d      	ldrh	r5, [r1, #18]
   2f300:	4285      	cmp	r5, r0
   2f302:	d106      	bne.n	2f312 <prf_get_task_from_id+0x22>
   2f304:	2118      	movs	r1, #24
   2f306:	434a      	muls	r2, r1
   2f308:	18a4      	adds	r4, r4, r2
   2f30a:	8a22      	ldrh	r2, [r4, #16]
   2f30c:	0218      	lsls	r0, r3, #8
   2f30e:	4310      	orrs	r0, r2
   2f310:	bd30      	pop	{r4, r5, pc}
   2f312:	3201      	adds	r2, #1
   2f314:	3118      	adds	r1, #24
   2f316:	2a0f      	cmp	r2, #15
   2f318:	d1f1      	bne.n	2f2fe <prf_get_task_from_id+0xe>
   2f31a:	32f0      	adds	r2, #240	; 0xf0
   2f31c:	e7f6      	b.n	2f30c <prf_get_task_from_id+0x1c>
   2f31e:	46c0      	nop			; (mov r8, r8)
   2f320:	004033a4 	.word	0x004033a4

0002f324 <rwble_sleep_wakeup_end>:
   2f324:	2200      	movs	r2, #0
   2f326:	4b01      	ldr	r3, [pc, #4]	; (2f32c <rwble_sleep_wakeup_end+0x8>)
   2f328:	601a      	str	r2, [r3, #0]
   2f32a:	4770      	bx	lr
   2f32c:	0082080c 	.word	0x0082080c

0002f330 <app_sec_msg_dflt_handler>:
   2f330:	2000      	movs	r0, #0
   2f332:	4770      	bx	lr

0002f334 <bass_batt_level_ntf_cfg_ind_handler>:
   2f334:	2000      	movs	r0, #0
   2f336:	4770      	bx	lr

0002f338 <batt_level_upd_handler>:
   2f338:	2000      	movs	r0, #0
   2f33a:	4770      	bx	lr

0002f33c <bass_enable_rsp_handler>:
   2f33c:	2000      	movs	r0, #0
   2f33e:	4770      	bx	lr

0002f340 <app_batt_msg_dflt_handler>:
   2f340:	2000      	movs	r0, #0
   2f342:	4770      	bx	lr

0002f344 <oads_enable_rsp_handler>:
   2f344:	2000      	movs	r0, #0
   2f346:	4770      	bx	lr

0002f348 <app_get_handler>:
   2f348:	b5f8      	push	{r3, r4, r5, r6, r7, lr}
   2f34a:	0005      	movs	r5, r0
   2f34c:	0008      	movs	r0, r1
   2f34e:	792c      	ldrb	r4, [r5, #4]
   2f350:	0011      	movs	r1, r2
   2f352:	4a0c      	ldr	r2, [pc, #48]	; (2f384 <app_get_handler+0x3c>)
   2f354:	4e0c      	ldr	r6, [pc, #48]	; (2f388 <app_get_handler+0x40>)
   2f356:	18a4      	adds	r4, r4, r2
   2f358:	00e4      	lsls	r4, r4, #3
   2f35a:	0022      	movs	r2, r4
   2f35c:	3208      	adds	r2, #8
   2f35e:	d101      	bne.n	2f364 <app_get_handler+0x1c>
   2f360:	2000      	movs	r0, #0
   2f362:	e009      	b.n	2f378 <app_get_handler+0x30>
   2f364:	682a      	ldr	r2, [r5, #0]
   2f366:	1917      	adds	r7, r2, r4
   2f368:	5b12      	ldrh	r2, [r2, r4]
   2f36a:	4282      	cmp	r2, r0
   2f36c:	d105      	bne.n	2f37a <app_get_handler+0x32>
   2f36e:	2203      	movs	r2, #3
   2f370:	687c      	ldr	r4, [r7, #4]
   2f372:	47a0      	blx	r4
   2f374:	0600      	lsls	r0, r0, #24
   2f376:	0e00      	lsrs	r0, r0, #24
   2f378:	bdf8      	pop	{r3, r4, r5, r6, r7, pc}
   2f37a:	3c08      	subs	r4, #8
   2f37c:	42b2      	cmp	r2, r6
   2f37e:	d1ec      	bne.n	2f35a <app_get_handler+0x12>
   2f380:	e7f5      	b.n	2f36e <app_get_handler+0x26>
   2f382:	46c0      	nop			; (mov r8, r8)
   2f384:	1fffffff 	.word	0x1fffffff
   2f388:	0000ffff 	.word	0x0000ffff

0002f38c <appm_msg_handler>:
   2f38c:	000a      	movs	r2, r1
   2f38e:	b510      	push	{r4, lr}
   2f390:	0a01      	lsrs	r1, r0, #8
   2f392:	0004      	movs	r4, r0
   2f394:	2947      	cmp	r1, #71	; 0x47
   2f396:	d019      	beq.n	2f3cc <appm_msg_handler+0x40>
   2f398:	d807      	bhi.n	2f3aa <appm_msg_handler+0x1e>
   2f39a:	2914      	cmp	r1, #20
   2f39c:	d01c      	beq.n	2f3d8 <appm_msg_handler+0x4c>
   2f39e:	2924      	cmp	r1, #36	; 0x24
   2f3a0:	d01d      	beq.n	2f3de <appm_msg_handler+0x52>
   2f3a2:	2000      	movs	r0, #0
   2f3a4:	290e      	cmp	r1, #14
   2f3a6:	d008      	beq.n	2f3ba <appm_msg_handler+0x2e>
   2f3a8:	bd10      	pop	{r4, pc}
   2f3aa:	2948      	cmp	r1, #72	; 0x48
   2f3ac:	d011      	beq.n	2f3d2 <appm_msg_handler+0x46>
   2f3ae:	2000      	movs	r0, #0
   2f3b0:	2949      	cmp	r1, #73	; 0x49
   2f3b2:	d1f9      	bne.n	2f3a8 <appm_msg_handler+0x1c>
   2f3b4:	0021      	movs	r1, r4
   2f3b6:	480b      	ldr	r0, [pc, #44]	; (2f3e4 <appm_msg_handler+0x58>)
   2f3b8:	e005      	b.n	2f3c6 <appm_msg_handler+0x3a>
   2f3ba:	490b      	ldr	r1, [pc, #44]	; (2f3e8 <appm_msg_handler+0x5c>)
   2f3bc:	1861      	adds	r1, r4, r1
   2f3be:	2909      	cmp	r1, #9
   2f3c0:	d8f2      	bhi.n	2f3a8 <appm_msg_handler+0x1c>
   2f3c2:	0021      	movs	r1, r4
   2f3c4:	4809      	ldr	r0, [pc, #36]	; (2f3ec <appm_msg_handler+0x60>)
   2f3c6:	f7ff ffbf 	bl	2f348 <app_get_handler>
   2f3ca:	e7ed      	b.n	2f3a8 <appm_msg_handler+0x1c>
   2f3cc:	0001      	movs	r1, r0
   2f3ce:	4808      	ldr	r0, [pc, #32]	; (2f3f0 <appm_msg_handler+0x64>)
   2f3d0:	e7f9      	b.n	2f3c6 <appm_msg_handler+0x3a>
   2f3d2:	0001      	movs	r1, r0
   2f3d4:	4807      	ldr	r0, [pc, #28]	; (2f3f4 <appm_msg_handler+0x68>)
   2f3d6:	e7f6      	b.n	2f3c6 <appm_msg_handler+0x3a>
   2f3d8:	0001      	movs	r1, r0
   2f3da:	4807      	ldr	r0, [pc, #28]	; (2f3f8 <appm_msg_handler+0x6c>)
   2f3dc:	e7f3      	b.n	2f3c6 <appm_msg_handler+0x3a>
   2f3de:	0001      	movs	r1, r0
   2f3e0:	4806      	ldr	r0, [pc, #24]	; (2f3fc <appm_msg_handler+0x70>)
   2f3e2:	e7f0      	b.n	2f3c6 <appm_msg_handler+0x3a>
   2f3e4:	000441d8 	.word	0x000441d8
   2f3e8:	fffff1ee 	.word	0xfffff1ee
   2f3ec:	00044210 	.word	0x00044210
   2f3f0:	00044198 	.word	0x00044198
   2f3f4:	00044170 	.word	0x00044170
   2f3f8:	00044160 	.word	0x00044160
   2f3fc:	00044138 	.word	0x00044138

0002f400 <app_ancs_req_handler>:
   2f400:	2000      	movs	r0, #0
   2f402:	4770      	bx	lr

0002f404 <app_period_timer_handler>:
   2f404:	2000      	movs	r0, #0
   2f406:	4770      	bx	lr

0002f408 <nvds_walk_tag>:
   2f408:	b5f8      	push	{r3, r4, r5, r6, r7, lr}
   2f40a:	000f      	movs	r7, r1
   2f40c:	4c0b      	ldr	r4, [pc, #44]	; (2f43c <nvds_walk_tag+0x34>)
   2f40e:	0015      	movs	r5, r2
   2f410:	6823      	ldr	r3, [r4, #0]
   2f412:	000a      	movs	r2, r1
   2f414:	2103      	movs	r1, #3
   2f416:	0006      	movs	r6, r0
   2f418:	4798      	blx	r3
   2f41a:	783b      	ldrb	r3, [r7, #0]
   2f41c:	2002      	movs	r0, #2
   2f41e:	2bff      	cmp	r3, #255	; 0xff
   2f420:	d00b      	beq.n	2f43a <nvds_walk_tag+0x32>
   2f422:	78b8      	ldrb	r0, [r7, #2]
   2f424:	6922      	ldr	r2, [r4, #16]
   2f426:	1980      	adds	r0, r0, r6
   2f428:	1cc3      	adds	r3, r0, #3
   2f42a:	602b      	str	r3, [r5, #0]
   2f42c:	4b04      	ldr	r3, [pc, #16]	; (2f440 <nvds_walk_tag+0x38>)
   2f42e:	3a01      	subs	r2, #1
   2f430:	18c3      	adds	r3, r0, r3
   2f432:	2000      	movs	r0, #0
   2f434:	4293      	cmp	r3, r2
   2f436:	d900      	bls.n	2f43a <nvds_walk_tag+0x32>
   2f438:	3006      	adds	r0, #6
   2f43a:	bdf8      	pop	{r3, r4, r5, r6, r7, pc}
   2f43c:	00403064 	.word	0x00403064
   2f440:	fff81003 	.word	0xfff81003

0002f444 <nvds_browse_tag>:
   2f444:	b5f7      	push	{r0, r1, r2, r4, r5, r6, r7, lr}
   2f446:	0006      	movs	r6, r0
   2f448:	000c      	movs	r4, r1
   2f44a:	0015      	movs	r5, r2
   2f44c:	4b09      	ldr	r3, [pc, #36]	; (2f474 <nvds_browse_tag+0x30>)
   2f44e:	9301      	str	r3, [sp, #4]
   2f450:	9f01      	ldr	r7, [sp, #4]
   2f452:	0021      	movs	r1, r4
   2f454:	0038      	movs	r0, r7
   2f456:	aa01      	add	r2, sp, #4
   2f458:	f7ff ffd6 	bl	2f408 <nvds_walk_tag>
   2f45c:	2800      	cmp	r0, #0
   2f45e:	d107      	bne.n	2f470 <nvds_browse_tag+0x2c>
   2f460:	7823      	ldrb	r3, [r4, #0]
   2f462:	42b3      	cmp	r3, r6
   2f464:	d1f4      	bne.n	2f450 <nvds_browse_tag+0xc>
   2f466:	2205      	movs	r2, #5
   2f468:	7863      	ldrb	r3, [r4, #1]
   2f46a:	4013      	ands	r3, r2
   2f46c:	2b04      	cmp	r3, #4
   2f46e:	d1ef      	bne.n	2f450 <nvds_browse_tag+0xc>
   2f470:	602f      	str	r7, [r5, #0]
   2f472:	bdfe      	pop	{r1, r2, r3, r4, r5, r6, r7, pc}
   2f474:	0007f004 	.word	0x0007f004

0002f478 <nvds_get>:
   2f478:	b573      	push	{r0, r1, r4, r5, r6, lr}
   2f47a:	000d      	movs	r5, r1
   2f47c:	0016      	movs	r6, r2
   2f47e:	4669      	mov	r1, sp
   2f480:	aa01      	add	r2, sp, #4
   2f482:	f7ff ffdf 	bl	2f444 <nvds_browse_tag>
   2f486:	1e04      	subs	r4, r0, #0
   2f488:	d10f      	bne.n	2f4aa <nvds_get+0x32>
   2f48a:	466b      	mov	r3, sp
   2f48c:	7899      	ldrb	r1, [r3, #2]
   2f48e:	782b      	ldrb	r3, [r5, #0]
   2f490:	428b      	cmp	r3, r1
   2f492:	d30c      	bcc.n	2f4ae <nvds_get+0x36>
   2f494:	9b01      	ldr	r3, [sp, #4]
   2f496:	0032      	movs	r2, r6
   2f498:	1cd8      	adds	r0, r3, #3
   2f49a:	4b06      	ldr	r3, [pc, #24]	; (2f4b4 <nvds_get+0x3c>)
   2f49c:	681b      	ldr	r3, [r3, #0]
   2f49e:	4798      	blx	r3
   2f4a0:	466b      	mov	r3, sp
   2f4a2:	789b      	ldrb	r3, [r3, #2]
   2f4a4:	702b      	strb	r3, [r5, #0]
   2f4a6:	0020      	movs	r0, r4
   2f4a8:	bd76      	pop	{r1, r2, r4, r5, r6, pc}
   2f4aa:	2300      	movs	r3, #0
   2f4ac:	e7fa      	b.n	2f4a4 <nvds_get+0x2c>
   2f4ae:	2404      	movs	r4, #4
   2f4b0:	e7f9      	b.n	2f4a6 <nvds_get+0x2e>
   2f4b2:	46c0      	nop			; (mov r8, r8)
   2f4b4:	00403064 	.word	0x00403064

0002f4b8 <nvds_del>:
   2f4b8:	b530      	push	{r4, r5, lr}
   2f4ba:	b085      	sub	sp, #20
   2f4bc:	ad02      	add	r5, sp, #8
   2f4be:	0029      	movs	r1, r5
   2f4c0:	aa03      	add	r2, sp, #12
   2f4c2:	f7ff ffbf 	bl	2f444 <nvds_browse_tag>
   2f4c6:	1e04      	subs	r4, r0, #0
   2f4c8:	d10d      	bne.n	2f4e6 <nvds_del+0x2e>
   2f4ca:	786b      	ldrb	r3, [r5, #1]
   2f4cc:	079a      	lsls	r2, r3, #30
   2f4ce:	d50d      	bpl.n	2f4ec <nvds_del+0x34>
   2f4d0:	466a      	mov	r2, sp
   2f4d2:	2104      	movs	r1, #4
   2f4d4:	3207      	adds	r2, #7
   2f4d6:	438b      	bics	r3, r1
   2f4d8:	7013      	strb	r3, [r2, #0]
   2f4da:	9b03      	ldr	r3, [sp, #12]
   2f4dc:	3903      	subs	r1, #3
   2f4de:	1c58      	adds	r0, r3, #1
   2f4e0:	4b03      	ldr	r3, [pc, #12]	; (2f4f0 <nvds_del+0x38>)
   2f4e2:	685b      	ldr	r3, [r3, #4]
   2f4e4:	4798      	blx	r3
   2f4e6:	0020      	movs	r0, r4
   2f4e8:	b005      	add	sp, #20
   2f4ea:	bd30      	pop	{r4, r5, pc}
   2f4ec:	2405      	movs	r4, #5
   2f4ee:	e7fa      	b.n	2f4e6 <nvds_del+0x2e>
   2f4f0:	00403064 	.word	0x00403064

0002f4f4 <nvds_init_memory>:
   2f4f4:	b570      	push	{r4, r5, r6, lr}
   2f4f6:	25fe      	movs	r5, #254	; 0xfe
   2f4f8:	4c05      	ldr	r4, [pc, #20]	; (2f510 <nvds_init_memory+0x1c>)
   2f4fa:	02ed      	lsls	r5, r5, #11
   2f4fc:	0028      	movs	r0, r5
   2f4fe:	6921      	ldr	r1, [r4, #16]
   2f500:	68a3      	ldr	r3, [r4, #8]
   2f502:	4798      	blx	r3
   2f504:	0028      	movs	r0, r5
   2f506:	2104      	movs	r1, #4
   2f508:	6863      	ldr	r3, [r4, #4]
   2f50a:	4a02      	ldr	r2, [pc, #8]	; (2f514 <nvds_init_memory+0x20>)
   2f50c:	4798      	blx	r3
   2f50e:	bd70      	pop	{r4, r5, r6, pc}
   2f510:	00403064 	.word	0x00403064
   2f514:	000445e0 	.word	0x000445e0

0002f518 <prf_itf_get>:
   2f518:	0603      	lsls	r3, r0, #24
   2f51a:	b500      	push	{lr}
   2f51c:	2000      	movs	r0, #0
   2f51e:	0e1b      	lsrs	r3, r3, #24
   2f520:	2b4c      	cmp	r3, #76	; 0x4c
   2f522:	d808      	bhi.n	2f536 <prf_itf_get+0x1e>
   2f524:	2b46      	cmp	r3, #70	; 0x46
   2f526:	d807      	bhi.n	2f538 <prf_itf_get+0x20>
   2f528:	480d      	ldr	r0, [pc, #52]	; (2f560 <prf_itf_get+0x48>)
   2f52a:	2b14      	cmp	r3, #20
   2f52c:	d003      	beq.n	2f536 <prf_itf_get+0x1e>
   2f52e:	2000      	movs	r0, #0
   2f530:	2b24      	cmp	r3, #36	; 0x24
   2f532:	d100      	bne.n	2f536 <prf_itf_get+0x1e>
   2f534:	480b      	ldr	r0, [pc, #44]	; (2f564 <prf_itf_get+0x4c>)
   2f536:	bd00      	pop	{pc}
   2f538:	3b47      	subs	r3, #71	; 0x47
   2f53a:	0018      	movs	r0, r3
   2f53c:	2b05      	cmp	r3, #5
   2f53e:	d806      	bhi.n	2f54e <prf_itf_get+0x36>
   2f540:	f7fe fd90 	bl	2e064 <__gnu_thumb1_case_uqi>
   2f544:	05090b03 	.word	0x05090b03
   2f548:	0705      	.short	0x0705
   2f54a:	4807      	ldr	r0, [pc, #28]	; (2f568 <prf_itf_get+0x50>)
   2f54c:	e7f3      	b.n	2f536 <prf_itf_get+0x1e>
   2f54e:	2000      	movs	r0, #0
   2f550:	e7f1      	b.n	2f536 <prf_itf_get+0x1e>
   2f552:	4806      	ldr	r0, [pc, #24]	; (2f56c <prf_itf_get+0x54>)
   2f554:	e7ef      	b.n	2f536 <prf_itf_get+0x1e>
   2f556:	4806      	ldr	r0, [pc, #24]	; (2f570 <prf_itf_get+0x58>)
   2f558:	e7ed      	b.n	2f536 <prf_itf_get+0x1e>
   2f55a:	4806      	ldr	r0, [pc, #24]	; (2f574 <prf_itf_get+0x5c>)
   2f55c:	e7eb      	b.n	2f536 <prf_itf_get+0x1e>
   2f55e:	46c0      	nop			; (mov r8, r8)
   2f560:	0004444c 	.word	0x0004444c
   2f564:	00044374 	.word	0x00044374
   2f568:	000445a0 	.word	0x000445a0
   2f56c:	0004466c 	.word	0x0004466c
   2f570:	0004462c 	.word	0x0004462c
   2f574:	000444f8 	.word	0x000444f8

0002f578 <prf_create>:
   2f578:	b570      	push	{r4, r5, r6, lr}
   2f57a:	4c09      	ldr	r4, [pc, #36]	; (2f5a0 <prf_create+0x28>)
   2f57c:	0005      	movs	r5, r0
   2f57e:	0026      	movs	r6, r4
   2f580:	3669      	adds	r6, #105	; 0x69
   2f582:	36ff      	adds	r6, #255	; 0xff
   2f584:	8a60      	ldrh	r0, [r4, #18]
   2f586:	f7ff ffc7 	bl	2f518 <prf_itf_get>
   2f58a:	2800      	cmp	r0, #0
   2f58c:	d003      	beq.n	2f596 <prf_create+0x1e>
   2f58e:	6883      	ldr	r3, [r0, #8]
   2f590:	0029      	movs	r1, r5
   2f592:	0020      	movs	r0, r4
   2f594:	4798      	blx	r3
   2f596:	3418      	adds	r4, #24
   2f598:	42b4      	cmp	r4, r6
   2f59a:	d1f3      	bne.n	2f584 <prf_create+0xc>
   2f59c:	bd70      	pop	{r4, r5, r6, pc}
   2f59e:	46c0      	nop			; (mov r8, r8)
   2f5a0:	004033a4 	.word	0x004033a4

0002f5a4 <prf_cleanup>:
   2f5a4:	b5f8      	push	{r3, r4, r5, r6, r7, lr}
   2f5a6:	4c0a      	ldr	r4, [pc, #40]	; (2f5d0 <prf_cleanup+0x2c>)
   2f5a8:	0005      	movs	r5, r0
   2f5aa:	0027      	movs	r7, r4
   2f5ac:	000e      	movs	r6, r1
   2f5ae:	3769      	adds	r7, #105	; 0x69
   2f5b0:	37ff      	adds	r7, #255	; 0xff
   2f5b2:	8a60      	ldrh	r0, [r4, #18]
   2f5b4:	f7ff ffb0 	bl	2f518 <prf_itf_get>
   2f5b8:	2800      	cmp	r0, #0
   2f5ba:	d004      	beq.n	2f5c6 <prf_cleanup+0x22>
   2f5bc:	68c3      	ldr	r3, [r0, #12]
   2f5be:	0032      	movs	r2, r6
   2f5c0:	0029      	movs	r1, r5
   2f5c2:	0020      	movs	r0, r4
   2f5c4:	4798      	blx	r3
   2f5c6:	3418      	adds	r4, #24
   2f5c8:	42bc      	cmp	r4, r7
   2f5ca:	d1f2      	bne.n	2f5b2 <prf_cleanup+0xe>
   2f5cc:	bdf8      	pop	{r3, r4, r5, r6, r7, pc}
   2f5ce:	46c0      	nop			; (mov r8, r8)
   2f5d0:	004033a4 	.word	0x004033a4

0002f5d4 <prf_env_get_from_handle>:
   2f5d4:	230f      	movs	r3, #15
   2f5d6:	b5f0      	push	{r4, r5, r6, r7, lr}
   2f5d8:	4c20      	ldr	r4, [pc, #128]	; (2f65c <prf_env_get_from_handle+0x88>)
   2f5da:	b085      	sub	sp, #20
   2f5dc:	9003      	str	r0, [sp, #12]
   2f5de:	9101      	str	r1, [sp, #4]
   2f5e0:	7d22      	ldrb	r2, [r4, #20]
   2f5e2:	2a01      	cmp	r2, #1
   2f5e4:	d115      	bne.n	2f612 <prf_env_get_from_handle+0x3e>
   2f5e6:	68e0      	ldr	r0, [r4, #12]
   2f5e8:	9d03      	ldr	r5, [sp, #12]
   2f5ea:	7902      	ldrb	r2, [r0, #4]
   2f5ec:	42aa      	cmp	r2, r5
   2f5ee:	d110      	bne.n	2f612 <prf_env_get_from_handle+0x3e>
   2f5f0:	2600      	movs	r6, #0
   2f5f2:	68c2      	ldr	r2, [r0, #12]
   2f5f4:	6852      	ldr	r2, [r2, #4]
   2f5f6:	7e15      	ldrb	r5, [r2, #24]
   2f5f8:	9502      	str	r5, [sp, #8]
   2f5fa:	9902      	ldr	r1, [sp, #8]
   2f5fc:	0635      	lsls	r5, r6, #24
   2f5fe:	0e2d      	lsrs	r5, r5, #24
   2f600:	42a9      	cmp	r1, r5
   2f602:	d80e      	bhi.n	2f622 <prf_env_get_from_handle+0x4e>
   2f604:	7e91      	ldrb	r1, [r2, #26]
   2f606:	2600      	movs	r6, #0
   2f608:	468c      	mov	ip, r1
   2f60a:	0635      	lsls	r5, r6, #24
   2f60c:	0e2d      	lsrs	r5, r5, #24
   2f60e:	45ac      	cmp	ip, r5
   2f610:	d819      	bhi.n	2f646 <prf_env_get_from_handle+0x72>
   2f612:	3b01      	subs	r3, #1
   2f614:	061b      	lsls	r3, r3, #24
   2f616:	0e1b      	lsrs	r3, r3, #24
   2f618:	3418      	adds	r4, #24
   2f61a:	2b00      	cmp	r3, #0
   2f61c:	d1e0      	bne.n	2f5e0 <prf_env_get_from_handle+0xc>
   2f61e:	0018      	movs	r0, r3
   2f620:	e009      	b.n	2f636 <prf_env_get_from_handle+0x62>
   2f622:	2718      	movs	r7, #24
   2f624:	4377      	muls	r7, r6
   2f626:	69d1      	ldr	r1, [r2, #28]
   2f628:	19cf      	adds	r7, r1, r7
   2f62a:	8a79      	ldrh	r1, [r7, #18]
   2f62c:	468c      	mov	ip, r1
   2f62e:	9901      	ldr	r1, [sp, #4]
   2f630:	458c      	cmp	ip, r1
   2f632:	d102      	bne.n	2f63a <prf_env_get_from_handle+0x66>
   2f634:	7655      	strb	r5, [r2, #25]
   2f636:	b005      	add	sp, #20
   2f638:	bdf0      	pop	{r4, r5, r6, r7, pc}
   2f63a:	8abf      	ldrh	r7, [r7, #20]
   2f63c:	9901      	ldr	r1, [sp, #4]
   2f63e:	3601      	adds	r6, #1
   2f640:	428f      	cmp	r7, r1
   2f642:	d1da      	bne.n	2f5fa <prf_env_get_from_handle+0x26>
   2f644:	e7f6      	b.n	2f634 <prf_env_get_from_handle+0x60>
   2f646:	2714      	movs	r7, #20
   2f648:	4377      	muls	r7, r6
   2f64a:	6a11      	ldr	r1, [r2, #32]
   2f64c:	3601      	adds	r6, #1
   2f64e:	19cf      	adds	r7, r1, r7
   2f650:	8a7f      	ldrh	r7, [r7, #18]
   2f652:	9901      	ldr	r1, [sp, #4]
   2f654:	428f      	cmp	r7, r1
   2f656:	d1d8      	bne.n	2f60a <prf_env_get_from_handle+0x36>
   2f658:	e7ec      	b.n	2f634 <prf_env_get_from_handle+0x60>
   2f65a:	46c0      	nop			; (mov r8, r8)
   2f65c:	004033a4 	.word	0x004033a4

0002f660 <cpu_reset>:
   2f660:	2380      	movs	r3, #128	; 0x80
   2f662:	4a05      	ldr	r2, [pc, #20]	; (2f678 <cpu_reset+0x18>)
   2f664:	021b      	lsls	r3, r3, #8
   2f666:	6811      	ldr	r1, [r2, #0]
   2f668:	430b      	orrs	r3, r1
   2f66a:	6013      	str	r3, [r2, #0]
   2f66c:	2301      	movs	r3, #1
   2f66e:	4a03      	ldr	r2, [pc, #12]	; (2f67c <cpu_reset+0x1c>)
   2f670:	6811      	ldr	r1, [r2, #0]
   2f672:	430b      	orrs	r3, r1
   2f674:	6013      	str	r3, [r2, #0]
   2f676:	4770      	bx	lr
   2f678:	00800804 	.word	0x00800804
   2f67c:	00800800 	.word	0x00800800

0002f680 <uart_flow_off>:
   2f680:	2001      	movs	r0, #1
   2f682:	4770      	bx	lr

0002f684 <uart_read>:
   2f684:	b510      	push	{r4, lr}
   2f686:	4c04      	ldr	r4, [pc, #16]	; (2f698 <uart_read+0x14>)
   2f688:	60a2      	str	r2, [r4, #8]
   2f68a:	60e3      	str	r3, [r4, #12]
   2f68c:	2301      	movs	r3, #1
   2f68e:	61a0      	str	r0, [r4, #24]
   2f690:	6221      	str	r1, [r4, #32]
   2f692:	3406      	adds	r4, #6
   2f694:	77e3      	strb	r3, [r4, #31]
   2f696:	bd10      	pop	{r4, pc}
   2f698:	004080b0 	.word	0x004080b0

0002f69c <uart_write>:
   2f69c:	b510      	push	{r4, lr}
   2f69e:	4c04      	ldr	r4, [pc, #16]	; (2f6b0 <uart_write+0x14>)
   2f6a0:	6022      	str	r2, [r4, #0]
   2f6a2:	6063      	str	r3, [r4, #4]
   2f6a4:	2301      	movs	r3, #1
   2f6a6:	6160      	str	r0, [r4, #20]
   2f6a8:	61e1      	str	r1, [r4, #28]
   2f6aa:	3405      	adds	r4, #5
   2f6ac:	77e3      	strb	r3, [r4, #31]
   2f6ae:	bd10      	pop	{r4, pc}
   2f6b0:	004080b0 	.word	0x004080b0

0002f6b4 <rf_reset>:
   2f6b4:	4770      	bx	lr

0002f6b6 <bass_create>:
   2f6b6:	2200      	movs	r2, #0
   2f6b8:	68c3      	ldr	r3, [r0, #12]
   2f6ba:	185b      	adds	r3, r3, r1
   2f6bc:	775a      	strb	r2, [r3, #29]
   2f6be:	4770      	bx	lr

0002f6c0 <bass_cleanup>:
   2f6c0:	2200      	movs	r2, #0
   2f6c2:	68c3      	ldr	r3, [r0, #12]
   2f6c4:	185b      	adds	r3, r3, r1
   2f6c6:	775a      	strb	r2, [r3, #29]
   2f6c8:	4770      	bx	lr

0002f6ca <diss_create>:
   2f6ca:	4770      	bx	lr

0002f6cc <diss_cleanup>:
   2f6cc:	4770      	bx	lr

0002f6ce <diss_value_to_handle>:
   2f6ce:	b530      	push	{r4, r5, lr}
   2f6d0:	2200      	movs	r2, #0
   2f6d2:	2401      	movs	r4, #1
   2f6d4:	8983      	ldrh	r3, [r0, #12]
   2f6d6:	89c0      	ldrh	r0, [r0, #14]
   2f6d8:	3301      	adds	r3, #1
   2f6da:	041b      	lsls	r3, r3, #16
   2f6dc:	0c1b      	lsrs	r3, r3, #16
   2f6de:	0005      	movs	r5, r0
   2f6e0:	4115      	asrs	r5, r2
   2f6e2:	4225      	tst	r5, r4
   2f6e4:	d008      	beq.n	2f6f8 <diss_value_to_handle+0x2a>
   2f6e6:	428a      	cmp	r2, r1
   2f6e8:	d103      	bne.n	2f6f2 <diss_value_to_handle+0x24>
   2f6ea:	3301      	adds	r3, #1
   2f6ec:	0418      	lsls	r0, r3, #16
   2f6ee:	0c00      	lsrs	r0, r0, #16
   2f6f0:	bd30      	pop	{r4, r5, pc}
   2f6f2:	3302      	adds	r3, #2
   2f6f4:	041b      	lsls	r3, r3, #16
   2f6f6:	0c1b      	lsrs	r3, r3, #16
   2f6f8:	3201      	adds	r2, #1
   2f6fa:	2a09      	cmp	r2, #9
   2f6fc:	d1ef      	bne.n	2f6de <diss_value_to_handle+0x10>
   2f6fe:	2000      	movs	r0, #0
   2f700:	e7f6      	b.n	2f6f0 <diss_value_to_handle+0x22>
	...

0002f704 <fee0s_create>:
   2f704:	4a03      	ldr	r2, [pc, #12]	; (2f714 <fee0s_create+0x10>)
   2f706:	68c3      	ldr	r3, [r0, #12]
   2f708:	1889      	adds	r1, r1, r2
   2f70a:	0049      	lsls	r1, r1, #1
   2f70c:	1859      	adds	r1, r3, r1
   2f70e:	2300      	movs	r3, #0
   2f710:	808b      	strh	r3, [r1, #4]
   2f712:	4770      	bx	lr
   2f714:	00000764 	.word	0x00000764

0002f718 <fee0s_cleanup>:
   2f718:	4a03      	ldr	r2, [pc, #12]	; (2f728 <fee0s_cleanup+0x10>)
   2f71a:	68c3      	ldr	r3, [r0, #12]
   2f71c:	1889      	adds	r1, r1, r2
   2f71e:	0049      	lsls	r1, r1, #1
   2f720:	1859      	adds	r1, r3, r1
   2f722:	2300      	movs	r3, #0
   2f724:	808b      	strh	r3, [r1, #4]
   2f726:	4770      	bx	lr
   2f728:	00000764 	.word	0x00000764

0002f72c <fcc0s_create>:
   2f72c:	68c3      	ldr	r3, [r0, #12]
   2f72e:	3188      	adds	r1, #136	; 0x88
   2f730:	0049      	lsls	r1, r1, #1
   2f732:	1859      	adds	r1, r3, r1
   2f734:	2300      	movs	r3, #0
   2f736:	808b      	strh	r3, [r1, #4]
   2f738:	4770      	bx	lr

0002f73a <fcc0s_cleanup>:
   2f73a:	68c3      	ldr	r3, [r0, #12]
   2f73c:	3188      	adds	r1, #136	; 0x88
   2f73e:	0049      	lsls	r1, r1, #1
   2f740:	1859      	adds	r1, r3, r1
   2f742:	2300      	movs	r3, #0
   2f744:	808b      	strh	r3, [r1, #4]
   2f746:	4770      	bx	lr

0002f748 <oads_create>:
   2f748:	68c2      	ldr	r2, [r0, #12]
   2f74a:	2000      	movs	r0, #0
   2f74c:	1853      	adds	r3, r2, r1
   2f74e:	3120      	adds	r1, #32
   2f750:	333d      	adds	r3, #61	; 0x3d
   2f752:	0049      	lsls	r1, r1, #1
   2f754:	7018      	strb	r0, [r3, #0]
   2f756:	5288      	strh	r0, [r1, r2]
   2f758:	4770      	bx	lr

0002f75a <oads_cleanup>:
   2f75a:	68c2      	ldr	r2, [r0, #12]
   2f75c:	2000      	movs	r0, #0
   2f75e:	1853      	adds	r3, r2, r1
   2f760:	3120      	adds	r1, #32
   2f762:	333d      	adds	r3, #61	; 0x3d
   2f764:	0049      	lsls	r1, r1, #1
   2f766:	7018      	strb	r0, [r3, #0]
   2f768:	5288      	strh	r0, [r1, r2]
   2f76a:	4770      	bx	lr

0002f76c <sdp_enable_req_handler>:
   2f76c:	2000      	movs	r0, #0
   2f76e:	4770      	bx	lr

0002f770 <nvds_write>:
   2f770:	b510      	push	{r4, lr}
   2f772:	f00a fad7 	bl	39d24 <flash_write.constprop.0.isra.0>
   2f776:	bd10      	pop	{r4, pc}

0002f778 <bass_destroy>:
   2f778:	b570      	push	{r4, r5, r6, lr}
   2f77a:	68c5      	ldr	r5, [r0, #12]
   2f77c:	0004      	movs	r4, r0
   2f77e:	6968      	ldr	r0, [r5, #20]
   2f780:	2800      	cmp	r0, #0
   2f782:	d001      	beq.n	2f788 <bass_destroy+0x10>
   2f784:	f7f7 f8d4 	bl	26930 <ke_free>
   2f788:	2300      	movs	r3, #0
   2f78a:	0028      	movs	r0, r5
   2f78c:	60e3      	str	r3, [r4, #12]
   2f78e:	f7f7 f8cf 	bl	26930 <ke_free>
   2f792:	bd70      	pop	{r4, r5, r6, pc}

0002f794 <fee0s_destroy>:
   2f794:	b570      	push	{r4, r5, r6, lr}
   2f796:	68c5      	ldr	r5, [r0, #12]
   2f798:	0004      	movs	r4, r0
   2f79a:	6868      	ldr	r0, [r5, #4]
   2f79c:	2800      	cmp	r0, #0
   2f79e:	d001      	beq.n	2f7a4 <fee0s_destroy+0x10>
   2f7a0:	f7f7 f8c6 	bl	26930 <ke_free>
   2f7a4:	2300      	movs	r3, #0
   2f7a6:	0028      	movs	r0, r5
   2f7a8:	60e3      	str	r3, [r4, #12]
   2f7aa:	f7f7 f8c1 	bl	26930 <ke_free>
   2f7ae:	bd70      	pop	{r4, r5, r6, pc}

0002f7b0 <fcc0s_destroy>:
   2f7b0:	b570      	push	{r4, r5, r6, lr}
   2f7b2:	68c5      	ldr	r5, [r0, #12]
   2f7b4:	0004      	movs	r4, r0
   2f7b6:	6868      	ldr	r0, [r5, #4]
   2f7b8:	2800      	cmp	r0, #0
   2f7ba:	d001      	beq.n	2f7c0 <fcc0s_destroy+0x10>
   2f7bc:	f7f7 f8b8 	bl	26930 <ke_free>
   2f7c0:	2300      	movs	r3, #0
   2f7c2:	0028      	movs	r0, r5
   2f7c4:	60e3      	str	r3, [r4, #12]
   2f7c6:	f7f7 f8b3 	bl	26930 <ke_free>
   2f7ca:	bd70      	pop	{r4, r5, r6, pc}

0002f7cc <oads_destroy>:
   2f7cc:	b570      	push	{r4, r5, r6, lr}
   2f7ce:	68c5      	ldr	r5, [r0, #12]
   2f7d0:	0004      	movs	r4, r0
   2f7d2:	6868      	ldr	r0, [r5, #4]
   2f7d4:	2800      	cmp	r0, #0
   2f7d6:	d001      	beq.n	2f7dc <oads_destroy+0x10>
   2f7d8:	f7f7 f8aa 	bl	26930 <ke_free>
   2f7dc:	2300      	movs	r3, #0
   2f7de:	0028      	movs	r0, r5
   2f7e0:	60e3      	str	r3, [r4, #12]
   2f7e2:	f7f7 f8a5 	bl	26930 <ke_free>
   2f7e6:	bd70      	pop	{r4, r5, r6, pc}

0002f7e8 <gapm_gen_rand_nb_ind_handler>:
   2f7e8:	4808      	ldr	r0, [pc, #32]	; (2f80c <gapm_gen_rand_nb_ind_handler+0x24>)
   2f7ea:	b510      	push	{r4, lr}
   2f7ec:	0003      	movs	r3, r0
   2f7ee:	3340      	adds	r3, #64	; 0x40
   2f7f0:	781b      	ldrb	r3, [r3, #0]
   2f7f2:	2b01      	cmp	r3, #1
   2f7f4:	d105      	bne.n	2f802 <gapm_gen_rand_nb_ind_handler+0x1a>
   2f7f6:	302f      	adds	r0, #47	; 0x2f
   2f7f8:	2208      	movs	r2, #8
   2f7fa:	f00a fd33 	bl	3a264 <memcpy>
   2f7fe:	2000      	movs	r0, #0
   2f800:	bd10      	pop	{r4, pc}
   2f802:	2b02      	cmp	r3, #2
   2f804:	d1fb      	bne.n	2f7fe <gapm_gen_rand_nb_ind_handler+0x16>
   2f806:	3037      	adds	r0, #55	; 0x37
   2f808:	e7f6      	b.n	2f7f8 <gapm_gen_rand_nb_ind_handler+0x10>
   2f80a:	46c0      	nop			; (mov r8, r8)
   2f80c:	00402de6 	.word	0x00402de6

0002f810 <oad_save_reciveData>:
   2f810:	b510      	push	{r4, lr}
   2f812:	4c07      	ldr	r4, [pc, #28]	; (2f830 <oad_save_reciveData+0x20>)
   2f814:	1c81      	adds	r1, r0, #2
   2f816:	69a3      	ldr	r3, [r4, #24]
   2f818:	1c5a      	adds	r2, r3, #1
   2f81a:	011b      	lsls	r3, r3, #4
   2f81c:	331e      	adds	r3, #30
   2f81e:	191b      	adds	r3, r3, r4
   2f820:	61a2      	str	r2, [r4, #24]
   2f822:	0018      	movs	r0, r3
   2f824:	2210      	movs	r2, #16
   2f826:	f00a fd1d 	bl	3a264 <memcpy>
   2f82a:	2301      	movs	r3, #1
   2f82c:	7723      	strb	r3, [r4, #28]
   2f82e:	bd10      	pop	{r4, pc}
   2f830:	00402e70 	.word	0x00402e70

0002f834 <nvds_put>:
   2f834:	b5f0      	push	{r4, r5, r6, r7, lr}
   2f836:	4c50      	ldr	r4, [pc, #320]	; (2f978 <nvds_put+0x144>)
   2f838:	4b50      	ldr	r3, [pc, #320]	; (2f97c <nvds_put+0x148>)
   2f83a:	44a5      	add	sp, r4
   2f83c:	9308      	str	r3, [sp, #32]
   2f83e:	2300      	movs	r3, #0
   2f840:	9002      	str	r0, [sp, #8]
   2f842:	9100      	str	r1, [sp, #0]
   2f844:	9203      	str	r2, [sp, #12]
   2f846:	9301      	str	r3, [sp, #4]
   2f848:	9c08      	ldr	r4, [sp, #32]
   2f84a:	ae06      	add	r6, sp, #24
   2f84c:	0031      	movs	r1, r6
   2f84e:	0020      	movs	r0, r4
   2f850:	aa08      	add	r2, sp, #32
   2f852:	f7ff fdd9 	bl	2f408 <nvds_walk_tag>
   2f856:	1e05      	subs	r5, r0, #0
   2f858:	d15e      	bne.n	2f918 <nvds_put+0xe4>
   2f85a:	2205      	movs	r2, #5
   2f85c:	7873      	ldrb	r3, [r6, #1]
   2f85e:	401a      	ands	r2, r3
   2f860:	2a04      	cmp	r2, #4
   2f862:	d1f1      	bne.n	2f848 <nvds_put+0x14>
   2f864:	7832      	ldrb	r2, [r6, #0]
   2f866:	9902      	ldr	r1, [sp, #8]
   2f868:	428a      	cmp	r2, r1
   2f86a:	d11e      	bne.n	2f8aa <nvds_put+0x76>
   2f86c:	2202      	movs	r2, #2
   2f86e:	4213      	tst	r3, r2
   2f870:	d020      	beq.n	2f8b4 <nvds_put+0x80>
   2f872:	4f43      	ldr	r7, [pc, #268]	; (2f980 <nvds_put+0x14c>)
   2f874:	aa0a      	add	r2, sp, #40	; 0x28
   2f876:	683b      	ldr	r3, [r7, #0]
   2f878:	78b1      	ldrb	r1, [r6, #2]
   2f87a:	1ce0      	adds	r0, r4, #3
   2f87c:	4798      	blx	r3
   2f87e:	78b3      	ldrb	r3, [r6, #2]
   2f880:	9a00      	ldr	r2, [sp, #0]
   2f882:	4293      	cmp	r3, r2
   2f884:	d105      	bne.n	2f892 <nvds_put+0x5e>
   2f886:	9803      	ldr	r0, [sp, #12]
   2f888:	a90a      	add	r1, sp, #40	; 0x28
   2f88a:	f7fa feab 	bl	2a5e4 <memcmp>
   2f88e:	2800      	cmp	r0, #0
   2f890:	d03d      	beq.n	2f90e <nvds_put+0xda>
   2f892:	2104      	movs	r1, #4
   2f894:	ab04      	add	r3, sp, #16
   2f896:	1dda      	adds	r2, r3, #7
   2f898:	ab06      	add	r3, sp, #24
   2f89a:	785b      	ldrb	r3, [r3, #1]
   2f89c:	1c60      	adds	r0, r4, #1
   2f89e:	438b      	bics	r3, r1
   2f8a0:	7013      	strb	r3, [r2, #0]
   2f8a2:	3903      	subs	r1, #3
   2f8a4:	687b      	ldr	r3, [r7, #4]
   2f8a6:	4798      	blx	r3
   2f8a8:	e7ce      	b.n	2f848 <nvds_put+0x14>
   2f8aa:	78b3      	ldrb	r3, [r6, #2]
   2f8ac:	9a01      	ldr	r2, [sp, #4]
   2f8ae:	3303      	adds	r3, #3
   2f8b0:	18d3      	adds	r3, r2, r3
   2f8b2:	e7c8      	b.n	2f846 <nvds_put+0x12>
   2f8b4:	2505      	movs	r5, #5
   2f8b6:	e02a      	b.n	2f90e <nvds_put+0xda>
   2f8b8:	f7ff fe1c 	bl	2f4f4 <nvds_init_memory>
   2f8bc:	4d30      	ldr	r5, [pc, #192]	; (2f980 <nvds_put+0x14c>)
   2f8be:	aa4a      	add	r2, sp, #296	; 0x128
   2f8c0:	686b      	ldr	r3, [r5, #4]
   2f8c2:	0031      	movs	r1, r6
   2f8c4:	482d      	ldr	r0, [pc, #180]	; (2f97c <nvds_put+0x148>)
   2f8c6:	4798      	blx	r3
   2f8c8:	4a2c      	ldr	r2, [pc, #176]	; (2f97c <nvds_put+0x148>)
   2f8ca:	9b01      	ldr	r3, [sp, #4]
   2f8cc:	4694      	mov	ip, r2
   2f8ce:	4463      	add	r3, ip
   2f8d0:	001c      	movs	r4, r3
   2f8d2:	4a2c      	ldr	r2, [pc, #176]	; (2f984 <nvds_put+0x150>)
   2f8d4:	9b00      	ldr	r3, [sp, #0]
   2f8d6:	189a      	adds	r2, r3, r2
   2f8d8:	692b      	ldr	r3, [r5, #16]
   2f8da:	1912      	adds	r2, r2, r4
   2f8dc:	3b01      	subs	r3, #1
   2f8de:	2503      	movs	r5, #3
   2f8e0:	429a      	cmp	r2, r3
   2f8e2:	d814      	bhi.n	2f90e <nvds_put+0xda>
   2f8e4:	4d26      	ldr	r5, [pc, #152]	; (2f980 <nvds_put+0x14c>)
   2f8e6:	9a03      	ldr	r2, [sp, #12]
   2f8e8:	686b      	ldr	r3, [r5, #4]
   2f8ea:	9900      	ldr	r1, [sp, #0]
   2f8ec:	1ce0      	adds	r0, r4, #3
   2f8ee:	4798      	blx	r3
   2f8f0:	9a02      	ldr	r2, [sp, #8]
   2f8f2:	ab04      	add	r3, sp, #16
   2f8f4:	721a      	strb	r2, [r3, #8]
   2f8f6:	2306      	movs	r3, #6
   2f8f8:	aa04      	add	r2, sp, #16
   2f8fa:	7253      	strb	r3, [r2, #9]
   2f8fc:	0013      	movs	r3, r2
   2f8fe:	9a00      	ldr	r2, [sp, #0]
   2f900:	2103      	movs	r1, #3
   2f902:	729a      	strb	r2, [r3, #10]
   2f904:	0020      	movs	r0, r4
   2f906:	686b      	ldr	r3, [r5, #4]
   2f908:	aa06      	add	r2, sp, #24
   2f90a:	4798      	blx	r3
   2f90c:	2500      	movs	r5, #0
   2f90e:	0028      	movs	r0, r5
   2f910:	23cb      	movs	r3, #203	; 0xcb
   2f912:	009b      	lsls	r3, r3, #2
   2f914:	449d      	add	sp, r3
   2f916:	bdf0      	pop	{r4, r5, r6, r7, pc}
   2f918:	9b00      	ldr	r3, [sp, #0]
   2f91a:	4a1b      	ldr	r2, [pc, #108]	; (2f988 <nvds_put+0x154>)
   2f91c:	189a      	adds	r2, r3, r2
   2f91e:	4b18      	ldr	r3, [pc, #96]	; (2f980 <nvds_put+0x14c>)
   2f920:	1912      	adds	r2, r2, r4
   2f922:	691b      	ldr	r3, [r3, #16]
   2f924:	3b01      	subs	r3, #1
   2f926:	429a      	cmp	r2, r3
   2f928:	d9dc      	bls.n	2f8e4 <nvds_put+0xb0>
   2f92a:	2600      	movs	r6, #0
   2f92c:	4b13      	ldr	r3, [pc, #76]	; (2f97c <nvds_put+0x148>)
   2f92e:	ac4a      	add	r4, sp, #296	; 0x128
   2f930:	9309      	str	r3, [sp, #36]	; 0x24
   2f932:	9d09      	ldr	r5, [sp, #36]	; 0x24
   2f934:	aa09      	add	r2, sp, #36	; 0x24
   2f936:	0028      	movs	r0, r5
   2f938:	a907      	add	r1, sp, #28
   2f93a:	f7ff fd65 	bl	2f408 <nvds_walk_tag>
   2f93e:	2800      	cmp	r0, #0
   2f940:	d1ba      	bne.n	2f8b8 <nvds_put+0x84>
   2f942:	2205      	movs	r2, #5
   2f944:	ab04      	add	r3, sp, #16
   2f946:	7b5b      	ldrb	r3, [r3, #13]
   2f948:	4013      	ands	r3, r2
   2f94a:	2b04      	cmp	r3, #4
   2f94c:	d1f1      	bne.n	2f932 <nvds_put+0xfe>
   2f94e:	ab04      	add	r3, sp, #16
   2f950:	7b9f      	ldrb	r7, [r3, #14]
   2f952:	0020      	movs	r0, r4
   2f954:	1cfb      	adds	r3, r7, #3
   2f956:	3a02      	subs	r2, #2
   2f958:	a907      	add	r1, sp, #28
   2f95a:	18f6      	adds	r6, r6, r3
   2f95c:	f00a fc82 	bl	3a264 <memcpy>
   2f960:	4b07      	ldr	r3, [pc, #28]	; (2f980 <nvds_put+0x14c>)
   2f962:	3403      	adds	r4, #3
   2f964:	0022      	movs	r2, r4
   2f966:	681b      	ldr	r3, [r3, #0]
   2f968:	0039      	movs	r1, r7
   2f96a:	1ce8      	adds	r0, r5, #3
   2f96c:	4798      	blx	r3
   2f96e:	ab04      	add	r3, sp, #16
   2f970:	7b9b      	ldrb	r3, [r3, #14]
   2f972:	18e4      	adds	r4, r4, r3
   2f974:	e7dd      	b.n	2f932 <nvds_put+0xfe>
   2f976:	46c0      	nop			; (mov r8, r8)
   2f978:	fffffcd4 	.word	0xfffffcd4
   2f97c:	0007f004 	.word	0x0007f004
   2f980:	00403064 	.word	0x00403064
   2f984:	fff81003 	.word	0xfff81003
   2f988:	fff81006 	.word	0xfff81006

0002f98c <fee4_val_upd_rsp_handler>:
   2f98c:	b510      	push	{r4, lr}
   2f98e:	7849      	ldrb	r1, [r1, #1]
   2f990:	0010      	movs	r0, r2
   2f992:	2900      	cmp	r1, #0
   2f994:	d101      	bne.n	2f99a <fee4_val_upd_rsp_handler+0xe>
   2f996:	f7f7 fdc3 	bl	27520 <ke_state_set>
   2f99a:	2000      	movs	r0, #0
   2f99c:	bd10      	pop	{r4, pc}

0002f99e <sdp_create>:
   2f99e:	b510      	push	{r4, lr}
   2f9a0:	8a00      	ldrh	r0, [r0, #16]
   2f9a2:	0209      	lsls	r1, r1, #8
   2f9a4:	4308      	orrs	r0, r1
   2f9a6:	2101      	movs	r1, #1
   2f9a8:	f7f7 fdba 	bl	27520 <ke_state_set>
   2f9ac:	bd10      	pop	{r4, pc}
	...

0002f9b0 <app_batt_add_bas>:
   2f9b0:	b510      	push	{r4, lr}
   2f9b2:	2320      	movs	r3, #32
   2f9b4:	2203      	movs	r2, #3
   2f9b6:	2107      	movs	r1, #7
   2f9b8:	4806      	ldr	r0, [pc, #24]	; (2f9d4 <app_batt_add_bas+0x24>)
   2f9ba:	f7f7 f8f9 	bl	26bb0 <ke_msg_alloc>
   2f9be:	4b06      	ldr	r3, [pc, #24]	; (2f9d8 <app_batt_add_bas+0x28>)
   2f9c0:	6003      	str	r3, [r0, #0]
   2f9c2:	2303      	movs	r3, #3
   2f9c4:	6043      	str	r3, [r0, #4]
   2f9c6:	2302      	movs	r3, #2
   2f9c8:	33ff      	adds	r3, #255	; 0xff
   2f9ca:	8183      	strh	r3, [r0, #12]
   2f9cc:	f7f7 f90a 	bl	26be4 <ke_msg_send>
   2f9d0:	bd10      	pop	{r4, pc}
   2f9d2:	46c0      	nop			; (mov r8, r8)
   2f9d4:	00000d1b 	.word	0x00000d1b
   2f9d8:	0024001b 	.word	0x0024001b

0002f9dc <diss_value_req_ind_handler>:
   2f9dc:	b5f8      	push	{r3, r4, r5, r6, r7, lr}
   2f9de:	000e      	movs	r6, r1
   2f9e0:	2700      	movs	r7, #0
   2f9e2:	7830      	ldrb	r0, [r6, #0]
   2f9e4:	0019      	movs	r1, r3
   2f9e6:	003d      	movs	r5, r7
   2f9e8:	2808      	cmp	r0, #8
   2f9ea:	d804      	bhi.n	2f9f6 <diss_value_req_ind_handler+0x1a>
   2f9ec:	4b0d      	ldr	r3, [pc, #52]	; (2fa24 <diss_value_req_ind_handler+0x48>)
   2f9ee:	5c1d      	ldrb	r5, [r3, r0]
   2f9f0:	4b0d      	ldr	r3, [pc, #52]	; (2fa28 <diss_value_req_ind_handler+0x4c>)
   2f9f2:	0080      	lsls	r0, r0, #2
   2f9f4:	58c7      	ldr	r7, [r0, r3]
   2f9f6:	1cab      	adds	r3, r5, #2
   2f9f8:	061b      	lsls	r3, r3, #24
   2f9fa:	0e1b      	lsrs	r3, r3, #24
   2f9fc:	480b      	ldr	r0, [pc, #44]	; (2fa2c <diss_value_req_ind_handler+0x50>)
   2f9fe:	f7f7 f8d7 	bl	26bb0 <ke_msg_alloc>
   2fa02:	7833      	ldrb	r3, [r6, #0]
   2fa04:	0004      	movs	r4, r0
   2fa06:	7003      	strb	r3, [r0, #0]
   2fa08:	7045      	strb	r5, [r0, #1]
   2fa0a:	2d00      	cmp	r5, #0
   2fa0c:	d004      	beq.n	2fa18 <diss_value_req_ind_handler+0x3c>
   2fa0e:	002a      	movs	r2, r5
   2fa10:	0039      	movs	r1, r7
   2fa12:	3002      	adds	r0, #2
   2fa14:	f00a fc26 	bl	3a264 <memcpy>
   2fa18:	0020      	movs	r0, r4
   2fa1a:	f7f7 f8e3 	bl	26be4 <ke_msg_send>
   2fa1e:	2000      	movs	r0, #0
   2fa20:	bdf8      	pop	{r3, r4, r5, r6, r7, pc}
   2fa22:	46c0      	nop			; (mov r8, r8)
   2fa24:	000438f8 	.word	0x000438f8
   2fa28:	00043904 	.word	0x00043904
   2fa2c:	00001403 	.word	0x00001403

0002fa30 <app_dis_add_dis>:
   2fa30:	b510      	push	{r4, lr}
   2fa32:	230e      	movs	r3, #14
   2fa34:	2203      	movs	r2, #3
   2fa36:	2107      	movs	r1, #7
   2fa38:	4805      	ldr	r0, [pc, #20]	; (2fa50 <app_dis_add_dis+0x20>)
   2fa3a:	f7f7 f8b9 	bl	26bb0 <ke_msg_alloc>
   2fa3e:	4b05      	ldr	r3, [pc, #20]	; (2fa54 <app_dis_add_dis+0x24>)
   2fa40:	6003      	str	r3, [r0, #0]
   2fa42:	2303      	movs	r3, #3
   2fa44:	6043      	str	r3, [r0, #4]
   2fa46:	4b04      	ldr	r3, [pc, #16]	; (2fa58 <app_dis_add_dis+0x28>)
   2fa48:	8183      	strh	r3, [r0, #12]
   2fa4a:	f7f7 f8cb 	bl	26be4 <ke_msg_send>
   2fa4e:	bd10      	pop	{r4, pc}
   2fa50:	00000d1b 	.word	0x00000d1b
   2fa54:	0014001b 	.word	0x0014001b
   2fa58:	000001ff 	.word	0x000001ff

0002fa5c <gapc_get_dev_info_req_ind_handler>:
   2fa5c:	b570      	push	{r4, r5, r6, lr}
   2fa5e:	000c      	movs	r4, r1
   2fa60:	0019      	movs	r1, r3
   2fa62:	7823      	ldrb	r3, [r4, #0]
   2fa64:	2b01      	cmp	r3, #1
   2fa66:	d018      	beq.n	2fa9a <gapc_get_dev_info_req_ind_handler+0x3e>
   2fa68:	2b02      	cmp	r3, #2
   2fa6a:	d01f      	beq.n	2faac <gapc_get_dev_info_req_ind_handler+0x50>
   2fa6c:	2b00      	cmp	r3, #0
   2fa6e:	d112      	bne.n	2fa96 <gapc_get_dev_info_req_ind_handler+0x3a>
   2fa70:	331c      	adds	r3, #28
   2fa72:	4816      	ldr	r0, [pc, #88]	; (2facc <gapc_get_dev_info_req_ind_handler+0x70>)
   2fa74:	f7f7 f89c 	bl	26bb0 <ke_msg_alloc>
   2fa78:	7823      	ldrb	r3, [r4, #0]
   2fa7a:	4c15      	ldr	r4, [pc, #84]	; (2fad0 <gapc_get_dev_info_req_ind_handler+0x74>)
   2fa7c:	0005      	movs	r5, r0
   2fa7e:	0021      	movs	r1, r4
   2fa80:	7003      	strb	r3, [r0, #0]
   2fa82:	7f22      	ldrb	r2, [r4, #28]
   2fa84:	3004      	adds	r0, #4
   2fa86:	311d      	adds	r1, #29
   2fa88:	f00a fbec 	bl	3a264 <memcpy>
   2fa8c:	0028      	movs	r0, r5
   2fa8e:	7f23      	ldrb	r3, [r4, #28]
   2fa90:	806b      	strh	r3, [r5, #2]
   2fa92:	f7f7 f8a7 	bl	26be4 <ke_msg_send>
   2fa96:	2000      	movs	r0, #0
   2fa98:	bd70      	pop	{r4, r5, r6, pc}
   2fa9a:	230a      	movs	r3, #10
   2fa9c:	480b      	ldr	r0, [pc, #44]	; (2facc <gapc_get_dev_info_req_ind_handler+0x70>)
   2fa9e:	f7f7 f887 	bl	26bb0 <ke_msg_alloc>
   2faa2:	7823      	ldrb	r3, [r4, #0]
   2faa4:	7003      	strb	r3, [r0, #0]
   2faa6:	2300      	movs	r3, #0
   2faa8:	8043      	strh	r3, [r0, #2]
   2faaa:	e7f2      	b.n	2fa92 <gapc_get_dev_info_req_ind_handler+0x36>
   2faac:	230a      	movs	r3, #10
   2faae:	4807      	ldr	r0, [pc, #28]	; (2facc <gapc_get_dev_info_req_ind_handler+0x70>)
   2fab0:	f7f7 f87e 	bl	26bb0 <ke_msg_alloc>
   2fab4:	7823      	ldrb	r3, [r4, #0]
   2fab6:	7003      	strb	r3, [r0, #0]
   2fab8:	2314      	movs	r3, #20
   2faba:	8043      	strh	r3, [r0, #2]
   2fabc:	18db      	adds	r3, r3, r3
   2fabe:	8083      	strh	r3, [r0, #4]
   2fac0:	2300      	movs	r3, #0
   2fac2:	80c3      	strh	r3, [r0, #6]
   2fac4:	2396      	movs	r3, #150	; 0x96
   2fac6:	009b      	lsls	r3, r3, #2
   2fac8:	8103      	strh	r3, [r0, #8]
   2faca:	e7e2      	b.n	2fa92 <gapc_get_dev_info_req_ind_handler+0x36>
   2facc:	00000e0b 	.word	0x00000e0b
   2fad0:	00402de6 	.word	0x00402de6

0002fad4 <gapc_set_dev_info_req_ind_handler>:
   2fad4:	b510      	push	{r4, lr}
   2fad6:	4807      	ldr	r0, [pc, #28]	; (2faf4 <gapc_set_dev_info_req_ind_handler+0x20>)
   2fad8:	000c      	movs	r4, r1
   2fada:	0019      	movs	r1, r3
   2fadc:	2302      	movs	r3, #2
   2fade:	f7f7 f867 	bl	26bb0 <ke_msg_alloc>
   2fae2:	2348      	movs	r3, #72	; 0x48
   2fae4:	7043      	strb	r3, [r0, #1]
   2fae6:	7823      	ldrb	r3, [r4, #0]
   2fae8:	7003      	strb	r3, [r0, #0]
   2faea:	f7f7 f87b 	bl	26be4 <ke_msg_send>
   2faee:	2000      	movs	r0, #0
   2faf0:	bd10      	pop	{r4, pc}
   2faf2:	46c0      	nop			; (mov r8, r8)
   2faf4:	00000e0d 	.word	0x00000e0d

0002faf8 <app_fcc0_add_fcc0s>:
   2faf8:	b510      	push	{r4, lr}
   2fafa:	230e      	movs	r3, #14
   2fafc:	2203      	movs	r2, #3
   2fafe:	2107      	movs	r1, #7
   2fb00:	4805      	ldr	r0, [pc, #20]	; (2fb18 <app_fcc0_add_fcc0s+0x20>)
   2fb02:	f7f7 f855 	bl	26bb0 <ke_msg_alloc>
   2fb06:	4b05      	ldr	r3, [pc, #20]	; (2fb1c <app_fcc0_add_fcc0s+0x24>)
   2fb08:	6003      	str	r3, [r0, #0]
   2fb0a:	2303      	movs	r3, #3
   2fb0c:	6043      	str	r3, [r0, #4]
   2fb0e:	3b02      	subs	r3, #2
   2fb10:	7303      	strb	r3, [r0, #12]
   2fb12:	f7f7 f867 	bl	26be4 <ke_msg_send>
   2fb16:	bd10      	pop	{r4, pc}
   2fb18:	00000d1b 	.word	0x00000d1b
   2fb1c:	0048001b 	.word	0x0048001b

0002fb20 <app_fee0_add_fee0s>:
   2fb20:	23a1      	movs	r3, #161	; 0xa1
   2fb22:	b510      	push	{r4, lr}
   2fb24:	2203      	movs	r2, #3
   2fb26:	2107      	movs	r1, #7
   2fb28:	009b      	lsls	r3, r3, #2
   2fb2a:	4809      	ldr	r0, [pc, #36]	; (2fb50 <app_fee0_add_fee0s+0x30>)
   2fb2c:	f7f7 f840 	bl	26bb0 <ke_msg_alloc>
   2fb30:	4b08      	ldr	r3, [pc, #32]	; (2fb54 <app_fee0_add_fee0s+0x34>)
   2fb32:	220e      	movs	r2, #14
   2fb34:	6003      	str	r3, [r0, #0]
   2fb36:	2303      	movs	r3, #3
   2fb38:	0004      	movs	r4, r0
   2fb3a:	6043      	str	r3, [r0, #4]
   2fb3c:	81c2      	strh	r2, [r0, #14]
   2fb3e:	4906      	ldr	r1, [pc, #24]	; (2fb58 <app_fee0_add_fee0s+0x38>)
   2fb40:	3010      	adds	r0, #16
   2fb42:	f00a fb8f 	bl	3a264 <memcpy>
   2fb46:	0020      	movs	r0, r4
   2fb48:	f7f7 f84c 	bl	26be4 <ke_msg_send>
   2fb4c:	bd10      	pop	{r4, pc}
   2fb4e:	46c0      	nop			; (mov r8, r8)
   2fb50:	00000d1b 	.word	0x00000d1b
   2fb54:	0047001b 	.word	0x0047001b
   2fb58:	00042188 	.word	0x00042188

0002fb5c <uart2_printf>:
   2fb5c:	b40f      	push	{r0, r1, r2, r3}
   2fb5e:	b5f0      	push	{r4, r5, r6, r7, lr}
   2fb60:	b0a3      	sub	sp, #140	; 0x8c
   2fb62:	aa28      	add	r2, sp, #160	; 0xa0
   2fb64:	ca02      	ldmia	r2!, {r1}
   2fb66:	a802      	add	r0, sp, #8
   2fb68:	9201      	str	r2, [sp, #4]
   2fb6a:	f00c fad3 	bl	3c114 <vsprintf>
   2fb6e:	2480      	movs	r4, #128	; 0x80
   2fb70:	0002      	movs	r2, r0
   2fb72:	4909      	ldr	r1, [pc, #36]	; (2fb98 <uart2_printf+0x3c>)
   2fb74:	4d09      	ldr	r5, [pc, #36]	; (2fb9c <uart2_printf+0x40>)
   2fb76:	ab02      	add	r3, sp, #8
   2fb78:	0364      	lsls	r4, r4, #13
   2fb7a:	3a01      	subs	r2, #1
   2fb7c:	d204      	bcs.n	2fb88 <uart2_printf+0x2c>
   2fb7e:	b023      	add	sp, #140	; 0x8c
   2fb80:	bcf0      	pop	{r4, r5, r6, r7}
   2fb82:	bc08      	pop	{r3}
   2fb84:	b004      	add	sp, #16
   2fb86:	4718      	bx	r3
   2fb88:	781e      	ldrb	r6, [r3, #0]
   2fb8a:	680f      	ldr	r7, [r1, #0]
   2fb8c:	4227      	tst	r7, r4
   2fb8e:	d0fc      	beq.n	2fb8a <uart2_printf+0x2e>
   2fb90:	602e      	str	r6, [r5, #0]
   2fb92:	3301      	adds	r3, #1
   2fb94:	e7f1      	b.n	2fb7a <uart2_printf+0x1e>
   2fb96:	46c0      	nop			; (mov r8, r8)
   2fb98:	00806a08 	.word	0x00806a08
   2fb9c:	00806a0c 	.word	0x00806a0c

0002fba0 <platform_reset>:
   2fba0:	b510      	push	{r4, lr}
   2fba2:	0001      	movs	r1, r0
   2fba4:	4804      	ldr	r0, [pc, #16]	; (2fbb8 <platform_reset+0x18>)
   2fba6:	f7ff ffd9 	bl	2fb5c <uart2_printf>
   2fbaa:	f012 faa5 	bl	420f8 <____disable_fiq_from_thumb>
   2fbae:	f012 fa87 	bl	420c0 <____disable_irq_from_thumb>
   2fbb2:	f7ff fd55 	bl	2f660 <cpu_reset>
   2fbb6:	bd10      	pop	{r4, pc}
   2fbb8:	00042197 	.word	0x00042197

0002fbbc <prf_init>:
   2fbbc:	b5f8      	push	{r3, r4, r5, r6, r7, lr}
   2fbbe:	2509      	movs	r5, #9
   2fbc0:	27ff      	movs	r7, #255	; 0xff
   2fbc2:	0001      	movs	r1, r0
   2fbc4:	0006      	movs	r6, r0
   2fbc6:	4815      	ldr	r0, [pc, #84]	; (2fc1c <prf_init+0x60>)
   2fbc8:	f7ff ffc8 	bl	2fb5c <uart2_printf>
   2fbcc:	4c14      	ldr	r4, [pc, #80]	; (2fc20 <prf_init+0x64>)
   2fbce:	2e01      	cmp	r6, #1
   2fbd0:	d01c      	beq.n	2fc0c <prf_init+0x50>
   2fbd2:	2e02      	cmp	r6, #2
   2fbd4:	d00e      	beq.n	2fbf4 <prf_init+0x38>
   2fbd6:	2e00      	cmp	r6, #0
   2fbd8:	d105      	bne.n	2fbe6 <prf_init+0x2a>
   2fbda:	0628      	lsls	r0, r5, #24
   2fbdc:	0021      	movs	r1, r4
   2fbde:	8225      	strh	r5, [r4, #16]
   2fbe0:	0e00      	lsrs	r0, r0, #24
   2fbe2:	f7f7 fc5f 	bl	274a4 <ke_task_create>
   2fbe6:	3501      	adds	r5, #1
   2fbe8:	042d      	lsls	r5, r5, #16
   2fbea:	3418      	adds	r4, #24
   2fbec:	0c2d      	lsrs	r5, r5, #16
   2fbee:	2d18      	cmp	r5, #24
   2fbf0:	d1ed      	bne.n	2fbce <prf_init+0x12>
   2fbf2:	bdf8      	pop	{r3, r4, r5, r6, r7, pc}
   2fbf4:	8a60      	ldrh	r0, [r4, #18]
   2fbf6:	f7ff fc8f 	bl	2f518 <prf_itf_get>
   2fbfa:	2800      	cmp	r0, #0
   2fbfc:	d002      	beq.n	2fc04 <prf_init+0x48>
   2fbfe:	6843      	ldr	r3, [r0, #4]
   2fc00:	0020      	movs	r0, r4
   2fc02:	4798      	blx	r3
   2fc04:	8a20      	ldrh	r0, [r4, #16]
   2fc06:	4038      	ands	r0, r7
   2fc08:	f7f7 fce0 	bl	275cc <ke_task_msg_flush>
   2fc0c:	2300      	movs	r3, #0
   2fc0e:	8267      	strh	r7, [r4, #18]
   2fc10:	60e3      	str	r3, [r4, #12]
   2fc12:	6023      	str	r3, [r4, #0]
   2fc14:	6063      	str	r3, [r4, #4]
   2fc16:	8123      	strh	r3, [r4, #8]
   2fc18:	8163      	strh	r3, [r4, #10]
   2fc1a:	e7e4      	b.n	2fbe6 <prf_init+0x2a>
   2fc1c:	000421aa 	.word	0x000421aa
   2fc20:	004033a4 	.word	0x004033a4

0002fc24 <prf_add_profile>:
   2fc24:	b5f0      	push	{r4, r5, r6, r7, lr}
   2fc26:	b085      	sub	sp, #20
   2fc28:	9103      	str	r1, [sp, #12]
   2fc2a:	0004      	movs	r4, r0
   2fc2c:	8840      	ldrh	r0, [r0, #2]
   2fc2e:	f7ff fc73 	bl	2f518 <prf_itf_get>
   2fc32:	0007      	movs	r7, r0
   2fc34:	4821      	ldr	r0, [pc, #132]	; (2fcbc <prf_add_profile+0x98>)
   2fc36:	f7ff ff91 	bl	2fb5c <uart2_printf>
   2fc3a:	2540      	movs	r5, #64	; 0x40
   2fc3c:	2f00      	cmp	r7, #0
   2fc3e:	d02d      	beq.n	2fc9c <prf_add_profile+0x78>
   2fc40:	22b4      	movs	r2, #180	; 0xb4
   2fc42:	2300      	movs	r3, #0
   2fc44:	8861      	ldrh	r1, [r4, #2]
   2fc46:	481e      	ldr	r0, [pc, #120]	; (2fcc0 <prf_add_profile+0x9c>)
   2fc48:	0052      	lsls	r2, r2, #1
   2fc4a:	5ac5      	ldrh	r5, [r0, r3]
   2fc4c:	428d      	cmp	r5, r1
   2fc4e:	d032      	beq.n	2fcb6 <prf_add_profile+0x92>
   2fc50:	3318      	adds	r3, #24
   2fc52:	4293      	cmp	r3, r2
   2fc54:	d1f9      	bne.n	2fc4a <prf_add_profile+0x26>
   2fc56:	2500      	movs	r5, #0
   2fc58:	4e1a      	ldr	r6, [pc, #104]	; (2fcc4 <prf_add_profile+0xa0>)
   2fc5a:	0029      	movs	r1, r5
   2fc5c:	8a72      	ldrh	r2, [r6, #18]
   2fc5e:	481a      	ldr	r0, [pc, #104]	; (2fcc8 <prf_add_profile+0xa4>)
   2fc60:	f7ff ff7c 	bl	2fb5c <uart2_printf>
   2fc64:	8a73      	ldrh	r3, [r6, #18]
   2fc66:	2bff      	cmp	r3, #255	; 0xff
   2fc68:	d11f      	bne.n	2fcaa <prf_add_profile+0x86>
   2fc6a:	2618      	movs	r6, #24
   2fc6c:	436e      	muls	r6, r5
   2fc6e:	4b15      	ldr	r3, [pc, #84]	; (2fcc4 <prf_add_profile+0xa0>)
   2fc70:	0029      	movs	r1, r5
   2fc72:	199e      	adds	r6, r3, r6
   2fc74:	8a32      	ldrh	r2, [r6, #16]
   2fc76:	4815      	ldr	r0, [pc, #84]	; (2fccc <prf_add_profile+0xa8>)
   2fc78:	f7ff ff70 	bl	2fb5c <uart2_printf>
   2fc7c:	0020      	movs	r0, r4
   2fc7e:	300c      	adds	r0, #12
   2fc80:	9000      	str	r0, [sp, #0]
   2fc82:	683d      	ldr	r5, [r7, #0]
   2fc84:	0030      	movs	r0, r6
   2fc86:	7863      	ldrb	r3, [r4, #1]
   2fc88:	88a2      	ldrh	r2, [r4, #4]
   2fc8a:	1da1      	adds	r1, r4, #6
   2fc8c:	47a8      	blx	r5
   2fc8e:	1e05      	subs	r5, r0, #0
   2fc90:	d104      	bne.n	2fc9c <prf_add_profile+0x78>
   2fc92:	8863      	ldrh	r3, [r4, #2]
   2fc94:	9a03      	ldr	r2, [sp, #12]
   2fc96:	8273      	strh	r3, [r6, #18]
   2fc98:	8a33      	ldrh	r3, [r6, #16]
   2fc9a:	8013      	strh	r3, [r2, #0]
   2fc9c:	0029      	movs	r1, r5
   2fc9e:	480c      	ldr	r0, [pc, #48]	; (2fcd0 <prf_add_profile+0xac>)
   2fca0:	f7ff ff5c 	bl	2fb5c <uart2_printf>
   2fca4:	0028      	movs	r0, r5
   2fca6:	b005      	add	sp, #20
   2fca8:	bdf0      	pop	{r4, r5, r6, r7, pc}
   2fcaa:	3501      	adds	r5, #1
   2fcac:	3618      	adds	r6, #24
   2fcae:	2d0f      	cmp	r5, #15
   2fcb0:	d1d3      	bne.n	2fc5a <prf_add_profile+0x36>
   2fcb2:	353c      	adds	r5, #60	; 0x3c
   2fcb4:	e7f2      	b.n	2fc9c <prf_add_profile+0x78>
   2fcb6:	2542      	movs	r5, #66	; 0x42
   2fcb8:	e7f0      	b.n	2fc9c <prf_add_profile+0x78>
   2fcba:	46c0      	nop			; (mov r8, r8)
   2fcbc:	000421be 	.word	0x000421be
   2fcc0:	004033b6 	.word	0x004033b6
   2fcc4:	004033a4 	.word	0x004033a4
   2fcc8:	000421cf 	.word	0x000421cf
   2fccc:	000421e6 	.word	0x000421e6
   2fcd0:	000421ff 	.word	0x000421ff

0002fcd4 <gapc_encrypt_req_ind_handler>:
   2fcd4:	b5f0      	push	{r4, r5, r6, r7, lr}
   2fcd6:	481a      	ldr	r0, [pc, #104]	; (2fd40 <gapc_encrypt_req_ind_handler+0x6c>)
   2fcd8:	b089      	sub	sp, #36	; 0x24
   2fcda:	001c      	movs	r4, r3
   2fcdc:	000d      	movs	r5, r1
   2fcde:	f7ff ff3d 	bl	2fb5c <uart2_printf>
   2fce2:	2201      	movs	r2, #1
   2fce4:	4b17      	ldr	r3, [pc, #92]	; (2fd44 <gapc_encrypt_req_ind_handler+0x70>)
   2fce6:	0021      	movs	r1, r4
   2fce8:	709a      	strb	r2, [r3, #2]
   2fcea:	466b      	mov	r3, sp
   2fcec:	1cdf      	adds	r7, r3, #3
   2fcee:	231c      	movs	r3, #28
   2fcf0:	3202      	adds	r2, #2
   2fcf2:	703b      	strb	r3, [r7, #0]
   2fcf4:	4814      	ldr	r0, [pc, #80]	; (2fd48 <gapc_encrypt_req_ind_handler+0x74>)
   2fcf6:	3b0a      	subs	r3, #10
   2fcf8:	f7f6 ff5a 	bl	26bb0 <ke_msg_alloc>
   2fcfc:	2300      	movs	r3, #0
   2fcfe:	ae01      	add	r6, sp, #4
   2fd00:	0004      	movs	r4, r0
   2fd02:	7003      	strb	r3, [r0, #0]
   2fd04:	0032      	movs	r2, r6
   2fd06:	0039      	movs	r1, r7
   2fd08:	2098      	movs	r0, #152	; 0x98
   2fd0a:	f7ff fbb5 	bl	2f478 <nvds_get>
   2fd0e:	2800      	cmp	r0, #0
   2fd10:	d113      	bne.n	2fd3a <gapc_encrypt_req_ind_handler+0x66>
   2fd12:	882a      	ldrh	r2, [r5, #0]
   2fd14:	8a33      	ldrh	r3, [r6, #16]
   2fd16:	429a      	cmp	r2, r3
   2fd18:	d10f      	bne.n	2fd3a <gapc_encrypt_req_ind_handler+0x66>
   2fd1a:	2116      	movs	r1, #22
   2fd1c:	2208      	movs	r2, #8
   2fd1e:	1ca8      	adds	r0, r5, #2
   2fd20:	4469      	add	r1, sp
   2fd22:	f7fa fc5f 	bl	2a5e4 <memcmp>
   2fd26:	2800      	cmp	r0, #0
   2fd28:	d107      	bne.n	2fd3a <gapc_encrypt_req_ind_handler+0x66>
   2fd2a:	2301      	movs	r3, #1
   2fd2c:	2210      	movs	r2, #16
   2fd2e:	0031      	movs	r1, r6
   2fd30:	7023      	strb	r3, [r4, #0]
   2fd32:	7462      	strb	r2, [r4, #17]
   2fd34:	18e0      	adds	r0, r4, r3
   2fd36:	f00a fa95 	bl	3a264 <memcpy>
   2fd3a:	2000      	movs	r0, #0
   2fd3c:	b009      	add	sp, #36	; 0x24
   2fd3e:	bdf0      	pop	{r4, r5, r6, r7, pc}
   2fd40:	0004221a 	.word	0x0004221a
   2fd44:	00402e41 	.word	0x00402e41
   2fd48:	00000e18 	.word	0x00000e18

0002fd4c <gapc_encrypt_ind_handler>:
   2fd4c:	b510      	push	{r4, lr}
   2fd4e:	000c      	movs	r4, r1
   2fd50:	4904      	ldr	r1, [pc, #16]	; (2fd64 <gapc_encrypt_ind_handler+0x18>)
   2fd52:	4805      	ldr	r0, [pc, #20]	; (2fd68 <gapc_encrypt_ind_handler+0x1c>)
   2fd54:	f7ff ff02 	bl	2fb5c <uart2_printf>
   2fd58:	7821      	ldrb	r1, [r4, #0]
   2fd5a:	4804      	ldr	r0, [pc, #16]	; (2fd6c <gapc_encrypt_ind_handler+0x20>)
   2fd5c:	f7ff fefe 	bl	2fb5c <uart2_printf>
   2fd60:	2000      	movs	r0, #0
   2fd62:	bd10      	pop	{r4, pc}
   2fd64:	00043b14 	.word	0x00043b14
   2fd68:	0004297b 	.word	0x0004297b
   2fd6c:	0004222c 	.word	0x0004222c

0002fd70 <appm_add_svc>:
   2fd70:	b570      	push	{r4, r5, r6, lr}
   2fd72:	4d0a      	ldr	r5, [pc, #40]	; (2fd9c <appm_add_svc+0x2c>)
   2fd74:	2400      	movs	r4, #0
   2fd76:	7eab      	ldrb	r3, [r5, #26]
   2fd78:	2b05      	cmp	r3, #5
   2fd7a:	d007      	beq.n	2fd8c <appm_add_svc+0x1c>
   2fd7c:	4a08      	ldr	r2, [pc, #32]	; (2fda0 <appm_add_svc+0x30>)
   2fd7e:	009b      	lsls	r3, r3, #2
   2fd80:	589b      	ldr	r3, [r3, r2]
   2fd82:	4798      	blx	r3
   2fd84:	7eab      	ldrb	r3, [r5, #26]
   2fd86:	3401      	adds	r4, #1
   2fd88:	3301      	adds	r3, #1
   2fd8a:	76ab      	strb	r3, [r5, #26]
   2fd8c:	0022      	movs	r2, r4
   2fd8e:	4905      	ldr	r1, [pc, #20]	; (2fda4 <appm_add_svc+0x34>)
   2fd90:	4805      	ldr	r0, [pc, #20]	; (2fda8 <appm_add_svc+0x38>)
   2fd92:	f7ff fee3 	bl	2fb5c <uart2_printf>
   2fd96:	0020      	movs	r0, r4
   2fd98:	bd70      	pop	{r4, r5, r6, pc}
   2fd9a:	46c0      	nop			; (mov r8, r8)
   2fd9c:	00402de6 	.word	0x00402de6
   2fda0:	00044240 	.word	0x00044240
   2fda4:	00043c63 	.word	0x00043c63
   2fda8:	00042249 	.word	0x00042249

0002fdac <app_oad_add_oads>:
   2fdac:	b510      	push	{r4, lr}
   2fdae:	480c      	ldr	r0, [pc, #48]	; (2fde0 <app_oad_add_oads+0x34>)
   2fdb0:	f7ff fed4 	bl	2fb5c <uart2_printf>
   2fdb4:	230e      	movs	r3, #14
   2fdb6:	2203      	movs	r2, #3
   2fdb8:	2107      	movs	r1, #7
   2fdba:	480a      	ldr	r0, [pc, #40]	; (2fde4 <app_oad_add_oads+0x38>)
   2fdbc:	f7f6 fef8 	bl	26bb0 <ke_msg_alloc>
   2fdc0:	4b09      	ldr	r3, [pc, #36]	; (2fde8 <app_oad_add_oads+0x3c>)
   2fdc2:	2203      	movs	r2, #3
   2fdc4:	6003      	str	r3, [r0, #0]
   2fdc6:	2301      	movs	r3, #1
   2fdc8:	0004      	movs	r4, r0
   2fdca:	6042      	str	r2, [r0, #4]
   2fdcc:	7343      	strb	r3, [r0, #13]
   2fdce:	2107      	movs	r1, #7
   2fdd0:	4806      	ldr	r0, [pc, #24]	; (2fdec <app_oad_add_oads+0x40>)
   2fdd2:	f7ff fec3 	bl	2fb5c <uart2_printf>
   2fdd6:	0020      	movs	r0, r4
   2fdd8:	f7f6 ff04 	bl	26be4 <ke_msg_send>
   2fddc:	bd10      	pop	{r4, pc}
   2fdde:	46c0      	nop			; (mov r8, r8)
   2fde0:	0004225a 	.word	0x0004225a
   2fde4:	00000d1b 	.word	0x00000d1b
   2fde8:	0049001b 	.word	0x0049001b
   2fdec:	0004226d 	.word	0x0004226d

0002fdf0 <app_oads_msg_dflt_handler>:
   2fdf0:	b570      	push	{r4, r5, r6, lr}
   2fdf2:	0015      	movs	r5, r2
   2fdf4:	001e      	movs	r6, r3
   2fdf6:	0004      	movs	r4, r0
   2fdf8:	4905      	ldr	r1, [pc, #20]	; (2fe10 <app_oads_msg_dflt_handler+0x20>)
   2fdfa:	4806      	ldr	r0, [pc, #24]	; (2fe14 <app_oads_msg_dflt_handler+0x24>)
   2fdfc:	f7ff feae 	bl	2fb5c <uart2_printf>
   2fe00:	0033      	movs	r3, r6
   2fe02:	002a      	movs	r2, r5
   2fe04:	0021      	movs	r1, r4
   2fe06:	4804      	ldr	r0, [pc, #16]	; (2fe18 <app_oads_msg_dflt_handler+0x28>)
   2fe08:	f7ff fea8 	bl	2fb5c <uart2_printf>
   2fe0c:	2000      	movs	r0, #0
   2fe0e:	bd70      	pop	{r4, r5, r6, pc}
   2fe10:	00043b8c 	.word	0x00043b8c
   2fe14:	0004305f 	.word	0x0004305f
   2fe18:	0004228e 	.word	0x0004228e

0002fe1c <app_ffc2_writer_req_handler>:
   2fe1c:	b510      	push	{r4, lr}
   2fe1e:	4903      	ldr	r1, [pc, #12]	; (2fe2c <app_ffc2_writer_req_handler+0x10>)
   2fe20:	4803      	ldr	r0, [pc, #12]	; (2fe30 <app_ffc2_writer_req_handler+0x14>)
   2fe22:	f7ff fe9b 	bl	2fb5c <uart2_printf>
   2fe26:	2000      	movs	r0, #0
   2fe28:	bd10      	pop	{r4, pc}
   2fe2a:	46c0      	nop			; (mov r8, r8)
   2fe2c:	00043eef 	.word	0x00043eef
   2fe30:	0004305f 	.word	0x0004305f

0002fe34 <oads_ffc1_upd_rsp_handler>:
   2fe34:	b510      	push	{r4, lr}
   2fe36:	4903      	ldr	r1, [pc, #12]	; (2fe44 <oads_ffc1_upd_rsp_handler+0x10>)
   2fe38:	4803      	ldr	r0, [pc, #12]	; (2fe48 <oads_ffc1_upd_rsp_handler+0x14>)
   2fe3a:	f7ff fe8f 	bl	2fb5c <uart2_printf>
   2fe3e:	2000      	movs	r0, #0
   2fe40:	bd10      	pop	{r4, pc}
   2fe42:	46c0      	nop			; (mov r8, r8)
   2fe44:	00043e43 	.word	0x00043e43
   2fe48:	0004305f 	.word	0x0004305f

0002fe4c <oads_ffc2_upd_rsp_handler>:
   2fe4c:	b510      	push	{r4, lr}
   2fe4e:	4903      	ldr	r1, [pc, #12]	; (2fe5c <oads_ffc2_upd_rsp_handler+0x10>)
   2fe50:	4803      	ldr	r0, [pc, #12]	; (2fe60 <oads_ffc2_upd_rsp_handler+0x14>)
   2fe52:	f7ff fe83 	bl	2fb5c <uart2_printf>
   2fe56:	2000      	movs	r0, #0
   2fe58:	bd10      	pop	{r4, pc}
   2fe5a:	46c0      	nop			; (mov r8, r8)
   2fe5c:	00043fcb 	.word	0x00043fcb
   2fe60:	0004305f 	.word	0x0004305f

0002fe64 <gapm_activity_created_ind_handler>:
   2fe64:	b510      	push	{r4, lr}
   2fe66:	4819      	ldr	r0, [pc, #100]	; (2fecc <gapm_activity_created_ind_handler+0x68>)
   2fe68:	780b      	ldrb	r3, [r1, #0]
   2fe6a:	784a      	ldrb	r2, [r1, #1]
   2fe6c:	000c      	movs	r4, r1
   2fe6e:	4918      	ldr	r1, [pc, #96]	; (2fed0 <gapm_activity_created_ind_handler+0x6c>)
   2fe70:	f7ff fe74 	bl	2fb5c <uart2_printf>
   2fe74:	4b17      	ldr	r3, [pc, #92]	; (2fed4 <gapm_activity_created_ind_handler+0x70>)
   2fe76:	79da      	ldrb	r2, [r3, #7]
   2fe78:	2a01      	cmp	r2, #1
   2fe7a:	d106      	bne.n	2fe8a <gapm_activity_created_ind_handler+0x26>
   2fe7c:	7862      	ldrb	r2, [r4, #1]
   2fe7e:	2a00      	cmp	r2, #0
   2fe80:	d103      	bne.n	2fe8a <gapm_activity_created_ind_handler+0x26>
   2fe82:	7822      	ldrb	r2, [r4, #0]
   2fe84:	2a00      	cmp	r2, #0
   2fe86:	d100      	bne.n	2fe8a <gapm_activity_created_ind_handler+0x26>
   2fe88:	719a      	strb	r2, [r3, #6]
   2fe8a:	791a      	ldrb	r2, [r3, #4]
   2fe8c:	2a01      	cmp	r2, #1
   2fe8e:	d106      	bne.n	2fe9e <gapm_activity_created_ind_handler+0x3a>
   2fe90:	7862      	ldrb	r2, [r4, #1]
   2fe92:	2a00      	cmp	r2, #0
   2fe94:	d103      	bne.n	2fe9e <gapm_activity_created_ind_handler+0x3a>
   2fe96:	7822      	ldrb	r2, [r4, #0]
   2fe98:	2a00      	cmp	r2, #0
   2fe9a:	d000      	beq.n	2fe9e <gapm_activity_created_ind_handler+0x3a>
   2fe9c:	70da      	strb	r2, [r3, #3]
   2fe9e:	7a9a      	ldrb	r2, [r3, #10]
   2fea0:	2a01      	cmp	r2, #1
   2fea2:	d108      	bne.n	2feb6 <gapm_activity_created_ind_handler+0x52>
   2fea4:	7862      	ldrb	r2, [r4, #1]
   2fea6:	2a01      	cmp	r2, #1
   2fea8:	d105      	bne.n	2feb6 <gapm_activity_created_ind_handler+0x52>
   2feaa:	7822      	ldrb	r2, [r4, #0]
   2feac:	725a      	strb	r2, [r3, #9]
   2feae:	2202      	movs	r2, #2
   2feb0:	729a      	strb	r2, [r3, #10]
   2feb2:	2000      	movs	r0, #0
   2feb4:	bd10      	pop	{r4, pc}
   2feb6:	7c5a      	ldrb	r2, [r3, #17]
   2feb8:	2a01      	cmp	r2, #1
   2feba:	d1fa      	bne.n	2feb2 <gapm_activity_created_ind_handler+0x4e>
   2febc:	7862      	ldrb	r2, [r4, #1]
   2febe:	2a02      	cmp	r2, #2
   2fec0:	d1f7      	bne.n	2feb2 <gapm_activity_created_ind_handler+0x4e>
   2fec2:	7821      	ldrb	r1, [r4, #0]
   2fec4:	745a      	strb	r2, [r3, #17]
   2fec6:	7419      	strb	r1, [r3, #16]
   2fec8:	e7f3      	b.n	2feb2 <gapm_activity_created_ind_handler+0x4e>
   2feca:	46c0      	nop			; (mov r8, r8)
   2fecc:	000422ba 	.word	0x000422ba
   2fed0:	00043cc0 	.word	0x00043cc0
   2fed4:	00402de6 	.word	0x00402de6

0002fed8 <gapc_param_updated_ind_handler>:
   2fed8:	b510      	push	{r4, lr}
   2feda:	000c      	movs	r4, r1
   2fedc:	4908      	ldr	r1, [pc, #32]	; (2ff00 <gapc_param_updated_ind_handler+0x28>)
   2fede:	4809      	ldr	r0, [pc, #36]	; (2ff04 <gapc_param_updated_ind_handler+0x2c>)
   2fee0:	f7ff fe3c 	bl	2fb5c <uart2_printf>
   2fee4:	8821      	ldrh	r1, [r4, #0]
   2fee6:	4808      	ldr	r0, [pc, #32]	; (2ff08 <gapc_param_updated_ind_handler+0x30>)
   2fee8:	f7ff fe38 	bl	2fb5c <uart2_printf>
   2feec:	8861      	ldrh	r1, [r4, #2]
   2feee:	4807      	ldr	r0, [pc, #28]	; (2ff0c <gapc_param_updated_ind_handler+0x34>)
   2fef0:	f7ff fe34 	bl	2fb5c <uart2_printf>
   2fef4:	88a1      	ldrh	r1, [r4, #4]
   2fef6:	4806      	ldr	r0, [pc, #24]	; (2ff10 <gapc_param_updated_ind_handler+0x38>)
   2fef8:	f7ff fe30 	bl	2fb5c <uart2_printf>
   2fefc:	2000      	movs	r0, #0
   2fefe:	bd10      	pop	{r4, pc}
   2ff00:	000440bc 	.word	0x000440bc
   2ff04:	0004297b 	.word	0x0004297b
   2ff08:	000422eb 	.word	0x000422eb
   2ff0c:	000422ff 	.word	0x000422ff
   2ff10:	00042312 	.word	0x00042312

0002ff14 <gapm_scan_request_ind_handler>:
   2ff14:	b570      	push	{r4, r5, r6, lr}
   2ff16:	000c      	movs	r4, r1
   2ff18:	480c      	ldr	r0, [pc, #48]	; (2ff4c <gapm_scan_request_ind_handler+0x38>)
   2ff1a:	490d      	ldr	r1, [pc, #52]	; (2ff50 <gapm_scan_request_ind_handler+0x3c>)
   2ff1c:	f7ff fe1e 	bl	2fb5c <uart2_printf>
   2ff20:	79e2      	ldrb	r2, [r4, #7]
   2ff22:	7821      	ldrb	r1, [r4, #0]
   2ff24:	480b      	ldr	r0, [pc, #44]	; (2ff54 <gapm_scan_request_ind_handler+0x40>)
   2ff26:	f7ff fe19 	bl	2fb5c <uart2_printf>
   2ff2a:	480b      	ldr	r0, [pc, #44]	; (2ff58 <gapm_scan_request_ind_handler+0x44>)
   2ff2c:	f7ff fe16 	bl	2fb5c <uart2_printf>
   2ff30:	1c65      	adds	r5, r4, #1
   2ff32:	3407      	adds	r4, #7
   2ff34:	7829      	ldrb	r1, [r5, #0]
   2ff36:	4809      	ldr	r0, [pc, #36]	; (2ff5c <gapm_scan_request_ind_handler+0x48>)
   2ff38:	3501      	adds	r5, #1
   2ff3a:	f7ff fe0f 	bl	2fb5c <uart2_printf>
   2ff3e:	42a5      	cmp	r5, r4
   2ff40:	d1f8      	bne.n	2ff34 <gapm_scan_request_ind_handler+0x20>
   2ff42:	4807      	ldr	r0, [pc, #28]	; (2ff60 <gapm_scan_request_ind_handler+0x4c>)
   2ff44:	f7ff fe0a 	bl	2fb5c <uart2_printf>
   2ff48:	2000      	movs	r0, #0
   2ff4a:	bd70      	pop	{r4, r5, r6, pc}
   2ff4c:	0004305f 	.word	0x0004305f
   2ff50:	00044060 	.word	0x00044060
   2ff54:	00042320 	.word	0x00042320
   2ff58:	0004233b 	.word	0x0004233b
   2ff5c:	00042341 	.word	0x00042341
   2ff60:	00042c96 	.word	0x00042c96

0002ff64 <app_mtu_exchange_req_handler>:
   2ff64:	b510      	push	{r4, lr}
   2ff66:	490b      	ldr	r1, [pc, #44]	; (2ff94 <app_mtu_exchange_req_handler+0x30>)
   2ff68:	480b      	ldr	r0, [pc, #44]	; (2ff98 <app_mtu_exchange_req_handler+0x34>)
   2ff6a:	f7ff fdf7 	bl	2fb5c <uart2_printf>
   2ff6e:	2106      	movs	r1, #6
   2ff70:	4b0a      	ldr	r3, [pc, #40]	; (2ff9c <app_mtu_exchange_req_handler+0x38>)
   2ff72:	2203      	movs	r2, #3
   2ff74:	789b      	ldrb	r3, [r3, #2]
   2ff76:	480a      	ldr	r0, [pc, #40]	; (2ffa0 <app_mtu_exchange_req_handler+0x3c>)
   2ff78:	021b      	lsls	r3, r3, #8
   2ff7a:	4319      	orrs	r1, r3
   2ff7c:	2304      	movs	r3, #4
   2ff7e:	f7f6 fe17 	bl	26bb0 <ke_msg_alloc>
   2ff82:	2400      	movs	r4, #0
   2ff84:	2301      	movs	r3, #1
   2ff86:	8044      	strh	r4, [r0, #2]
   2ff88:	7003      	strb	r3, [r0, #0]
   2ff8a:	f7f6 fe2b 	bl	26be4 <ke_msg_send>
   2ff8e:	0020      	movs	r0, r4
   2ff90:	bd10      	pop	{r4, pc}
   2ff92:	46c0      	nop			; (mov r8, r8)
   2ff94:	00043da8 	.word	0x00043da8
   2ff98:	0004297b 	.word	0x0004297b
   2ff9c:	00402de6 	.word	0x00402de6
   2ffa0:	00000c01 	.word	0x00000c01

0002ffa4 <gapm_mesh_pub_key_ind_handler>:
   2ffa4:	b5f7      	push	{r0, r1, r2, r4, r5, r6, r7, lr}
   2ffa6:	000c      	movs	r4, r1
   2ffa8:	481d      	ldr	r0, [pc, #116]	; (30020 <gapm_mesh_pub_key_ind_handler+0x7c>)
   2ffaa:	0027      	movs	r7, r4
   2ffac:	f7ff fdd6 	bl	2fb5c <uart2_printf>
   2ffb0:	0025      	movs	r5, r4
   2ffb2:	3720      	adds	r7, #32
   2ffb4:	7829      	ldrb	r1, [r5, #0]
   2ffb6:	481b      	ldr	r0, [pc, #108]	; (30024 <gapm_mesh_pub_key_ind_handler+0x80>)
   2ffb8:	3501      	adds	r5, #1
   2ffba:	f7ff fdcf 	bl	2fb5c <uart2_printf>
   2ffbe:	42bd      	cmp	r5, r7
   2ffc0:	d1f8      	bne.n	2ffb4 <gapm_mesh_pub_key_ind_handler+0x10>
   2ffc2:	4e19      	ldr	r6, [pc, #100]	; (30028 <gapm_mesh_pub_key_ind_handler+0x84>)
   2ffc4:	003d      	movs	r5, r7
   2ffc6:	0030      	movs	r0, r6
   2ffc8:	f7ff fdc8 	bl	2fb5c <uart2_printf>
   2ffcc:	4817      	ldr	r0, [pc, #92]	; (3002c <gapm_mesh_pub_key_ind_handler+0x88>)
   2ffce:	f7ff fdc5 	bl	2fb5c <uart2_printf>
   2ffd2:	0023      	movs	r3, r4
   2ffd4:	3340      	adds	r3, #64	; 0x40
   2ffd6:	9301      	str	r3, [sp, #4]
   2ffd8:	7829      	ldrb	r1, [r5, #0]
   2ffda:	4812      	ldr	r0, [pc, #72]	; (30024 <gapm_mesh_pub_key_ind_handler+0x80>)
   2ffdc:	f7ff fdbe 	bl	2fb5c <uart2_printf>
   2ffe0:	9b01      	ldr	r3, [sp, #4]
   2ffe2:	3501      	adds	r5, #1
   2ffe4:	429d      	cmp	r5, r3
   2ffe6:	d1f7      	bne.n	2ffd8 <gapm_mesh_pub_key_ind_handler+0x34>
   2ffe8:	0030      	movs	r0, r6
   2ffea:	f7ff fdb7 	bl	2fb5c <uart2_printf>
   2ffee:	2341      	movs	r3, #65	; 0x41
   2fff0:	2208      	movs	r2, #8
   2fff2:	2107      	movs	r1, #7
   2fff4:	480e      	ldr	r0, [pc, #56]	; (30030 <gapm_mesh_pub_key_ind_handler+0x8c>)
   2fff6:	f7f6 fddb 	bl	26bb0 <ke_msg_alloc>
   2fffa:	232e      	movs	r3, #46	; 0x2e
   2fffc:	0005      	movs	r5, r0
   2fffe:	7003      	strb	r3, [r0, #0]
   30000:	0021      	movs	r1, r4
   30002:	2220      	movs	r2, #32
   30004:	3001      	adds	r0, #1
   30006:	f00a f92d 	bl	3a264 <memcpy>
   3000a:	0028      	movs	r0, r5
   3000c:	0039      	movs	r1, r7
   3000e:	2220      	movs	r2, #32
   30010:	3021      	adds	r0, #33	; 0x21
   30012:	f00a f927 	bl	3a264 <memcpy>
   30016:	0028      	movs	r0, r5
   30018:	f7f6 fde4 	bl	26be4 <ke_msg_send>
   3001c:	2000      	movs	r0, #0
   3001e:	bdfe      	pop	{r1, r2, r3, r4, r5, r6, r7, pc}
   30020:	00042348 	.word	0x00042348
   30024:	00042354 	.word	0x00042354
   30028:	00042c97 	.word	0x00042c97
   3002c:	0004235c 	.word	0x0004235c
   30030:	00000d29 	.word	0x00000d29

00030034 <gapm_mesh_gen_dh_key_ind_handler>:
   30034:	b570      	push	{r4, r5, r6, lr}
   30036:	000c      	movs	r4, r1
   30038:	4808      	ldr	r0, [pc, #32]	; (3005c <gapm_mesh_gen_dh_key_ind_handler+0x28>)
   3003a:	0025      	movs	r5, r4
   3003c:	f7ff fd8e 	bl	2fb5c <uart2_printf>
   30040:	3520      	adds	r5, #32
   30042:	7821      	ldrb	r1, [r4, #0]
   30044:	4806      	ldr	r0, [pc, #24]	; (30060 <gapm_mesh_gen_dh_key_ind_handler+0x2c>)
   30046:	3401      	adds	r4, #1
   30048:	f7ff fd88 	bl	2fb5c <uart2_printf>
   3004c:	42ac      	cmp	r4, r5
   3004e:	d1f8      	bne.n	30042 <gapm_mesh_gen_dh_key_ind_handler+0xe>
   30050:	4804      	ldr	r0, [pc, #16]	; (30064 <gapm_mesh_gen_dh_key_ind_handler+0x30>)
   30052:	f7ff fd83 	bl	2fb5c <uart2_printf>
   30056:	2000      	movs	r0, #0
   30058:	bd70      	pop	{r4, r5, r6, pc}
   3005a:	46c0      	nop			; (mov r8, r8)
   3005c:	00042368 	.word	0x00042368
   30060:	00042354 	.word	0x00042354
   30064:	00042c97 	.word	0x00042c97

00030068 <app_start_smpc_handler>:
   30068:	b570      	push	{r4, r5, r6, lr}
   3006a:	4d15      	ldr	r5, [pc, #84]	; (300c0 <app_start_smpc_handler+0x58>)
   3006c:	4915      	ldr	r1, [pc, #84]	; (300c4 <app_start_smpc_handler+0x5c>)
   3006e:	0028      	movs	r0, r5
   30070:	f7ff fd74 	bl	2fb5c <uart2_printf>
   30074:	2102      	movs	r1, #2
   30076:	4b14      	ldr	r3, [pc, #80]	; (300c8 <app_start_smpc_handler+0x60>)
   30078:	2203      	movs	r2, #3
   3007a:	5659      	ldrsb	r1, [r3, r1]
   3007c:	2308      	movs	r3, #8
   3007e:	0209      	lsls	r1, r1, #8
   30080:	430a      	orrs	r2, r1
   30082:	4319      	orrs	r1, r3
   30084:	0412      	lsls	r2, r2, #16
   30086:	0409      	lsls	r1, r1, #16
   30088:	0c12      	lsrs	r2, r2, #16
   3008a:	0c09      	lsrs	r1, r1, #16
   3008c:	480f      	ldr	r0, [pc, #60]	; (300cc <app_start_smpc_handler+0x64>)
   3008e:	f7f6 fd8f 	bl	26bb0 <ke_msg_alloc>
   30092:	490f      	ldr	r1, [pc, #60]	; (300d0 <app_start_smpc_handler+0x68>)
   30094:	0004      	movs	r4, r0
   30096:	0028      	movs	r0, r5
   30098:	f7ff fd60 	bl	2fb5c <uart2_printf>
   3009c:	230a      	movs	r3, #10
   3009e:	2500      	movs	r5, #0
   300a0:	7023      	strb	r3, [r4, #0]
   300a2:	3b06      	subs	r3, #6
   300a4:	7063      	strb	r3, [r4, #1]
   300a6:	3301      	adds	r3, #1
   300a8:	70e3      	strb	r3, [r4, #3]
   300aa:	330b      	adds	r3, #11
   300ac:	7123      	strb	r3, [r4, #4]
   300ae:	3b09      	subs	r3, #9
   300b0:	0020      	movs	r0, r4
   300b2:	70a5      	strb	r5, [r4, #2]
   300b4:	7163      	strb	r3, [r4, #5]
   300b6:	71a3      	strb	r3, [r4, #6]
   300b8:	f7f6 fd94 	bl	26be4 <ke_msg_send>
   300bc:	0028      	movs	r0, r5
   300be:	bd70      	pop	{r4, r5, r6, pc}
   300c0:	0004305f 	.word	0x0004305f
   300c4:	00043de1 	.word	0x00043de1
   300c8:	00402de6 	.word	0x00402de6
   300cc:	00000e12 	.word	0x00000e12
   300d0:	00043c4e 	.word	0x00043c4e

000300d4 <app_start_encrypt_handler>:
   300d4:	b570      	push	{r4, r5, r6, lr}
   300d6:	4929      	ldr	r1, [pc, #164]	; (3017c <app_start_encrypt_handler+0xa8>)
   300d8:	b088      	sub	sp, #32
   300da:	4829      	ldr	r0, [pc, #164]	; (30180 <app_start_encrypt_handler+0xac>)
   300dc:	f7ff fd3e 	bl	2fb5c <uart2_printf>
   300e0:	4828      	ldr	r0, [pc, #160]	; (30184 <app_start_encrypt_handler+0xb0>)
   300e2:	f7ff fd3b 	bl	2fb5c <uart2_printf>
   300e6:	4928      	ldr	r1, [pc, #160]	; (30188 <app_start_encrypt_handler+0xb4>)
   300e8:	221c      	movs	r2, #28
   300ea:	310d      	adds	r1, #13
   300ec:	a801      	add	r0, sp, #4
   300ee:	f00a f8b9 	bl	3a264 <memcpy>
   300f2:	466b      	mov	r3, sp
   300f4:	4825      	ldr	r0, [pc, #148]	; (3018c <app_start_encrypt_handler+0xb8>)
   300f6:	8a99      	ldrh	r1, [r3, #20]
   300f8:	f7ff fd30 	bl	2fb5c <uart2_printf>
   300fc:	4824      	ldr	r0, [pc, #144]	; (30190 <app_start_encrypt_handler+0xbc>)
   300fe:	f7ff fd2d 	bl	2fb5c <uart2_printf>
   30102:	2400      	movs	r4, #0
   30104:	466b      	mov	r3, sp
   30106:	4e23      	ldr	r6, [pc, #140]	; (30194 <app_start_encrypt_handler+0xc0>)
   30108:	3304      	adds	r3, #4
   3010a:	5d19      	ldrb	r1, [r3, r4]
   3010c:	0030      	movs	r0, r6
   3010e:	3401      	adds	r4, #1
   30110:	f7ff fd24 	bl	2fb5c <uart2_printf>
   30114:	2c08      	cmp	r4, #8
   30116:	d1f5      	bne.n	30104 <app_start_encrypt_handler+0x30>
   30118:	4d1f      	ldr	r5, [pc, #124]	; (30198 <app_start_encrypt_handler+0xc4>)
   3011a:	2400      	movs	r4, #0
   3011c:	0028      	movs	r0, r5
   3011e:	f7ff fd1d 	bl	2fb5c <uart2_printf>
   30122:	481e      	ldr	r0, [pc, #120]	; (3019c <app_start_encrypt_handler+0xc8>)
   30124:	f7ff fd1a 	bl	2fb5c <uart2_printf>
   30128:	ab01      	add	r3, sp, #4
   3012a:	191b      	adds	r3, r3, r4
   3012c:	0030      	movs	r0, r6
   3012e:	7c99      	ldrb	r1, [r3, #18]
   30130:	3401      	adds	r4, #1
   30132:	f7ff fd13 	bl	2fb5c <uart2_printf>
   30136:	2c08      	cmp	r4, #8
   30138:	d1f6      	bne.n	30128 <app_start_encrypt_handler+0x54>
   3013a:	0028      	movs	r0, r5
   3013c:	f7ff fd0e 	bl	2fb5c <uart2_printf>
   30140:	2102      	movs	r1, #2
   30142:	2203      	movs	r2, #3
   30144:	4b16      	ldr	r3, [pc, #88]	; (301a0 <app_start_encrypt_handler+0xcc>)
   30146:	4817      	ldr	r0, [pc, #92]	; (301a4 <app_start_encrypt_handler+0xd0>)
   30148:	5659      	ldrsb	r1, [r3, r1]
   3014a:	231e      	movs	r3, #30
   3014c:	0209      	lsls	r1, r1, #8
   3014e:	430a      	orrs	r2, r1
   30150:	4321      	orrs	r1, r4
   30152:	0412      	lsls	r2, r2, #16
   30154:	0409      	lsls	r1, r1, #16
   30156:	0c12      	lsrs	r2, r2, #16
   30158:	0c09      	lsrs	r1, r1, #16
   3015a:	f7f6 fd29 	bl	26bb0 <ke_msg_alloc>
   3015e:	230b      	movs	r3, #11
   30160:	0004      	movs	r4, r0
   30162:	7003      	strb	r3, [r0, #0]
   30164:	221c      	movs	r2, #28
   30166:	a901      	add	r1, sp, #4
   30168:	3002      	adds	r0, #2
   3016a:	f00a f87b 	bl	3a264 <memcpy>
   3016e:	0020      	movs	r0, r4
   30170:	f7f6 fd38 	bl	26be4 <ke_msg_send>
   30174:	2000      	movs	r0, #0
   30176:	b008      	add	sp, #32
   30178:	bd70      	pop	{r4, r5, r6, pc}
   3017a:	46c0      	nop			; (mov r8, r8)
   3017c:	00043df8 	.word	0x00043df8
   30180:	0004305f 	.word	0x0004305f
   30184:	00042371 	.word	0x00042371
   30188:	00402e41 	.word	0x00402e41
   3018c:	00042387 	.word	0x00042387
   30190:	0004239e 	.word	0x0004239e
   30194:	000423b0 	.word	0x000423b0
   30198:	00042c96 	.word	0x00042c96
   3019c:	000423b6 	.word	0x000423b6
   301a0:	00402de6 	.word	0x00402de6
   301a4:	00000e16 	.word	0x00000e16

000301a8 <fcc0s_fcc2_val_ntf_cfg_ind_handler>:
   301a8:	b510      	push	{r4, lr}
   301aa:	4803      	ldr	r0, [pc, #12]	; (301b8 <fcc0s_fcc2_val_ntf_cfg_ind_handler+0x10>)
   301ac:	8849      	ldrh	r1, [r1, #2]
   301ae:	f7ff fcd5 	bl	2fb5c <uart2_printf>
   301b2:	2000      	movs	r0, #0
   301b4:	bd10      	pop	{r4, pc}
   301b6:	46c0      	nop			; (mov r8, r8)
   301b8:	000423ca 	.word	0x000423ca

000301bc <fcc2_val_upd_rsp_handler>:
   301bc:	b570      	push	{r4, r5, r6, lr}
   301be:	000c      	movs	r4, r1
   301c0:	0015      	movs	r5, r2
   301c2:	4806      	ldr	r0, [pc, #24]	; (301dc <fcc2_val_upd_rsp_handler+0x20>)
   301c4:	784a      	ldrb	r2, [r1, #1]
   301c6:	4906      	ldr	r1, [pc, #24]	; (301e0 <fcc2_val_upd_rsp_handler+0x24>)
   301c8:	f7ff fcc8 	bl	2fb5c <uart2_printf>
   301cc:	7861      	ldrb	r1, [r4, #1]
   301ce:	2900      	cmp	r1, #0
   301d0:	d102      	bne.n	301d8 <fcc2_val_upd_rsp_handler+0x1c>
   301d2:	0028      	movs	r0, r5
   301d4:	f7f7 f9a4 	bl	27520 <ke_state_set>
   301d8:	2000      	movs	r0, #0
   301da:	bd70      	pop	{r4, r5, r6, pc}
   301dc:	000423e6 	.word	0x000423e6
   301e0:	00043ce2 	.word	0x00043ce2

000301e4 <app_fcc0_msg_dflt_handler>:
   301e4:	b510      	push	{r4, lr}
   301e6:	4903      	ldr	r1, [pc, #12]	; (301f4 <app_fcc0_msg_dflt_handler+0x10>)
   301e8:	4803      	ldr	r0, [pc, #12]	; (301f8 <app_fcc0_msg_dflt_handler+0x14>)
   301ea:	f7ff fcb7 	bl	2fb5c <uart2_printf>
   301ee:	2000      	movs	r0, #0
   301f0:	bd10      	pop	{r4, pc}
   301f2:	46c0      	nop			; (mov r8, r8)
   301f4:	00043bc5 	.word	0x00043bc5
   301f8:	0004305f 	.word	0x0004305f

000301fc <fee0s_fee4_val_ntf_cfg_ind_handler>:
   301fc:	b510      	push	{r4, lr}
   301fe:	4803      	ldr	r0, [pc, #12]	; (3020c <fee0s_fee4_val_ntf_cfg_ind_handler+0x10>)
   30200:	8849      	ldrh	r1, [r1, #2]
   30202:	f7ff fcab 	bl	2fb5c <uart2_printf>
   30206:	2000      	movs	r0, #0
   30208:	bd10      	pop	{r4, pc}
   3020a:	46c0      	nop			; (mov r8, r8)
   3020c:	000423f5 	.word	0x000423f5

00030210 <fee0s_fee5_val_ind_cfg_ind_handler>:
   30210:	b510      	push	{r4, lr}
   30212:	4803      	ldr	r0, [pc, #12]	; (30220 <fee0s_fee5_val_ind_cfg_ind_handler+0x10>)
   30214:	8849      	ldrh	r1, [r1, #2]
   30216:	f7ff fca1 	bl	2fb5c <uart2_printf>
   3021a:	2000      	movs	r0, #0
   3021c:	bd10      	pop	{r4, pc}
   3021e:	46c0      	nop			; (mov r8, r8)
   30220:	00042411 	.word	0x00042411

00030224 <fee5_val_upd_rsp_handler>:
   30224:	b570      	push	{r4, r5, r6, lr}
   30226:	000c      	movs	r4, r1
   30228:	0015      	movs	r5, r2
   3022a:	4806      	ldr	r0, [pc, #24]	; (30244 <fee5_val_upd_rsp_handler+0x20>)
   3022c:	784a      	ldrb	r2, [r1, #1]
   3022e:	4906      	ldr	r1, [pc, #24]	; (30248 <fee5_val_upd_rsp_handler+0x24>)
   30230:	f7ff fc94 	bl	2fb5c <uart2_printf>
   30234:	7861      	ldrb	r1, [r4, #1]
   30236:	2900      	cmp	r1, #0
   30238:	d102      	bne.n	30240 <fee5_val_upd_rsp_handler+0x1c>
   3023a:	0028      	movs	r0, r5
   3023c:	f7f7 f970 	bl	27520 <ke_state_set>
   30240:	2000      	movs	r0, #0
   30242:	bd70      	pop	{r4, r5, r6, pc}
   30244:	000423e6 	.word	0x000423e6
   30248:	00043cfb 	.word	0x00043cfb

0003024c <app_fee0_msg_dflt_handler>:
   3024c:	b510      	push	{r4, lr}
   3024e:	4903      	ldr	r1, [pc, #12]	; (3025c <app_fee0_msg_dflt_handler+0x10>)
   30250:	4803      	ldr	r0, [pc, #12]	; (30260 <app_fee0_msg_dflt_handler+0x14>)
   30252:	f7ff fc83 	bl	2fb5c <uart2_printf>
   30256:	2000      	movs	r0, #0
   30258:	bd10      	pop	{r4, pc}
   3025a:	46c0      	nop			; (mov r8, r8)
   3025c:	00043bdf 	.word	0x00043bdf
   30260:	0004305f 	.word	0x0004305f

00030264 <fee3_writer_req_handler>:
   30264:	b570      	push	{r4, r5, r6, lr}
   30266:	480c      	ldr	r0, [pc, #48]	; (30298 <fee3_writer_req_handler+0x34>)
   30268:	884a      	ldrh	r2, [r1, #2]
   3026a:	000d      	movs	r5, r1
   3026c:	7809      	ldrb	r1, [r1, #0]
   3026e:	f7ff fc75 	bl	2fb5c <uart2_printf>
   30272:	2400      	movs	r4, #0
   30274:	886b      	ldrh	r3, [r5, #2]
   30276:	42a3      	cmp	r3, r4
   30278:	d804      	bhi.n	30284 <fee3_writer_req_handler+0x20>
   3027a:	4808      	ldr	r0, [pc, #32]	; (3029c <fee3_writer_req_handler+0x38>)
   3027c:	f7ff fc6e 	bl	2fb5c <uart2_printf>
   30280:	2000      	movs	r0, #0
   30282:	bd70      	pop	{r4, r5, r6, pc}
   30284:	192b      	adds	r3, r5, r4
   30286:	3401      	adds	r4, #1
   30288:	7919      	ldrb	r1, [r3, #4]
   3028a:	4805      	ldr	r0, [pc, #20]	; (302a0 <fee3_writer_req_handler+0x3c>)
   3028c:	0424      	lsls	r4, r4, #16
   3028e:	f7ff fc65 	bl	2fb5c <uart2_printf>
   30292:	0c24      	lsrs	r4, r4, #16
   30294:	e7ee      	b.n	30274 <fee3_writer_req_handler+0x10>
   30296:	46c0      	nop			; (mov r8, r8)
   30298:	0004242d 	.word	0x0004242d
   3029c:	00042c96 	.word	0x00042c96
   302a0:	00042342 	.word	0x00042342

000302a4 <appm_adv_fsm_next>:
   302a4:	b570      	push	{r4, r5, r6, lr}
   302a6:	4c5e      	ldr	r4, [pc, #376]	; (30420 <appm_adv_fsm_next+0x17c>)
   302a8:	495e      	ldr	r1, [pc, #376]	; (30424 <appm_adv_fsm_next+0x180>)
   302aa:	79e2      	ldrb	r2, [r4, #7]
   302ac:	485e      	ldr	r0, [pc, #376]	; (30428 <appm_adv_fsm_next+0x184>)
   302ae:	f7ff fc55 	bl	2fb5c <uart2_printf>
   302b2:	79e0      	ldrb	r0, [r4, #7]
   302b4:	2808      	cmp	r0, #8
   302b6:	d85d      	bhi.n	30374 <appm_adv_fsm_next+0xd0>
   302b8:	f7fd fed4 	bl	2e064 <__gnu_thumb1_case_uqi>
   302bc:	7f671d05 	.word	0x7f671d05
   302c0:	9d9a7f9a 	.word	0x9d9a7f9a
   302c4:	af          	.byte	0xaf
   302c5:	00          	.byte	0x00
   302c6:	20da      	movs	r0, #218	; 0xda
   302c8:	232c      	movs	r3, #44	; 0x2c
   302ca:	2203      	movs	r2, #3
   302cc:	2107      	movs	r1, #7
   302ce:	0100      	lsls	r0, r0, #4
   302d0:	f7f6 fc6e 	bl	26bb0 <ke_msg_alloc>
   302d4:	2300      	movs	r3, #0
   302d6:	7243      	strb	r3, [r0, #9]
   302d8:	4b54      	ldr	r3, [pc, #336]	; (3042c <appm_adv_fsm_next+0x188>)
   302da:	25a0      	movs	r5, #160	; 0xa0
   302dc:	6043      	str	r3, [r0, #4]
   302de:	2308      	movs	r3, #8
   302e0:	33ff      	adds	r3, #255	; 0xff
   302e2:	8383      	strh	r3, [r0, #28]
   302e4:	8005      	strh	r5, [r0, #0]
   302e6:	6145      	str	r5, [r0, #20]
   302e8:	6185      	str	r5, [r0, #24]
   302ea:	f7f6 fc7b 	bl	26be4 <ke_msg_send>
   302ee:	2301      	movs	r3, #1
   302f0:	71e3      	strb	r3, [r4, #7]
   302f2:	7225      	strb	r5, [r4, #8]
   302f4:	e03e      	b.n	30374 <appm_adv_fsm_next+0xd0>
   302f6:	2323      	movs	r3, #35	; 0x23
   302f8:	2203      	movs	r2, #3
   302fa:	2107      	movs	r1, #7
   302fc:	484c      	ldr	r0, [pc, #304]	; (30430 <appm_adv_fsm_next+0x18c>)
   302fe:	f7f6 fc57 	bl	26bb0 <ke_msg_alloc>
   30302:	23a9      	movs	r3, #169	; 0xa9
   30304:	7003      	strb	r3, [r0, #0]
   30306:	79a3      	ldrb	r3, [r4, #6]
   30308:	0005      	movs	r5, r0
   3030a:	7043      	strb	r3, [r0, #1]
   3030c:	2303      	movs	r3, #3
   3030e:	8043      	strh	r3, [r0, #2]
   30310:	33ff      	adds	r3, #255	; 0xff
   30312:	8083      	strh	r3, [r0, #4]
   30314:	3bfc      	subs	r3, #252	; 0xfc
   30316:	7183      	strb	r3, [r0, #6]
   30318:	7f22      	ldrb	r2, [r4, #28]
   3031a:	0016      	movs	r6, r2
   3031c:	2a1a      	cmp	r2, #26
   3031e:	d900      	bls.n	30322 <appm_adv_fsm_next+0x7e>
   30320:	261a      	movs	r6, #26
   30322:	1c13      	adds	r3, r2, #0
   30324:	2a1a      	cmp	r2, #26
   30326:	d900      	bls.n	3032a <appm_adv_fsm_next+0x86>
   30328:	231a      	movs	r3, #26
   3032a:	061a      	lsls	r2, r3, #24
   3032c:	0e12      	lsrs	r2, r2, #24
   3032e:	1c53      	adds	r3, r2, #1
   30330:	71eb      	strb	r3, [r5, #7]
   30332:	7f23      	ldrb	r3, [r4, #28]
   30334:	0021      	movs	r1, r4
   30336:	1a9b      	subs	r3, r3, r2
   30338:	425a      	negs	r2, r3
   3033a:	4153      	adcs	r3, r2
   3033c:	0028      	movs	r0, r5
   3033e:	3308      	adds	r3, #8
   30340:	0032      	movs	r2, r6
   30342:	722b      	strb	r3, [r5, #8]
   30344:	311d      	adds	r1, #29
   30346:	3605      	adds	r6, #5
   30348:	3009      	adds	r0, #9
   3034a:	f009 ff8b 	bl	3a264 <memcpy>
   3034e:	806e      	strh	r6, [r5, #2]
   30350:	4838      	ldr	r0, [pc, #224]	; (30434 <appm_adv_fsm_next+0x190>)
   30352:	f7ff fc03 	bl	2fb5c <uart2_printf>
   30356:	002e      	movs	r6, r5
   30358:	886a      	ldrh	r2, [r5, #2]
   3035a:	1b73      	subs	r3, r6, r5
   3035c:	429a      	cmp	r2, r3
   3035e:	dc0e      	bgt.n	3037e <appm_adv_fsm_next+0xda>
   30360:	4835      	ldr	r0, [pc, #212]	; (30438 <appm_adv_fsm_next+0x194>)
   30362:	f7ff fbfb 	bl	2fb5c <uart2_printf>
   30366:	0028      	movs	r0, r5
   30368:	f7f6 fc3c 	bl	26be4 <ke_msg_send>
   3036c:	2302      	movs	r3, #2
   3036e:	71e3      	strb	r3, [r4, #7]
   30370:	33a7      	adds	r3, #167	; 0xa7
   30372:	7223      	strb	r3, [r4, #8]
   30374:	79e1      	ldrb	r1, [r4, #7]
   30376:	4831      	ldr	r0, [pc, #196]	; (3043c <appm_adv_fsm_next+0x198>)
   30378:	f7ff fbf0 	bl	2fb5c <uart2_printf>
   3037c:	bd70      	pop	{r4, r5, r6, pc}
   3037e:	7931      	ldrb	r1, [r6, #4]
   30380:	482f      	ldr	r0, [pc, #188]	; (30440 <appm_adv_fsm_next+0x19c>)
   30382:	f7ff fbeb 	bl	2fb5c <uart2_printf>
   30386:	3601      	adds	r6, #1
   30388:	e7e6      	b.n	30358 <appm_adv_fsm_next+0xb4>
   3038a:	2323      	movs	r3, #35	; 0x23
   3038c:	2203      	movs	r2, #3
   3038e:	2107      	movs	r1, #7
   30390:	4827      	ldr	r0, [pc, #156]	; (30430 <appm_adv_fsm_next+0x18c>)
   30392:	f7f6 fc0d 	bl	26bb0 <ke_msg_alloc>
   30396:	26aa      	movs	r6, #170	; 0xaa
   30398:	220a      	movs	r2, #10
   3039a:	0005      	movs	r5, r0
   3039c:	7006      	strb	r6, [r0, #0]
   3039e:	79a3      	ldrb	r3, [r4, #6]
   303a0:	4928      	ldr	r1, [pc, #160]	; (30444 <appm_adv_fsm_next+0x1a0>)
   303a2:	7043      	strb	r3, [r0, #1]
   303a4:	8042      	strh	r2, [r0, #2]
   303a6:	3004      	adds	r0, #4
   303a8:	f009 ff5c 	bl	3a264 <memcpy>
   303ac:	0028      	movs	r0, r5
   303ae:	f7f6 fc19 	bl	26be4 <ke_msg_send>
   303b2:	2303      	movs	r3, #3
   303b4:	71e3      	strb	r3, [r4, #7]
   303b6:	7226      	strb	r6, [r4, #8]
   303b8:	e7dc      	b.n	30374 <appm_adv_fsm_next+0xd0>
   303ba:	4923      	ldr	r1, [pc, #140]	; (30448 <appm_adv_fsm_next+0x1a4>)
   303bc:	4823      	ldr	r0, [pc, #140]	; (3044c <appm_adv_fsm_next+0x1a8>)
   303be:	f7ff fbcd 	bl	2fb5c <uart2_printf>
   303c2:	79e3      	ldrb	r3, [r4, #7]
   303c4:	22fd      	movs	r2, #253	; 0xfd
   303c6:	3b03      	subs	r3, #3
   303c8:	001d      	movs	r5, r3
   303ca:	4015      	ands	r5, r2
   303cc:	4213      	tst	r3, r2
   303ce:	d1d1      	bne.n	30374 <appm_adv_fsm_next+0xd0>
   303d0:	233a      	movs	r3, #58	; 0x3a
   303d2:	2107      	movs	r1, #7
   303d4:	3afa      	subs	r2, #250	; 0xfa
   303d6:	481e      	ldr	r0, [pc, #120]	; (30450 <appm_adv_fsm_next+0x1ac>)
   303d8:	f7f6 fbea 	bl	26bb0 <ke_msg_alloc>
   303dc:	26a4      	movs	r6, #164	; 0xa4
   303de:	7006      	strb	r6, [r0, #0]
   303e0:	79a3      	ldrb	r3, [r4, #6]
   303e2:	8045      	strh	r5, [r0, #2]
   303e4:	7043      	strb	r3, [r0, #1]
   303e6:	7105      	strb	r5, [r0, #4]
   303e8:	f7f6 fbfc 	bl	26be4 <ke_msg_send>
   303ec:	2306      	movs	r3, #6
   303ee:	e7e1      	b.n	303b4 <appm_adv_fsm_next+0x110>
   303f0:	2307      	movs	r3, #7
   303f2:	71e3      	strb	r3, [r4, #7]
   303f4:	e7be      	b.n	30374 <appm_adv_fsm_next+0xd0>
   303f6:	4917      	ldr	r1, [pc, #92]	; (30454 <appm_adv_fsm_next+0x1b0>)
   303f8:	4814      	ldr	r0, [pc, #80]	; (3044c <appm_adv_fsm_next+0x1a8>)
   303fa:	f7ff fbaf 	bl	2fb5c <uart2_printf>
   303fe:	2302      	movs	r3, #2
   30400:	2203      	movs	r2, #3
   30402:	2107      	movs	r1, #7
   30404:	4814      	ldr	r0, [pc, #80]	; (30458 <appm_adv_fsm_next+0x1b4>)
   30406:	f7f6 fbd3 	bl	26bb0 <ke_msg_alloc>
   3040a:	25a5      	movs	r5, #165	; 0xa5
   3040c:	7005      	strb	r5, [r0, #0]
   3040e:	79a3      	ldrb	r3, [r4, #6]
   30410:	7043      	strb	r3, [r0, #1]
   30412:	f7f6 fbe7 	bl	26be4 <ke_msg_send>
   30416:	2308      	movs	r3, #8
   30418:	e76a      	b.n	302f0 <appm_adv_fsm_next+0x4c>
   3041a:	2305      	movs	r3, #5
   3041c:	e7e9      	b.n	303f2 <appm_adv_fsm_next+0x14e>
   3041e:	46c0      	nop			; (mov r8, r8)
   30420:	00402de6 	.word	0x00402de6
   30424:	00043e5d 	.word	0x00043e5d
   30428:	00042459 	.word	0x00042459
   3042c:	00030100 	.word	0x00030100
   30430:	00000da6 	.word	0x00000da6
   30434:	0004246f 	.word	0x0004246f
   30438:	00042c96 	.word	0x00042c96
   3043c:	0004247e 	.word	0x0004247e
   30440:	00042479 	.word	0x00042479
   30444:	00042148 	.word	0x00042148
   30448:	00043d14 	.word	0x00043d14
   3044c:	0004305f 	.word	0x0004305f
   30450:	00000da1 	.word	0x00000da1
   30454:	00043bf9 	.word	0x00043bf9
   30458:	00000da2 	.word	0x00000da2

0003045c <gapc_param_update_req_ind_handler>:
   3045c:	b510      	push	{r4, lr}
   3045e:	4c11      	ldr	r4, [pc, #68]	; (304a4 <gapc_param_update_req_ind_handler+0x48>)
   30460:	0a1b      	lsrs	r3, r3, #8
   30462:	4811      	ldr	r0, [pc, #68]	; (304a8 <gapc_param_update_req_ind_handler+0x4c>)
   30464:	70a3      	strb	r3, [r4, #2]
   30466:	f7ff fb79 	bl	2fb5c <uart2_printf>
   3046a:	78a1      	ldrb	r1, [r4, #2]
   3046c:	29ff      	cmp	r1, #255	; 0xff
   3046e:	d012      	beq.n	30496 <gapc_param_update_req_ind_handler+0x3a>
   30470:	2308      	movs	r3, #8
   30472:	20e1      	movs	r0, #225	; 0xe1
   30474:	0209      	lsls	r1, r1, #8
   30476:	4319      	orrs	r1, r3
   30478:	2203      	movs	r2, #3
   3047a:	3b02      	subs	r3, #2
   3047c:	0100      	lsls	r0, r0, #4
   3047e:	f7f6 fb97 	bl	26bb0 <ke_msg_alloc>
   30482:	2301      	movs	r3, #1
   30484:	7003      	strb	r3, [r0, #0]
   30486:	18db      	adds	r3, r3, r3
   30488:	8043      	strh	r3, [r0, #2]
   3048a:	3302      	adds	r3, #2
   3048c:	8083      	strh	r3, [r0, #4]
   3048e:	f7f6 fba9 	bl	26be4 <ke_msg_send>
   30492:	2000      	movs	r0, #0
   30494:	bd10      	pop	{r4, pc}
   30496:	79e3      	ldrb	r3, [r4, #7]
   30498:	2b00      	cmp	r3, #0
   3049a:	d1fa      	bne.n	30492 <gapc_param_update_req_ind_handler+0x36>
   3049c:	f7ff ff02 	bl	302a4 <appm_adv_fsm_next>
   304a0:	e7f7      	b.n	30492 <gapc_param_update_req_ind_handler+0x36>
   304a2:	46c0      	nop			; (mov r8, r8)
   304a4:	00402de6 	.word	0x00402de6
   304a8:	00042491 	.word	0x00042491

000304ac <appm_scan_fsm_next>:
   304ac:	b570      	push	{r4, r5, r6, lr}
   304ae:	4c31      	ldr	r4, [pc, #196]	; (30574 <appm_scan_fsm_next+0xc8>)
   304b0:	4931      	ldr	r1, [pc, #196]	; (30578 <appm_scan_fsm_next+0xcc>)
   304b2:	7aa2      	ldrb	r2, [r4, #10]
   304b4:	4831      	ldr	r0, [pc, #196]	; (3057c <appm_scan_fsm_next+0xd0>)
   304b6:	f7ff fb51 	bl	2fb5c <uart2_printf>
   304ba:	7aa2      	ldrb	r2, [r4, #10]
   304bc:	2a05      	cmp	r2, #5
   304be:	d81f      	bhi.n	30500 <appm_scan_fsm_next+0x54>
   304c0:	0010      	movs	r0, r2
   304c2:	f7fd fdcf 	bl	2e064 <__gnu_thumb1_case_uqi>
   304c6:	2203      	.short	0x2203
   304c8:	54464322 	.word	0x54464322
   304cc:	2200      	movs	r2, #0
   304ce:	492c      	ldr	r1, [pc, #176]	; (30580 <appm_scan_fsm_next+0xd4>)
   304d0:	482c      	ldr	r0, [pc, #176]	; (30584 <appm_scan_fsm_next+0xd8>)
   304d2:	f7ff fb43 	bl	2fb5c <uart2_printf>
   304d6:	7aa5      	ldrb	r5, [r4, #10]
   304d8:	2d00      	cmp	r5, #0
   304da:	d111      	bne.n	30500 <appm_scan_fsm_next+0x54>
   304dc:	20da      	movs	r0, #218	; 0xda
   304de:	2302      	movs	r3, #2
   304e0:	2203      	movs	r2, #3
   304e2:	2107      	movs	r1, #7
   304e4:	0100      	lsls	r0, r0, #4
   304e6:	f7f6 fb63 	bl	26bb0 <ke_msg_alloc>
   304ea:	23a1      	movs	r3, #161	; 0xa1
   304ec:	7045      	strb	r5, [r0, #1]
   304ee:	7003      	strb	r3, [r0, #0]
   304f0:	f7f6 fb78 	bl	26be4 <ke_msg_send>
   304f4:	4b24      	ldr	r3, [pc, #144]	; (30588 <appm_scan_fsm_next+0xdc>)
   304f6:	8163      	strh	r3, [r4, #10]
   304f8:	2364      	movs	r3, #100	; 0x64
   304fa:	81a3      	strh	r3, [r4, #12]
   304fc:	3b50      	subs	r3, #80	; 0x50
   304fe:	81e3      	strh	r3, [r4, #14]
   30500:	7aa1      	ldrb	r1, [r4, #10]
   30502:	4822      	ldr	r0, [pc, #136]	; (3058c <appm_scan_fsm_next+0xe0>)
   30504:	f7ff fb2a 	bl	2fb5c <uart2_printf>
   30508:	bd70      	pop	{r4, r5, r6, pc}
   3050a:	4921      	ldr	r1, [pc, #132]	; (30590 <appm_scan_fsm_next+0xe4>)
   3050c:	481d      	ldr	r0, [pc, #116]	; (30584 <appm_scan_fsm_next+0xd8>)
   3050e:	f7ff fb25 	bl	2fb5c <uart2_printf>
   30512:	7aa3      	ldrb	r3, [r4, #10]
   30514:	2b02      	cmp	r3, #2
   30516:	d1f3      	bne.n	30500 <appm_scan_fsm_next+0x54>
   30518:	2203      	movs	r2, #3
   3051a:	2107      	movs	r1, #7
   3051c:	3338      	adds	r3, #56	; 0x38
   3051e:	481d      	ldr	r0, [pc, #116]	; (30594 <appm_scan_fsm_next+0xe8>)
   30520:	f7f6 fb46 	bl	26bb0 <ke_msg_alloc>
   30524:	23a4      	movs	r3, #164	; 0xa4
   30526:	7003      	strb	r3, [r0, #0]
   30528:	7a63      	ldrb	r3, [r4, #9]
   3052a:	7043      	strb	r3, [r0, #1]
   3052c:	2314      	movs	r3, #20
   3052e:	80c3      	strh	r3, [r0, #6]
   30530:	3b10      	subs	r3, #16
   30532:	8103      	strh	r3, [r0, #8]
   30534:	4b18      	ldr	r3, [pc, #96]	; (30598 <appm_scan_fsm_next+0xec>)
   30536:	8043      	strh	r3, [r0, #2]
   30538:	2300      	movs	r3, #0
   3053a:	7103      	strb	r3, [r0, #4]
   3053c:	81c3      	strh	r3, [r0, #14]
   3053e:	330a      	adds	r3, #10
   30540:	8203      	strh	r3, [r0, #16]
   30542:	f7f6 fb4f 	bl	26be4 <ke_msg_send>
   30546:	4b15      	ldr	r3, [pc, #84]	; (3059c <appm_scan_fsm_next+0xf0>)
   30548:	8163      	strh	r3, [r4, #10]
   3054a:	e7d9      	b.n	30500 <appm_scan_fsm_next+0x54>
   3054c:	2304      	movs	r3, #4
   3054e:	72a3      	strb	r3, [r4, #10]
   30550:	e7d6      	b.n	30500 <appm_scan_fsm_next+0x54>
   30552:	2302      	movs	r3, #2
   30554:	2203      	movs	r2, #3
   30556:	2107      	movs	r1, #7
   30558:	4811      	ldr	r0, [pc, #68]	; (305a0 <appm_scan_fsm_next+0xf4>)
   3055a:	f7f6 fb29 	bl	26bb0 <ke_msg_alloc>
   3055e:	23a5      	movs	r3, #165	; 0xa5
   30560:	7003      	strb	r3, [r0, #0]
   30562:	7a63      	ldrb	r3, [r4, #9]
   30564:	7043      	strb	r3, [r0, #1]
   30566:	f7f6 fb3d 	bl	26be4 <ke_msg_send>
   3056a:	4b0e      	ldr	r3, [pc, #56]	; (305a4 <appm_scan_fsm_next+0xf8>)
   3056c:	e7ec      	b.n	30548 <appm_scan_fsm_next+0x9c>
   3056e:	2302      	movs	r3, #2
   30570:	e7ed      	b.n	3054e <appm_scan_fsm_next+0xa2>
   30572:	46c0      	nop			; (mov r8, r8)
   30574:	00402de6 	.word	0x00402de6
   30578:	00043f2d 	.word	0x00043f2d
   3057c:	000424b4 	.word	0x000424b4
   30580:	00043e6f 	.word	0x00043e6f
   30584:	000424c7 	.word	0x000424c7
   30588:	ffffa101 	.word	0xffffa101
   3058c:	000424df 	.word	0x000424df
   30590:	00043d2b 	.word	0x00043d2b
   30594:	00000da1 	.word	0x00000da1
   30598:	00000502 	.word	0x00000502
   3059c:	ffffa403 	.word	0xffffa403
   305a0:	00000da2 	.word	0x00000da2
   305a4:	ffffa505 	.word	0xffffa505

000305a8 <app_start_scan_handler>:
   305a8:	b510      	push	{r4, lr}
   305aa:	4906      	ldr	r1, [pc, #24]	; (305c4 <app_start_scan_handler+0x1c>)
   305ac:	4806      	ldr	r0, [pc, #24]	; (305c8 <app_start_scan_handler+0x20>)
   305ae:	f7ff fad5 	bl	2fb5c <uart2_printf>
   305b2:	4b06      	ldr	r3, [pc, #24]	; (305cc <app_start_scan_handler+0x24>)
   305b4:	7a9b      	ldrb	r3, [r3, #10]
   305b6:	2b02      	cmp	r3, #2
   305b8:	d101      	bne.n	305be <app_start_scan_handler+0x16>
   305ba:	f7ff ff77 	bl	304ac <appm_scan_fsm_next>
   305be:	2000      	movs	r0, #0
   305c0:	bd10      	pop	{r4, pc}
   305c2:	46c0      	nop			; (mov r8, r8)
   305c4:	00043e12 	.word	0x00043e12
   305c8:	0004305f 	.word	0x0004305f
   305cc:	00402de6 	.word	0x00402de6

000305d0 <appm_init_fsm_next>:
   305d0:	b5f0      	push	{r4, r5, r6, r7, lr}
   305d2:	4c3e      	ldr	r4, [pc, #248]	; (306cc <appm_init_fsm_next+0xfc>)
   305d4:	493e      	ldr	r1, [pc, #248]	; (306d0 <appm_init_fsm_next+0x100>)
   305d6:	7c62      	ldrb	r2, [r4, #17]
   305d8:	483e      	ldr	r0, [pc, #248]	; (306d4 <appm_init_fsm_next+0x104>)
   305da:	b085      	sub	sp, #20
   305dc:	f7ff fabe 	bl	2fb5c <uart2_printf>
   305e0:	7c60      	ldrb	r0, [r4, #17]
   305e2:	2805      	cmp	r0, #5
   305e4:	d826      	bhi.n	30634 <appm_init_fsm_next+0x64>
   305e6:	f7fd fd3d 	bl	2e064 <__gnu_thumb1_case_uqi>
   305ea:	2b03      	.short	0x2b03
   305ec:	2b256e2e 	.word	0x2b256e2e
   305f0:	2200      	movs	r2, #0
   305f2:	4939      	ldr	r1, [pc, #228]	; (306d8 <appm_init_fsm_next+0x108>)
   305f4:	4839      	ldr	r0, [pc, #228]	; (306dc <appm_init_fsm_next+0x10c>)
   305f6:	f7ff fab1 	bl	2fb5c <uart2_printf>
   305fa:	7c65      	ldrb	r5, [r4, #17]
   305fc:	2d00      	cmp	r5, #0
   305fe:	d119      	bne.n	30634 <appm_init_fsm_next+0x64>
   30600:	20da      	movs	r0, #218	; 0xda
   30602:	2302      	movs	r3, #2
   30604:	2203      	movs	r2, #3
   30606:	2107      	movs	r1, #7
   30608:	0100      	lsls	r0, r0, #4
   3060a:	f7f6 fad1 	bl	26bb0 <ke_msg_alloc>
   3060e:	26a2      	movs	r6, #162	; 0xa2
   30610:	7045      	strb	r5, [r0, #1]
   30612:	7006      	strb	r6, [r0, #0]
   30614:	f7f6 fae6 	bl	26be4 <ke_msg_send>
   30618:	2301      	movs	r3, #1
   3061a:	7463      	strb	r3, [r4, #17]
   3061c:	3317      	adds	r3, #23
   3061e:	82a3      	strh	r3, [r4, #20]
   30620:	3315      	adds	r3, #21
   30622:	33ff      	adds	r3, #255	; 0xff
   30624:	8323      	strh	r3, [r4, #24]
   30626:	3b23      	subs	r3, #35	; 0x23
   30628:	3bff      	subs	r3, #255	; 0xff
   3062a:	81a3      	strh	r3, [r4, #12]
   3062c:	3b04      	subs	r3, #4
   3062e:	74a6      	strb	r6, [r4, #18]
   30630:	82e5      	strh	r5, [r4, #22]
   30632:	81e3      	strh	r3, [r4, #14]
   30634:	7c61      	ldrb	r1, [r4, #17]
   30636:	482a      	ldr	r0, [pc, #168]	; (306e0 <appm_init_fsm_next+0x110>)
   30638:	f7ff fa90 	bl	2fb5c <uart2_printf>
   3063c:	b005      	add	sp, #20
   3063e:	bdf0      	pop	{r4, r5, r6, r7, pc}
   30640:	2302      	movs	r3, #2
   30642:	7463      	strb	r3, [r4, #17]
   30644:	e7f6      	b.n	30634 <appm_init_fsm_next+0x64>
   30646:	4d27      	ldr	r5, [pc, #156]	; (306e4 <appm_init_fsm_next+0x114>)
   30648:	2207      	movs	r2, #7
   3064a:	0029      	movs	r1, r5
   3064c:	a802      	add	r0, sp, #8
   3064e:	f009 fe09 	bl	3a264 <memcpy>
   30652:	79ab      	ldrb	r3, [r5, #6]
   30654:	2202      	movs	r2, #2
   30656:	4924      	ldr	r1, [pc, #144]	; (306e8 <appm_init_fsm_next+0x118>)
   30658:	4820      	ldr	r0, [pc, #128]	; (306dc <appm_init_fsm_next+0x10c>)
   3065a:	9301      	str	r3, [sp, #4]
   3065c:	f7ff fa7e 	bl	2fb5c <uart2_printf>
   30660:	7c67      	ldrb	r7, [r4, #17]
   30662:	2f02      	cmp	r7, #2
   30664:	d1e6      	bne.n	30634 <appm_init_fsm_next+0x64>
   30666:	233a      	movs	r3, #58	; 0x3a
   30668:	2203      	movs	r2, #3
   3066a:	2107      	movs	r1, #7
   3066c:	481f      	ldr	r0, [pc, #124]	; (306ec <appm_init_fsm_next+0x11c>)
   3066e:	f7f6 fa9f 	bl	26bb0 <ke_msg_alloc>
   30672:	26a4      	movs	r6, #164	; 0xa4
   30674:	7006      	strb	r6, [r0, #0]
   30676:	7c23      	ldrb	r3, [r4, #16]
   30678:	9a01      	ldr	r2, [sp, #4]
   3067a:	7043      	strb	r3, [r0, #1]
   3067c:	2304      	movs	r3, #4
   3067e:	8303      	strh	r3, [r0, #24]
   30680:	3314      	adds	r3, #20
   30682:	81c3      	strh	r3, [r0, #14]
   30684:	8203      	strh	r3, [r0, #16]
   30686:	2300      	movs	r3, #0
   30688:	8243      	strh	r3, [r0, #18]
   3068a:	332d      	adds	r3, #45	; 0x2d
   3068c:	33ff      	adds	r3, #255	; 0xff
   3068e:	8283      	strh	r3, [r0, #20]
   30690:	0003      	movs	r3, r0
   30692:	82c7      	strh	r7, [r0, #22]
   30694:	3338      	adds	r3, #56	; 0x38
   30696:	3704      	adds	r7, #4
   30698:	0005      	movs	r5, r0
   3069a:	701a      	strb	r2, [r3, #0]
   3069c:	a902      	add	r1, sp, #8
   3069e:	003a      	movs	r2, r7
   306a0:	3032      	adds	r0, #50	; 0x32
   306a2:	f009 fddf 	bl	3a264 <memcpy>
   306a6:	2380      	movs	r3, #128	; 0x80
   306a8:	005b      	lsls	r3, r3, #1
   306aa:	806b      	strh	r3, [r5, #2]
   306ac:	23fa      	movs	r3, #250	; 0xfa
   306ae:	009b      	lsls	r3, r3, #2
   306b0:	80ab      	strh	r3, [r5, #4]
   306b2:	230a      	movs	r3, #10
   306b4:	0028      	movs	r0, r5
   306b6:	80eb      	strh	r3, [r5, #6]
   306b8:	812f      	strh	r7, [r5, #8]
   306ba:	f7f6 fa93 	bl	26be4 <ke_msg_send>
   306be:	2303      	movs	r3, #3
   306c0:	74a6      	strb	r6, [r4, #18]
   306c2:	7463      	strb	r3, [r4, #17]
   306c4:	e7b6      	b.n	30634 <appm_init_fsm_next+0x64>
   306c6:	2304      	movs	r3, #4
   306c8:	e7bb      	b.n	30642 <appm_init_fsm_next+0x72>
   306ca:	46c0      	nop			; (mov r8, r8)
   306cc:	00402de6 	.word	0x00402de6
   306d0:	0004410a 	.word	0x0004410a
   306d4:	000424f3 	.word	0x000424f3
   306d8:	000440db 	.word	0x000440db
   306dc:	00042506 	.word	0x00042506
   306e0:	0004251e 	.word	0x0004251e
   306e4:	00402f44 	.word	0x00402f44
   306e8:	00043d92 	.word	0x00043d92
   306ec:	00000da1 	.word	0x00000da1

000306f0 <appm_mesh_adv_fsm_next>:
   306f0:	b510      	push	{r4, lr}
   306f2:	4b03      	ldr	r3, [pc, #12]	; (30700 <appm_mesh_adv_fsm_next+0x10>)
   306f4:	4803      	ldr	r0, [pc, #12]	; (30704 <appm_mesh_adv_fsm_next+0x14>)
   306f6:	7919      	ldrb	r1, [r3, #4]
   306f8:	f7ff fa30 	bl	2fb5c <uart2_printf>
   306fc:	bd10      	pop	{r4, pc}
   306fe:	46c0      	nop			; (mov r8, r8)
   30700:	00402de6 	.word	0x00402de6
   30704:	0004247e 	.word	0x0004247e

00030708 <gapm_activity_stopped_ind_handler>:
   30708:	b5f0      	push	{r4, r5, r6, r7, lr}
   3070a:	4839      	ldr	r0, [pc, #228]	; (307f0 <gapm_activity_stopped_ind_handler+0xe8>)
   3070c:	780b      	ldrb	r3, [r1, #0]
   3070e:	788a      	ldrb	r2, [r1, #2]
   30710:	000d      	movs	r5, r1
   30712:	b087      	sub	sp, #28
   30714:	4937      	ldr	r1, [pc, #220]	; (307f4 <gapm_activity_stopped_ind_handler+0xec>)
   30716:	f7ff fa21 	bl	2fb5c <uart2_printf>
   3071a:	4c37      	ldr	r4, [pc, #220]	; (307f8 <gapm_activity_stopped_ind_handler+0xf0>)
   3071c:	79e3      	ldrb	r3, [r4, #7]
   3071e:	2b07      	cmp	r3, #7
   30720:	d10a      	bne.n	30738 <gapm_activity_stopped_ind_handler+0x30>
   30722:	79a2      	ldrb	r2, [r4, #6]
   30724:	782b      	ldrb	r3, [r5, #0]
   30726:	429a      	cmp	r2, r3
   30728:	d106      	bne.n	30738 <gapm_activity_stopped_ind_handler+0x30>
   3072a:	2308      	movs	r3, #8
   3072c:	71e3      	strb	r3, [r4, #7]
   3072e:	f7ff fdb9 	bl	302a4 <appm_adv_fsm_next>
   30732:	2000      	movs	r0, #0
   30734:	b007      	add	sp, #28
   30736:	bdf0      	pop	{r4, r5, r6, r7, pc}
   30738:	7923      	ldrb	r3, [r4, #4]
   3073a:	2b06      	cmp	r3, #6
   3073c:	d141      	bne.n	307c2 <gapm_activity_stopped_ind_handler+0xba>
   3073e:	78e2      	ldrb	r2, [r4, #3]
   30740:	782b      	ldrb	r3, [r5, #0]
   30742:	429a      	cmp	r2, r3
   30744:	d13d      	bne.n	307c2 <gapm_activity_stopped_ind_handler+0xba>
   30746:	2615      	movs	r6, #21
   30748:	2507      	movs	r5, #7
   3074a:	492c      	ldr	r1, [pc, #176]	; (307fc <gapm_activity_stopped_ind_handler+0xf4>)
   3074c:	0032      	movs	r2, r6
   3074e:	310b      	adds	r1, #11
   30750:	4668      	mov	r0, sp
   30752:	f009 fd87 	bl	3a264 <memcpy>
   30756:	4b2a      	ldr	r3, [pc, #168]	; (30800 <gapm_activity_stopped_ind_handler+0xf8>)
   30758:	7125      	strb	r5, [r4, #4]
   3075a:	781f      	ldrb	r7, [r3, #0]
   3075c:	1c7a      	adds	r2, r7, #1
   3075e:	701a      	strb	r2, [r3, #0]
   30760:	f7ff ffc6 	bl	306f0 <appm_mesh_adv_fsm_next>
   30764:	2202      	movs	r2, #2
   30766:	7923      	ldrb	r3, [r4, #4]
   30768:	4393      	bics	r3, r2
   3076a:	2b04      	cmp	r3, #4
   3076c:	d1e1      	bne.n	30732 <gapm_activity_stopped_ind_handler+0x2a>
   3076e:	0029      	movs	r1, r5
   30770:	331f      	adds	r3, #31
   30772:	3201      	adds	r2, #1
   30774:	4823      	ldr	r0, [pc, #140]	; (30804 <gapm_activity_stopped_ind_handler+0xfc>)
   30776:	f7f6 fa1b 	bl	26bb0 <ke_msg_alloc>
   3077a:	23a9      	movs	r3, #169	; 0xa9
   3077c:	7003      	strb	r3, [r0, #0]
   3077e:	78e3      	ldrb	r3, [r4, #3]
   30780:	0005      	movs	r5, r0
   30782:	7043      	strb	r3, [r0, #1]
   30784:	466b      	mov	r3, sp
   30786:	0032      	movs	r2, r6
   30788:	4669      	mov	r1, sp
   3078a:	749f      	strb	r7, [r3, #18]
   3078c:	3004      	adds	r0, #4
   3078e:	f009 fd69 	bl	3a264 <memcpy>
   30792:	806e      	strh	r6, [r5, #2]
   30794:	481c      	ldr	r0, [pc, #112]	; (30808 <gapm_activity_stopped_ind_handler+0x100>)
   30796:	f7ff f9e1 	bl	2fb5c <uart2_printf>
   3079a:	002e      	movs	r6, r5
   3079c:	886a      	ldrh	r2, [r5, #2]
   3079e:	1b73      	subs	r3, r6, r5
   307a0:	4293      	cmp	r3, r2
   307a2:	db08      	blt.n	307b6 <gapm_activity_stopped_ind_handler+0xae>
   307a4:	4819      	ldr	r0, [pc, #100]	; (3080c <gapm_activity_stopped_ind_handler+0x104>)
   307a6:	f7ff f9d9 	bl	2fb5c <uart2_printf>
   307aa:	0028      	movs	r0, r5
   307ac:	f7f6 fa1a 	bl	26be4 <ke_msg_send>
   307b0:	2303      	movs	r3, #3
   307b2:	7123      	strb	r3, [r4, #4]
   307b4:	e7bd      	b.n	30732 <gapm_activity_stopped_ind_handler+0x2a>
   307b6:	7931      	ldrb	r1, [r6, #4]
   307b8:	4815      	ldr	r0, [pc, #84]	; (30810 <gapm_activity_stopped_ind_handler+0x108>)
   307ba:	f7ff f9cf 	bl	2fb5c <uart2_printf>
   307be:	3601      	adds	r6, #1
   307c0:	e7ec      	b.n	3079c <gapm_activity_stopped_ind_handler+0x94>
   307c2:	7aa3      	ldrb	r3, [r4, #10]
   307c4:	2b04      	cmp	r3, #4
   307c6:	d107      	bne.n	307d8 <gapm_activity_stopped_ind_handler+0xd0>
   307c8:	786b      	ldrb	r3, [r5, #1]
   307ca:	2b01      	cmp	r3, #1
   307cc:	d104      	bne.n	307d8 <gapm_activity_stopped_ind_handler+0xd0>
   307ce:	3304      	adds	r3, #4
   307d0:	72a3      	strb	r3, [r4, #10]
   307d2:	f7ff fe6b 	bl	304ac <appm_scan_fsm_next>
   307d6:	e7ac      	b.n	30732 <gapm_activity_stopped_ind_handler+0x2a>
   307d8:	7c63      	ldrb	r3, [r4, #17]
   307da:	2b04      	cmp	r3, #4
   307dc:	d1a9      	bne.n	30732 <gapm_activity_stopped_ind_handler+0x2a>
   307de:	786b      	ldrb	r3, [r5, #1]
   307e0:	2b02      	cmp	r3, #2
   307e2:	d1a6      	bne.n	30732 <gapm_activity_stopped_ind_handler+0x2a>
   307e4:	3303      	adds	r3, #3
   307e6:	7463      	strb	r3, [r4, #17]
   307e8:	f7ff fef2 	bl	305d0 <appm_init_fsm_next>
   307ec:	e7a1      	b.n	30732 <gapm_activity_stopped_ind_handler+0x2a>
   307ee:	46c0      	nop			; (mov r8, r8)
   307f0:	00042532 	.word	0x00042532
   307f4:	00043f0b 	.word	0x00043f0b
   307f8:	00402de6 	.word	0x00402de6
   307fc:	00042148 	.word	0x00042148
   30800:	00402fe2 	.word	0x00402fe2
   30804:	00000da6 	.word	0x00000da6
   30808:	0004254d 	.word	0x0004254d
   3080c:	00042c96 	.word	0x00042c96
   30810:	00042479 	.word	0x00042479

00030814 <gapm_cmp_evt_handler>:
   30814:	b5f7      	push	{r0, r1, r2, r4, r5, r6, r7, lr}
   30816:	2710      	movs	r7, #16
   30818:	466b      	mov	r3, sp
   3081a:	000e      	movs	r6, r1
   3081c:	719f      	strb	r7, [r3, #6]
   3081e:	784b      	ldrb	r3, [r1, #1]
   30820:	780a      	ldrb	r2, [r1, #0]
   30822:	48b3      	ldr	r0, [pc, #716]	; (30af0 <gapm_cmp_evt_handler+0x2dc>)
   30824:	49b3      	ldr	r1, [pc, #716]	; (30af4 <gapm_cmp_evt_handler+0x2e0>)
   30826:	f7ff f999 	bl	2fb5c <uart2_printf>
   3082a:	4cb3      	ldr	r4, [pc, #716]	; (30af8 <gapm_cmp_evt_handler+0x2e4>)
   3082c:	48b3      	ldr	r0, [pc, #716]	; (30afc <gapm_cmp_evt_handler+0x2e8>)
   3082e:	7922      	ldrb	r2, [r4, #4]
   30830:	79e1      	ldrb	r1, [r4, #7]
   30832:	f7ff f993 	bl	2fb5c <uart2_printf>
   30836:	7835      	ldrb	r5, [r6, #0]
   30838:	2daa      	cmp	r5, #170	; 0xaa
   3083a:	d80a      	bhi.n	30852 <gapm_cmp_evt_handler+0x3e>
   3083c:	2d9f      	cmp	r5, #159	; 0x9f
   3083e:	d80a      	bhi.n	30856 <gapm_cmp_evt_handler+0x42>
   30840:	2d1a      	cmp	r5, #26
   30842:	d100      	bne.n	30846 <gapm_cmp_evt_handler+0x32>
   30844:	e098      	b.n	30978 <gapm_cmp_evt_handler+0x164>
   30846:	d817      	bhi.n	30878 <gapm_cmp_evt_handler+0x64>
   30848:	2d01      	cmp	r5, #1
   3084a:	d036      	beq.n	308ba <gapm_cmp_evt_handler+0xa6>
   3084c:	2d03      	cmp	r5, #3
   3084e:	d100      	bne.n	30852 <gapm_cmp_evt_handler+0x3e>
   30850:	e0b3      	b.n	309ba <gapm_cmp_evt_handler+0x1a6>
   30852:	2000      	movs	r0, #0
   30854:	bdfe      	pop	{r1, r2, r3, r4, r5, r6, r7, pc}
   30856:	0028      	movs	r0, r5
   30858:	38a0      	subs	r0, #160	; 0xa0
   3085a:	280a      	cmp	r0, #10
   3085c:	d8f9      	bhi.n	30852 <gapm_cmp_evt_handler+0x3e>
   3085e:	f7fd fc0b 	bl	2e078 <__gnu_thumb1_case_shi>
   30862:	00da      	.short	0x00da
   30864:	fff800d3 	.word	0xfff800d3
   30868:	0104fff8 	.word	0x0104fff8
   3086c:	fff8011c 	.word	0xfff8011c
   30870:	01400133 	.word	0x01400133
   30874:	00fb00eb 	.word	0x00fb00eb
   30878:	2d1b      	cmp	r5, #27
   3087a:	d067      	beq.n	3094c <gapm_cmp_evt_handler+0x138>
   3087c:	2d28      	cmp	r5, #40	; 0x28
   3087e:	d1e8      	bne.n	30852 <gapm_cmp_evt_handler+0x3e>
   30880:	4b9f      	ldr	r3, [pc, #636]	; (30b00 <gapm_cmp_evt_handler+0x2ec>)
   30882:	781b      	ldrb	r3, [r3, #0]
   30884:	2b00      	cmp	r3, #0
   30886:	d10e      	bne.n	308a6 <gapm_cmp_evt_handler+0x92>
   30888:	0025      	movs	r5, r4
   3088a:	466b      	mov	r3, sp
   3088c:	352f      	adds	r5, #47	; 0x2f
   3088e:	002a      	movs	r2, r5
   30890:	209a      	movs	r0, #154	; 0x9a
   30892:	1d99      	adds	r1, r3, #6
   30894:	f7fe fdf0 	bl	2f478 <nvds_get>
   30898:	2800      	cmp	r0, #0
   3089a:	d004      	beq.n	308a6 <gapm_cmp_evt_handler+0x92>
   3089c:	002a      	movs	r2, r5
   3089e:	0039      	movs	r1, r7
   308a0:	209a      	movs	r0, #154	; 0x9a
   308a2:	f7fe ffc7 	bl	2f834 <nvds_put>
   308a6:	2300      	movs	r3, #0
   308a8:	2101      	movs	r1, #1
   308aa:	3440      	adds	r4, #64	; 0x40
   308ac:	2003      	movs	r0, #3
   308ae:	7023      	strb	r3, [r4, #0]
   308b0:	f7f6 fe36 	bl	27520 <ke_state_set>
   308b4:	f7ff fa5c 	bl	2fd70 <appm_add_svc>
   308b8:	e7cb      	b.n	30852 <gapm_cmp_evt_handler+0x3e>
   308ba:	7873      	ldrb	r3, [r6, #1]
   308bc:	2b00      	cmp	r3, #0
   308be:	d1c8      	bne.n	30852 <gapm_cmp_evt_handler+0x3e>
   308c0:	2203      	movs	r2, #3
   308c2:	2107      	movs	r1, #7
   308c4:	3334      	adds	r3, #52	; 0x34
   308c6:	488f      	ldr	r0, [pc, #572]	; (30b04 <gapm_cmp_evt_handler+0x2f0>)
   308c8:	f7f6 f972 	bl	26bb0 <ke_msg_alloc>
   308cc:	4b8e      	ldr	r3, [pc, #568]	; (30b08 <gapm_cmp_evt_handler+0x2f4>)
   308ce:	1d07      	adds	r7, r0, #4
   308d0:	8003      	strh	r3, [r0, #0]
   308d2:	23fb      	movs	r3, #251	; 0xfb
   308d4:	8443      	strh	r3, [r0, #34]	; 0x22
   308d6:	4b8d      	ldr	r3, [pc, #564]	; (30b0c <gapm_cmp_evt_handler+0x2f8>)
   308d8:	0006      	movs	r6, r0
   308da:	8483      	strh	r3, [r0, #36]	; 0x24
   308dc:	4b8c      	ldr	r3, [pc, #560]	; (30b10 <gapm_cmp_evt_handler+0x2fc>)
   308de:	003a      	movs	r2, r7
   308e0:	84c3      	strh	r3, [r0, #38]	; 0x26
   308e2:	3b10      	subs	r3, #16
   308e4:	3bff      	subs	r3, #255	; 0xff
   308e6:	8343      	strh	r3, [r0, #26]
   308e8:	466b      	mov	r3, sp
   308ea:	0028      	movs	r0, r5
   308ec:	1dd9      	adds	r1, r3, #7
   308ee:	f7fe fdc3 	bl	2f478 <nvds_get>
   308f2:	2800      	cmp	r0, #0
   308f4:	d11e      	bne.n	30934 <gapm_cmp_evt_handler+0x120>
   308f6:	223f      	movs	r2, #63	; 0x3f
   308f8:	7a73      	ldrb	r3, [r6, #9]
   308fa:	4393      	bics	r3, r2
   308fc:	d002      	beq.n	30904 <gapm_cmp_evt_handler+0xf0>
   308fe:	7eb0      	ldrb	r0, [r6, #26]
   30900:	4305      	orrs	r5, r0
   30902:	76b5      	strb	r5, [r6, #26]
   30904:	0035      	movs	r5, r6
   30906:	4b7e      	ldr	r3, [pc, #504]	; (30b00 <gapm_cmp_evt_handler+0x2ec>)
   30908:	350a      	adds	r5, #10
   3090a:	781b      	ldrb	r3, [r3, #0]
   3090c:	2b00      	cmp	r3, #0
   3090e:	d017      	beq.n	30940 <gapm_cmp_evt_handler+0x12c>
   30910:	466b      	mov	r3, sp
   30912:	342f      	adds	r4, #47	; 0x2f
   30914:	0022      	movs	r2, r4
   30916:	209a      	movs	r0, #154	; 0x9a
   30918:	1d99      	adds	r1, r3, #6
   3091a:	f7fe fdad 	bl	2f478 <nvds_get>
   3091e:	2800      	cmp	r0, #0
   30920:	d10e      	bne.n	30940 <gapm_cmp_evt_handler+0x12c>
   30922:	2210      	movs	r2, #16
   30924:	0021      	movs	r1, r4
   30926:	0028      	movs	r0, r5
   30928:	f009 fc9c 	bl	3a264 <memcpy>
   3092c:	0030      	movs	r0, r6
   3092e:	f7f6 f959 	bl	26be4 <ke_msg_send>
   30932:	e78e      	b.n	30852 <gapm_cmp_evt_handler+0x3e>
   30934:	2206      	movs	r2, #6
   30936:	0038      	movs	r0, r7
   30938:	4976      	ldr	r1, [pc, #472]	; (30b14 <gapm_cmp_evt_handler+0x300>)
   3093a:	f009 fc93 	bl	3a264 <memcpy>
   3093e:	e7da      	b.n	308f6 <gapm_cmp_evt_handler+0xe2>
   30940:	2210      	movs	r2, #16
   30942:	2100      	movs	r1, #0
   30944:	0028      	movs	r0, r5
   30946:	f009 fce1 	bl	3a30c <memset>
   3094a:	e7ef      	b.n	3092c <gapm_cmp_evt_handler+0x118>
   3094c:	f7ff fa10 	bl	2fd70 <appm_add_svc>
   30950:	2800      	cmp	r0, #0
   30952:	d000      	beq.n	30956 <gapm_cmp_evt_handler+0x142>
   30954:	e77d      	b.n	30852 <gapm_cmp_evt_handler+0x3e>
   30956:	79e3      	ldrb	r3, [r4, #7]
   30958:	2b00      	cmp	r3, #0
   3095a:	d101      	bne.n	30960 <gapm_cmp_evt_handler+0x14c>
   3095c:	f7ff fca2 	bl	302a4 <appm_adv_fsm_next>
   30960:	7aa3      	ldrb	r3, [r4, #10]
   30962:	2b00      	cmp	r3, #0
   30964:	d101      	bne.n	3096a <gapm_cmp_evt_handler+0x156>
   30966:	f7ff fda1 	bl	304ac <appm_scan_fsm_next>
   3096a:	7c63      	ldrb	r3, [r4, #17]
   3096c:	2b00      	cmp	r3, #0
   3096e:	d000      	beq.n	30972 <gapm_cmp_evt_handler+0x15e>
   30970:	e76f      	b.n	30852 <gapm_cmp_evt_handler+0x3e>
   30972:	f7ff fe2d 	bl	305d0 <appm_init_fsm_next>
   30976:	e76c      	b.n	30852 <gapm_cmp_evt_handler+0x3e>
   30978:	0026      	movs	r6, r4
   3097a:	3640      	adds	r6, #64	; 0x40
   3097c:	7833      	ldrb	r3, [r6, #0]
   3097e:	2b01      	cmp	r3, #1
   30980:	d108      	bne.n	30994 <gapm_cmp_evt_handler+0x180>
   30982:	2202      	movs	r2, #2
   30984:	2107      	movs	r1, #7
   30986:	7032      	strb	r2, [r6, #0]
   30988:	4863      	ldr	r0, [pc, #396]	; (30b18 <gapm_cmp_evt_handler+0x304>)
   3098a:	3201      	adds	r2, #1
   3098c:	f7f6 f910 	bl	26bb0 <ke_msg_alloc>
   30990:	7005      	strb	r5, [r0, #0]
   30992:	e7cc      	b.n	3092e <gapm_cmp_evt_handler+0x11a>
   30994:	2311      	movs	r3, #17
   30996:	2203      	movs	r2, #3
   30998:	2107      	movs	r1, #7
   3099a:	4860      	ldr	r0, [pc, #384]	; (30b1c <gapm_cmp_evt_handler+0x308>)
   3099c:	f7f6 f908 	bl	26bb0 <ke_msg_alloc>
   309a0:	2300      	movs	r3, #0
   309a2:	0021      	movs	r1, r4
   309a4:	003a      	movs	r2, r7
   309a6:	7033      	strb	r3, [r6, #0]
   309a8:	3328      	adds	r3, #40	; 0x28
   309aa:	0005      	movs	r5, r0
   309ac:	7003      	strb	r3, [r0, #0]
   309ae:	312f      	adds	r1, #47	; 0x2f
   309b0:	3001      	adds	r0, #1
   309b2:	f009 fc57 	bl	3a264 <memcpy>
   309b6:	0028      	movs	r0, r5
   309b8:	e7b9      	b.n	3092e <gapm_cmp_evt_handler+0x11a>
   309ba:	4b51      	ldr	r3, [pc, #324]	; (30b00 <gapm_cmp_evt_handler+0x2ec>)
   309bc:	781b      	ldrb	r3, [r3, #0]
   309be:	2b00      	cmp	r3, #0
   309c0:	d016      	beq.n	309f0 <gapm_cmp_evt_handler+0x1dc>
   309c2:	466b      	mov	r3, sp
   309c4:	342f      	adds	r4, #47	; 0x2f
   309c6:	0022      	movs	r2, r4
   309c8:	209a      	movs	r0, #154	; 0x9a
   309ca:	1d99      	adds	r1, r3, #6
   309cc:	f7fe fd54 	bl	2f478 <nvds_get>
   309d0:	2800      	cmp	r0, #0
   309d2:	d000      	beq.n	309d6 <gapm_cmp_evt_handler+0x1c2>
   309d4:	e73d      	b.n	30852 <gapm_cmp_evt_handler+0x3e>
   309d6:	002a      	movs	r2, r5
   309d8:	2311      	movs	r3, #17
   309da:	2107      	movs	r1, #7
   309dc:	484f      	ldr	r0, [pc, #316]	; (30b1c <gapm_cmp_evt_handler+0x308>)
   309de:	f7f6 f8e7 	bl	26bb0 <ke_msg_alloc>
   309e2:	2328      	movs	r3, #40	; 0x28
   309e4:	0005      	movs	r5, r0
   309e6:	7003      	strb	r3, [r0, #0]
   309e8:	003a      	movs	r2, r7
   309ea:	0021      	movs	r1, r4
   309ec:	3001      	adds	r0, #1
   309ee:	e7e0      	b.n	309b2 <gapm_cmp_evt_handler+0x19e>
   309f0:	2301      	movs	r3, #1
   309f2:	002a      	movs	r2, r5
   309f4:	2107      	movs	r1, #7
   309f6:	4848      	ldr	r0, [pc, #288]	; (30b18 <gapm_cmp_evt_handler+0x304>)
   309f8:	f7f6 f8da 	bl	26bb0 <ke_msg_alloc>
   309fc:	231a      	movs	r3, #26
   309fe:	3440      	adds	r4, #64	; 0x40
   30a00:	7003      	strb	r3, [r0, #0]
   30a02:	3b19      	subs	r3, #25
   30a04:	7023      	strb	r3, [r4, #0]
   30a06:	e792      	b.n	3092e <gapm_cmp_evt_handler+0x11a>
   30a08:	7873      	ldrb	r3, [r6, #1]
   30a0a:	2b00      	cmp	r3, #0
   30a0c:	d000      	beq.n	30a10 <gapm_cmp_evt_handler+0x1fc>
   30a0e:	e720      	b.n	30852 <gapm_cmp_evt_handler+0x3e>
   30a10:	f7ff fd4c 	bl	304ac <appm_scan_fsm_next>
   30a14:	e71d      	b.n	30852 <gapm_cmp_evt_handler+0x3e>
   30a16:	7873      	ldrb	r3, [r6, #1]
   30a18:	2b00      	cmp	r3, #0
   30a1a:	d000      	beq.n	30a1e <gapm_cmp_evt_handler+0x20a>
   30a1c:	e719      	b.n	30852 <gapm_cmp_evt_handler+0x3e>
   30a1e:	79e3      	ldrb	r3, [r4, #7]
   30a20:	2b01      	cmp	r3, #1
   30a22:	d102      	bne.n	30a2a <gapm_cmp_evt_handler+0x216>
   30a24:	f7ff fc3e 	bl	302a4 <appm_adv_fsm_next>
   30a28:	e713      	b.n	30852 <gapm_cmp_evt_handler+0x3e>
   30a2a:	7923      	ldrb	r3, [r4, #4]
   30a2c:	2b01      	cmp	r3, #1
   30a2e:	d000      	beq.n	30a32 <gapm_cmp_evt_handler+0x21e>
   30a30:	e70f      	b.n	30852 <gapm_cmp_evt_handler+0x3e>
   30a32:	f7ff fe5d 	bl	306f0 <appm_mesh_adv_fsm_next>
   30a36:	e70c      	b.n	30852 <gapm_cmp_evt_handler+0x3e>
   30a38:	7873      	ldrb	r3, [r6, #1]
   30a3a:	2b00      	cmp	r3, #0
   30a3c:	d000      	beq.n	30a40 <gapm_cmp_evt_handler+0x22c>
   30a3e:	e708      	b.n	30852 <gapm_cmp_evt_handler+0x3e>
   30a40:	79e3      	ldrb	r3, [r4, #7]
   30a42:	2b02      	cmp	r3, #2
   30a44:	d0ee      	beq.n	30a24 <gapm_cmp_evt_handler+0x210>
   30a46:	7923      	ldrb	r3, [r4, #4]
   30a48:	2b02      	cmp	r3, #2
   30a4a:	d0f2      	beq.n	30a32 <gapm_cmp_evt_handler+0x21e>
   30a4c:	2b03      	cmp	r3, #3
   30a4e:	d000      	beq.n	30a52 <gapm_cmp_evt_handler+0x23e>
   30a50:	e6ff      	b.n	30852 <gapm_cmp_evt_handler+0x3e>
   30a52:	3301      	adds	r3, #1
   30a54:	7123      	strb	r3, [r4, #4]
   30a56:	e7ec      	b.n	30a32 <gapm_cmp_evt_handler+0x21e>
   30a58:	7873      	ldrb	r3, [r6, #1]
   30a5a:	2b00      	cmp	r3, #0
   30a5c:	d000      	beq.n	30a60 <gapm_cmp_evt_handler+0x24c>
   30a5e:	e6f8      	b.n	30852 <gapm_cmp_evt_handler+0x3e>
   30a60:	79e3      	ldrb	r3, [r4, #7]
   30a62:	2b03      	cmp	r3, #3
   30a64:	d000      	beq.n	30a68 <gapm_cmp_evt_handler+0x254>
   30a66:	e6f4      	b.n	30852 <gapm_cmp_evt_handler+0x3e>
   30a68:	e7dc      	b.n	30a24 <gapm_cmp_evt_handler+0x210>
   30a6a:	7873      	ldrb	r3, [r6, #1]
   30a6c:	2b00      	cmp	r3, #0
   30a6e:	d000      	beq.n	30a72 <gapm_cmp_evt_handler+0x25e>
   30a70:	e6ef      	b.n	30852 <gapm_cmp_evt_handler+0x3e>
   30a72:	79e3      	ldrb	r3, [r4, #7]
   30a74:	2b06      	cmp	r3, #6
   30a76:	d101      	bne.n	30a7c <gapm_cmp_evt_handler+0x268>
   30a78:	f7ff fc14 	bl	302a4 <appm_adv_fsm_next>
   30a7c:	7923      	ldrb	r3, [r4, #4]
   30a7e:	2b05      	cmp	r3, #5
   30a80:	d101      	bne.n	30a86 <gapm_cmp_evt_handler+0x272>
   30a82:	f7ff fe35 	bl	306f0 <appm_mesh_adv_fsm_next>
   30a86:	7aa3      	ldrb	r3, [r4, #10]
   30a88:	2b03      	cmp	r3, #3
   30a8a:	d101      	bne.n	30a90 <gapm_cmp_evt_handler+0x27c>
   30a8c:	f7ff fd0e 	bl	304ac <appm_scan_fsm_next>
   30a90:	7c63      	ldrb	r3, [r4, #17]
   30a92:	2b03      	cmp	r3, #3
   30a94:	d000      	beq.n	30a98 <gapm_cmp_evt_handler+0x284>
   30a96:	e6dc      	b.n	30852 <gapm_cmp_evt_handler+0x3e>
   30a98:	e76b      	b.n	30972 <gapm_cmp_evt_handler+0x15e>
   30a9a:	7873      	ldrb	r3, [r6, #1]
   30a9c:	2b00      	cmp	r3, #0
   30a9e:	d000      	beq.n	30aa2 <gapm_cmp_evt_handler+0x28e>
   30aa0:	e6d7      	b.n	30852 <gapm_cmp_evt_handler+0x3e>
   30aa2:	79e3      	ldrb	r3, [r4, #7]
   30aa4:	2b08      	cmp	r3, #8
   30aa6:	d101      	bne.n	30aac <gapm_cmp_evt_handler+0x298>
   30aa8:	f7ff fbfc 	bl	302a4 <appm_adv_fsm_next>
   30aac:	7923      	ldrb	r3, [r4, #4]
   30aae:	2b07      	cmp	r3, #7
   30ab0:	d101      	bne.n	30ab6 <gapm_cmp_evt_handler+0x2a2>
   30ab2:	f7ff fe1d 	bl	306f0 <appm_mesh_adv_fsm_next>
   30ab6:	7aa3      	ldrb	r3, [r4, #10]
   30ab8:	2b05      	cmp	r3, #5
   30aba:	d000      	beq.n	30abe <gapm_cmp_evt_handler+0x2aa>
   30abc:	e6c9      	b.n	30852 <gapm_cmp_evt_handler+0x3e>
   30abe:	f7ff fcf5 	bl	304ac <appm_scan_fsm_next>
   30ac2:	2302      	movs	r3, #2
   30ac4:	7463      	strb	r3, [r4, #17]
   30ac6:	e754      	b.n	30972 <gapm_cmp_evt_handler+0x15e>
   30ac8:	79e3      	ldrb	r3, [r4, #7]
   30aca:	2b09      	cmp	r3, #9
   30acc:	d102      	bne.n	30ad4 <gapm_cmp_evt_handler+0x2c0>
   30ace:	2300      	movs	r3, #0
   30ad0:	71e3      	strb	r3, [r4, #7]
   30ad2:	e6be      	b.n	30852 <gapm_cmp_evt_handler+0x3e>
   30ad4:	7923      	ldrb	r3, [r4, #4]
   30ad6:	2b08      	cmp	r3, #8
   30ad8:	d000      	beq.n	30adc <gapm_cmp_evt_handler+0x2c8>
   30ada:	e6ba      	b.n	30852 <gapm_cmp_evt_handler+0x3e>
   30adc:	2300      	movs	r3, #0
   30ade:	7123      	strb	r3, [r4, #4]
   30ae0:	e6b7      	b.n	30852 <gapm_cmp_evt_handler+0x3e>
   30ae2:	2300      	movs	r3, #0
   30ae4:	71e3      	strb	r3, [r4, #7]
   30ae6:	7123      	strb	r3, [r4, #4]
   30ae8:	72a3      	strb	r3, [r4, #10]
   30aea:	7463      	strb	r3, [r4, #17]
   30aec:	e6b1      	b.n	30852 <gapm_cmp_evt_handler+0x3e>
   30aee:	46c0      	nop			; (mov r8, r8)
   30af0:	00042559 	.word	0x00042559
   30af4:	00043fe5 	.word	0x00043fe5
   30af8:	00402de6 	.word	0x00402de6
   30afc:	00042575 	.word	0x00042575
   30b00:	00402e41 	.word	0x00402e41
   30b04:	00000d04 	.word	0x00000d04
   30b08:	00000f03 	.word	0x00000f03
   30b0c:	00000848 	.word	0x00000848
   30b10:	0000020f 	.word	0x0000020f
   30b14:	00400020 	.word	0x00400020
   30b18:	00000d19 	.word	0x00000d19
   30b1c:	00000d23 	.word	0x00000d23

00030b20 <oads_ffc1_upd_req_handler>:
   30b20:	b510      	push	{r4, lr}
   30b22:	4802      	ldr	r0, [pc, #8]	; (30b2c <oads_ffc1_upd_req_handler+0xc>)
   30b24:	f7ff f81a 	bl	2fb5c <uart2_printf>
   30b28:	2002      	movs	r0, #2
   30b2a:	bd10      	pop	{r4, pc}
   30b2c:	000425a5 	.word	0x000425a5

00030b30 <oads_ffc2_upd_req_handler>:
   30b30:	b510      	push	{r4, lr}
   30b32:	4903      	ldr	r1, [pc, #12]	; (30b40 <oads_ffc2_upd_req_handler+0x10>)
   30b34:	4803      	ldr	r0, [pc, #12]	; (30b44 <oads_ffc2_upd_req_handler+0x14>)
   30b36:	f7ff f811 	bl	2fb5c <uart2_printf>
   30b3a:	2002      	movs	r0, #2
   30b3c:	bd10      	pop	{r4, pc}
   30b3e:	46c0      	nop			; (mov r8, r8)
   30b40:	00043c70 	.word	0x00043c70
   30b44:	0004297b 	.word	0x0004297b

00030b48 <gattc_cmp_evt_handler.lto_priv.4>:
   30b48:	b510      	push	{r4, lr}
   30b4a:	4903      	ldr	r1, [pc, #12]	; (30b58 <gattc_cmp_evt_handler.lto_priv.4+0x10>)
   30b4c:	4803      	ldr	r0, [pc, #12]	; (30b5c <gattc_cmp_evt_handler.lto_priv.4+0x14>)
   30b4e:	f7ff f805 	bl	2fb5c <uart2_printf>
   30b52:	2000      	movs	r0, #0
   30b54:	bd10      	pop	{r4, pc}
   30b56:	46c0      	nop			; (mov r8, r8)
   30b58:	00043ebb 	.word	0x00043ebb
   30b5c:	0004305f 	.word	0x0004305f

00030b60 <sdp_default_msg_handler>:
   30b60:	b513      	push	{r0, r1, r4, lr}
   30b62:	001c      	movs	r4, r3
   30b64:	9300      	str	r3, [sp, #0]
   30b66:	4906      	ldr	r1, [pc, #24]	; (30b80 <sdp_default_msg_handler+0x20>)
   30b68:	0013      	movs	r3, r2
   30b6a:	0002      	movs	r2, r0
   30b6c:	4805      	ldr	r0, [pc, #20]	; (30b84 <sdp_default_msg_handler+0x24>)
   30b6e:	f7fe fff5 	bl	2fb5c <uart2_printf>
   30b72:	0a21      	lsrs	r1, r4, #8
   30b74:	4804      	ldr	r0, [pc, #16]	; (30b88 <sdp_default_msg_handler+0x28>)
   30b76:	f7fe fff1 	bl	2fb5c <uart2_printf>
   30b7a:	2000      	movs	r0, #0
   30b7c:	bd16      	pop	{r1, r2, r4, pc}
   30b7e:	46c0      	nop			; (mov r8, r8)
   30b80:	00043b74 	.word	0x00043b74
   30b84:	000425c2 	.word	0x000425c2
   30b88:	00042771 	.word	0x00042771

00030b8c <sdp_service_status_reset>:
   30b8c:	b5f8      	push	{r3, r4, r5, r6, r7, lr}
   30b8e:	4d1d      	ldr	r5, [pc, #116]	; (30c04 <sdp_service_status_reset+0x78>)
   30b90:	2700      	movs	r7, #0
   30b92:	002e      	movs	r6, r5
   30b94:	2301      	movs	r3, #1
   30b96:	425b      	negs	r3, r3
   30b98:	802b      	strh	r3, [r5, #0]
   30b9a:	6a34      	ldr	r4, [r6, #32]
   30b9c:	6863      	ldr	r3, [r4, #4]
   30b9e:	761f      	strb	r7, [r3, #24]
   30ba0:	6863      	ldr	r3, [r4, #4]
   30ba2:	769f      	strb	r7, [r3, #26]
   30ba4:	6863      	ldr	r3, [r4, #4]
   30ba6:	69db      	ldr	r3, [r3, #28]
   30ba8:	2b00      	cmp	r3, #0
   30baa:	d006      	beq.n	30bba <sdp_service_status_reset+0x2e>
   30bac:	4816      	ldr	r0, [pc, #88]	; (30c08 <sdp_service_status_reset+0x7c>)
   30bae:	f7fe ffd5 	bl	2fb5c <uart2_printf>
   30bb2:	6863      	ldr	r3, [r4, #4]
   30bb4:	69d8      	ldr	r0, [r3, #28]
   30bb6:	f7f5 febb 	bl	26930 <ke_free>
   30bba:	6863      	ldr	r3, [r4, #4]
   30bbc:	6a1b      	ldr	r3, [r3, #32]
   30bbe:	2b00      	cmp	r3, #0
   30bc0:	d006      	beq.n	30bd0 <sdp_service_status_reset+0x44>
   30bc2:	4812      	ldr	r0, [pc, #72]	; (30c0c <sdp_service_status_reset+0x80>)
   30bc4:	f7fe ffca 	bl	2fb5c <uart2_printf>
   30bc8:	6863      	ldr	r3, [r4, #4]
   30bca:	6a18      	ldr	r0, [r3, #32]
   30bcc:	f7f5 feb0 	bl	26930 <ke_free>
   30bd0:	6863      	ldr	r3, [r4, #4]
   30bd2:	361c      	adds	r6, #28
   30bd4:	61df      	str	r7, [r3, #28]
   30bd6:	6863      	ldr	r3, [r4, #4]
   30bd8:	3502      	adds	r5, #2
   30bda:	621f      	str	r7, [r3, #32]
   30bdc:	4b0c      	ldr	r3, [pc, #48]	; (30c10 <sdp_service_status_reset+0x84>)
   30bde:	429e      	cmp	r6, r3
   30be0:	d1d8      	bne.n	30b94 <sdp_service_status_reset+0x8>
   30be2:	220a      	movs	r2, #10
   30be4:	2100      	movs	r1, #0
   30be6:	20ff      	movs	r0, #255	; 0xff
   30be8:	4b0a      	ldr	r3, [pc, #40]	; (30c14 <sdp_service_status_reset+0x88>)
   30bea:	3a01      	subs	r2, #1
   30bec:	0612      	lsls	r2, r2, #24
   30bee:	60d9      	str	r1, [r3, #12]
   30bf0:	8258      	strh	r0, [r3, #18]
   30bf2:	6019      	str	r1, [r3, #0]
   30bf4:	6059      	str	r1, [r3, #4]
   30bf6:	8119      	strh	r1, [r3, #8]
   30bf8:	8159      	strh	r1, [r3, #10]
   30bfa:	0e12      	lsrs	r2, r2, #24
   30bfc:	3318      	adds	r3, #24
   30bfe:	2a00      	cmp	r2, #0
   30c00:	d1f3      	bne.n	30bea <sdp_service_status_reset+0x5e>
   30c02:	bdf8      	pop	{r3, r4, r5, r6, r7, pc}
   30c04:	00407f5c 	.word	0x00407f5c
   30c08:	000425ef 	.word	0x000425ef
   30c0c:	00042612 	.word	0x00042612
   30c10:	00408074 	.word	0x00408074
   30c14:	0040341c 	.word	0x0040341c

00030c18 <sdp_destroy>:
   30c18:	b510      	push	{r4, lr}
   30c1a:	0004      	movs	r4, r0
   30c1c:	8a41      	ldrh	r1, [r0, #18]
   30c1e:	7d02      	ldrb	r2, [r0, #20]
   30c20:	4807      	ldr	r0, [pc, #28]	; (30c40 <sdp_destroy+0x28>)
   30c22:	f7fe ff9b 	bl	2fb5c <uart2_printf>
   30c26:	68e4      	ldr	r4, [r4, #12]
   30c28:	68a1      	ldr	r1, [r4, #8]
   30c2a:	2900      	cmp	r1, #0
   30c2c:	d004      	beq.n	30c38 <sdp_destroy+0x20>
   30c2e:	4805      	ldr	r0, [pc, #20]	; (30c44 <sdp_destroy+0x2c>)
   30c30:	f7fe ff94 	bl	2fb5c <uart2_printf>
   30c34:	2300      	movs	r3, #0
   30c36:	60a3      	str	r3, [r4, #8]
   30c38:	4803      	ldr	r0, [pc, #12]	; (30c48 <sdp_destroy+0x30>)
   30c3a:	f7fe ff8f 	bl	2fb5c <uart2_printf>
   30c3e:	bd10      	pop	{r4, pc}
   30c40:	00042635 	.word	0x00042635
   30c44:	00042662 	.word	0x00042662
   30c48:	0004268a 	.word	0x0004268a

00030c4c <sdp_cleanup>:
   30c4c:	b5f7      	push	{r0, r1, r2, r4, r5, r6, r7, lr}
   30c4e:	0013      	movs	r3, r2
   30c50:	000e      	movs	r6, r1
   30c52:	0005      	movs	r5, r0
   30c54:	7d02      	ldrb	r2, [r0, #20]
   30c56:	8a41      	ldrh	r1, [r0, #18]
   30c58:	9300      	str	r3, [sp, #0]
   30c5a:	4815      	ldr	r0, [pc, #84]	; (30cb0 <sdp_cleanup+0x64>)
   30c5c:	0033      	movs	r3, r6
   30c5e:	f7fe ff7d 	bl	2fb5c <uart2_printf>
   30c62:	68ef      	ldr	r7, [r5, #12]
   30c64:	0234      	lsls	r4, r6, #8
   30c66:	793b      	ldrb	r3, [r7, #4]
   30c68:	0424      	lsls	r4, r4, #16
   30c6a:	4812      	ldr	r0, [pc, #72]	; (30cb4 <sdp_cleanup+0x68>)
   30c6c:	1424      	asrs	r4, r4, #16
   30c6e:	42b3      	cmp	r3, r6
   30c70:	d114      	bne.n	30c9c <sdp_cleanup+0x50>
   30c72:	23ff      	movs	r3, #255	; 0xff
   30c74:	826b      	strh	r3, [r5, #18]
   30c76:	68be      	ldr	r6, [r7, #8]
   30c78:	2e00      	cmp	r6, #0
   30c7a:	d00e      	beq.n	30c9a <sdp_cleanup+0x4e>
   30c7c:	0031      	movs	r1, r6
   30c7e:	480e      	ldr	r0, [pc, #56]	; (30cb8 <sdp_cleanup+0x6c>)
   30c80:	f7fe ff6c 	bl	2fb5c <uart2_printf>
   30c84:	8ab3      	ldrh	r3, [r6, #20]
   30c86:	8a72      	ldrh	r2, [r6, #18]
   30c88:	8a31      	ldrh	r1, [r6, #16]
   30c8a:	480c      	ldr	r0, [pc, #48]	; (30cbc <sdp_cleanup+0x70>)
   30c8c:	f7fe ff66 	bl	2fb5c <uart2_printf>
   30c90:	68b8      	ldr	r0, [r7, #8]
   30c92:	f7f5 fe4d 	bl	26930 <ke_free>
   30c96:	2300      	movs	r3, #0
   30c98:	60bb      	str	r3, [r7, #8]
   30c9a:	4809      	ldr	r0, [pc, #36]	; (30cc0 <sdp_cleanup+0x74>)
   30c9c:	f7fe ff5e 	bl	2fb5c <uart2_printf>
   30ca0:	8a28      	ldrh	r0, [r5, #16]
   30ca2:	2100      	movs	r1, #0
   30ca4:	4320      	orrs	r0, r4
   30ca6:	0400      	lsls	r0, r0, #16
   30ca8:	0c00      	lsrs	r0, r0, #16
   30caa:	f7f6 fc39 	bl	27520 <ke_state_set>
   30cae:	bdf7      	pop	{r0, r1, r2, r4, r5, r6, r7, pc}
   30cb0:	0004269c 	.word	0x0004269c
   30cb4:	000426dd 	.word	0x000426dd
   30cb8:	000426ff 	.word	0x000426ff
   30cbc:	00042714 	.word	0x00042714
   30cc0:	00042746 	.word	0x00042746

00030cc4 <sdp_discover_all_service>:
   30cc4:	b510      	push	{r4, lr}
   30cc6:	0004      	movs	r4, r0
   30cc8:	0001      	movs	r1, r0
   30cca:	480d      	ldr	r0, [pc, #52]	; (30d00 <sdp_discover_all_service+0x3c>)
   30ccc:	f7fe ff46 	bl	2fb5c <uart2_printf>
   30cd0:	2106      	movs	r1, #6
   30cd2:	0222      	lsls	r2, r4, #8
   30cd4:	2403      	movs	r4, #3
   30cd6:	0413      	lsls	r3, r2, #16
   30cd8:	141b      	asrs	r3, r3, #16
   30cda:	4319      	orrs	r1, r3
   30cdc:	0409      	lsls	r1, r1, #16
   30cde:	4322      	orrs	r2, r4
   30ce0:	0c09      	lsrs	r1, r1, #16
   30ce2:	231a      	movs	r3, #26
   30ce4:	4807      	ldr	r0, [pc, #28]	; (30d04 <sdp_discover_all_service+0x40>)
   30ce6:	f7f5 ff63 	bl	26bb0 <ke_msg_alloc>
   30cea:	4b07      	ldr	r3, [pc, #28]	; (30d08 <sdp_discover_all_service+0x44>)
   30cec:	8003      	strh	r3, [r0, #0]
   30cee:	2301      	movs	r3, #1
   30cf0:	8083      	strh	r3, [r0, #4]
   30cf2:	3b02      	subs	r3, #2
   30cf4:	80c3      	strh	r3, [r0, #6]
   30cf6:	2300      	movs	r3, #0
   30cf8:	8103      	strh	r3, [r0, #8]
   30cfa:	f7f5 ff73 	bl	26be4 <ke_msg_send>
   30cfe:	bd10      	pop	{r4, pc}
   30d00:	00042758 	.word	0x00042758
   30d04:	00000c19 	.word	0x00000c19
   30d08:	00000216 	.word	0x00000216

00030d0c <nvds_read>:
   30d0c:	b510      	push	{r4, lr}
   30d0e:	f009 f8b3 	bl	39e78 <flash_read.constprop.0.isra.0>
   30d12:	bd10      	pop	{r4, pc}

00030d14 <app_sec_send_security_req>:
   30d14:	b510      	push	{r4, lr}
   30d16:	4910      	ldr	r1, [pc, #64]	; (30d58 <app_sec_send_security_req+0x44>)
   30d18:	0004      	movs	r4, r0
   30d1a:	4810      	ldr	r0, [pc, #64]	; (30d5c <app_sec_send_security_req+0x48>)
   30d1c:	f7fe ff1e 	bl	2fb5c <uart2_printf>
   30d20:	4b0f      	ldr	r3, [pc, #60]	; (30d60 <app_sec_send_security_req+0x4c>)
   30d22:	789a      	ldrb	r2, [r3, #2]
   30d24:	2a00      	cmp	r2, #0
   30d26:	d111      	bne.n	30d4c <app_sec_send_security_req+0x38>
   30d28:	785b      	ldrb	r3, [r3, #1]
   30d2a:	2b00      	cmp	r3, #0
   30d2c:	d10e      	bne.n	30d4c <app_sec_send_security_req+0x38>
