build/BK3633_GATT_ALLROLES.elf
SYMBOL TABLE:
0002dd00 l    d  .vectors	00000000 .vectors
0002e000 l    d  FAST_CALL_SEG	00000000 FAST_CALL_SEG
0002e050 l    d  .text	00000000 .text
0003df28 l    d  .rodata	00000000 .rodata
000405f8 l    d  .ARM.exidx	00000000 .ARM.exidx
00400f00 l    d  .data	00000000 .data
004018f4 l    d  .bss	00000000 .bss
0040a2b4 l    d  .stack	00000000 .stack
00000000 l    d  .comment	00000000 .comment
00000000 l    d  .ARM.attributes	00000000 .ARM.attributes
00000000 l    d  .debug_frame	00000000 .debug_frame
00000000 l    d  .stab	00000000 .stab
00000000 l    d  .stabstr	00000000 .stabstr
00000000 l    df *ABS*	00000000 startup_boot.o
0002dd20 l       .vectors	00000000 _reset_handler
0002df80 l       .vectors	00000000 _STACK_SIZE_UND
0002df7c l       .vectors	00000000 _STACK_ADDR_UND
0002df70 l       .vectors	00000000 _STACK_SIZE_IRQ
0002df6c l       .vectors	00000000 _STACK_ADDR_IRQ
0002df68 l       .vectors	00000000 _STACK_SIZE_FIQ
0002df64 l       .vectors	00000000 _STACK_ADDR_FIQ
0002df78 l       .vectors	00000000 _STACK_SIZE_SVC
0002df74 l       .vectors	00000000 _STACK_ADDR_SVC
0002deb8 l       .vectors	00000000 _data_init
0002ded8 l       .vectors	00000000 _zi_init
00000000 l    df *ABS*	00000000 
0002f210 l     F .text	00000004 rf_rpl_reg_rd
0002f214 l     F .text	00000004 rf_rpl_reg_wr
0002f218 l     F .text	00000004 rf_txpwr_dbm_get
0002f21c l     F .text	00000010 rf_sleep
0002f22c l     F .text	00000024 rf_force_agc_enable
0002f250 l     F .text	0000000a rf_rssi_convert
0002f25c l     F .text	00000034 rf_txpwr_cs_get
0002f290 l     F .text	00000002 app_dis_init
0002f290 l     F .text	00000002 uart_flow_on
0002f294 l     F .text	00000034 prf_get_id_from_task
00402340 l     O .bss	000003c0 prf_env
0002f2c8 l     F .text	00000034 prf_get_task_from_id
0002f2fc l     F .text	0000000c rwble_sleep_wakeup_end
0002f308 l     F .text	00000004 app_sec_msg_dflt_handler
0002f30c l     F .text	00000004 bass_batt_level_ntf_cfg_ind_handler
0002f310 l     F .text	00000004 batt_level_upd_handler
0002f314 l     F .text	00000004 bass_enable_rsp_handler
0002f318 l     F .text	00000004 app_batt_msg_dflt_handler
0002f31c l     F .text	00000004 oads_enable_rsp_handler
0002f320 l     F .text	00000044 app_get_handler
0002f364 l     F .text	00000074 appm_msg_handler
0002f3d8 l     F .text	00000004 app_ancs_req_handler
0002f3dc l     F .text	00000004 app_period_timer_handler
0002f3e0 l     F .text	0000003c nvds_walk_tag
0002f41c l     F .text	00000034 nvds_browse_tag
0002f450 l     F .text	00000040 nvds_get
0002f490 l     F .text	0000003c nvds_del
0002f4cc l     F .text	00000024 nvds_init_memory
0002f4f0 l     F .text	00000060 prf_itf_get
0002f550 l     F .text	0000002c prf_create
0002f57c l     F .text	00000030 prf_cleanup
0002f5ac l     F .text	00000028 prf_env_get
0002f5d4 l     F .text	0000008c prf_env_get_from_handle
0002f660 l     F .text	00000020 cpu_reset
0002f680 l     F .text	00000034 uart_send
0002f6b4 l     F .text	00000004 uart_flow_off
0002f6b8 l     F .text	00000018 uart_read
0002f6d0 l     F .text	00000018 uart_write
0002f6e8 l     F .text	0000002c uart_rx_cmd_handler.part.0
0002f6e8 l     F .text	0000002c uart2_rx_cmd_handler.part.0
0002f714 l     F .text	00000024 set_flash_clk
0002f738 l     F .text	00000040 get_flash_ID
0002f778 l     F .text	00000040 flash_read_sr
0002f7b8 l     F .text	000000cc flash_write_sr_temp
0002f884 l     F .text	00000002 rf_reset
0002f888 l     F .text	0000001c wdt_enable
0002f8a4 l     F .text	0000000a bass_create
0002f8ae l     F .text	0000000a bass_cleanup
0002f8b8 l     F .text	00000002 diss_create
0002f8ba l     F .text	00000002 diss_cleanup
0002f8bc l     F .text	00000034 diss_value_to_handle
0002f8f0 l     F .text	00000014 fee0s_create
0002f904 l     F .text	00000014 fee0s_cleanup
0002f918 l     F .text	00000020 fee0s_get_att_idx
0002f938 l     F .text	00000012 fcc0s_create
0002f94a l     F .text	00000012 fcc0s_cleanup
0002f95c l     F .text	0000001e fcc0s_get_att_idx
0002f97a l     F .text	00000014 oads_create
0002f98e l     F .text	00000014 oads_cleanup
0002f9a2 l     F .text	00000004 sdp_enable_req_handler
0002f9a6 l     F .text	00000086 bass_get_att_idx.constprop.0
0002fa2c l     F .text	00000012 prf_dst_task_get.isra.0
0002fa3e l     F .text	00000012 prf_src_task_get.isra.0
0002fa50 l     F .text	000000b4 flash_read_data
0002fb04 l     F .text	00000034 flash_read.constprop.0.isra.0
0002fb38 l     F .text	00000008 nvds_read
0002fb40 l     F .text	00000028 gapm_gen_rand_nb_ind_handler
0002fb68 l     F .text	00000024 oad_save_reciveData
004019e4 l     O .bss	000007f0 bsec
0002fb8c l     F .text	00000154 nvds_put
0002fce0 l     F .text	00000012 fee4_val_upd_rsp_handler
0002fcf2 l     F .text	00000010 sdp_create
0002fd04 l     F .text	0000002c app_batt_add_bas
0002fd30 l     F .text	00000054 diss_value_req_ind_handler
0002fd84 l     F .text	0000002c app_dis_add_dis
0002fdb0 l     F .text	00000078 gapc_get_dev_info_req_ind_handler
0002fe28 l     F .text	00000024 gapc_set_dev_info_req_ind_handler
0002fe4c l     F .text	00000028 app_fcc0_add_fcc0s
0002fe74 l     F .text	0000003c app_fee0_add_fee0s
0002feb0 l     F .text	0000002c appm_stop_scaning
0002fedc l     F .text	00000034 prf_register_atthdl2gatt.part.0
0002ff10 l     F .text	00000060 prf_gatt_write.part.0
0002ff70 l     F .text	00000072 bass_notify_batt_lvl
0002ffe4 l     F .text	00000054 gattc_att_info_req_ind_handler.lto_priv.0
00030038 l     F .text	000000b4 gattc_write_req_ind_handler.lto_priv.0
000300ec l     F .text	000000d4 gattc_read_req_ind_handler.lto_priv.0
000301c0 l     F .text	0000004a oadImgBlockReq.constprop.0
0003020c l     F .text	00000044 appm_update_param.constprop.0
00030250 l     F .text	00000034 prf_read_char_send.constprop.0.isra.0
00030284 l     F .text	00000044 uart2_printf
000302c8 l     F .text	0000001c platform_reset
000302e4 l     F .text	00000068 prf_init
0003034c l     F .text	00000098 prf_add_profile
000303e4 l     F .text	00000078 gapc_encrypt_req_ind_handler
0003045c l     F .text	00000024 gapc_encrypt_ind_handler
00030480 l     F .text	0000003c appm_add_svc
000304bc l     F .text	00000044 app_oad_add_oads
00030500 l     F .text	0000002c app_oads_msg_dflt_handler
0003052c l     F .text	00000018 app_ffc2_writer_req_handler
00030544 l     F .text	00000018 oads_ffc1_upd_rsp_handler
0003055c l     F .text	00000018 oads_ffc2_upd_rsp_handler
00030574 l     F .text	00000060 gapm_activity_created_ind_handler
000305d4 l     F .text	00000044 gapc_param_update_req_ind_handler
00030618 l     F .text	0000003c gapc_param_updated_ind_handler
00030654 l     F .text	00000050 gapm_scan_request_ind_handler
000306a4 l     F .text	0000002c app_update_conn_param_req_ind_handler
000306d0 l     F .text	00000040 app_mtu_exchange_req_handler
00030710 l     F .text	00000090 gapm_mesh_pub_key_ind_handler
000307a0 l     F .text	00000034 gapm_mesh_gen_dh_key_ind_handler
000307d4 l     F .text	0000006c app_start_smpc_handler
00030840 l     F .text	000000d4 app_start_encrypt_handler
00030914 l     F .text	00000014 fcc0s_fcc2_val_ntf_cfg_ind_handler
00030928 l     F .text	00000028 fcc2_val_upd_rsp_handler
00030950 l     F .text	00000018 app_fcc0_msg_dflt_handler
00030968 l     F .text	00000014 fee0s_fee4_val_ntf_cfg_ind_handler
0003097c l     F .text	00000014 fee0s_fee5_val_ind_cfg_ind_handler
00030990 l     F .text	00000028 fee5_val_upd_rsp_handler
000309b8 l     F .text	00000018 app_fee0_msg_dflt_handler
000309d0 l     F .text	00000040 fee3_writer_req_handler
00030a10 l     F .text	00000048 appm_start_advertising
00030a58 l     F .text	00000070 gapm_activity_stopped_ind_handler
00030ac8 l     F .text	0000005c appm_start_scaning
00030b24 l     F .text	00000028 app_start_scan_handler
00030b4c l     F .text	00000050 flash_write_sr
00030b9c l     F .text	00000090 flash_wp_256k
00030c2c l     F .text	0000008c flash_wp_ALL
00030cb8 l     F .text	000000c4 nvds_erase
00030d7c l     F .text	00000138 flash_write_data
00030eb4 l     F .text	00000070 gattc_att_info_req_ind_handler.lto_priv.1
00030f24 l     F .text	0000013c gattc_write_req_ind_handler.lto_priv.1
00031060 l     F .text	00000128 gattc_read_req_ind_handler.lto_priv.2
00031188 l     F .text	00000068 gattc_att_info_req_ind_handler.lto_priv.2
000311f0 l     F .text	0000010c gattc_write_req_ind_handler.lto_priv.2
000312fc l     F .text	000000e0 gattc_read_req_ind_handler.lto_priv.3
000313dc l     F .text	00000010 oads_ffc1_upd_req_handler
000313ec l     F .text	00000018 oads_ffc2_upd_req_handler
00031404 l     F .text	00000018 gattc_cmp_evt_handler.lto_priv.4
0003141c l     F .text	00000188 sdp_read_info_req_handler
000315a4 l     F .text	00000090 sdp_write_value_info_req_handler
00031634 l     F .text	000000b0 sdp_write_ntf_cfg_req_handler
000316e4 l     F .text	0000002c sdp_default_msg_handler
00031710 l     F .text	000000b0 sdp_init
0040996c l     O .bss	00000764 sdp_env_init
000317c0 l     F .text	00000034 sdp_destroy
000317f4 l     F .text	00000048 sdp_discover_all_service
0003183c l     F .text	00000114 gapc_cmp_evt_handler
00031950 l     F .text	00000080 flash_write.constprop.0.isra.0
000319d0 l     F .text	00000008 nvds_write
000319d8 l     F .text	00000268 oadImgIdentifyWrite.constprop.0.isra.0
00031c40 l     F .text	00000020 app_ffc1_writer_req_handler
00031c60 l     F .text	00000088 appm_start_connecting.isra.0
00031ce8 l     F .text	0000002a uart_printf_dut
00031d14 l     F .text	00000058 app_sec_send_security_req
00031d6c l     F .text	00000014 app_send_security_req_handler
00031d80 l     F .text	00000034 gattc_mtu_changed_ind_handler
00031db4 l     F .text	00000124 gapc_bond_req_ind_handler
00031ed8 l     F .text	00000260 gapc_bond_ind_handler
00032138 l     F .text	00000028 gapm_profile_added_ind_handler
00032160 l     F .text	0000004c app_gattc_event_ind_handler
000321ac l     F .text	0000003c app_gattc_event_req_ind_handler
000321e8 l     F .text	000000a8 fcc1_writer_cmd_handler
00032290 l     F .text	0000010c fee2_writer_cmd_handler
0003239c l     F .text	000000e0 gattc_read_req_ind_handler.lto_priv.1
0003247c l     F .text	0000007c diss_value_cfm_handler
000324f8 l     F .text	0000008c fee0s_fee4_val_upd_req_handler
00032584 l     F .text	0000009c fee0s_fee5_val_upd_req_handler
00032620 l     F .text	00000078 gattc_cmp_evt_handler.lto_priv.2
00032698 l     F .text	0000009c fcc0s_fcc2_val_upd_req_handler
00032734 l     F .text	0000005c gattc_cmp_evt_handler.lto_priv.3
00032790 l     F .text	000002e0 gattc_write_req_ind_handler.lto_priv.3
00032a70 l     F .text	00000100 gattc_read_req_ind_handler.lto_priv.4
00032b70 l     F .text	00000036 gattc_cmp_evt_handler.lto_priv.5
00032ba6 l     F .text	0000000c gattc_read_ind_handler
00032bb4 l     F .text	000001c8 gattc_event_ind_handler
0040229e l     O .bss	0000007f notify_data
00032d7c l     F .text	00000098 gattc_event_req_ind_handler
00032e14 l     F .text	00000088 sdp_write_service_ntf_cfg_req.constprop.0.isra.0
00032e9c l     F .text	00000104 sdp_enable_all_server_ntf_ind
00032fa0 l     F .text	0000046c gapm_cmp_evt_handler
0003340c l     F .text	00000178 gapc_connection_req_ind_handler
00033584 l     F .text	00000084 gapc_disconnect_ind_handler
00033608 l     F .text	0000012c gattc_cmp_evt_handler.lto_priv.0
00033734 l     F .text	000002e0 gattc_sdp_svc_ind_handler
00033a14 l     F .text	00000088 appm_adv_data_decode
00033a9c l     F .text	0000016c gapm_ext_adv_report_ind_handler
00033c08 l     F .text	00000024 rwip_timer_10ms_handler
00033c2c l     F .text	00000024 rwip_crypt_evt_handler
00033c50 l     F .text	00000198 rwip_driver_init
00033de8 l     F .text	00000094 rwip_reset
00033e7c l     F .text	0000001c bass_destroy
00033e98 l     F .text	000000d8 bass_exe_operation
00033f70 l     F .text	00000068 bass_batt_level_upd_req_handler
00033fd8 l     F .text	00000024 gattc_cmp_evt_handler.lto_priv.1
00033ffc l     F .text	0000001c fee0s_destroy
00034018 l     F .text	0000001c fcc0s_destroy
00034034 l     F .text	0000001c oads_destroy
00034050 l     F .text	000000a4 sdp_service_status_reset
000340f4 l     F .text	0000007c app_gattc_sdp_timer_handler
00034170 l     F .text	00000060 sdp_cleanup
000341d0 l     F .text	00000164 bass_init
00034334 l     F .text	00000080 bass_enable_req_handler
000343b4 l     F .text	00000088 oads_enable_req_handler
0003443c l     F .text	000000b4 diss_init
0003fa50 l     O .rodata	00000098 diss_att_db
000344f0 l     F .text	0000010c fee0s_init
000345fc l     F .text	00000022 diss_destroy
00034620 l     F .text	000000b0 diss_set_value_req_handler
000346d0 l     F .text	000000dc fcc0s_init
0003fb10 l     O .rodata	00000084 fcc0_att_db
000347ac l     F .text	000000d8 oads_init
00403714 l     O .bss	00001b0c rwip_heap_env
00402708 l     O .bss	0000100c rwip_heap_db
00405220 l     O .bss	000044ac rwip_heap_msg
004096cc l     O .bss	0000029c rwip_heap_non_ret
004018f4 l     O .bss	00000080 XVR_ANALOG_REG_BAK
0040a1c4 l     O .bss	00000080 uart_rx_buf
0040a0d5 l     O .bss	00000080 uart2_rx_buf
00401974 l     O .bss	00000002 app_batt_env
00401976 l     O .bss	0000003a app_env
004019b0 l     O .bss	00000001 app_oads_env
004019b1 l     O .bss	0000002c app_sec_env
004019dd l     O .bss	00000007 appm_state
004021d4 l     O .bss	00000001 chars_num.1
004021d5 l     O .bss	00000001 cmd_status.3.lto_priv.0
004021d6 l     O .bss	00000001 cmd_status.3.lto_priv.1
004021d7 l     O .bss	00000007 con_bdaddr
004021de l     O .bss	00000007 device_addr.0
004021e5 l     O .bss	00000014 dut_tx_test_res
004021f9 l     O .bss	00000001 flash_enable_erase_flag1
004021fa l     O .bss	00000001 flash_enable_erase_flag2
004021fb l     O .bss	00000001 flash_enable_write_flag1
004021fc l     O .bss	00000001 flash_enable_write_flag2
004021fd l     O .bss	00000001 flash_enable_write_flag3
004021fe l     O .bss	00000001 flash_enable_write_flag4
00402200 l     O .bss	00000004 flash_mid
00402204 l     O .bss	00000048 host_cmd_data
0040224c l     O .bss	00000048 host_event_data
00402294 l     O .bss	00000002 index.1.lto_priv.0
00402296 l     O .bss	00000002 index.1.lto_priv.1
00402298 l     O .bss	00000001 itest_dut_flag
0040229a l     O .bss	00000002 length.2.lto_priv.0
0040229c l     O .bss	00000002 length.2.lto_priv.1
00402320 l     O .bss	00000018 nvds_env
00402338 l     O .bss	00000002 oadBlkNum
0040233a l     O .bss	00000001 oad_firmware_type
0040233b l     O .bss	00000001 oad_uid_check_status
0040233c l     O .bss	00000004 oad_uuid
00402700 l     O .bss	00000001 reduce_voltage_set
00402704 l     O .bss	00000004 rtc_cnt
00409968 l     O .bss	00000001 rx_cmd_count.4.lto_priv.0
00409969 l     O .bss	00000001 rx_cmd_count.4.lto_priv.1
0040a0d0 l     O .bss	00000001 server_num.2
0040a0d1 l     O .bss	00000001 system_clk
0040a0d2 l     O .bss	00000001 system_mode
0040a0d3 l     O .bss	00000001 system_sleep_status
0040a0d4 l     O .bss	00000001 uart2_dut_reg_flag
0040a155 l     O .bss	00000001 uart2_rx_done
0040a158 l     O .bss	00000004 uart2_rx_index
0040a15c l     O .bss	00000020 uart_cmd.0.lto_priv.0
0040a17c l     O .bss	00000020 uart_cmd.0.lto_priv.1
0040a19c l     O .bss	00000028 uart_env
0040a244 l     O .bss	00000001 uart_rx_done
0040a248 l     O .bss	00000004 uart_rx_index
0040a24c l     O .bss	00000002 validBlockCnt.0
0040a24e l     O .bss	00000001 write_sr_cnt.0
00400f00 l     O .data	0000000f dut_quit_str
00400f0f l     O .data	0000000b dut_reset2_str
00400f1a l     O .data	00000009 dut_reset_str
00400f23 l     O .data	00000010 dut_test_res_str
00400f33 l     O .data	0000000a dut_test_start_str
00400f3d l     O .data	0000000d get_mac_addr_str
00400f4a l     O .data	00000002 oadBlkTot
0003f1b0 l     O .rodata	0000002c Bond_event_type_str
0003f1dc l     O .rodata	00000009 CSWTCH.1
0003f1e8 l     O .rodata	00000024 CSWTCH.2
0003f20c l     O .rodata	0000000f RF_RPL_TX_PW_CONV_TBL
0003f21c l     O .rodata	0000000c TASK_DESC_APP
0003f8f0 l     O .rodata	000000f8 appm_msg_handler_tab
0003f228 l     O .rodata	00000010 USER_FCC0_SERV_UUID_128
0003f238 l     O .rodata	00000019 __func__.0.lto_priv.0
0003f251 l     O .rodata	00000010 __func__.0.lto_priv.1
0003f261 l     O .rodata	00000018 __func__.0.lto_priv.10
0003f279 l     O .rodata	00000018 __func__.0.lto_priv.11
0003f291 l     O .rodata	0000001e __func__.0.lto_priv.12
0003f2af l     O .rodata	0000001a __func__.0.lto_priv.2
0003f2c9 l     O .rodata	0000001f __func__.0.lto_priv.3
0003f2e8 l     O .rodata	0000001a __func__.0.lto_priv.4
0003f302 l     O .rodata	0000001a __func__.0.lto_priv.5
0003f31c l     O .rodata	0000000a __func__.0.lto_priv.6
0003f326 l     O .rodata	00000016 __func__.0.lto_priv.7
0003f33c l     O .rodata	0000001f __func__.0.lto_priv.8
0003f35b l     O .rodata	0000001f __func__.0.lto_priv.9
0003f37a l     O .rodata	00000015 __func__.1.lto_priv.0
0003f38f l     O .rodata	0000000d __func__.1.lto_priv.1
0003f39c l     O .rodata	00000012 __func__.1.lto_priv.10
0003f3ae l     O .rodata	0000001a __func__.1.lto_priv.11
0003f3c8 l     O .rodata	0000001e __func__.1.lto_priv.12
0003f3e6 l     O .rodata	0000001c __func__.1.lto_priv.2
0003f402 l     O .rodata	00000022 __func__.1.lto_priv.3
0003f424 l     O .rodata	00000019 __func__.1.lto_priv.4
0003f43d l     O .rodata	00000019 __func__.1.lto_priv.5
0003f456 l     O .rodata	00000017 __func__.1.lto_priv.6
0003f46d l     O .rodata	00000013 __func__.1.lto_priv.7
0003f480 l     O .rodata	0000001f __func__.1.lto_priv.8
0003f49f l     O .rodata	0000001f __func__.1.lto_priv.9
0003f4be l     O .rodata	0000001c __func__.10
0003f4da l     O .rodata	00000017 __func__.11
0003f4f1 l     O .rodata	0000001a __func__.12
0003f50b l     O .rodata	00000017 __func__.13
0003f522 l     O .rodata	0000001a __func__.2.lto_priv.0
0003f53c l     O .rodata	0000001a __func__.2.lto_priv.1
0003f556 l     O .rodata	00000022 __func__.2.lto_priv.2
0003f578 l     O .rodata	00000014 __func__.2.lto_priv.3
0003f58c l     O .rodata	0000001c __func__.2.lto_priv.4
0003f5a8 l     O .rodata	0000001c __func__.2.lto_priv.5
0003f5c4 l     O .rodata	00000014 __func__.2.lto_priv.6
0003f5d8 l     O .rodata	00000016 __func__.2.lto_priv.7
0003f5ee l     O .rodata	0000001c __func__.3.lto_priv.0
0003f60a l     O .rodata	00000015 __func__.3.lto_priv.1
0003f61f l     O .rodata	0000001b __func__.3.lto_priv.2
0003f63a l     O .rodata	0000001b __func__.3.lto_priv.3
0003f655 l     O .rodata	00000020 __func__.3.lto_priv.4
0003f675 l     O .rodata	0000001e __func__.3.lto_priv.5
0003f693 l     O .rodata	0000001a __func__.4.lto_priv.0
0003f6ad l     O .rodata	0000001e __func__.4.lto_priv.1
0003f6cb l     O .rodata	00000016 __func__.4.lto_priv.2
0003f6e1 l     O .rodata	00000016 __func__.4.lto_priv.3
0003f6f7 l     O .rodata	00000011 __func__.4.lto_priv.4
0003f708 l     O .rodata	00000020 __func__.5.lto_priv.0
0003f728 l     O .rodata	0000000a __func__.5.lto_priv.1
0003f732 l     O .rodata	00000009 __func__.5.lto_priv.2
0003f73b l     O .rodata	0000001f __func__.6
0003f75a l     O .rodata	0000001e __func__.7.lto_priv.0
0003f778 l     O .rodata	00000016 __func__.7.lto_priv.1
0003f78e l     O .rodata	00000016 __func__.8.lto_priv.0
0003f7a4 l     O .rodata	00000011 __func__.8.lto_priv.1
0003f7b5 l     O .rodata	0000001d __func__.9
0003f7d4 l     O .rodata	00000008 app_batt_handlers
0003f7dc l     O .rodata	00000020 app_batt_msg_handler_list
0003f7fc l     O .rodata	00000008 app_dis_handlers
0003f804 l     O .rodata	00000008 app_dis_msg_handler_list
0003f80c l     O .rodata	00000008 app_fcc0_handler
0003f814 l     O .rodata	00000020 app_fcc0_msg_handler_list
0003f834 l     O .rodata	00000008 app_fee0_handler
0003f83c l     O .rodata	00000038 app_fee0_msg_handler_list
0003f874 l     O .rodata	00000008 app_oads_handler
0003f87c l     O .rodata	00000030 app_oads_msg_handler_list
0003f8ac l     O .rodata	00000008 app_sec_handlers
0003f8b4 l     O .rodata	00000028 app_sec_msg_handler_list
0003f8dc l     O .rodata	00000014 appm_add_svc_func_list
0003f9e8 l     O .rodata	00000028 bas_att_db
0003fa10 l     O .rodata	00000010 bass_itf
0003fa20 l     O .rodata	00000030 bass_msg_handler_tab
0003fae8 l     O .rodata	00000010 diss_itf
0003faf8 l     O .rodata	00000018 diss_msg_handler_tab
0003fb94 l     O .rodata	00000010 fcc0s_itf
0003fba4 l     O .rodata	00000028 fcc0s_msg_handler_tab
0003fbcc l     O .rodata	00000070 fee0_att_db
0003fc3c l     O .rodata	00000010 fee0s_itf
0003fc4c l     O .rodata	00000030 fee0s_msg_handler_tab
0003fc7c l     O .rodata	00000004 nvds_magic_number
0003fc80 l     O .rodata	00000048 oads_att_db
0003fcc8 l     O .rodata	00000010 oads_itf
0003fcd8 l     O .rodata	00000030 oads_msg_handler_tab
0003fd08 l     O .rodata	00000010 sdp_itf
0003fd18 l     O .rodata	00000048 sdp_msg_handler_tab
0003fd60 l     O .rodata	00000010 uart_api
00000000 l    df *ABS*	00000000 _thumb1_case_uqi.o
00000000 l    df *ABS*	00000000 _thumb1_case_shi.o
00000000 l    df *ABS*	00000000 _arm_muldf3.o
00000000 l    df *ABS*	00000000 _arm_addsubdf3.o
00000000 l    df *ABS*	00000000 _arm_muldivdf3.o
00000000 l    df *ABS*	00000000 _arm_cmpdf2.o
00000000 l    df *ABS*	00000000 _arm_unorddf2.o
00000000 l    df *ABS*	00000000 _arm_fixdfsi.o
00000000 l    df *ABS*	00000000 _aeabi_uldivmod.o
00000000 l    df *ABS*	00000000 libgcc2.c
00000000 l    df *ABS*	00000000 _dvmd_tls.o
00000000 l    df *ABS*	00000000 _clzdi2.o
00000000 l    df *ABS*	00000000 _clzsi2.o
00000000 l    df *ABS*	00000000 memcpy-stub.c
00000000 l    df *ABS*	00000000 memset.c
00000000 l    df *ABS*	00000000 strlen-stub.c
00000000 l    df *ABS*	00000000 strncmp.c
00000000 l    df *ABS*	00000000 vsprintf.c
00000000 l    df *ABS*	00000000 impure.c
00400f50 l     O .data	00000428 impure_data
00000000 l    df *ABS*	00000000 vfprintf.c
0003ff24 l     O .rodata	00000010 blanks.1
0003ff34 l     O .rodata	00000010 zeroes.0
00000000 l    df *ABS*	00000000 dtoa.c
00037f1c l     F .text	0000014a quorem
00000000 l    df *ABS*	00000000 mallocr.c
00000000 l    df *ABS*	00000000 localeconv.c
00000000 l    df *ABS*	00000000 mallocr.c
00000000 l    df *ABS*	00000000 memchr-stub.c
00000000 l    df *ABS*	00000000 mlock.c
00000000 l    df *ABS*	00000000 mprec.c
00040180 l     O .rodata	0000000c p05.0
00000000 l    df *ABS*	00000000 s_frexp.c
00000000 l    df *ABS*	00000000 sbrkr.c
00000000 l    df *ABS*	00000000 strncpy.c
00000000 l    df *ABS*	00000000 vfprintf.c
000402f8 l     O .rodata	00000010 blanks.1
00040308 l     O .rodata	00000010 zeroes.0
00000000 l    df *ABS*	00000000 assert.c
00000000 l    df *ABS*	00000000 mallocr.c
00000000 l    df *ABS*	00000000 errno.c
00000000 l    df *ABS*	00000000 fiprintf.c
00000000 l    df *ABS*	00000000 locale.c
00000000 l    df *ABS*	00000000 lock.c
00000000 l    df *ABS*	00000000 mbtowc_r.c
00000000 l    df *ABS*	00000000 memmove.c
00000000 l    df *ABS*	00000000 mallocr.c
00000000 l    df *ABS*	00000000 reent.c
00000000 l    df *ABS*	00000000 lib_a-strcmp.o
00000000 l    df *ABS*	00000000 vfprintf.c
0003b9fc l     F .text	0000008a __sprint_r.part.0
0003c87c l     F .text	00000090 __sbprintf
000404d4 l     O .rodata	00000010 blanks.1
000404e4 l     O .rodata	00000010 zeroes.0
00000000 l    df *ABS*	00000000 wctomb_r.c
00000000 l    df *ABS*	00000000 wsetup.c
00000000 l    df *ABS*	00000000 abort.c
00000000 l    df *ABS*	00000000 ctype_.c
00000000 l    df *ABS*	00000000 fflush.c
00000000 l    df *ABS*	00000000 findfp.c
0003cca8 l     F .text	0000001e __fp_lock
0003ccc8 l     F .text	0000001e __fp_unlock
00000000 l    df *ABS*	00000000 fputwc.c
00000000 l    df *ABS*	00000000 fvwrite.c
00000000 l    df *ABS*	00000000 fwalk.c
00000000 l    df *ABS*	00000000 makebuf.c
00000000 l    df *ABS*	00000000 signal.c
00000000 l    df *ABS*	00000000 signalr.c
00000000 l    df *ABS*	00000000 stdio.c
00000000 l    df *ABS*	00000000 wbuf.c
00000000 l    df *ABS*	00000000 wcrtomb.c
00000000 l    df *ABS*	00000000 writer.c
00000000 l    df *ABS*	00000000 closer.c
00000000 l    df *ABS*	00000000 fclose.c
00000000 l    df *ABS*	00000000 fstatr.c
00000000 l    df *ABS*	00000000 isattyr.c
00000000 l    df *ABS*	00000000 lseekr.c
00000000 l    df *ABS*	00000000 readr.c
00000000 l    df *ABS*	00000000 close.c
00000000 l    df *ABS*	00000000 fstat.c
00000000 l    df *ABS*	00000000 getpid.c
00000000 l    df *ABS*	00000000 isatty.c
00000000 l    df *ABS*	00000000 kill.c
00000000 l    df *ABS*	00000000 lseek.c
00000000 l    df *ABS*	00000000 read.c
00000000 l    df *ABS*	00000000 sbrk.c
0040a2b0 l     O .bss	00000004 heap_end.0
00000000 l    df *ABS*	00000000 write.c
00000000 l    df *ABS*	00000000 _exit.c
0002dfd0 l     F .vectors	0000000c __main_from_arm
0002e030 l     F FAST_CALL_SEG	0000000c __FIQ_Exception_from_arm
0002e03c l     F FAST_CALL_SEG	0000000c __IRQ_Exception_from_arm
0003de50 l     F .text	00000008 ____aeabi_dmul_from_thumb
0003de58 l     F .text	00000008 ____aeabi_ddiv_from_thumb
0003de60 l     F .text	00000008 ____enable_fiq_from_thumb
0003de68 l     F .text	00000008 ____aeabi_d2iz_from_thumb
0003de70 l     F .text	00000008 ____aeabi_dcmpeq_from_thumb
0003de78 l     F .text	00000008 ____aeabi_uidiv_from_thumb
0003de80 l     F .text	00000008 ____aeabi_dcmple_from_thumb
0003de88 l     F .text	00000008 ____aeabi_idivmod_from_thumb
0003de90 l     F .text	00000008 ____enable_irq_from_thumb
0003de98 l     F .text	00000008 __strcmp_from_thumb
0003dea0 l     F .text	0000000c ____udivmoddi4_from_arm
0003deac l     F .text	00000008 ____aeabi_dsub_from_thumb
0003deb4 l     F .text	00000008 ____disable_fiq_from_thumb
0003debc l     F .text	0000000c ____aeabi_ldiv0_from_arm
0003dec8 l     F .text	00000008 ____aeabi_i2d_from_thumb
0003ded0 l     F .text	00000008 ____aeabi_ui2d_from_thumb
0003ded8 l     F .text	00000008 ____aeabi_idiv_from_thumb
0003dee0 l     F .text	00000008 ____aeabi_dadd_from_thumb
0003dee8 l     F .text	00000008 ____aeabi_uldivmod_from_thumb
0003def0 l     F .text	00000008 ____aeabi_dcmplt_from_thumb
0003def8 l     F .text	00000008 ____disable_irq_from_thumb
0003df00 l     F .text	00000008 ____aeabi_dcmpgt_from_thumb
0003df08 l     F .text	00000008 ____aeabi_uidivmod_from_thumb
0003df10 l     F .text	00000008 ____aeabi_dcmpun_from_thumb
0003df18 l     F .text	00000008 ____clzdi2_from_thumb
00027648 g     F *ABS*	0000002c ke_state_get
0002681c g     F *ABS*	00000044 ke_mem_is_empty
0003a390 g     F .text	00000038 _mprec_log10
0002608c g     F *ABS*	00000030 co_list_extract
0002ed0c g     F .text	00000038 .hidden __aeabi_dcmpun
0003a40c g     F .text	00000054 __any_on
0003dd30 g     F .text	00000028 _isatty_r
00040158 g     O .rodata	00000028 __mprec_tinytens
0002ecc4 g     F .text	00000018 .hidden __aeabi_dcmple
0003b8fc g     F .text	00000052 cleanup_glue
00025eb8 g     F *ABS*	00000012 hci_cmd_get_max_param_size
0003ddd0 g     F .text	00000010 _getpid
0002ebd8 g     F .text	00000088 .hidden __cmpdf2
0002bfe0 g     O *ABS*	00000030 hci_cmd_desc_root_tab
0003dd58 g     F .text	0000002c _lseek_r
0000a4a4 g     F *ABS*	000000c4 attm_att_set_permission
0000a750 g     F *ABS*	000000dc attc_send_read_ind
000027ae g     F *ABS*	00000002 PrefetchAbort_Exception
0002ebd8 g     F .text	00000088 .hidden __eqdf2
00002898 g     F *ABS*	00000010 gapc_set_operation_ptr
00026860 g     F *ABS*	0000009c ke_check_malloc
0000f564 g     F *ABS*	0000007c l2cc_lecb_pdu_unpack
00400f00 g       .data	00000000 _data_addr_begin
0001f33c g     F *ABS*	00000014 hci_fc_init
000097d8 g     F *ABS*	00000044 attmdb_uuid16_comp
0001d500 g     F *ABS*	000003b8 lld_init
0002e6cc g     F .text	00000060 .hidden __floatdidf
00025ef0 g     F *ABS*	00000018 sch_plan_init
0003d93c g     F .text	0000002c _kill_r
0002df20 g     F .vectors	00000000 __disable_irq
00009abc g     F *ABS*	00000198 attm_get_value
0040a290 g     O .bss	00000001 __lock___atexit_recursive_mutex
0003630c g     F .text	0000003c vsprintf
0003db18 g     F .text	0000004a _wcrtomb_r
00400474 g     O *ABS*	00000007 gapc_state
0003d6a0 g     F .text	0000005c _signal_r
0003d9e8 g     F .text	00000030 __sseek
0003cd38 g     F .text	00000124 __sinit
00400ecb g     O *ABS*	00000001 latency_disable
0003da28 g     F .text	000000d4 __swbuf_r
000106ec g     F *ABS*	000000a8 l2cc_lecb_free
0000952c g     F *ABS*	00000052 attm_uuid_comp
000269dc g     F *ABS*	000000d8 ke_free
0003b344 g     F .text	00000048 _setlocale_r
0003cce8 g     F .text	00000032 __sfmoreglue
0000d6ac g     F *ABS*	00000008 gattm_create
00039914 g     F .text	00000014 __malloc_unlock
0001f3a0 g     F *ABS*	00000028 hci_fc_check_host_available_nb_acl_packets
00027700 g     F *ABS*	00000018 ke_timer_adjust_all
0000d778 g     F *ABS*	00000068 gattc_send_complete_evt
00009d98 g     F *ABS*	00000018 gattc_get_operation
0001fa48 g     F *ABS*	00000040 hci_init
00002a38 g     F *ABS*	0000000c gapm_get_irk
0040a288 g     O .bss	00000001 __lock___arc4random_mutex
0002742c g     F *ABS*	0000000e ke_msg_send_basic
0003b45c g     F .text	000000ba memmove
0002b40c g     O *ABS*	00000068 atts_handlers
00010168 g     F *ABS*	00000030 l2cc_pdu_alloc
0003cd1c g     F .text	0000001c _cleanup
00039928 g     F .text	00000052 _Balloc
00027508 g     F *ABS*	00000048 ke_init
00025e4c g     F *ABS*	00000024 hci_look_for_evt_desc
0000fb98 g     F *ABS*	00000008 l2cm_create
004004f0 g     O *ABS*	00000001 gapm_state
0002824c g     F *ABS*	00000030 rwip_prevent_sleep_set
00002a60 g     F *ABS*	00000010 gapm_is_legacy_pairing_supp
0002ebc8 g     F .text	00000098 .hidden __gtdf2
0003b2fc g     F .text	0000000c __errno
0003b3ec g     F .text	00000002 __retarget_lock_close
00026102 g     F *ABS*	0000002c co_list_insert_before
000392ec g     F .text	00000004 __localeconv_l
00002ae0 g     F *ABS*	00000020 gapm_dle_val_check
00002928 g     F *ABS*	0000001c gapc_enc_keysize_get
0003dd04 g     F .text	0000002c _fstat_r
00025edc g     F *ABS*	00000014 sch_arb_init
000087ec g     F *ABS*	00000038 gapm_get_task_from_id
000027b2 g     F *ABS*	00000002 Reserved_Exception
00002d04 g     F *ABS*	0000002c gapc_update_state
0040a2ac g     O .bss	00000004 errno
0003d9a0 g     F .text	00000004 __seofread
0001f2f4 g     F *ABS*	00000034 hci_evt_mask_set
0002612e g     F *ABS*	0000002e co_list_insert_after
0002c52c g     O *ABS*	00000030 hci_cmd_desc_tab_vs
004007b0 g     O *ABS*	0000001c l2cc_env
00026ab4 g     F *ABS*	00000008 ke_msg_free
0001f328 g     F *ABS*	00000014 hci_fc_acl_buf_size_set
0002ec7c g     F .text	00000018 .hidden __aeabi_cdcmple
004007d4 g     O *ABS*	00000028 llc_env
000095f8 g     F *ABS*	0000003c attm_convert_to128_ti
00002944 g     F *ABS*	00000054 gapc_auth_set
00012e44 g     F *ABS*	0000003c l2cm_init
000276b8 g     F *ABS*	00000024 ke_task_check
000032e4 g     F *ABS*	00000088 gapc_process_op
0000c8a4 g     F *ABS*	0000004c attc_l2cc_pdu_recv_handler
00009764 g     F *ABS*	00000074 attmdb_get_next_att
000260d6 g     F *ABS*	00000012 co_list_find
0002827c g     F *ABS*	00000040 h4tl_write
0002a40c g     F *ABS*	00000108 hci_tl_send
00009f3c g     F *ABS*	00000010 gattc_set_operation_ptr
0002df10 g     F .vectors	00000000 __enable_irq
000360dc g     F .text	000000a6 memcpy
0002ec60 g     F .text	00000034 .hidden __aeabi_cdrcmple
0000faf8 g     F *ABS*	00000010 l2cm_set_link_layer_buff_size
00024ed0 g     F *ABS*	00000078 hci_send_2_controller
0000f45c g     F *ABS*	00000010 l2cc_get_operation_ptr
000276dc g     F *ABS*	00000024 ke_timer_active
000266bc g     F *ABS*	00000014 ke_event_init
00010304 g     F *ABS*	0000003c l2cc_sig_pdu_recv_handler
0003cc94 g     F .text	00000014 _cleanup_r
00036374 g     F .text	00001ba8 _svfprintf_r
0002e648 g     F .text	00000028 .hidden __floatsidf
00025e70 g     F *ABS*	00000020 hci_look_for_le_evt_desc
0002df00 g       .vectors	00000000 _swi_handler
0000a3bc g     F *ABS*	00000030 gattc_reschedule_operation
0002ebd0 g     F .text	00000090 .hidden __ltdf2
00027c1c g     F *ABS*	000000a4 sch_arb_event_start_isr
00010f6c g     F *ABS*	000005f0 llc_start
000101da g     F *ABS*	00000026 l2cc_lecb_send_disc_rsp
00010200 g     F *ABS*	00000026 l2cc_lecb_send_credit_add
00002f78 g     F *ABS*	00000060 gapc_init
00026170 g     F *ABS*	0000001a co_bdaddr_compare
0002eda0 g     F .text	00000000 .hidden __aeabi_uldivmod
0000f46c g     F *ABS*	00000010 l2cc_set_operation_ptr
0000f09c g     F *ABS*	0000002c hci_command_handler
0002defc g       .vectors	00000000 _undefined_handler
0001dc98 g     F *ABS*	00000064 lld_con_stop
0040075c g     O *ABS*	00000022 hci_env
0003a324 g     F .text	0000006c __ratio
0002bdb4 g     O *ABS*	00000014 rwip_priority
0040108d g     O *ABS*	00000001 uart_rx_en
00026784 g     F *ABS*	0000002c ke_event_schedule
00002524 g     F *ABS*	00000068 gapc_hci_handler
0002a680 g     F *ABS*	00000012 __aeabi_memset
0003d6fc g     F .text	00000062 _raise_r
0003ddc0 g     F .text	00000010 _fstat
0003b200 g     F .text	00000040 __assert_func
00026b30 g     F *ABS*	00000040 ke_flush
0000a89c g     F *ABS*	00000020 attm_init
00040090 g     O .rodata	000000c8 __mprec_tens
00027814 g     F *ABS*	00000040 sch_alarm_timer_isr
00026664 g     F *ABS*	00000010 h4tl_start
00027758 g     F *ABS*	00000030 rwip_time_get
004018f4 g       .bss	00000000 _bss_start
00008824 g     F *ABS*	0000001c gapm_le_psm_cleanup
0002a674 g     F *ABS*	0000000c __aeabi_memcpy
0040a280 g     O .bss	00000004 __malloc_top_pad
0000b90a g     F *ABS*	0000013e attm_svc_create_db128
0003d968 g     F .text	0000000c _getpid_r
00026ae4 g     F *ABS*	0000004c ecc_init
0002e624 g     F .text	00000024 .hidden __aeabi_ui2d
000392f0 g     F .text	00000008 _localeconv_r
0003d164 g     F .text	0000031c __sfvwrite_r
00039b84 g     F .text	00000064 __i2b
0003d760 g     F .text	00000068 __sigtramp_r
000027c0 g     F *ABS*	00000028 gapc_get_conidx
0002eddc g     F .text	0000019a .hidden __udivmoddi4
0002e308 g     F .text	00000000 .hidden __aeabi_drsub
0003a4c8 g     F .text	00000028 _sbrk_r
00002e70 g     F *ABS*	00000024 gapc_send_disconect_ind
000285d0 g     F *ABS*	00000030 rwip_prevent_sleep_clear
0003dd84 g     F .text	0000002c _read_r
00025f08 g     F *ABS*	00000030 sch_prog_init
0002df84 g       .vectors	00000000 boot_stack_base_FIQ
000129e4 g     F *ABS*	00000020 l2cm_tx_status
0002e050 g     F .text	00000012 .hidden __gnu_thumb1_case_uqi
00026674 g     F *ABS*	0000001c h4tl_stop
0002ecac g     F .text	00000018 .hidden __aeabi_dcmplt
00002a54 g     F *ABS*	0000000c gapm_get_bdaddr
0003dc08 g     F .text	000000e2 _fclose_r
0003cc18 g     F .text	0000007c fflush
00026030 g     F *ABS*	00000024 co_list_pool_init
0040a278 g     O .bss	00000004 __malloc_max_sbrked_mem
00027474 g     F *ABS*	00000040 ke_queue_extract
0002e670 g     F .text	00000048 .hidden __extendsfdf2
0002e9bc g     F .text	0000020c .hidden __aeabi_ddiv
00026690 g     F *ABS*	00000010 ke_timer_init
0002e314 g     F .text	00000310 .hidden __adddf3
00400590 g     O *ABS*	00000001 gattm_state
0003a17c g     F .text	000000cc __b2d
0040a298 g     O .bss	00000001 __lock___env_recursive_mutex
0002e72c g     F .text	00000290 .hidden __aeabi_dmul
0002a674 g     F *ABS*	0000000c __aeabi_memcpy4
0002b09c g     O *ABS*	00000018 gapc_sig_handlers
0003dde0 g     F .text	00000010 _isatty
0001f238 g     F *ABS*	00000024 ble_addr_add1
00026cc8 g     F *ABS*	00000054 hci_acl_tx_data_received
00009a00 g     F *ABS*	000000bc attmdb_get_uuid
0040a2a4 g     O .bss	00000001 __lock___sinit_recursive_mutex
0003fd70 g     O .rodata	00000004 _global_impure_ptr
0003b518 g     F .text	000003e2 _realloc_r
00002bbc g     F *ABS*	00000010 gapm_is_pref_con_param_pres
0000280c g     F *ABS*	00000020 gapc_get_conhdl
0003d084 g     F .text	00000064 _fputwc_r
00040068 g     O .rodata	00000028 __mprec_bigtens
00039a3c g     F .text	000000b4 __s2b
0003ca2c g     F .text	0000000e abort
00027462 g     F *ABS*	00000006 ke_msg_src_id_get
0002e624 g     F .text	00000024 .hidden __floatunsidf
00008758 g     F *ABS*	0000003c gapm_con_cleanup
0003de20 g     F .text	0000001c _sbrk
00039f6c g     F .text	00000038 __mcmp
00002e94 g     F *ABS*	00000060 gapc_send_complete_evt
0000f444 g     F *ABS*	00000018 l2cc_get_operation
0003cf88 g     F .text	00000024 __fp_lock_all
00026054 g     F *ABS*	00000016 co_list_push_back
0000c880 g     F *ABS*	00000024 attc_send_execute
000266b0 g     F *ABS*	0000000c ke_event_get_all
0000995c g     F *ABS*	00000078 attmdb_get_max_len
00009c54 g     F *ABS*	00000128 attmdb_att_get_permission
000042c0 g     F *ABS*	00000020 gapm_send_error_evt
0002bdcf g     O *ABS*	00000003 LLM_AA_CT1
00002b94 g     F *ABS*	00000028 gapm_lecb_unregister
000268fc g     F *ABS*	000000e0 ke_malloc
0040a2b4 g       .bss	00000000 _bss_end
000260e8 g     F *ABS*	0000001a co_list_merge
00025ecc g     F *ABS*	00000010 sch_alarm_init
000102a8 g     F *ABS*	0000005a l2cc_sig_send_cmd_reject
0002df88 g       .vectors	00000000 boot_stack_base_IRQ
00010c78 g     F *ABS*	0000005c l2cc_lecb_send_con_req
0000fe7c g     F *ABS*	000002c4 l2cc_pdu_header_check
0003b950 g     F .text	000000aa _reclaim_reent
0000a904 g     F *ABS*	00000020 atts_clear_read_cache
00039af0 g     F .text	00000036 __hi0bits
00009590 g     F *ABS*	00000034 attm_is_bt16_uuid
0002664c g     F *ABS*	00000018 ke_event_callback_set
0002ed44 g     F .text	0000005c .hidden __fixdfsi
0000e0b0 g     F *ABS*	00000098 atts_l2cc_pdu_recv_handler
0040a29c g     O .bss	00000001 __lock___malloc_recursive_mutex
0000972a g     F *ABS*	00000038 attmdb_get_attribute
000094d0 g     F *ABS*	00000010 gattc_get_operation_ptr
0002a664 g     F *ABS*	0000000e __aeabi_memclr8
0002df04 g       .vectors	00000000 _pabort_handler
0001f374 g     F *ABS*	00000014 hci_fc_acl_packet_sent
00026078 g     F *ABS*	00000014 co_list_pop_front
0000b784 g     F *ABS*	00000038 gattm_init_attr
000085d4 g     F *ABS*	00000038 gapm_init_attr
00002df4 g     F *ABS*	00000030 gapc_reschedule_operation
0000c3a8 g     F *ABS*	00000026 atts_send_error
0001f54c g     F *ABS*	0000015c llm_init
0000f864 g     F *ABS*	00000288 l2cc_pdu_unpack
0002e314 g     F .text	00000310 .hidden __aeabi_dadd
00400458 g     O *ABS*	0000001c gapc_env
0002ebd0 g     F .text	00000090 .hidden __ledf2
00012c5c g     F *ABS*	00000014 l2cm_cleanup
00028770 g     F *ABS*	0000004c h4tl_init
00027594 g     F *ABS*	00000038 ke_task_delete
000041c0 g     F *ABS*	00000044 gapm_send_complete_evt
00039d90 g     F .text	000000dc __pow5mult
0002e6b8 g     F .text	00000074 .hidden __aeabi_ul2d
00028138 g     F *ABS*	000000a8 ke_timer_set
0040a2b4 g       .bss	00000000 end
000022e4 g     F *ABS*	00000000 .hidden __aeabi_idiv
000029d0 g     F *ABS*	0000003c gapc_param_update_sanity
00025de8 g     F *ABS*	00000064 hci_look_for_cmd_desc
0003b408 g     F .text	00000002 __retarget_lock_release_recursive
000028c4 g     F *ABS*	00000044 gapc_is_sec_set
00002888 g     F *ABS*	00000010 gapc_get_operation_ptr
0002df44 g     F .vectors	00000000 __disable_fiq
000275cc g     F *ABS*	0000007c ke_state_set
0003b400 g     F .text	00000004 __retarget_lock_try_acquire_recursive
000096a4 g     F *ABS*	00000048 attmdb_get_service
00400f10 g     O *ABS*	0000001c rwip_env
0000b650 g     F *ABS*	00000134 attm_svc_create_db
00009f24 g     F *ABS*	00000018 gattc_get_op_seq_num
0002ecf4 g     F .text	00000018 .hidden __aeabi_dcmpgt
0002efa4 g     F .text	00000048 .hidden __clzsi2
0003cf38 g     F .text	00000014 __sfp_lock_acquire
00039888 g     F .text	00000078 memchr
00039124 g     F .text	000001c8 _free_r
0002e064 g     F .text	00000014 .hidden __gnu_thumb1_case_shi
0003b38c g     F .text	00000010 __locale_mb_cur_max
0002ecdc g     F .text	00000018 .hidden __aeabi_dcmpge
00002fd8 g     F *ABS*	00000010 gapc_con_cleanup
0002e310 g     F .text	00000314 .hidden __aeabi_dsub
00401780 g     O .data	00000004 __malloc_sbrk_base
00028574 g     F *ABS*	0000005c aes_result_handler
0002dd00 g       *ABS*	00000000 _vector_start
0000d6b4 g     F *ABS*	000000c4 gattc_con_enable
0003b3fc g     F .text	00000004 __retarget_lock_try_acquire
000095c4 g     F *ABS*	00000034 attm_is_bt32_uuid
0002e6b8 g     F .text	00000074 .hidden __floatundidf
0002a84c g     F *ABS*	00000038 rand
0003de00 g     F .text	00000010 _lseek
00039e6c g     F .text	00000100 __lshift
00002a9c g     F *ABS*	0000002c gapm_get_id_from_task
00027678 g     F *ABS*	00000040 ke_task_msg_flush
0003d830 g     F .text	00000058 signal
0003a564 g     F .text	00000118 __ssprint_r
0002c0ac g     O *ABS*	0000045c hci_cmd_desc_tab_le
0002e020 g     F FAST_CALL_SEG	00000000 _irq_handler
00036294 g     F .text	00000078 strncmp
00039be8 g     F .text	000001a8 __multiply
000274e8 g     F *ABS*	00000020 ke_task_init
00027674 g     F *ABS*	00000004 ke_msg_save
0003a4f0 g     F .text	00000074 strncpy
0040a250 g     O .bss	00000028 __malloc_current_mallinfo
0000fe48 g     F *ABS*	00000034 l2cc_lecb_init_disconnect
0002a664 g     F *ABS*	0000000e __aeabi_memclr
0003a248 g     F .text	000000dc __d2b
00028600 g     F *ABS*	00000150 sch_prog_fifo_isr
0002745c g     F *ABS*	00000006 ke_msg_dest_id_get
00012e9c g     F *ABS*	00000134 ble_util_buf_init
00027468 g     F *ABS*	0000000c ke_msg_in_queue
0000a86c g     F *ABS*	00000030 attmdb_destroy
0002b88a g     O *ABS*	00000010 co_sca2ppm
0000981c g     F *ABS*	000000c8 attm_att_set_value
000274b4 g     F *ABS*	00000032 ke_queue_insert
0002bda4 g     O *ABS*	00000010 one_bits
0000d64c g     F *ABS*	00000060 gattc_create
0003dbe0 g     F .text	00000028 _close_r
0001f350 g     F *ABS*	00000024 hci_fc_acl_en
00035e90 g     F .text	0000024c FIQ_Exception
0002e648 g     F .text	00000028 .hidden __aeabi_i2d
0000f4f0 g     F *ABS*	00000074 l2cc_lecb_pdu_pack
00010198 g     F *ABS*	00000042 l2cc_lecb_send_con_rsp
000027ac g     F *ABS*	00000002 SoftwareInterrupt_Exception
004010f0 g     O *ABS*	00000030 ke_env
0002a694 g     F *ABS*	0000004a memcmp
00400550 g     O *ABS*	00000007 gattc_state
0003b3f0 g     F .text	00000002 __retarget_lock_close_recursive
0002b858 g     O *ABS*	00000006 co_null_bdaddr
0001f388 g     F *ABS*	00000018 hci_fc_host_nb_acl_pkts_complete
0003c944 g     F .text	000000e8 __swsetup_r
0000f47c g     F *ABS*	0000003e l2cc_lecb_h2l_err
0002ef78  w    F .text	00000002 .hidden __aeabi_ldiv0
00009f4c g     F *ABS*	0000001c gattc_get_requester
0002e9bc g     F .text	0000020c .hidden __divdf3
0003ce5c g     F .text	000000dc __sfp
0003a3c8 g     F .text	00000042 __copybits
0002d26c g     O *ABS*	00000048 hci_evt_desc_tab
00401378 g     O .data	00000408 __malloc_av_
0003cf74 g     F .text	00000014 __sinit_lock_release
00012e80 g     F *ABS*	0000001c rwble_hl_init
0002e72c g     F .text	00000290 .hidden __muldf3
00002bcc g     F *ABS*	0000002c gapm_get_att_handle
0003d974 g     F .text	0000002c __sread
004007cc g     O *ABS*	00000007 l2cc_state
00039900 g     F .text	00000014 __malloc_lock
0000c848 g     F *ABS*	00000020 attc_send_hdl_cfm
0003cba8 g     F .text	00000070 _fflush_r
0003b24c g     F .text	000000ae _calloc_r
0002744a g     F *ABS*	00000012 ke_msg_forward_new_id
0003b3f8 g     F .text	00000002 __retarget_lock_acquire_recursive
00002ad4 g     F *ABS*	0000000c gapm_get_max_mps
0000e260 g     F *ABS*	00000060 gattc_init
00027718 g     F *ABS*	00000040 rwip_sw_int_handler
00036184 g     F .text	000000ae memset
00034884 g     F .text	00001104 main
00012a04 g     F *ABS*	00000258 l2cc_data_send
00004d9c g     F *ABS*	00000158 gapc_con_create
0040a27c g     O .bss	00000004 __malloc_max_total_mem
0002e000 g     F FAST_CALL_SEG	00000000 _fiq_handler
0003b3e8 g     F .text	00000002 __retarget_lock_init_recursive
0003dafc g     F .text	0000001c __swbuf
0002a838 g     F *ABS*	00000014 srand
00002ac8 g     F *ABS*	0000000c gapm_get_max_mtu
000021c8 g     F *ABS*	00000000 .hidden __aeabi_uidiv
0003da18 g     F .text	00000010 __sclose
0000b7bc g     F *ABS*	0000014e attm_svc_create_db_128
000260bc g     F *ABS*	0000001a co_list_extract_after
004018f4 g       .bss	00000000 _data_addr_end
0003dcec g     F .text	00000018 fclose
000281e0 g     F *ABS*	0000006c ke_timer_clear
00025eb0 g     F *ABS*	00000008 co_list_init
00038068 g     F .text	0000101a _dtoa_r
00039300 g     F .text	00000588 _malloc_r
0003c928 g     F .text	0000001c __ascii_wctomb
0002e6cc g     F .text	00000060 .hidden __aeabi_l2d
0002df90 g       .vectors	00000000 boot_stack_base_UNUSED
0003b308 g     F .text	00000018 _fiprintf_r
0003d888 g     F .text	00000040 _init_signal
0003d480 g     F .text	00000048 _fwalk
0000c42c g     F *ABS*	00000028 atts_write_rsp_send
0000957e g     F *ABS*	00000012 attm_uuid16_comp
00010cd4 g     F *ABS*	0000003c l2cc_lecb_send_disc_req
0003b40c g     F .text	00000022 _mbtowc_r
00002b00 g     F *ABS*	00000010 gapm_is_sec_con_pairing_supp
00039084 g     F .text	000000a0 _malloc_trim_r
0002df0c g       .vectors	00000000 _reserved_handler
0002b9c4 g     O *ABS*	00000040 l2cc_sig_handlers
0002efec g     F .text	00000224 strcmp
0000fd7c g     F *ABS*	00000090 l2cc_process_op
0003c860 g     F .text	0000001c vfiprintf
0003b3e4 g     F .text	00000002 __retarget_lock_init
0000284c g     F *ABS*	00000024 gapc_get_bdaddr
00009634 g     F *ABS*	00000050 attmdb_svc_check_hdl
0002c010 g     O *ABS*	0000006c hci_cmd_desc_tab_ctrl_bb
0002ebd8 g     F .text	00000088 .hidden __nedf2
0000fbfc g     F *ABS*	00000028 l2cc_update_state
0001aa3c g     F *ABS*	00000078 lld_adv_stop
0040a284 g     O .bss	00000004 _PathLocale
000027b4 g     F *ABS*	0000000c stack_main
00401082 g     O *ABS*	00000001 enable_phy_2m
00002a70 g     F *ABS*	00000014 gapm_get_operation
0003dbb4 g     F .text	0000002c _write_r
0000f4bc g     F *ABS*	00000034 l2cc_lecb_find
00036348 g     F .text	0000002c _vsprintf_r
0003b39c g     F .text	00000048 setlocale
004004f4 g     O *ABS*	0000000c l2cm_env
00400534 g     O *ABS*	0000001c gattc_env
0002bdd2 g     O *ABS*	00000002 LLM_AA_CT2
0002df08 g       .vectors	00000000 _dabort_handler
0000a9a8 g     F *ABS*	00000064 atts_process_pdu
00400f4c g     O .data	00000004 _impure_ptr
0000b210 g     F *ABS*	00000440 attmdb_add_service
00027550 g     F *ABS*	00000044 ke_task_create
0003ca3c g     F .text	0000016c __sflush_r
000266d0 g     F *ABS*	00000038 ke_event_set
0002c564 g     O *ABS*	000000c0 hci_evt_le_desc_tab
0003a67c g     F .text	00000b84 _svfiprintf_r
000267b0 g     F *ABS*	0000006c ke_mem_init
000027a4 g     F *ABS*	00000002 uart_stack_register
0003b430 g     F .text	0000002c __ascii_mbtowc
0003a134 g     F .text	00000048 __ulp
0002c508 g     O *ABS*	00000018 hci_cmd_desc_tab_lk_ctrl
0003cfac g     F .text	00000024 __fp_unlock_all
0000e2c0 g     F *ABS*	0000000a gattm_cleanup
0002df34 g     F .vectors	00000000 __enable_fiq
00400e2c g     O *ABS*	00000034 rwip_rf
00002d94 g     F *ABS*	00000032 gapm_update_state
00400500 g     O *ABS*	00000028 rom_env
00026778 g     F *ABS*	0000000c ke_event_flush
00012fd0 g     F *ABS*	00000034 llc_stop
0000fb1c g     F *ABS*	00000040 llc_init
00019194 g     F *ABS*	00000690 lld_adv_start
00002b60 g     F *ABS*	00000034 gapm_lecb_register
0000fd40 g     F *ABS*	0000000a l2cc_pdu_send
00026c5c g     F *ABS*	00000032 ke_msg_alloc
000392f8 g     F .text	00000008 localeconv
0003d604 g     F .text	00000064 __swhatbuf_r
0002b38c g     O *ABS*	00000070 attc_handlers
000022c4 g     F *ABS*	00000020 .hidden __aeabi_uidivmod
0002ec94 g     F .text	00000018 .hidden __aeabi_dcmpeq
0000fb5c g     F *ABS*	0000003c l2cc_create
0003de3c g     F .text	00000010 _write
00035988 g     F .text	00000508 IRQ_Exception
00002870 g     F *ABS*	00000018 gapc_get_operation
0000a394 g     F *ABS*	00000028 gattc_send_error_evt
0002615c g     F *ABS*	00000014 co_list_size
0003cfd0 g     F .text	000000b4 __fputwc
000027b0 g     F *ABS*	00000002 DataAbort_Exception
0002a02c g     F *ABS*	00000058 hci_acl_tx_data_alloc
0040a28c g     O .bss	00000001 __lock___at_quick_exit_mutex
0002c520 g     O *ABS*	0000000c hci_cmd_desc_tab_stat_par
0000ecc4 g     F *ABS*	00000028 gattm_init
00040600 g       .data	00000000 data_load_begin
00026c90 g     F *ABS*	00000038 ke_msg_send
00002a44 g     F *ABS*	00000010 gapm_get_address_type
0000c818 g     F *ABS*	00000030 attc_send_att_req
0002a664 g     F *ABS*	0000000e __aeabi_memclr4
0003d9a4 g     F .text	00000044 __swrite
00401784 g     O .data	00000004 __malloc_trim_threshold
000098e4 g     F *ABS*	00000078 attm_att_update_perm
00026c48 g     F *ABS*	00000014 ke_is_free
0003b320 g     F .text	00000024 fiprintf
0003baa0 g     F .text	00000dc0 _vfiprintf_r
0003d4c8 g     F .text	00000050 _fwalk_reent
00039fa4 g     F .text	00000190 __mdiff
0000d010 g     F *ABS*	000000bc atts_send_event
0002ed44 g     F .text	0000005c .hidden __aeabi_d2iz
0003ddf0 g     F .text	00000010 _kill
000094f0 g     F *ABS*	0000003c attm_convert_to128
0002c07c g     O *ABS*	00000030 hci_cmd_desc_tab_info_par
00029e5c g     F *ABS*	00000144 hci_cmd_received
0040047c g     O *ABS*	00000074 gapm_env
0000282c g     F *ABS*	00000020 gapc_get_role
00040600 g       *ABS*	00000000 _data_load_begin
0003cf4c g     F .text	00000014 __sfp_lock_release
00400020 g     O *ABS*	00000006 co_default_bdaddr
00400528 g     O *ABS*	0000000c rwip_param
000404f4 g     O .rodata	00000101 _ctype_
0002df58 g     F .vectors	00000000 WFI
0003de10 g     F .text	00000010 _read
0002ef78  w    F .text	00000002 .hidden __aeabi_idiv0
0003b3f4 g     F .text	00000002 __retarget_lock_acquire
0002ed0c g     F .text	00000038 .hidden __unorddf2
0003b404 g     F .text	00000002 __retarget_lock_release
0000a324 g     F *ABS*	00000070 gattc_set_mtu
00002908 g     F *ABS*	00000020 gapc_lk_sec_lvl_get
0003de4c g     F .text	00000002 _exit
0000d624 g     F *ABS*	00000028 gattc_update_state
0000e1bc g     F *ABS*	000000a4 gattc_cleanup
0040a294 g     O .bss	00000001 __lock___dd_hash_mutex
0000cfd4 g     F *ABS*	0000003c atts_write_signed_cfm
0003d518 g     F .text	000000ec __smakebuf_r
0040a2a8 g     O .bss	00000001 __lock___tz_mutex
00036234 g     F .text	00000060 strlen
0003d668 g     F .text	00000036 _init_signal_r
0000a8e0 g     F *ABS*	00000024 atts_clear_rsp_data
0002ec7c g     F .text	00000018 .hidden __aeabi_cdcmpeq
0002606a g     F *ABS*	0000000e co_list_push_front
0002ebc8 g     F .text	00000098 .hidden __gedf2
00002b10 g     F *ABS*	0000001c gapm_le_psm_find
0002743a g     F *ABS*	00000010 ke_msg_forward
000094e0 g     F *ABS*	00000010 gattc_get_mtu
000031bc g     F *ABS*	00000022 gapc_send_error_evt
0000a8bc g     F *ABS*	00000024 atts_clear_prep_data
00026740 g     F *ABS*	00000038 ke_event_get
000027aa g     F *ABS*	00000002 Undefined_Exception
00002b2c g     F *ABS*	00000034 gapm_le_psm_get_info
0003b240 g     F .text	0000000a __assert
000096ec g     F *ABS*	00000022 attm_svc_set_permission
0000faec g     F *ABS*	0000000c l2cm_get_nb_buffer_available
0003ba88 g     F .text	00000018 __sprint_r
0000f5e0 g     F *ABS*	00000284 l2cc_pdu_pack
0002e670 g     F .text	00000048 .hidden __aeabi_f2d
000088ac g     F *ABS*	000000b8 gapm_init
0001fa88 g     F *ABS*	00000148 hci_send_2_host
0003c90c g     F .text	0000001a _wctomb_r
0002ef7c g     F .text	00000028 .hidden __clzdi2
0002e310 g     F .text	00000314 .hidden __subdf3
0000970e g     F *ABS*	0000001c attm_svc_get_permission
0002524a g     F *ABS*	00000004 ke_msg_discard
00039b28 g     F .text	0000005a __lo0bits
00002414 g     F *ABS*	00000020 .hidden __aeabi_idivmod
0003d8c8 g     F .text	00000072 __sigtramp
0003db64 g     F .text	0000004e wcrtomb
0003a460 g     F .text	00000068 frexp
000028a8 g     F *ABS*	0000001c gapc_get_requester
00025e90 g     F *ABS*	00000020 hci_tl_init
00026abc g     F *ABS*	00000028 aes_init
00401788 g     O .data	0000016c __global_locale
00009684 g     F *ABS*	00000020 attm_reserve_handle_range
00002998 g     F *ABS*	00000038 gapc_auth_get
00010794 g     F *ABS*	000000c4 l2cc_cleanup
00025fc8 g     F *ABS*	00000050 sch_slice_init
0000860c g     F *ABS*	0000007c gapm_con_create
00002a84 g     F *ABS*	00000018 gapm_get_requester
0040a2a0 g     O .bss	00000001 __lock___sfp_recursive_mutex
00026708 g     F *ABS*	00000038 ke_event_clear
000266a0 g     F *ABS*	00000010 ke_sleep_check
0003d0e8 g     F .text	0000007c fputwc
0003ddb0 g     F .text	00000010 _close
0003d7c8 g     F .text	00000066 raise
00010858 g     F *ABS*	00000060 l2cc_init
0003cf60 g     F .text	00000014 __sinit_lock_acquire
00039990 g     F .text	000000ac __multadd
00002a0c g     F *ABS*	0000002c gapc_sig_pdu_recv_handler
0003997c g     F .text	00000014 _Bfree
0002df8c g       .vectors	00000000 boot_stack_base_SVC
00400558 g     O *ABS*	00000038 gattm_env



Disassembly of section .vectors:

0002dd00 <_reset_handler-0x20>:
   2dd00:	ea000006 	b	2dd20 <_reset_handler>
   2dd04:	e59ff1f0 	ldr	pc, [pc, #496]	; 2defc <_undefined_handler>
   2dd08:	e59ff1f0 	ldr	pc, [pc, #496]	; 2df00 <_swi_handler>
   2dd0c:	e59ff1f0 	ldr	pc, [pc, #496]	; 2df04 <_pabort_handler>
   2dd10:	e59ff1f0 	ldr	pc, [pc, #496]	; 2df08 <_dabort_handler>
   2dd14:	e59ff1f0 	ldr	pc, [pc, #496]	; 2df0c <_reserved_handler>
   2dd18:	e59ff280 	ldr	pc, [pc, #640]	; 2dfa0 <boot_stack_base_UNUSED+0x10>
   2dd1c:	e59ff280 	ldr	pc, [pc, #640]	; 2dfa4 <boot_stack_base_UNUSED+0x14>

0002dd20 <_reset_handler>:
   2dd20:	e10f0000 	mrs	r0, CPSR
   2dd24:	e38000c0 	orr	r0, r0, #192	; 0xc0
   2dd28:	e121f000 	msr	CPSR_c, r0
   2dd2c:	e10f0000 	mrs	r0, CPSR
   2dd30:	e3c0001f 	bic	r0, r0, #31
   2dd34:	e380001f 	orr	r0, r0, #31
   2dd38:	e121f000 	msr	CPSR_c, r0
   2dd3c:	e59f023c 	ldr	r0, [pc, #572]	; 2df80 <_STACK_SIZE_UND>
   2dd40:	e59f1234 	ldr	r1, [pc, #564]	; 2df7c <_STACK_ADDR_UND>
   2dd44:	e59f225c 	ldr	r2, [pc, #604]	; 2dfa8 <boot_stack_base_UNUSED+0x18>
   2dd48:	e1a0d001 	mov	sp, r1
   2dd4c:	e0410000 	sub	r0, r1, r0
   2dd50:	e1500001 	cmp	r0, r1
   2dd54:	b5802000 	strlt	r2, [r0]
   2dd58:	b2800004 	addlt	r0, r0, #4
   2dd5c:	bafffffb 	blt	2dd50 <_reset_handler+0x30>
   2dd60:	e10f0000 	mrs	r0, CPSR
   2dd64:	e3c0001f 	bic	r0, r0, #31
   2dd68:	e3800017 	orr	r0, r0, #23
   2dd6c:	e121f000 	msr	CPSR_c, r0
   2dd70:	e59f0208 	ldr	r0, [pc, #520]	; 2df80 <_STACK_SIZE_UND>
   2dd74:	e59f1200 	ldr	r1, [pc, #512]	; 2df7c <_STACK_ADDR_UND>
   2dd78:	e59f2228 	ldr	r2, [pc, #552]	; 2dfa8 <boot_stack_base_UNUSED+0x18>
   2dd7c:	e1a0d001 	mov	sp, r1
   2dd80:	e0410000 	sub	r0, r1, r0
   2dd84:	e1500001 	cmp	r0, r1
   2dd88:	b5802000 	strlt	r2, [r0]
   2dd8c:	b2800004 	addlt	r0, r0, #4
   2dd90:	bafffffb 	blt	2dd84 <_reset_handler+0x64>
   2dd94:	e10f0000 	mrs	r0, CPSR
   2dd98:	e3c0001f 	bic	r0, r0, #31
   2dd9c:	e380001b 	orr	r0, r0, #27
   2dda0:	e121f000 	msr	CPSR_c, r0
   2dda4:	e59f01d4 	ldr	r0, [pc, #468]	; 2df80 <_STACK_SIZE_UND>
   2dda8:	e59f11cc 	ldr	r1, [pc, #460]	; 2df7c <_STACK_ADDR_UND>
   2ddac:	e59f21f4 	ldr	r2, [pc, #500]	; 2dfa8 <boot_stack_base_UNUSED+0x18>
   2ddb0:	e1a0d001 	mov	sp, r1
   2ddb4:	e0410000 	sub	r0, r1, r0
   2ddb8:	e1500001 	cmp	r0, r1
   2ddbc:	b5802000 	strlt	r2, [r0]
   2ddc0:	b2800004 	addlt	r0, r0, #4
   2ddc4:	bafffffb 	blt	2ddb8 <_reset_handler+0x98>
   2ddc8:	e10f0000 	mrs	r0, CPSR
   2ddcc:	e3c0001f 	bic	r0, r0, #31
   2ddd0:	e3800012 	orr	r0, r0, #18
   2ddd4:	e121f000 	msr	CPSR_c, r0
   2ddd8:	e59f0190 	ldr	r0, [pc, #400]	; 2df70 <_STACK_SIZE_IRQ>
   2dddc:	e59f1188 	ldr	r1, [pc, #392]	; 2df6c <_STACK_ADDR_IRQ>
   2dde0:	e59f21c4 	ldr	r2, [pc, #452]	; 2dfac <boot_stack_base_UNUSED+0x1c>
   2dde4:	e1a0d001 	mov	sp, r1
   2dde8:	e0410000 	sub	r0, r1, r0
   2ddec:	e1500001 	cmp	r0, r1
   2ddf0:	b5802000 	strlt	r2, [r0]
   2ddf4:	b2800004 	addlt	r0, r0, #4
   2ddf8:	bafffffb 	blt	2ddec <_reset_handler+0xcc>
   2ddfc:	e10f0000 	mrs	r0, CPSR
   2de00:	e3c0001f 	bic	r0, r0, #31
   2de04:	e3800011 	orr	r0, r0, #17
   2de08:	e121f000 	msr	CPSR_c, r0
   2de0c:	e59f0154 	ldr	r0, [pc, #340]	; 2df68 <_STACK_SIZE_FIQ>
   2de10:	e59f114c 	ldr	r1, [pc, #332]	; 2df64 <_STACK_ADDR_FIQ>
   2de14:	e59f2194 	ldr	r2, [pc, #404]	; 2dfb0 <boot_stack_base_UNUSED+0x20>
   2de18:	e1a0d001 	mov	sp, r1
   2de1c:	e0410000 	sub	r0, r1, r0
   2de20:	e1500001 	cmp	r0, r1
   2de24:	b5802000 	strlt	r2, [r0]
   2de28:	b2800004 	addlt	r0, r0, #4
   2de2c:	bafffffb 	blt	2de20 <_reset_handler+0x100>
   2de30:	e3a08000 	mov	r8, #0
   2de34:	e3a09000 	mov	r9, #0
   2de38:	e3a0a000 	mov	sl, #0
   2de3c:	e3a0b000 	mov	fp, #0
   2de40:	e3a0c000 	mov	ip, #0
   2de44:	e10f0000 	mrs	r0, CPSR
   2de48:	e3c0001f 	bic	r0, r0, #31
   2de4c:	e3800013 	orr	r0, r0, #19
   2de50:	e121f000 	msr	CPSR_c, r0
   2de54:	e59f011c 	ldr	r0, [pc, #284]	; 2df78 <_STACK_SIZE_SVC>
   2de58:	e59f1114 	ldr	r1, [pc, #276]	; 2df74 <_STACK_ADDR_SVC>
   2de5c:	e59f2150 	ldr	r2, [pc, #336]	; 2dfb4 <boot_stack_base_UNUSED+0x24>
   2de60:	e1a0d001 	mov	sp, r1
   2de64:	e0410000 	sub	r0, r1, r0
   2de68:	e1500001 	cmp	r0, r1
   2de6c:	b5802000 	strlt	r2, [r0]
   2de70:	b2800004 	addlt	r0, r0, #4
   2de74:	bafffffb 	blt	2de68 <_reset_handler+0x148>
   2de78:	eb00000e 	bl	2deb8 <_data_init>
   2de7c:	eb000015 	bl	2ded8 <_zi_init>
   2de80:	e3a00000 	mov	r0, #0
   2de84:	e3a01000 	mov	r1, #0
   2de88:	e3a02000 	mov	r2, #0
   2de8c:	e3a03000 	mov	r3, #0
   2de90:	e3a04000 	mov	r4, #0
   2de94:	e3a05000 	mov	r5, #0
   2de98:	e3a06000 	mov	r6, #0
   2de9c:	e3a07000 	mov	r7, #0
   2dea0:	e3a08000 	mov	r8, #0
   2dea4:	e3a09000 	mov	r9, #0
   2dea8:	e3a0a000 	mov	sl, #0
   2deac:	e3a0b000 	mov	fp, #0
   2deb0:	e3a0c000 	mov	ip, #0
   2deb4:	ea000045 	b	2dfd0 <__main_from_arm>

0002deb8 <_data_init>:
   2deb8:	e59f00f8 	ldr	r0, [pc, #248]	; 2dfb8 <boot_stack_base_UNUSED+0x28>
   2debc:	e59f10f8 	ldr	r1, [pc, #248]	; 2dfbc <boot_stack_base_UNUSED+0x2c>
   2dec0:	e59f20f8 	ldr	r2, [pc, #248]	; 2dfc0 <boot_stack_base_UNUSED+0x30>
   2dec4:	e1510002 	cmp	r1, r2
   2dec8:	34904004 	ldrcc	r4, [r0], #4
   2decc:	34814004 	strcc	r4, [r1], #4
   2ded0:	3afffffb 	bcc	2dec4 <_data_init+0xc>
   2ded4:	e12fff1e 	bx	lr

0002ded8 <_zi_init>:
   2ded8:	e59f00e4 	ldr	r0, [pc, #228]	; 2dfc4 <boot_stack_base_UNUSED+0x34>
   2dedc:	e59f10e4 	ldr	r1, [pc, #228]	; 2dfc8 <boot_stack_base_UNUSED+0x38>
   2dee0:	e1a03001 	mov	r3, r1
   2dee4:	e1a04000 	mov	r4, r0
   2dee8:	e3a02000 	mov	r2, #0
   2deec:	e1540003 	cmp	r4, r3
   2def0:	34842004 	strcc	r2, [r4], #4
   2def4:	3afffffc 	bcc	2deec <_zi_init+0x14>
   2def8:	e12fff1e 	bx	lr

0002defc <_undefined_handler>:
   2defc:	000027ab 	.word	0x000027ab

0002df00 <_swi_handler>:
   2df00:	000027ad 	.word	0x000027ad

0002df04 <_pabort_handler>:
   2df04:	000027af 	.word	0x000027af

0002df08 <_dabort_handler>:
   2df08:	000027b1 	.word	0x000027b1

0002df0c <_reserved_handler>:
   2df0c:	000027b3 	.word	0x000027b3

0002df10 <__enable_irq>:
   2df10:	e10f0000 	mrs	r0, CPSR
   2df14:	e3c00080 	bic	r0, r0, #128	; 0x80
   2df18:	e121f000 	msr	CPSR_c, r0
   2df1c:	e12fff1e 	bx	lr

0002df20 <__disable_irq>:
   2df20:	e10f0000 	mrs	r0, CPSR
   2df24:	e3801080 	orr	r1, r0, #128	; 0x80
   2df28:	e121f001 	msr	CPSR_c, r1
   2df2c:	e2000080 	and	r0, r0, #128	; 0x80
   2df30:	e12fff1e 	bx	lr

0002df34 <__enable_fiq>:
   2df34:	e10f0000 	mrs	r0, CPSR
   2df38:	e3c00040 	bic	r0, r0, #64	; 0x40
   2df3c:	e121f000 	msr	CPSR_c, r0
   2df40:	e12fff1e 	bx	lr

0002df44 <__disable_fiq>:
   2df44:	e10f0000 	mrs	r0, CPSR
   2df48:	e3801040 	orr	r1, r0, #64	; 0x40
   2df4c:	e121f001 	msr	CPSR_c, r1
   2df50:	e2000040 	and	r0, r0, #64	; 0x40
   2df54:	e12fff1e 	bx	lr

0002df58 <WFI>:
   2df58:	e3a00000 	mov	r0, #0
   2df5c:	ee070f90 	mcr	15, 0, r0, cr7, cr0, {4}
   2df60:	e12fff1e 	bx	lr

0002df64 <_STACK_ADDR_FIQ>:
   2df64:	0040fffc 	.word	0x0040fffc

0002df68 <_STACK_SIZE_FIQ>:
   2df68:	000002f0 	.word	0x000002f0

0002df6c <_STACK_ADDR_IRQ>:
   2df6c:	0040fd0c 	.word	0x0040fd0c

0002df70 <_STACK_SIZE_IRQ>:
   2df70:	000003f0 	.word	0x000003f0

0002df74 <_STACK_ADDR_SVC>:
   2df74:	0040f91c 	.word	0x0040f91c

0002df78 <_STACK_SIZE_SVC>:
   2df78:	000006f0 	.word	0x000006f0

0002df7c <_STACK_ADDR_UND>:
   2df7c:	0040f22c 	.word	0x0040f22c

0002df80 <_STACK_SIZE_UND>:
   2df80:	00000100 	.word	0x00000100

0002df84 <boot_stack_base_FIQ>:
   2df84:	0040fd0c 	.word	0x0040fd0c

0002df88 <boot_stack_base_IRQ>:
   2df88:	0040f91c 	.word	0x0040f91c

0002df8c <boot_stack_base_SVC>:
   2df8c:	0040f22c 	.word	0x0040f22c

0002df90 <boot_stack_base_UNUSED>:
   2df90:	0040f12c 	.word	0x0040f12c
   2df94:	deadbeef 	.word	0xdeadbeef
   2df98:	deadbeef 	.word	0xdeadbeef
   2df9c:	deadbeef 	.word	0xdeadbeef
   2dfa0:	0002e020 	.word	0x0002e020
   2dfa4:	0002e000 	.word	0x0002e000
   2dfa8:	aaaaaaaa 	.word	0xaaaaaaaa
   2dfac:	cccccccc 	.word	0xcccccccc
   2dfb0:	dddddddd 	.word	0xdddddddd
   2dfb4:	bbbbbbbb 	.word	0xbbbbbbbb
   2dfb8:	00040600 	.word	0x00040600
   2dfbc:	00400f00 	.word	0x00400f00
   2dfc0:	004018f4 	.word	0x004018f4
   2dfc4:	004018f4 	.word	0x004018f4
   2dfc8:	0040a2b4 	.word	0x0040a2b4
   2dfcc:	00000000 	.word	0x00000000

0002dfd0 <__main_from_arm>:
   2dfd0:	e59fc000 	ldr	ip, [pc]	; 2dfd8 <__main_from_arm+0x8>
   2dfd4:	e12fff1c 	bx	ip
   2dfd8:	00034885 	.word	0x00034885
   2dfdc:	00000000 	.word	0x00000000

Disassembly of section FAST_CALL_SEG:

0002e000 <_fiq_handler>:
   2e000:	e92d500f 	push	{r0, r1, r2, r3, ip, lr}
   2e004:	eb000009 	bl	2e030 <__FIQ_Exception_from_arm>
   2e008:	e8bd500f 	pop	{r0, r1, r2, r3, ip, lr}
   2e00c:	e12fff1e 	bx	lr
	...

0002e020 <_irq_handler>:
   2e020:	e92d500f 	push	{r0, r1, r2, r3, ip, lr}
   2e024:	eb000004 	bl	2e03c <__IRQ_Exception_from_arm>
   2e028:	e8bd500f 	pop	{r0, r1, r2, r3, ip, lr}
   2e02c:	e12fff1e 	bx	lr

0002e030 <__FIQ_Exception_from_arm>:
   2e030:	e59fc000 	ldr	ip, [pc]	; 2e038 <__FIQ_Exception_from_arm+0x8>
   2e034:	e12fff1c 	bx	ip
   2e038:	00035e91 	.word	0x00035e91

0002e03c <__IRQ_Exception_from_arm>:
   2e03c:	e59fc000 	ldr	ip, [pc]	; 2e044 <__IRQ_Exception_from_arm+0x8>
   2e040:	e12fff1c 	bx	ip
   2e044:	00035989 	.word	0x00035989
	...

Disassembly of section .text:

0002e050 <__gnu_thumb1_case_uqi>:
   2e050:	b402      	push	{r1}
   2e052:	4671      	mov	r1, lr
   2e054:	0849      	lsrs	r1, r1, #1
   2e056:	0049      	lsls	r1, r1, #1
   2e058:	5c09      	ldrb	r1, [r1, r0]
   2e05a:	0049      	lsls	r1, r1, #1
   2e05c:	448e      	add	lr, r1
   2e05e:	bc02      	pop	{r1}
   2e060:	4770      	bx	lr
   2e062:	46c0      	nop			; (mov r8, r8)

0002e064 <__gnu_thumb1_case_shi>:
   2e064:	b403      	push	{r0, r1}
   2e066:	4671      	mov	r1, lr
   2e068:	0849      	lsrs	r1, r1, #1
   2e06a:	0040      	lsls	r0, r0, #1
   2e06c:	0049      	lsls	r1, r1, #1
   2e06e:	5e09      	ldrsh	r1, [r1, r0]
   2e070:	0049      	lsls	r1, r1, #1
   2e072:	448e      	add	lr, r1
   2e074:	bc03      	pop	{r0, r1}
   2e076:	4770      	bx	lr
   2e078:	e92d4070 	push	{r4, r5, r6, lr}
   2e07c:	e3a0c0ff 	mov	ip, #255	; 0xff
   2e080:	e38ccc07 	orr	ip, ip, #1792	; 0x700
   2e084:	e01c4a21 	ands	r4, ip, r1, lsr #20
   2e088:	101c5a23 	andsne	r5, ip, r3, lsr #20
   2e08c:	1134000c 	teqne	r4, ip
   2e090:	1135000c 	teqne	r5, ip
   2e094:	0b000075 	bleq	2e270 <__gnu_thumb1_case_shi+0x20c>
   2e098:	e0844005 	add	r4, r4, r5
   2e09c:	e0216003 	eor	r6, r1, r3
   2e0a0:	e1c11a8c 	bic	r1, r1, ip, lsl #21
   2e0a4:	e1c33a8c 	bic	r3, r3, ip, lsl #21
   2e0a8:	e1905601 	orrs	r5, r0, r1, lsl #12
   2e0ac:	11925603 	orrsne	r5, r2, r3, lsl #12
   2e0b0:	e3811601 	orr	r1, r1, #1048576	; 0x100000
   2e0b4:	e3833601 	orr	r3, r3, #1048576	; 0x100000
   2e0b8:	0a00001d 	beq	2e134 <__gnu_thumb1_case_shi+0xd0>
   2e0bc:	e08ec290 	umull	ip, lr, r0, r2
   2e0c0:	e3a05000 	mov	r5, #0
   2e0c4:	e0a5e291 	umlal	lr, r5, r1, r2
   2e0c8:	e2062102 	and	r2, r6, #-2147483648	; 0x80000000
   2e0cc:	e0a5e390 	umlal	lr, r5, r0, r3
   2e0d0:	e3a06000 	mov	r6, #0
   2e0d4:	e0a65391 	umlal	r5, r6, r1, r3
   2e0d8:	e33c0000 	teq	ip, #0
   2e0dc:	138ee001 	orrne	lr, lr, #1
   2e0e0:	e24440ff 	sub	r4, r4, #255	; 0xff
   2e0e4:	e3560c02 	cmp	r6, #512	; 0x200
   2e0e8:	e2c44c03 	sbc	r4, r4, #768	; 0x300
   2e0ec:	2a000002 	bcs	2e0fc <__gnu_thumb1_case_shi+0x98>
   2e0f0:	e1b0e08e 	lsls	lr, lr, #1
   2e0f4:	e0b55005 	adcs	r5, r5, r5
   2e0f8:	e0a66006 	adc	r6, r6, r6
   2e0fc:	e1821586 	orr	r1, r2, r6, lsl #11
   2e100:	e1811aa5 	orr	r1, r1, r5, lsr #21
   2e104:	e1a00585 	lsl	r0, r5, #11
   2e108:	e1800aae 	orr	r0, r0, lr, lsr #21
   2e10c:	e1a0e58e 	lsl	lr, lr, #11
   2e110:	e254c0fd 	subs	ip, r4, #253	; 0xfd
   2e114:	835c0c07 	cmphi	ip, #1792	; 0x700
   2e118:	8a000011 	bhi	2e164 <__gnu_thumb1_case_shi+0x100>
   2e11c:	e35e0102 	cmp	lr, #-2147483648	; 0x80000000
   2e120:	01b0e0a0 	lsrseq	lr, r0, #1
   2e124:	e2b00000 	adcs	r0, r0, #0
   2e128:	e0a11a04 	adc	r1, r1, r4, lsl #20
   2e12c:	e8bd4070 	pop	{r4, r5, r6, lr}
   2e130:	e12fff1e 	bx	lr
   2e134:	e2066102 	and	r6, r6, #-2147483648	; 0x80000000
   2e138:	e1861001 	orr	r1, r6, r1
   2e13c:	e1800002 	orr	r0, r0, r2
   2e140:	e0211003 	eor	r1, r1, r3
   2e144:	e05440ac 	subs	r4, r4, ip, lsr #1
   2e148:	c074500c 	rsbsgt	r5, r4, ip
   2e14c:	c1811a04 	orrgt	r1, r1, r4, lsl #20
   2e150:	c8bd4070 	popgt	{r4, r5, r6, lr}
   2e154:	c12fff1e 	bxgt	lr
   2e158:	e3811601 	orr	r1, r1, #1048576	; 0x100000
   2e15c:	e3a0e000 	mov	lr, #0
   2e160:	e2544001 	subs	r4, r4, #1
   2e164:	ca00005d 	bgt	2e2e0 <__gnu_thumb1_case_shi+0x27c>
   2e168:	e3740036 	cmn	r4, #54	; 0x36
   2e16c:	d3a00000 	movle	r0, #0
   2e170:	d2011102 	andle	r1, r1, #-2147483648	; 0x80000000
   2e174:	d8bd4070 	pople	{r4, r5, r6, lr}
   2e178:	d12fff1e 	bxle	lr
   2e17c:	e2644000 	rsb	r4, r4, #0
   2e180:	e2544020 	subs	r4, r4, #32
   2e184:	aa00001a 	bge	2e1f4 <__gnu_thumb1_case_shi+0x190>
   2e188:	e294400c 	adds	r4, r4, #12
   2e18c:	ca00000c 	bgt	2e1c4 <__gnu_thumb1_case_shi+0x160>
   2e190:	e2844014 	add	r4, r4, #20
   2e194:	e2645020 	rsb	r5, r4, #32
   2e198:	e1a03510 	lsl	r3, r0, r5
   2e19c:	e1a00430 	lsr	r0, r0, r4
   2e1a0:	e1800511 	orr	r0, r0, r1, lsl r5
   2e1a4:	e2012102 	and	r2, r1, #-2147483648	; 0x80000000
   2e1a8:	e3c11102 	bic	r1, r1, #-2147483648	; 0x80000000
   2e1ac:	e0900fa3 	adds	r0, r0, r3, lsr #31
   2e1b0:	e0a21431 	adc	r1, r2, r1, lsr r4
   2e1b4:	e19ee083 	orrs	lr, lr, r3, lsl #1
   2e1b8:	01c00fa3 	biceq	r0, r0, r3, lsr #31
   2e1bc:	e8bd4070 	pop	{r4, r5, r6, lr}
   2e1c0:	e12fff1e 	bx	lr
   2e1c4:	e264400c 	rsb	r4, r4, #12
   2e1c8:	e2645020 	rsb	r5, r4, #32
   2e1cc:	e1a03410 	lsl	r3, r0, r4
   2e1d0:	e1a00530 	lsr	r0, r0, r5
   2e1d4:	e1800411 	orr	r0, r0, r1, lsl r4
   2e1d8:	e2011102 	and	r1, r1, #-2147483648	; 0x80000000
   2e1dc:	e0900fa3 	adds	r0, r0, r3, lsr #31
   2e1e0:	e2a11000 	adc	r1, r1, #0
   2e1e4:	e19ee083 	orrs	lr, lr, r3, lsl #1
   2e1e8:	01c00fa3 	biceq	r0, r0, r3, lsr #31
   2e1ec:	e8bd4070 	pop	{r4, r5, r6, lr}
   2e1f0:	e12fff1e 	bx	lr
   2e1f4:	e2645020 	rsb	r5, r4, #32
   2e1f8:	e18ee510 	orr	lr, lr, r0, lsl r5
   2e1fc:	e1a03430 	lsr	r3, r0, r4
   2e200:	e1833511 	orr	r3, r3, r1, lsl r5
   2e204:	e1a00431 	lsr	r0, r1, r4
   2e208:	e2011102 	and	r1, r1, #-2147483648	; 0x80000000
   2e20c:	e1c00431 	bic	r0, r0, r1, lsr r4
   2e210:	e0800fa3 	add	r0, r0, r3, lsr #31
   2e214:	e19ee083 	orrs	lr, lr, r3, lsl #1
   2e218:	01c00fa3 	biceq	r0, r0, r3, lsr #31
   2e21c:	e8bd4070 	pop	{r4, r5, r6, lr}
   2e220:	e12fff1e 	bx	lr
   2e224:	e3340000 	teq	r4, #0
   2e228:	1a000008 	bne	2e250 <__gnu_thumb1_case_shi+0x1ec>
   2e22c:	e2016102 	and	r6, r1, #-2147483648	; 0x80000000
   2e230:	e1b00080 	lsls	r0, r0, #1
   2e234:	e0a11001 	adc	r1, r1, r1
   2e238:	e3110601 	tst	r1, #1048576	; 0x100000
   2e23c:	02444001 	subeq	r4, r4, #1
   2e240:	0afffffa 	beq	2e230 <__gnu_thumb1_case_shi+0x1cc>
   2e244:	e1811006 	orr	r1, r1, r6
   2e248:	e3350000 	teq	r5, #0
   2e24c:	112fff1e 	bxne	lr
   2e250:	e2036102 	and	r6, r3, #-2147483648	; 0x80000000
   2e254:	e1b02082 	lsls	r2, r2, #1
   2e258:	e0a33003 	adc	r3, r3, r3
   2e25c:	e3130601 	tst	r3, #1048576	; 0x100000
   2e260:	02455001 	subeq	r5, r5, #1
   2e264:	0afffffa 	beq	2e254 <__gnu_thumb1_case_shi+0x1f0>
   2e268:	e1833006 	orr	r3, r3, r6
   2e26c:	e12fff1e 	bx	lr
   2e270:	e134000c 	teq	r4, ip
   2e274:	e00c5a23 	and	r5, ip, r3, lsr #20
   2e278:	1135000c 	teqne	r5, ip
   2e27c:	0a000007 	beq	2e2a0 <__gnu_thumb1_case_shi+0x23c>
   2e280:	e1906081 	orrs	r6, r0, r1, lsl #1
   2e284:	11926083 	orrsne	r6, r2, r3, lsl #1
   2e288:	1affffe5 	bne	2e224 <__gnu_thumb1_case_shi+0x1c0>
   2e28c:	e0211003 	eor	r1, r1, r3
   2e290:	e2011102 	and	r1, r1, #-2147483648	; 0x80000000
   2e294:	e3a00000 	mov	r0, #0
   2e298:	e8bd4070 	pop	{r4, r5, r6, lr}
   2e29c:	e12fff1e 	bx	lr
   2e2a0:	e1906081 	orrs	r6, r0, r1, lsl #1
   2e2a4:	01a00002 	moveq	r0, r2
   2e2a8:	01a01003 	moveq	r1, r3
   2e2ac:	11926083 	orrsne	r6, r2, r3, lsl #1
   2e2b0:	0a000010 	beq	2e2f8 <__gnu_thumb1_case_shi+0x294>
   2e2b4:	e134000c 	teq	r4, ip
   2e2b8:	1a000001 	bne	2e2c4 <__gnu_thumb1_case_shi+0x260>
   2e2bc:	e1906601 	orrs	r6, r0, r1, lsl #12
   2e2c0:	1a00000c 	bne	2e2f8 <__gnu_thumb1_case_shi+0x294>
   2e2c4:	e135000c 	teq	r5, ip
   2e2c8:	1a000003 	bne	2e2dc <__gnu_thumb1_case_shi+0x278>
   2e2cc:	e1926603 	orrs	r6, r2, r3, lsl #12
   2e2d0:	11a00002 	movne	r0, r2
   2e2d4:	11a01003 	movne	r1, r3
   2e2d8:	1a000006 	bne	2e2f8 <__gnu_thumb1_case_shi+0x294>
   2e2dc:	e0211003 	eor	r1, r1, r3
   2e2e0:	e2011102 	and	r1, r1, #-2147483648	; 0x80000000
   2e2e4:	e381147f 	orr	r1, r1, #2130706432	; 0x7f000000
   2e2e8:	e381160f 	orr	r1, r1, #15728640	; 0xf00000
   2e2ec:	e3a00000 	mov	r0, #0
   2e2f0:	e8bd4070 	pop	{r4, r5, r6, lr}
   2e2f4:	e12fff1e 	bx	lr
   2e2f8:	e381147f 	orr	r1, r1, #2130706432	; 0x7f000000
   2e2fc:	e381173e 	orr	r1, r1, #16252928	; 0xf80000
   2e300:	e8bd4070 	pop	{r4, r5, r6, lr}
   2e304:	e12fff1e 	bx	lr

0002e308 <__aeabi_drsub>:
   2e308:	e2211102 	eor	r1, r1, #-2147483648	; 0x80000000
   2e30c:	ea000000 	b	2e314 <__adddf3>

0002e310 <__aeabi_dsub>:
   2e310:	e2233102 	eor	r3, r3, #-2147483648	; 0x80000000

0002e314 <__adddf3>:
   2e314:	e92d4030 	push	{r4, r5, lr}
   2e318:	e1a04081 	lsl	r4, r1, #1
   2e31c:	e1a05083 	lsl	r5, r3, #1
   2e320:	e1340005 	teq	r4, r5
   2e324:	01300002 	teqeq	r0, r2
   2e328:	1194c000 	orrsne	ip, r4, r0
   2e32c:	1195c002 	orrsne	ip, r5, r2
   2e330:	11f0cac4 	mvnsne	ip, r4, asr #21
   2e334:	11f0cac5 	mvnsne	ip, r5, asr #21
   2e338:	0a00008c 	beq	2e570 <__adddf3+0x25c>
   2e33c:	e1a04aa4 	lsr	r4, r4, #21
   2e340:	e0745aa5 	rsbs	r5, r4, r5, lsr #21
   2e344:	b2655000 	rsblt	r5, r5, #0
   2e348:	da000006 	ble	2e368 <__adddf3+0x54>
   2e34c:	e0844005 	add	r4, r4, r5
   2e350:	e0202002 	eor	r2, r0, r2
   2e354:	e0213003 	eor	r3, r1, r3
   2e358:	e0220000 	eor	r0, r2, r0
   2e35c:	e0231001 	eor	r1, r3, r1
   2e360:	e0202002 	eor	r2, r0, r2
   2e364:	e0213003 	eor	r3, r1, r3
   2e368:	e3550036 	cmp	r5, #54	; 0x36
   2e36c:	88bd4030 	pophi	{r4, r5, lr}
   2e370:	812fff1e 	bxhi	lr
   2e374:	e3110102 	tst	r1, #-2147483648	; 0x80000000
   2e378:	e1a01601 	lsl	r1, r1, #12
   2e37c:	e3a0c601 	mov	ip, #1048576	; 0x100000
   2e380:	e18c1621 	orr	r1, ip, r1, lsr #12
   2e384:	0a000001 	beq	2e390 <__adddf3+0x7c>
   2e388:	e2700000 	rsbs	r0, r0, #0
   2e38c:	e2e11000 	rsc	r1, r1, #0
   2e390:	e3130102 	tst	r3, #-2147483648	; 0x80000000
   2e394:	e1a03603 	lsl	r3, r3, #12
   2e398:	e18c3623 	orr	r3, ip, r3, lsr #12
   2e39c:	0a000001 	beq	2e3a8 <__adddf3+0x94>
   2e3a0:	e2722000 	rsbs	r2, r2, #0
   2e3a4:	e2e33000 	rsc	r3, r3, #0
   2e3a8:	e1340005 	teq	r4, r5
   2e3ac:	0a000069 	beq	2e558 <__adddf3+0x244>
   2e3b0:	e2444001 	sub	r4, r4, #1
   2e3b4:	e275e020 	rsbs	lr, r5, #32
   2e3b8:	ba000005 	blt	2e3d4 <__adddf3+0xc0>
   2e3bc:	e1a0ce12 	lsl	ip, r2, lr
   2e3c0:	e0900532 	adds	r0, r0, r2, lsr r5
   2e3c4:	e2a11000 	adc	r1, r1, #0
   2e3c8:	e0900e13 	adds	r0, r0, r3, lsl lr
   2e3cc:	e0b11553 	adcs	r1, r1, r3, asr r5
   2e3d0:	ea000006 	b	2e3f0 <__adddf3+0xdc>
   2e3d4:	e2455020 	sub	r5, r5, #32
   2e3d8:	e28ee020 	add	lr, lr, #32
   2e3dc:	e3520001 	cmp	r2, #1
   2e3e0:	e1a0ce13 	lsl	ip, r3, lr
   2e3e4:	238cc002 	orrcs	ip, ip, #2
   2e3e8:	e0900553 	adds	r0, r0, r3, asr r5
   2e3ec:	e0b11fc3 	adcs	r1, r1, r3, asr #31
   2e3f0:	e2015102 	and	r5, r1, #-2147483648	; 0x80000000
   2e3f4:	5a000002 	bpl	2e404 <__adddf3+0xf0>
   2e3f8:	e27cc000 	rsbs	ip, ip, #0
   2e3fc:	e2f00000 	rscs	r0, r0, #0
   2e400:	e2e11000 	rsc	r1, r1, #0
   2e404:	e3510601 	cmp	r1, #1048576	; 0x100000
   2e408:	3a00000f 	bcc	2e44c <__adddf3+0x138>
   2e40c:	e3510602 	cmp	r1, #2097152	; 0x200000
   2e410:	3a000006 	bcc	2e430 <__adddf3+0x11c>
   2e414:	e1b010a1 	lsrs	r1, r1, #1
   2e418:	e1b00060 	rrxs	r0, r0
   2e41c:	e1a0c06c 	rrx	ip, ip
   2e420:	e2844001 	add	r4, r4, #1
   2e424:	e1a02a84 	lsl	r2, r4, #21
   2e428:	e3720501 	cmn	r2, #4194304	; 0x400000
   2e42c:	2a00006b 	bcs	2e5e0 <__adddf3+0x2cc>
   2e430:	e35c0102 	cmp	ip, #-2147483648	; 0x80000000
   2e434:	01b0c0a0 	lsrseq	ip, r0, #1
   2e438:	e2b00000 	adcs	r0, r0, #0
   2e43c:	e0a11a04 	adc	r1, r1, r4, lsl #20
   2e440:	e1811005 	orr	r1, r1, r5
   2e444:	e8bd4030 	pop	{r4, r5, lr}
   2e448:	e12fff1e 	bx	lr
   2e44c:	e1b0c08c 	lsls	ip, ip, #1
   2e450:	e0b00000 	adcs	r0, r0, r0
   2e454:	e0a11001 	adc	r1, r1, r1
   2e458:	e2544001 	subs	r4, r4, #1
   2e45c:	23510601 	cmpcs	r1, #1048576	; 0x100000
   2e460:	2afffff2 	bcs	2e430 <__adddf3+0x11c>
   2e464:	e3310000 	teq	r1, #0
   2e468:	13a03014 	movne	r3, #20
   2e46c:	03a03034 	moveq	r3, #52	; 0x34
   2e470:	01a01000 	moveq	r1, r0
   2e474:	03a00000 	moveq	r0, #0
   2e478:	e1a02001 	mov	r2, r1
   2e47c:	e3520801 	cmp	r2, #65536	; 0x10000
   2e480:	21a02822 	lsrcs	r2, r2, #16
   2e484:	22433010 	subcs	r3, r3, #16
   2e488:	e3520c01 	cmp	r2, #256	; 0x100
   2e48c:	21a02422 	lsrcs	r2, r2, #8
   2e490:	22433008 	subcs	r3, r3, #8
   2e494:	e3520010 	cmp	r2, #16
   2e498:	21a02222 	lsrcs	r2, r2, #4
   2e49c:	22433004 	subcs	r3, r3, #4
   2e4a0:	e3520004 	cmp	r2, #4
   2e4a4:	22433002 	subcs	r3, r3, #2
   2e4a8:	304330a2 	subcc	r3, r3, r2, lsr #1
   2e4ac:	e04331a2 	sub	r3, r3, r2, lsr #3
   2e4b0:	e2532020 	subs	r2, r3, #32
   2e4b4:	aa000007 	bge	2e4d8 <__adddf3+0x1c4>
   2e4b8:	e292200c 	adds	r2, r2, #12
   2e4bc:	da000004 	ble	2e4d4 <__adddf3+0x1c0>
   2e4c0:	e282c014 	add	ip, r2, #20
   2e4c4:	e262200c 	rsb	r2, r2, #12
   2e4c8:	e1a00c11 	lsl	r0, r1, ip
   2e4cc:	e1a01231 	lsr	r1, r1, r2
   2e4d0:	ea000004 	b	2e4e8 <__adddf3+0x1d4>
   2e4d4:	e2822014 	add	r2, r2, #20
   2e4d8:	d262c020 	rsble	ip, r2, #32
   2e4dc:	e1a01211 	lsl	r1, r1, r2
   2e4e0:	d1811c30 	orrle	r1, r1, r0, lsr ip
   2e4e4:	d1a00210 	lslle	r0, r0, r2
   2e4e8:	e0544003 	subs	r4, r4, r3
   2e4ec:	a0811a04 	addge	r1, r1, r4, lsl #20
   2e4f0:	a1811005 	orrge	r1, r1, r5
   2e4f4:	a8bd4030 	popge	{r4, r5, lr}
   2e4f8:	a12fff1e 	bxge	lr
   2e4fc:	e1e04004 	mvn	r4, r4
   2e500:	e254401f 	subs	r4, r4, #31
   2e504:	aa00000f 	bge	2e548 <__adddf3+0x234>
   2e508:	e294400c 	adds	r4, r4, #12
   2e50c:	ca000006 	bgt	2e52c <__adddf3+0x218>
   2e510:	e2844014 	add	r4, r4, #20
   2e514:	e2642020 	rsb	r2, r4, #32
   2e518:	e1a00430 	lsr	r0, r0, r4
   2e51c:	e1800211 	orr	r0, r0, r1, lsl r2
   2e520:	e1851431 	orr	r1, r5, r1, lsr r4
   2e524:	e8bd4030 	pop	{r4, r5, lr}
   2e528:	e12fff1e 	bx	lr
   2e52c:	e264400c 	rsb	r4, r4, #12
   2e530:	e2642020 	rsb	r2, r4, #32
   2e534:	e1a00230 	lsr	r0, r0, r2
   2e538:	e1800411 	orr	r0, r0, r1, lsl r4
   2e53c:	e1a01005 	mov	r1, r5
   2e540:	e8bd4030 	pop	{r4, r5, lr}
   2e544:	e12fff1e 	bx	lr
   2e548:	e1a00431 	lsr	r0, r1, r4
   2e54c:	e1a01005 	mov	r1, r5
   2e550:	e8bd4030 	pop	{r4, r5, lr}
   2e554:	e12fff1e 	bx	lr
   2e558:	e3340000 	teq	r4, #0
   2e55c:	e2233601 	eor	r3, r3, #1048576	; 0x100000
   2e560:	02211601 	eoreq	r1, r1, #1048576	; 0x100000
   2e564:	02844001 	addeq	r4, r4, #1
   2e568:	12455001 	subne	r5, r5, #1
   2e56c:	eaffff8f 	b	2e3b0 <__adddf3+0x9c>
   2e570:	e1f0cac4 	mvns	ip, r4, asr #21
   2e574:	11f0cac5 	mvnsne	ip, r5, asr #21
   2e578:	0a00001d 	beq	2e5f4 <__adddf3+0x2e0>
   2e57c:	e1340005 	teq	r4, r5
   2e580:	01300002 	teqeq	r0, r2
   2e584:	0a000004 	beq	2e59c <__adddf3+0x288>
   2e588:	e194c000 	orrs	ip, r4, r0
   2e58c:	01a01003 	moveq	r1, r3
   2e590:	01a00002 	moveq	r0, r2
   2e594:	e8bd4030 	pop	{r4, r5, lr}
   2e598:	e12fff1e 	bx	lr
   2e59c:	e1310003 	teq	r1, r3
   2e5a0:	13a01000 	movne	r1, #0
   2e5a4:	13a00000 	movne	r0, #0
   2e5a8:	18bd4030 	popne	{r4, r5, lr}
   2e5ac:	112fff1e 	bxne	lr
   2e5b0:	e1b0caa4 	lsrs	ip, r4, #21
   2e5b4:	1a000004 	bne	2e5cc <__adddf3+0x2b8>
   2e5b8:	e1b00080 	lsls	r0, r0, #1
   2e5bc:	e0b11001 	adcs	r1, r1, r1
   2e5c0:	23811102 	orrcs	r1, r1, #-2147483648	; 0x80000000
   2e5c4:	e8bd4030 	pop	{r4, r5, lr}
   2e5c8:	e12fff1e 	bx	lr
   2e5cc:	e2944501 	adds	r4, r4, #4194304	; 0x400000
   2e5d0:	32811601 	addcc	r1, r1, #1048576	; 0x100000
   2e5d4:	38bd4030 	popcc	{r4, r5, lr}
   2e5d8:	312fff1e 	bxcc	lr
   2e5dc:	e2015102 	and	r5, r1, #-2147483648	; 0x80000000
   2e5e0:	e385147f 	orr	r1, r5, #2130706432	; 0x7f000000
   2e5e4:	e381160f 	orr	r1, r1, #15728640	; 0xf00000
   2e5e8:	e3a00000 	mov	r0, #0
   2e5ec:	e8bd4030 	pop	{r4, r5, lr}
   2e5f0:	e12fff1e 	bx	lr
   2e5f4:	e1f0cac4 	mvns	ip, r4, asr #21
   2e5f8:	11a01003 	movne	r1, r3
   2e5fc:	11a00002 	movne	r0, r2
   2e600:	01f0cac5 	mvnseq	ip, r5, asr #21
   2e604:	11a03001 	movne	r3, r1
   2e608:	11a02000 	movne	r2, r0
   2e60c:	e1904601 	orrs	r4, r0, r1, lsl #12
   2e610:	01925603 	orrseq	r5, r2, r3, lsl #12
   2e614:	01310003 	teqeq	r1, r3
   2e618:	13811702 	orrne	r1, r1, #524288	; 0x80000
   2e61c:	e8bd4030 	pop	{r4, r5, lr}
   2e620:	e12fff1e 	bx	lr

0002e624 <__aeabi_ui2d>:
   2e624:	e3300000 	teq	r0, #0
   2e628:	03a01000 	moveq	r1, #0
   2e62c:	012fff1e 	bxeq	lr
   2e630:	e92d4030 	push	{r4, r5, lr}
   2e634:	e3a04b01 	mov	r4, #1024	; 0x400
   2e638:	e2844032 	add	r4, r4, #50	; 0x32
   2e63c:	e3a05000 	mov	r5, #0
   2e640:	e3a01000 	mov	r1, #0
   2e644:	eaffff86 	b	2e464 <__adddf3+0x150>

0002e648 <__aeabi_i2d>:
   2e648:	e3300000 	teq	r0, #0
   2e64c:	03a01000 	moveq	r1, #0
   2e650:	012fff1e 	bxeq	lr
   2e654:	e92d4030 	push	{r4, r5, lr}
   2e658:	e3a04b01 	mov	r4, #1024	; 0x400
   2e65c:	e2844032 	add	r4, r4, #50	; 0x32
   2e660:	e2105102 	ands	r5, r0, #-2147483648	; 0x80000000
   2e664:	42600000 	rsbmi	r0, r0, #0
   2e668:	e3a01000 	mov	r1, #0
   2e66c:	eaffff7c 	b	2e464 <__adddf3+0x150>

0002e670 <__aeabi_f2d>:
   2e670:	e1b02080 	lsls	r2, r0, #1
   2e674:	e1a011c2 	asr	r1, r2, #3
   2e678:	e1a01061 	rrx	r1, r1
   2e67c:	e1a00e02 	lsl	r0, r2, #28
   2e680:	121234ff 	andsne	r3, r2, #-16777216	; 0xff000000
   2e684:	133304ff 	teqne	r3, #-16777216	; 0xff000000
   2e688:	1221130e 	eorne	r1, r1, #939524096	; 0x38000000
   2e68c:	112fff1e 	bxne	lr
   2e690:	e3d224ff 	bics	r2, r2, #-16777216	; 0xff000000
   2e694:	012fff1e 	bxeq	lr
   2e698:	e33304ff 	teq	r3, #-16777216	; 0xff000000
   2e69c:	03811702 	orreq	r1, r1, #524288	; 0x80000
   2e6a0:	012fff1e 	bxeq	lr
   2e6a4:	e92d4030 	push	{r4, r5, lr}
   2e6a8:	e3a04d0e 	mov	r4, #896	; 0x380
   2e6ac:	e2015102 	and	r5, r1, #-2147483648	; 0x80000000
   2e6b0:	e3c11102 	bic	r1, r1, #-2147483648	; 0x80000000
   2e6b4:	eaffff6a 	b	2e464 <__adddf3+0x150>

0002e6b8 <__aeabi_ul2d>:
   2e6b8:	e1902001 	orrs	r2, r0, r1
   2e6bc:	012fff1e 	bxeq	lr
   2e6c0:	e92d4030 	push	{r4, r5, lr}
   2e6c4:	e3a05000 	mov	r5, #0
   2e6c8:	ea000006 	b	2e6e8 <__aeabi_l2d+0x1c>

0002e6cc <__aeabi_l2d>:
   2e6cc:	e1902001 	orrs	r2, r0, r1
   2e6d0:	012fff1e 	bxeq	lr
   2e6d4:	e92d4030 	push	{r4, r5, lr}
   2e6d8:	e2115102 	ands	r5, r1, #-2147483648	; 0x80000000
   2e6dc:	5a000001 	bpl	2e6e8 <__aeabi_l2d+0x1c>
   2e6e0:	e2700000 	rsbs	r0, r0, #0
   2e6e4:	e2e11000 	rsc	r1, r1, #0
   2e6e8:	e3a04b01 	mov	r4, #1024	; 0x400
   2e6ec:	e2844032 	add	r4, r4, #50	; 0x32
   2e6f0:	e1b0cb21 	lsrs	ip, r1, #22
   2e6f4:	0affff42 	beq	2e404 <__adddf3+0xf0>
   2e6f8:	e3a02003 	mov	r2, #3
   2e6fc:	e1b0c1ac 	lsrs	ip, ip, #3
   2e700:	12822003 	addne	r2, r2, #3
   2e704:	e1b0c1ac 	lsrs	ip, ip, #3
   2e708:	12822003 	addne	r2, r2, #3
   2e70c:	e08221ac 	add	r2, r2, ip, lsr #3
   2e710:	e2623020 	rsb	r3, r2, #32
   2e714:	e1a0c310 	lsl	ip, r0, r3
   2e718:	e1a00230 	lsr	r0, r0, r2
   2e71c:	e1800311 	orr	r0, r0, r1, lsl r3
   2e720:	e1a01231 	lsr	r1, r1, r2
   2e724:	e0844002 	add	r4, r4, r2
   2e728:	eaffff35 	b	2e404 <__adddf3+0xf0>

0002e72c <__aeabi_dmul>:
   2e72c:	e92d4070 	push	{r4, r5, r6, lr}
   2e730:	e3a0c0ff 	mov	ip, #255	; 0xff
   2e734:	e38ccc07 	orr	ip, ip, #1792	; 0x700
   2e738:	e01c4a21 	ands	r4, ip, r1, lsr #20
   2e73c:	101c5a23 	andsne	r5, ip, r3, lsr #20
   2e740:	1134000c 	teqne	r4, ip
   2e744:	1135000c 	teqne	r5, ip
   2e748:	0b000075 	bleq	2e924 <__aeabi_dmul+0x1f8>
   2e74c:	e0844005 	add	r4, r4, r5
   2e750:	e0216003 	eor	r6, r1, r3
   2e754:	e1c11a8c 	bic	r1, r1, ip, lsl #21
   2e758:	e1c33a8c 	bic	r3, r3, ip, lsl #21
   2e75c:	e1905601 	orrs	r5, r0, r1, lsl #12
   2e760:	11925603 	orrsne	r5, r2, r3, lsl #12
   2e764:	e3811601 	orr	r1, r1, #1048576	; 0x100000
   2e768:	e3833601 	orr	r3, r3, #1048576	; 0x100000
   2e76c:	0a00001d 	beq	2e7e8 <__aeabi_dmul+0xbc>
   2e770:	e08ec290 	umull	ip, lr, r0, r2
   2e774:	e3a05000 	mov	r5, #0
   2e778:	e0a5e291 	umlal	lr, r5, r1, r2
   2e77c:	e2062102 	and	r2, r6, #-2147483648	; 0x80000000
   2e780:	e0a5e390 	umlal	lr, r5, r0, r3
   2e784:	e3a06000 	mov	r6, #0
   2e788:	e0a65391 	umlal	r5, r6, r1, r3
   2e78c:	e33c0000 	teq	ip, #0
   2e790:	138ee001 	orrne	lr, lr, #1
   2e794:	e24440ff 	sub	r4, r4, #255	; 0xff
   2e798:	e3560c02 	cmp	r6, #512	; 0x200
   2e79c:	e2c44c03 	sbc	r4, r4, #768	; 0x300
   2e7a0:	2a000002 	bcs	2e7b0 <__aeabi_dmul+0x84>
   2e7a4:	e1b0e08e 	lsls	lr, lr, #1
   2e7a8:	e0b55005 	adcs	r5, r5, r5
   2e7ac:	e0a66006 	adc	r6, r6, r6
   2e7b0:	e1821586 	orr	r1, r2, r6, lsl #11
   2e7b4:	e1811aa5 	orr	r1, r1, r5, lsr #21
   2e7b8:	e1a00585 	lsl	r0, r5, #11
   2e7bc:	e1800aae 	orr	r0, r0, lr, lsr #21
   2e7c0:	e1a0e58e 	lsl	lr, lr, #11
   2e7c4:	e254c0fd 	subs	ip, r4, #253	; 0xfd
   2e7c8:	835c0c07 	cmphi	ip, #1792	; 0x700
   2e7cc:	8a000011 	bhi	2e818 <__aeabi_dmul+0xec>
   2e7d0:	e35e0102 	cmp	lr, #-2147483648	; 0x80000000
   2e7d4:	01b0e0a0 	lsrseq	lr, r0, #1
   2e7d8:	e2b00000 	adcs	r0, r0, #0
   2e7dc:	e0a11a04 	adc	r1, r1, r4, lsl #20
   2e7e0:	e8bd4070 	pop	{r4, r5, r6, lr}
   2e7e4:	e12fff1e 	bx	lr
   2e7e8:	e2066102 	and	r6, r6, #-2147483648	; 0x80000000
   2e7ec:	e1861001 	orr	r1, r6, r1
   2e7f0:	e1800002 	orr	r0, r0, r2
   2e7f4:	e0211003 	eor	r1, r1, r3
   2e7f8:	e05440ac 	subs	r4, r4, ip, lsr #1
   2e7fc:	c074500c 	rsbsgt	r5, r4, ip
   2e800:	c1811a04 	orrgt	r1, r1, r4, lsl #20
   2e804:	c8bd4070 	popgt	{r4, r5, r6, lr}
   2e808:	c12fff1e 	bxgt	lr
   2e80c:	e3811601 	orr	r1, r1, #1048576	; 0x100000
   2e810:	e3a0e000 	mov	lr, #0
   2e814:	e2544001 	subs	r4, r4, #1
   2e818:	ca00005d 	bgt	2e994 <__aeabi_dmul+0x268>
   2e81c:	e3740036 	cmn	r4, #54	; 0x36
   2e820:	d3a00000 	movle	r0, #0
   2e824:	d2011102 	andle	r1, r1, #-2147483648	; 0x80000000
   2e828:	d8bd4070 	pople	{r4, r5, r6, lr}
   2e82c:	d12fff1e 	bxle	lr
   2e830:	e2644000 	rsb	r4, r4, #0
   2e834:	e2544020 	subs	r4, r4, #32
   2e838:	aa00001a 	bge	2e8a8 <__aeabi_dmul+0x17c>
   2e83c:	e294400c 	adds	r4, r4, #12
   2e840:	ca00000c 	bgt	2e878 <__aeabi_dmul+0x14c>
   2e844:	e2844014 	add	r4, r4, #20
   2e848:	e2645020 	rsb	r5, r4, #32
   2e84c:	e1a03510 	lsl	r3, r0, r5
   2e850:	e1a00430 	lsr	r0, r0, r4
   2e854:	e1800511 	orr	r0, r0, r1, lsl r5
   2e858:	e2012102 	and	r2, r1, #-2147483648	; 0x80000000
   2e85c:	e3c11102 	bic	r1, r1, #-2147483648	; 0x80000000
   2e860:	e0900fa3 	adds	r0, r0, r3, lsr #31
   2e864:	e0a21431 	adc	r1, r2, r1, lsr r4
   2e868:	e19ee083 	orrs	lr, lr, r3, lsl #1
   2e86c:	01c00fa3 	biceq	r0, r0, r3, lsr #31
   2e870:	e8bd4070 	pop	{r4, r5, r6, lr}
   2e874:	e12fff1e 	bx	lr
   2e878:	e264400c 	rsb	r4, r4, #12
   2e87c:	e2645020 	rsb	r5, r4, #32
   2e880:	e1a03410 	lsl	r3, r0, r4
   2e884:	e1a00530 	lsr	r0, r0, r5
   2e888:	e1800411 	orr	r0, r0, r1, lsl r4
   2e88c:	e2011102 	and	r1, r1, #-2147483648	; 0x80000000
   2e890:	e0900fa3 	adds	r0, r0, r3, lsr #31
   2e894:	e2a11000 	adc	r1, r1, #0
   2e898:	e19ee083 	orrs	lr, lr, r3, lsl #1
   2e89c:	01c00fa3 	biceq	r0, r0, r3, lsr #31
   2e8a0:	e8bd4070 	pop	{r4, r5, r6, lr}
   2e8a4:	e12fff1e 	bx	lr
   2e8a8:	e2645020 	rsb	r5, r4, #32
   2e8ac:	e18ee510 	orr	lr, lr, r0, lsl r5
   2e8b0:	e1a03430 	lsr	r3, r0, r4
   2e8b4:	e1833511 	orr	r3, r3, r1, lsl r5
   2e8b8:	e1a00431 	lsr	r0, r1, r4
   2e8bc:	e2011102 	and	r1, r1, #-2147483648	; 0x80000000
   2e8c0:	e1c00431 	bic	r0, r0, r1, lsr r4
   2e8c4:	e0800fa3 	add	r0, r0, r3, lsr #31
   2e8c8:	e19ee083 	orrs	lr, lr, r3, lsl #1
   2e8cc:	01c00fa3 	biceq	r0, r0, r3, lsr #31
   2e8d0:	e8bd4070 	pop	{r4, r5, r6, lr}
   2e8d4:	e12fff1e 	bx	lr
   2e8d8:	e3340000 	teq	r4, #0
   2e8dc:	1a000008 	bne	2e904 <__aeabi_dmul+0x1d8>
   2e8e0:	e2016102 	and	r6, r1, #-2147483648	; 0x80000000
   2e8e4:	e1b00080 	lsls	r0, r0, #1
   2e8e8:	e0a11001 	adc	r1, r1, r1
   2e8ec:	e3110601 	tst	r1, #1048576	; 0x100000
   2e8f0:	02444001 	subeq	r4, r4, #1
   2e8f4:	0afffffa 	beq	2e8e4 <__aeabi_dmul+0x1b8>
   2e8f8:	e1811006 	orr	r1, r1, r6
   2e8fc:	e3350000 	teq	r5, #0
   2e900:	112fff1e 	bxne	lr
   2e904:	e2036102 	and	r6, r3, #-2147483648	; 0x80000000
   2e908:	e1b02082 	lsls	r2, r2, #1
   2e90c:	e0a33003 	adc	r3, r3, r3
   2e910:	e3130601 	tst	r3, #1048576	; 0x100000
   2e914:	02455001 	subeq	r5, r5, #1
   2e918:	0afffffa 	beq	2e908 <__aeabi_dmul+0x1dc>
   2e91c:	e1833006 	orr	r3, r3, r6
   2e920:	e12fff1e 	bx	lr
   2e924:	e134000c 	teq	r4, ip
   2e928:	e00c5a23 	and	r5, ip, r3, lsr #20
   2e92c:	1135000c 	teqne	r5, ip
   2e930:	0a000007 	beq	2e954 <__aeabi_dmul+0x228>
   2e934:	e1906081 	orrs	r6, r0, r1, lsl #1
   2e938:	11926083 	orrsne	r6, r2, r3, lsl #1
   2e93c:	1affffe5 	bne	2e8d8 <__aeabi_dmul+0x1ac>
   2e940:	e0211003 	eor	r1, r1, r3
   2e944:	e2011102 	and	r1, r1, #-2147483648	; 0x80000000
   2e948:	e3a00000 	mov	r0, #0
   2e94c:	e8bd4070 	pop	{r4, r5, r6, lr}
   2e950:	e12fff1e 	bx	lr
   2e954:	e1906081 	orrs	r6, r0, r1, lsl #1
   2e958:	01a00002 	moveq	r0, r2
   2e95c:	01a01003 	moveq	r1, r3
   2e960:	11926083 	orrsne	r6, r2, r3, lsl #1
   2e964:	0a000010 	beq	2e9ac <__aeabi_dmul+0x280>
   2e968:	e134000c 	teq	r4, ip
   2e96c:	1a000001 	bne	2e978 <__aeabi_dmul+0x24c>
   2e970:	e1906601 	orrs	r6, r0, r1, lsl #12
   2e974:	1a00000c 	bne	2e9ac <__aeabi_dmul+0x280>
   2e978:	e135000c 	teq	r5, ip
   2e97c:	1a000003 	bne	2e990 <__aeabi_dmul+0x264>
   2e980:	e1926603 	orrs	r6, r2, r3, lsl #12
   2e984:	11a00002 	movne	r0, r2
   2e988:	11a01003 	movne	r1, r3
   2e98c:	1a000006 	bne	2e9ac <__aeabi_dmul+0x280>
   2e990:	e0211003 	eor	r1, r1, r3
   2e994:	e2011102 	and	r1, r1, #-2147483648	; 0x80000000
   2e998:	e381147f 	orr	r1, r1, #2130706432	; 0x7f000000
   2e99c:	e381160f 	orr	r1, r1, #15728640	; 0xf00000
   2e9a0:	e3a00000 	mov	r0, #0
   2e9a4:	e8bd4070 	pop	{r4, r5, r6, lr}
   2e9a8:	e12fff1e 	bx	lr
   2e9ac:	e381147f 	orr	r1, r1, #2130706432	; 0x7f000000
   2e9b0:	e381173e 	orr	r1, r1, #16252928	; 0xf80000
   2e9b4:	e8bd4070 	pop	{r4, r5, r6, lr}
   2e9b8:	e12fff1e 	bx	lr

0002e9bc <__aeabi_ddiv>:
   2e9bc:	e92d4070 	push	{r4, r5, r6, lr}
   2e9c0:	e3a0c0ff 	mov	ip, #255	; 0xff
   2e9c4:	e38ccc07 	orr	ip, ip, #1792	; 0x700
   2e9c8:	e01c4a21 	ands	r4, ip, r1, lsr #20
   2e9cc:	101c5a23 	andsne	r5, ip, r3, lsr #20
   2e9d0:	1134000c 	teqne	r4, ip
   2e9d4:	1135000c 	teqne	r5, ip
   2e9d8:	0b00005e 	bleq	2eb58 <__aeabi_ddiv+0x19c>
   2e9dc:	e0444005 	sub	r4, r4, r5
   2e9e0:	e021e003 	eor	lr, r1, r3
   2e9e4:	e1925603 	orrs	r5, r2, r3, lsl #12
   2e9e8:	e1a01601 	lsl	r1, r1, #12
   2e9ec:	0a00004c 	beq	2eb24 <__aeabi_ddiv+0x168>
   2e9f0:	e1a03603 	lsl	r3, r3, #12
   2e9f4:	e3a05201 	mov	r5, #268435456	; 0x10000000
   2e9f8:	e1853223 	orr	r3, r5, r3, lsr #4
   2e9fc:	e1833c22 	orr	r3, r3, r2, lsr #24
   2ea00:	e1a02402 	lsl	r2, r2, #8
   2ea04:	e1855221 	orr	r5, r5, r1, lsr #4
   2ea08:	e1855c20 	orr	r5, r5, r0, lsr #24
   2ea0c:	e1a06400 	lsl	r6, r0, #8
   2ea10:	e20e1102 	and	r1, lr, #-2147483648	; 0x80000000
   2ea14:	e1550003 	cmp	r5, r3
   2ea18:	01560002 	cmpeq	r6, r2
   2ea1c:	e2a440fd 	adc	r4, r4, #253	; 0xfd
   2ea20:	e2844c03 	add	r4, r4, #768	; 0x300
   2ea24:	2a000001 	bcs	2ea30 <__aeabi_ddiv+0x74>
   2ea28:	e1b030a3 	lsrs	r3, r3, #1
   2ea2c:	e1a02062 	rrx	r2, r2
   2ea30:	e0566002 	subs	r6, r6, r2
   2ea34:	e0c55003 	sbc	r5, r5, r3
   2ea38:	e1b030a3 	lsrs	r3, r3, #1
   2ea3c:	e1a02062 	rrx	r2, r2
   2ea40:	e3a00601 	mov	r0, #1048576	; 0x100000
   2ea44:	e3a0c702 	mov	ip, #524288	; 0x80000
   2ea48:	e056e002 	subs	lr, r6, r2
   2ea4c:	e0d5e003 	sbcs	lr, r5, r3
   2ea50:	20466002 	subcs	r6, r6, r2
   2ea54:	21a0500e 	movcs	r5, lr
   2ea58:	2180000c 	orrcs	r0, r0, ip
   2ea5c:	e1b030a3 	lsrs	r3, r3, #1
   2ea60:	e1a02062 	rrx	r2, r2
   2ea64:	e056e002 	subs	lr, r6, r2
   2ea68:	e0d5e003 	sbcs	lr, r5, r3
   2ea6c:	20466002 	subcs	r6, r6, r2
   2ea70:	21a0500e 	movcs	r5, lr
   2ea74:	218000ac 	orrcs	r0, r0, ip, lsr #1
   2ea78:	e1b030a3 	lsrs	r3, r3, #1
   2ea7c:	e1a02062 	rrx	r2, r2
   2ea80:	e056e002 	subs	lr, r6, r2
   2ea84:	e0d5e003 	sbcs	lr, r5, r3
   2ea88:	20466002 	subcs	r6, r6, r2
   2ea8c:	21a0500e 	movcs	r5, lr
   2ea90:	2180012c 	orrcs	r0, r0, ip, lsr #2
   2ea94:	e1b030a3 	lsrs	r3, r3, #1
   2ea98:	e1a02062 	rrx	r2, r2
   2ea9c:	e056e002 	subs	lr, r6, r2
   2eaa0:	e0d5e003 	sbcs	lr, r5, r3
   2eaa4:	20466002 	subcs	r6, r6, r2
   2eaa8:	21a0500e 	movcs	r5, lr
   2eaac:	218001ac 	orrcs	r0, r0, ip, lsr #3
   2eab0:	e195e006 	orrs	lr, r5, r6
   2eab4:	0a00000d 	beq	2eaf0 <__aeabi_ddiv+0x134>
   2eab8:	e1a05205 	lsl	r5, r5, #4
   2eabc:	e1855e26 	orr	r5, r5, r6, lsr #28
   2eac0:	e1a06206 	lsl	r6, r6, #4
   2eac4:	e1a03183 	lsl	r3, r3, #3
   2eac8:	e1833ea2 	orr	r3, r3, r2, lsr #29
   2eacc:	e1a02182 	lsl	r2, r2, #3
   2ead0:	e1b0c22c 	lsrs	ip, ip, #4
   2ead4:	1affffdb 	bne	2ea48 <__aeabi_ddiv+0x8c>
   2ead8:	e3110601 	tst	r1, #1048576	; 0x100000
   2eadc:	1a000006 	bne	2eafc <__aeabi_ddiv+0x140>
   2eae0:	e1811000 	orr	r1, r1, r0
   2eae4:	e3a00000 	mov	r0, #0
   2eae8:	e3a0c102 	mov	ip, #-2147483648	; 0x80000000
   2eaec:	eaffffd5 	b	2ea48 <__aeabi_ddiv+0x8c>
   2eaf0:	e3110601 	tst	r1, #1048576	; 0x100000
   2eaf4:	01811000 	orreq	r1, r1, r0
   2eaf8:	03a00000 	moveq	r0, #0
   2eafc:	e254c0fd 	subs	ip, r4, #253	; 0xfd
   2eb00:	835c0c07 	cmphi	ip, #1792	; 0x700
   2eb04:	8affff43 	bhi	2e818 <__aeabi_dmul+0xec>
   2eb08:	e055c003 	subs	ip, r5, r3
   2eb0c:	0056c002 	subseq	ip, r6, r2
   2eb10:	01b0c0a0 	lsrseq	ip, r0, #1
   2eb14:	e2b00000 	adcs	r0, r0, #0
   2eb18:	e0a11a04 	adc	r1, r1, r4, lsl #20
   2eb1c:	e8bd4070 	pop	{r4, r5, r6, lr}
   2eb20:	e12fff1e 	bx	lr
   2eb24:	e20ee102 	and	lr, lr, #-2147483648	; 0x80000000
   2eb28:	e18e1621 	orr	r1, lr, r1, lsr #12
   2eb2c:	e09440ac 	adds	r4, r4, ip, lsr #1
   2eb30:	c074500c 	rsbsgt	r5, r4, ip
   2eb34:	c1811a04 	orrgt	r1, r1, r4, lsl #20
   2eb38:	c8bd4070 	popgt	{r4, r5, r6, lr}
   2eb3c:	c12fff1e 	bxgt	lr
   2eb40:	e3811601 	orr	r1, r1, #1048576	; 0x100000
   2eb44:	e3a0e000 	mov	lr, #0
   2eb48:	e2544001 	subs	r4, r4, #1
   2eb4c:	eaffff31 	b	2e818 <__aeabi_dmul+0xec>
   2eb50:	e185e006 	orr	lr, r5, r6
   2eb54:	eaffff2f 	b	2e818 <__aeabi_dmul+0xec>
   2eb58:	e00c5a23 	and	r5, ip, r3, lsr #20
   2eb5c:	e134000c 	teq	r4, ip
   2eb60:	0135000c 	teqeq	r5, ip
   2eb64:	0affff90 	beq	2e9ac <__aeabi_dmul+0x280>
   2eb68:	e134000c 	teq	r4, ip
   2eb6c:	1a000006 	bne	2eb8c <__aeabi_ddiv+0x1d0>
   2eb70:	e1904601 	orrs	r4, r0, r1, lsl #12
   2eb74:	1affff8c 	bne	2e9ac <__aeabi_dmul+0x280>
   2eb78:	e135000c 	teq	r5, ip
   2eb7c:	1affff83 	bne	2e990 <__aeabi_dmul+0x264>
   2eb80:	e1a00002 	mov	r0, r2
   2eb84:	e1a01003 	mov	r1, r3
   2eb88:	eaffff87 	b	2e9ac <__aeabi_dmul+0x280>
   2eb8c:	e135000c 	teq	r5, ip
   2eb90:	1a000004 	bne	2eba8 <__aeabi_ddiv+0x1ec>
   2eb94:	e1925603 	orrs	r5, r2, r3, lsl #12
   2eb98:	0affff68 	beq	2e940 <__aeabi_dmul+0x214>
   2eb9c:	e1a00002 	mov	r0, r2
   2eba0:	e1a01003 	mov	r1, r3
   2eba4:	eaffff80 	b	2e9ac <__aeabi_dmul+0x280>
   2eba8:	e1906081 	orrs	r6, r0, r1, lsl #1
   2ebac:	11926083 	orrsne	r6, r2, r3, lsl #1
   2ebb0:	1affff48 	bne	2e8d8 <__aeabi_dmul+0x1ac>
   2ebb4:	e1904081 	orrs	r4, r0, r1, lsl #1
   2ebb8:	1affff74 	bne	2e990 <__aeabi_dmul+0x264>
   2ebbc:	e1925083 	orrs	r5, r2, r3, lsl #1
   2ebc0:	1affff5e 	bne	2e940 <__aeabi_dmul+0x214>
   2ebc4:	eaffff78 	b	2e9ac <__aeabi_dmul+0x280>

0002ebc8 <__gedf2>:
   2ebc8:	e3e0c000 	mvn	ip, #0
   2ebcc:	ea000002 	b	2ebdc <__cmpdf2+0x4>

0002ebd0 <__ledf2>:
   2ebd0:	e3a0c001 	mov	ip, #1
   2ebd4:	ea000000 	b	2ebdc <__cmpdf2+0x4>

0002ebd8 <__cmpdf2>:
   2ebd8:	e3a0c001 	mov	ip, #1
   2ebdc:	e52dc004 	push	{ip}		; (str ip, [sp, #-4]!)
   2ebe0:	e1a0c081 	lsl	ip, r1, #1
   2ebe4:	e1f0cacc 	mvns	ip, ip, asr #21
   2ebe8:	e1a0c083 	lsl	ip, r3, #1
   2ebec:	11f0cacc 	mvnsne	ip, ip, asr #21
   2ebf0:	0a00000e 	beq	2ec30 <__cmpdf2+0x58>
   2ebf4:	e28dd004 	add	sp, sp, #4
   2ebf8:	e190c081 	orrs	ip, r0, r1, lsl #1
   2ebfc:	0192c083 	orrseq	ip, r2, r3, lsl #1
   2ec00:	11310003 	teqne	r1, r3
   2ec04:	01300002 	teqeq	r0, r2
   2ec08:	03a00000 	moveq	r0, #0
   2ec0c:	012fff1e 	bxeq	lr
   2ec10:	e3700000 	cmn	r0, #0
   2ec14:	e1310003 	teq	r1, r3
   2ec18:	51510003 	cmppl	r1, r3
   2ec1c:	01500002 	cmpeq	r0, r2
   2ec20:	21a00fc3 	asrcs	r0, r3, #31
   2ec24:	31e00fc3 	mvncc	r0, r3, asr #31
   2ec28:	e3800001 	orr	r0, r0, #1
   2ec2c:	e12fff1e 	bx	lr
   2ec30:	e1a0c081 	lsl	ip, r1, #1
   2ec34:	e1f0cacc 	mvns	ip, ip, asr #21
   2ec38:	1a000001 	bne	2ec44 <__cmpdf2+0x6c>
   2ec3c:	e190c601 	orrs	ip, r0, r1, lsl #12
   2ec40:	1a000004 	bne	2ec58 <__cmpdf2+0x80>
   2ec44:	e1a0c083 	lsl	ip, r3, #1
   2ec48:	e1f0cacc 	mvns	ip, ip, asr #21
   2ec4c:	1affffe8 	bne	2ebf4 <__cmpdf2+0x1c>
   2ec50:	e192c603 	orrs	ip, r2, r3, lsl #12
   2ec54:	0affffe6 	beq	2ebf4 <__cmpdf2+0x1c>
   2ec58:	e49d0004 	pop	{r0}		; (ldr r0, [sp], #4)
   2ec5c:	e12fff1e 	bx	lr

0002ec60 <__aeabi_cdrcmple>:
   2ec60:	e1a0c000 	mov	ip, r0
   2ec64:	e1a00002 	mov	r0, r2
   2ec68:	e1a0200c 	mov	r2, ip
   2ec6c:	e1a0c001 	mov	ip, r1
   2ec70:	e1a01003 	mov	r1, r3
   2ec74:	e1a0300c 	mov	r3, ip
   2ec78:	eaffffff 	b	2ec7c <__aeabi_cdcmpeq>

0002ec7c <__aeabi_cdcmpeq>:
   2ec7c:	e92d4001 	push	{r0, lr}
   2ec80:	ebffffd4 	bl	2ebd8 <__cmpdf2>
   2ec84:	e3500000 	cmp	r0, #0
   2ec88:	43700000 	cmnmi	r0, #0
   2ec8c:	e8bd4001 	pop	{r0, lr}
   2ec90:	e12fff1e 	bx	lr

0002ec94 <__aeabi_dcmpeq>:
   2ec94:	e52de008 	str	lr, [sp, #-8]!
   2ec98:	ebfffff7 	bl	2ec7c <__aeabi_cdcmpeq>
   2ec9c:	03a00001 	moveq	r0, #1
   2eca0:	13a00000 	movne	r0, #0
   2eca4:	e49de008 	ldr	lr, [sp], #8
   2eca8:	e12fff1e 	bx	lr

0002ecac <__aeabi_dcmplt>:
   2ecac:	e52de008 	str	lr, [sp, #-8]!
   2ecb0:	ebfffff1 	bl	2ec7c <__aeabi_cdcmpeq>
   2ecb4:	33a00001 	movcc	r0, #1
   2ecb8:	23a00000 	movcs	r0, #0
   2ecbc:	e49de008 	ldr	lr, [sp], #8
   2ecc0:	e12fff1e 	bx	lr

0002ecc4 <__aeabi_dcmple>:
   2ecc4:	e52de008 	str	lr, [sp, #-8]!
   2ecc8:	ebffffeb 	bl	2ec7c <__aeabi_cdcmpeq>
   2eccc:	93a00001 	movls	r0, #1
   2ecd0:	83a00000 	movhi	r0, #0
   2ecd4:	e49de008 	ldr	lr, [sp], #8
   2ecd8:	e12fff1e 	bx	lr

0002ecdc <__aeabi_dcmpge>:
   2ecdc:	e52de008 	str	lr, [sp, #-8]!
   2ece0:	ebffffde 	bl	2ec60 <__aeabi_cdrcmple>
   2ece4:	93a00001 	movls	r0, #1
   2ece8:	83a00000 	movhi	r0, #0
   2ecec:	e49de008 	ldr	lr, [sp], #8
   2ecf0:	e12fff1e 	bx	lr

0002ecf4 <__aeabi_dcmpgt>:
   2ecf4:	e52de008 	str	lr, [sp, #-8]!
   2ecf8:	ebffffd8 	bl	2ec60 <__aeabi_cdrcmple>
   2ecfc:	33a00001 	movcc	r0, #1
   2ed00:	23a00000 	movcs	r0, #0
   2ed04:	e49de008 	ldr	lr, [sp], #8
   2ed08:	e12fff1e 	bx	lr

0002ed0c <__aeabi_dcmpun>:
   2ed0c:	e1a0c081 	lsl	ip, r1, #1
   2ed10:	e1f0cacc 	mvns	ip, ip, asr #21
   2ed14:	1a000001 	bne	2ed20 <__aeabi_dcmpun+0x14>
   2ed18:	e190c601 	orrs	ip, r0, r1, lsl #12
   2ed1c:	1a000006 	bne	2ed3c <__aeabi_dcmpun+0x30>
   2ed20:	e1a0c083 	lsl	ip, r3, #1
   2ed24:	e1f0cacc 	mvns	ip, ip, asr #21
   2ed28:	1a000001 	bne	2ed34 <__aeabi_dcmpun+0x28>
   2ed2c:	e192c603 	orrs	ip, r2, r3, lsl #12
   2ed30:	1a000001 	bne	2ed3c <__aeabi_dcmpun+0x30>
   2ed34:	e3a00000 	mov	r0, #0
   2ed38:	e12fff1e 	bx	lr
   2ed3c:	e3a00001 	mov	r0, #1
   2ed40:	e12fff1e 	bx	lr

0002ed44 <__aeabi_d2iz>:
   2ed44:	e1a02081 	lsl	r2, r1, #1
   2ed48:	e2922602 	adds	r2, r2, #2097152	; 0x200000
   2ed4c:	2a00000c 	bcs	2ed84 <__aeabi_d2iz+0x40>
   2ed50:	5a000009 	bpl	2ed7c <__aeabi_d2iz+0x38>
   2ed54:	e3e03e3e 	mvn	r3, #992	; 0x3e0
   2ed58:	e0532ac2 	subs	r2, r3, r2, asr #21
   2ed5c:	9a00000a 	bls	2ed8c <__aeabi_d2iz+0x48>
   2ed60:	e1a03581 	lsl	r3, r1, #11
   2ed64:	e3833102 	orr	r3, r3, #-2147483648	; 0x80000000
   2ed68:	e1833aa0 	orr	r3, r3, r0, lsr #21
   2ed6c:	e3110102 	tst	r1, #-2147483648	; 0x80000000
   2ed70:	e1a00233 	lsr	r0, r3, r2
   2ed74:	12600000 	rsbne	r0, r0, #0
   2ed78:	e12fff1e 	bx	lr
   2ed7c:	e3a00000 	mov	r0, #0
   2ed80:	e12fff1e 	bx	lr
   2ed84:	e1900601 	orrs	r0, r0, r1, lsl #12
   2ed88:	1a000002 	bne	2ed98 <__aeabi_d2iz+0x54>
   2ed8c:	e2110102 	ands	r0, r1, #-2147483648	; 0x80000000
   2ed90:	03e00102 	mvneq	r0, #-2147483648	; 0x80000000
   2ed94:	e12fff1e 	bx	lr
   2ed98:	e3a00000 	mov	r0, #0
   2ed9c:	e12fff1e 	bx	lr

0002eda0 <__aeabi_uldivmod>:
   2eda0:	e3530000 	cmp	r3, #0
   2eda4:	03520000 	cmpeq	r2, #0
   2eda8:	1a000004 	bne	2edc0 <__aeabi_uldivmod+0x20>
   2edac:	e3510000 	cmp	r1, #0
   2edb0:	03500000 	cmpeq	r0, #0
   2edb4:	13e01000 	mvnne	r1, #0
   2edb8:	13e00000 	mvnne	r0, #0
   2edbc:	ea003c3e 	b	3debc <____aeabi_ldiv0_from_arm>
   2edc0:	e24dd008 	sub	sp, sp, #8
   2edc4:	e92d6000 	push	{sp, lr}
   2edc8:	eb003c34 	bl	3dea0 <____udivmoddi4_from_arm>
   2edcc:	e59de004 	ldr	lr, [sp, #4]
   2edd0:	e28dd008 	add	sp, sp, #8
   2edd4:	e8bd000c 	pop	{r2, r3}
   2edd8:	e12fff1e 	bx	lr

0002eddc <__udivmoddi4>:
   2eddc:	b5f0      	push	{r4, r5, r6, r7, lr}
   2edde:	4657      	mov	r7, sl
   2ede0:	464e      	mov	r6, r9
   2ede2:	4645      	mov	r5, r8
   2ede4:	46de      	mov	lr, fp
   2ede6:	b5e0      	push	{r5, r6, r7, lr}
   2ede8:	0004      	movs	r4, r0
   2edea:	000d      	movs	r5, r1
   2edec:	4692      	mov	sl, r2
   2edee:	4699      	mov	r9, r3
   2edf0:	b083      	sub	sp, #12
   2edf2:	428b      	cmp	r3, r1
   2edf4:	d830      	bhi.n	2ee58 <__udivmoddi4+0x7c>
   2edf6:	d02d      	beq.n	2ee54 <__udivmoddi4+0x78>
   2edf8:	4649      	mov	r1, r9
   2edfa:	4650      	mov	r0, sl
   2edfc:	f00f f88c 	bl	3df18 <____clzdi2_from_thumb>
   2ee00:	0029      	movs	r1, r5
   2ee02:	0006      	movs	r6, r0
   2ee04:	0020      	movs	r0, r4
   2ee06:	f00f f887 	bl	3df18 <____clzdi2_from_thumb>
   2ee0a:	1a33      	subs	r3, r6, r0
   2ee0c:	4698      	mov	r8, r3
   2ee0e:	3b20      	subs	r3, #32
   2ee10:	469b      	mov	fp, r3
   2ee12:	d435      	bmi.n	2ee80 <__udivmoddi4+0xa4>
   2ee14:	465a      	mov	r2, fp
   2ee16:	4653      	mov	r3, sl
   2ee18:	4093      	lsls	r3, r2
   2ee1a:	4642      	mov	r2, r8
   2ee1c:	001f      	movs	r7, r3
   2ee1e:	4653      	mov	r3, sl
   2ee20:	4093      	lsls	r3, r2
   2ee22:	001e      	movs	r6, r3
   2ee24:	42af      	cmp	r7, r5
   2ee26:	d83c      	bhi.n	2eea2 <__udivmoddi4+0xc6>
   2ee28:	42af      	cmp	r7, r5
   2ee2a:	d100      	bne.n	2ee2e <__udivmoddi4+0x52>
   2ee2c:	e07a      	b.n	2ef24 <__udivmoddi4+0x148>
   2ee2e:	465b      	mov	r3, fp
   2ee30:	1ba4      	subs	r4, r4, r6
   2ee32:	41bd      	sbcs	r5, r7
   2ee34:	2b00      	cmp	r3, #0
   2ee36:	da00      	bge.n	2ee3a <__udivmoddi4+0x5e>
   2ee38:	e077      	b.n	2ef2a <__udivmoddi4+0x14e>
   2ee3a:	2200      	movs	r2, #0
   2ee3c:	2300      	movs	r3, #0
   2ee3e:	9200      	str	r2, [sp, #0]
   2ee40:	9301      	str	r3, [sp, #4]
   2ee42:	2301      	movs	r3, #1
   2ee44:	465a      	mov	r2, fp
   2ee46:	4093      	lsls	r3, r2
   2ee48:	9301      	str	r3, [sp, #4]
   2ee4a:	2301      	movs	r3, #1
   2ee4c:	4642      	mov	r2, r8
   2ee4e:	4093      	lsls	r3, r2
   2ee50:	9300      	str	r3, [sp, #0]
   2ee52:	e02a      	b.n	2eeaa <__udivmoddi4+0xce>
   2ee54:	4282      	cmp	r2, r0
   2ee56:	d9cf      	bls.n	2edf8 <__udivmoddi4+0x1c>
   2ee58:	2200      	movs	r2, #0
   2ee5a:	2300      	movs	r3, #0
   2ee5c:	9200      	str	r2, [sp, #0]
   2ee5e:	9301      	str	r3, [sp, #4]
   2ee60:	9b0c      	ldr	r3, [sp, #48]	; 0x30
   2ee62:	2b00      	cmp	r3, #0
   2ee64:	d001      	beq.n	2ee6a <__udivmoddi4+0x8e>
   2ee66:	601c      	str	r4, [r3, #0]
   2ee68:	605d      	str	r5, [r3, #4]
   2ee6a:	9800      	ldr	r0, [sp, #0]
   2ee6c:	9901      	ldr	r1, [sp, #4]
   2ee6e:	b003      	add	sp, #12
   2ee70:	bcf0      	pop	{r4, r5, r6, r7}
   2ee72:	46bb      	mov	fp, r7
   2ee74:	46b2      	mov	sl, r6
   2ee76:	46a9      	mov	r9, r5
   2ee78:	46a0      	mov	r8, r4
   2ee7a:	bcf0      	pop	{r4, r5, r6, r7}
   2ee7c:	bc04      	pop	{r2}
   2ee7e:	4710      	bx	r2
   2ee80:	4642      	mov	r2, r8
   2ee82:	2320      	movs	r3, #32
   2ee84:	1a9b      	subs	r3, r3, r2
   2ee86:	4652      	mov	r2, sl
   2ee88:	40da      	lsrs	r2, r3
   2ee8a:	4641      	mov	r1, r8
   2ee8c:	0013      	movs	r3, r2
   2ee8e:	464a      	mov	r2, r9
   2ee90:	408a      	lsls	r2, r1
   2ee92:	0017      	movs	r7, r2
   2ee94:	4642      	mov	r2, r8
   2ee96:	431f      	orrs	r7, r3
   2ee98:	4653      	mov	r3, sl
   2ee9a:	4093      	lsls	r3, r2
   2ee9c:	001e      	movs	r6, r3
   2ee9e:	42af      	cmp	r7, r5
   2eea0:	d9c2      	bls.n	2ee28 <__udivmoddi4+0x4c>
   2eea2:	2200      	movs	r2, #0
   2eea4:	2300      	movs	r3, #0
   2eea6:	9200      	str	r2, [sp, #0]
   2eea8:	9301      	str	r3, [sp, #4]
   2eeaa:	4643      	mov	r3, r8
   2eeac:	2b00      	cmp	r3, #0
   2eeae:	d0d7      	beq.n	2ee60 <__udivmoddi4+0x84>
   2eeb0:	07fb      	lsls	r3, r7, #31
   2eeb2:	0872      	lsrs	r2, r6, #1
   2eeb4:	431a      	orrs	r2, r3
   2eeb6:	4646      	mov	r6, r8
   2eeb8:	087b      	lsrs	r3, r7, #1
   2eeba:	e00e      	b.n	2eeda <__udivmoddi4+0xfe>
   2eebc:	42ab      	cmp	r3, r5
   2eebe:	d101      	bne.n	2eec4 <__udivmoddi4+0xe8>
   2eec0:	42a2      	cmp	r2, r4
   2eec2:	d80c      	bhi.n	2eede <__udivmoddi4+0x102>
   2eec4:	1aa4      	subs	r4, r4, r2
   2eec6:	419d      	sbcs	r5, r3
   2eec8:	2001      	movs	r0, #1
   2eeca:	1924      	adds	r4, r4, r4
   2eecc:	416d      	adcs	r5, r5
   2eece:	2100      	movs	r1, #0
   2eed0:	3e01      	subs	r6, #1
   2eed2:	1824      	adds	r4, r4, r0
   2eed4:	414d      	adcs	r5, r1
   2eed6:	2e00      	cmp	r6, #0
   2eed8:	d006      	beq.n	2eee8 <__udivmoddi4+0x10c>
   2eeda:	42ab      	cmp	r3, r5
   2eedc:	d9ee      	bls.n	2eebc <__udivmoddi4+0xe0>
   2eede:	3e01      	subs	r6, #1
   2eee0:	1924      	adds	r4, r4, r4
   2eee2:	416d      	adcs	r5, r5
   2eee4:	2e00      	cmp	r6, #0
   2eee6:	d1f8      	bne.n	2eeda <__udivmoddi4+0xfe>
   2eee8:	465b      	mov	r3, fp
   2eeea:	9800      	ldr	r0, [sp, #0]
   2eeec:	9901      	ldr	r1, [sp, #4]
   2eeee:	1900      	adds	r0, r0, r4
   2eef0:	4169      	adcs	r1, r5
   2eef2:	2b00      	cmp	r3, #0
   2eef4:	db24      	blt.n	2ef40 <__udivmoddi4+0x164>
   2eef6:	002b      	movs	r3, r5
   2eef8:	465a      	mov	r2, fp
   2eefa:	4644      	mov	r4, r8
   2eefc:	40d3      	lsrs	r3, r2
   2eefe:	002a      	movs	r2, r5
   2ef00:	40e2      	lsrs	r2, r4
   2ef02:	001c      	movs	r4, r3
   2ef04:	465b      	mov	r3, fp
   2ef06:	0015      	movs	r5, r2
   2ef08:	2b00      	cmp	r3, #0
   2ef0a:	db2a      	blt.n	2ef62 <__udivmoddi4+0x186>
   2ef0c:	0026      	movs	r6, r4
   2ef0e:	409e      	lsls	r6, r3
   2ef10:	0033      	movs	r3, r6
   2ef12:	0026      	movs	r6, r4
   2ef14:	4647      	mov	r7, r8
   2ef16:	40be      	lsls	r6, r7
   2ef18:	0032      	movs	r2, r6
   2ef1a:	1a80      	subs	r0, r0, r2
   2ef1c:	4199      	sbcs	r1, r3
   2ef1e:	9000      	str	r0, [sp, #0]
   2ef20:	9101      	str	r1, [sp, #4]
   2ef22:	e79d      	b.n	2ee60 <__udivmoddi4+0x84>
   2ef24:	42a3      	cmp	r3, r4
   2ef26:	d8bc      	bhi.n	2eea2 <__udivmoddi4+0xc6>
   2ef28:	e781      	b.n	2ee2e <__udivmoddi4+0x52>
   2ef2a:	4642      	mov	r2, r8
   2ef2c:	2320      	movs	r3, #32
   2ef2e:	2100      	movs	r1, #0
   2ef30:	1a9b      	subs	r3, r3, r2
   2ef32:	2200      	movs	r2, #0
   2ef34:	9100      	str	r1, [sp, #0]
   2ef36:	9201      	str	r2, [sp, #4]
   2ef38:	2201      	movs	r2, #1
   2ef3a:	40da      	lsrs	r2, r3
   2ef3c:	9201      	str	r2, [sp, #4]
   2ef3e:	e784      	b.n	2ee4a <__udivmoddi4+0x6e>
   2ef40:	4642      	mov	r2, r8
   2ef42:	2320      	movs	r3, #32
   2ef44:	1a9b      	subs	r3, r3, r2
   2ef46:	002a      	movs	r2, r5
   2ef48:	4646      	mov	r6, r8
   2ef4a:	409a      	lsls	r2, r3
   2ef4c:	0023      	movs	r3, r4
   2ef4e:	40f3      	lsrs	r3, r6
   2ef50:	4644      	mov	r4, r8
   2ef52:	4313      	orrs	r3, r2
   2ef54:	002a      	movs	r2, r5
   2ef56:	40e2      	lsrs	r2, r4
   2ef58:	001c      	movs	r4, r3
   2ef5a:	465b      	mov	r3, fp
   2ef5c:	0015      	movs	r5, r2
   2ef5e:	2b00      	cmp	r3, #0
   2ef60:	dad4      	bge.n	2ef0c <__udivmoddi4+0x130>
   2ef62:	4642      	mov	r2, r8
   2ef64:	002f      	movs	r7, r5
   2ef66:	2320      	movs	r3, #32
   2ef68:	0026      	movs	r6, r4
   2ef6a:	4097      	lsls	r7, r2
   2ef6c:	1a9b      	subs	r3, r3, r2
   2ef6e:	40de      	lsrs	r6, r3
   2ef70:	003b      	movs	r3, r7
   2ef72:	4333      	orrs	r3, r6
   2ef74:	e7cd      	b.n	2ef12 <__udivmoddi4+0x136>
   2ef76:	46c0      	nop			; (mov r8, r8)

0002ef78 <__aeabi_idiv0>:
   2ef78:	4770      	bx	lr
   2ef7a:	46c0      	nop			; (mov r8, r8)

0002ef7c <__clzdi2>:
   2ef7c:	e92d4010 	push	{r4, lr}
   2ef80:	e3510000 	cmp	r1, #0
   2ef84:	1a000002 	bne	2ef94 <__clzdi2+0x18>
   2ef88:	eb000005 	bl	2efa4 <__clzsi2>
   2ef8c:	e2800020 	add	r0, r0, #32
   2ef90:	ea000001 	b	2ef9c <__clzdi2+0x20>
   2ef94:	e1a00001 	mov	r0, r1
   2ef98:	eb000001 	bl	2efa4 <__clzsi2>
   2ef9c:	e8bd4010 	pop	{r4, lr}
   2efa0:	e12fff1e 	bx	lr

0002efa4 <__clzsi2>:
   2efa4:	e3a0101c 	mov	r1, #28
   2efa8:	e3500801 	cmp	r0, #65536	; 0x10000
   2efac:	21a00820 	lsrcs	r0, r0, #16
   2efb0:	22411010 	subcs	r1, r1, #16
   2efb4:	e3500c01 	cmp	r0, #256	; 0x100
   2efb8:	21a00420 	lsrcs	r0, r0, #8
   2efbc:	22411008 	subcs	r1, r1, #8
   2efc0:	e3500010 	cmp	r0, #16
   2efc4:	21a00220 	lsrcs	r0, r0, #4
   2efc8:	22411004 	subcs	r1, r1, #4
   2efcc:	e28f2008 	add	r2, pc, #8
   2efd0:	e7d20000 	ldrb	r0, [r2, r0]
   2efd4:	e0800001 	add	r0, r0, r1
   2efd8:	e12fff1e 	bx	lr
   2efdc:	02020304 	.word	0x02020304
   2efe0:	01010101 	.word	0x01010101
	...

0002efec <strcmp>:
   2efec:	e020c001 	eor	ip, r0, r1
   2eff0:	e31c0003 	tst	ip, #3
   2eff4:	1a000021 	bne	2f080 <strcmp+0x94>
   2eff8:	e210c003 	ands	ip, r0, #3
   2effc:	e3c00003 	bic	r0, r0, #3
   2f000:	e3c11003 	bic	r1, r1, #3
   2f004:	e4902004 	ldr	r2, [r0], #4
   2f008:	04913004 	ldreq	r3, [r1], #4
   2f00c:	0a000006 	beq	2f02c <strcmp+0x40>
   2f010:	e22cc003 	eor	ip, ip, #3
   2f014:	e3e034ff 	mvn	r3, #-16777216	; 0xff000000
   2f018:	e1a0c18c 	lsl	ip, ip, #3
   2f01c:	e1a0cc33 	lsr	ip, r3, ip
   2f020:	e4913004 	ldr	r3, [r1], #4
   2f024:	e182200c 	orr	r2, r2, ip
   2f028:	e183300c 	orr	r3, r3, ip
   2f02c:	e52d4004 	push	{r4}		; (str r4, [sp, #-4]!)
   2f030:	e3a04001 	mov	r4, #1
   2f034:	e1844404 	orr	r4, r4, r4, lsl #8
   2f038:	e1844804 	orr	r4, r4, r4, lsl #16
   2f03c:	e042c004 	sub	ip, r2, r4
   2f040:	e1520003 	cmp	r2, r3
   2f044:	01ccc002 	biceq	ip, ip, r2
   2f048:	011c0384 	tsteq	ip, r4, lsl #7
   2f04c:	04902004 	ldreq	r2, [r0], #4
   2f050:	04913004 	ldreq	r3, [r1], #4
   2f054:	0afffff8 	beq	2f03c <strcmp+0x50>
   2f058:	e1a00c02 	lsl	r0, r2, #24
   2f05c:	e1a02422 	lsr	r2, r2, #8
   2f060:	e3500001 	cmp	r0, #1
   2f064:	21500c03 	cmpcs	r0, r3, lsl #24
   2f068:	01a03423 	lsreq	r3, r3, #8
   2f06c:	0afffff9 	beq	2f058 <strcmp+0x6c>
   2f070:	e20330ff 	and	r3, r3, #255	; 0xff
   2f074:	e0630c20 	rsb	r0, r3, r0, lsr #24
   2f078:	e49d4004 	pop	{r4}		; (ldr r4, [sp], #4)
   2f07c:	e12fff1e 	bx	lr
   2f080:	e3100003 	tst	r0, #3
   2f084:	0a000006 	beq	2f0a4 <strcmp+0xb8>
   2f088:	e4d02001 	ldrb	r2, [r0], #1
   2f08c:	e4d13001 	ldrb	r3, [r1], #1
   2f090:	e3520001 	cmp	r2, #1
   2f094:	21520003 	cmpcs	r2, r3
   2f098:	0afffff8 	beq	2f080 <strcmp+0x94>
   2f09c:	e0420003 	sub	r0, r2, r3
   2f0a0:	e12fff1e 	bx	lr
   2f0a4:	e92d0030 	push	{r4, r5}
   2f0a8:	e3a04001 	mov	r4, #1
   2f0ac:	e1844404 	orr	r4, r4, r4, lsl #8
   2f0b0:	e1844804 	orr	r4, r4, r4, lsl #16
   2f0b4:	e4902004 	ldr	r2, [r0], #4
   2f0b8:	e2015003 	and	r5, r1, #3
   2f0bc:	e3c11003 	bic	r1, r1, #3
   2f0c0:	e4913004 	ldr	r3, [r1], #4
   2f0c4:	e3550002 	cmp	r5, #2
   2f0c8:	0a000017 	beq	2f12c <strcmp+0x140>
   2f0cc:	8a00002d 	bhi	2f188 <strcmp+0x19c>
   2f0d0:	e3c254ff 	bic	r5, r2, #-16777216	; 0xff000000
   2f0d4:	e1550423 	cmp	r5, r3, lsr #8
   2f0d8:	e042c004 	sub	ip, r2, r4
   2f0dc:	e1ccc002 	bic	ip, ip, r2
   2f0e0:	1a000007 	bne	2f104 <strcmp+0x118>
   2f0e4:	e01cc384 	ands	ip, ip, r4, lsl #7
   2f0e8:	04913004 	ldreq	r3, [r1], #4
   2f0ec:	1a000006 	bne	2f10c <strcmp+0x120>
   2f0f0:	e0255002 	eor	r5, r5, r2
   2f0f4:	e1550c03 	cmp	r5, r3, lsl #24
   2f0f8:	1a000008 	bne	2f120 <strcmp+0x134>
   2f0fc:	e4902004 	ldr	r2, [r0], #4
   2f100:	eafffff2 	b	2f0d0 <strcmp+0xe4>
   2f104:	e1a03423 	lsr	r3, r3, #8
   2f108:	ea000036 	b	2f1e8 <strcmp+0x1fc>
   2f10c:	e3dcc4ff 	bics	ip, ip, #-16777216	; 0xff000000
   2f110:	1a000031 	bne	2f1dc <strcmp+0x1f0>
   2f114:	e5d13000 	ldrb	r3, [r1]
   2f118:	e1a05c22 	lsr	r5, r2, #24
   2f11c:	ea000031 	b	2f1e8 <strcmp+0x1fc>
   2f120:	e1a05c22 	lsr	r5, r2, #24
   2f124:	e20330ff 	and	r3, r3, #255	; 0xff
   2f128:	ea00002e 	b	2f1e8 <strcmp+0x1fc>
   2f12c:	e1a05802 	lsl	r5, r2, #16
   2f130:	e042c004 	sub	ip, r2, r4
   2f134:	e1a05825 	lsr	r5, r5, #16
   2f138:	e1ccc002 	bic	ip, ip, r2
   2f13c:	e1550823 	cmp	r5, r3, lsr #16
   2f140:	1a00000e 	bne	2f180 <strcmp+0x194>
   2f144:	e01cc384 	ands	ip, ip, r4, lsl #7
   2f148:	04913004 	ldreq	r3, [r1], #4
   2f14c:	1a000004 	bne	2f164 <strcmp+0x178>
   2f150:	e0255002 	eor	r5, r5, r2
   2f154:	e1550803 	cmp	r5, r3, lsl #16
   2f158:	1a000006 	bne	2f178 <strcmp+0x18c>
   2f15c:	e4902004 	ldr	r2, [r0], #4
   2f160:	eafffff1 	b	2f12c <strcmp+0x140>
   2f164:	e1b0c80c 	lsls	ip, ip, #16
   2f168:	1a00001b 	bne	2f1dc <strcmp+0x1f0>
   2f16c:	e1d130b0 	ldrh	r3, [r1]
   2f170:	e1a05822 	lsr	r5, r2, #16
   2f174:	ea00001b 	b	2f1e8 <strcmp+0x1fc>
   2f178:	e1a03803 	lsl	r3, r3, #16
   2f17c:	e1a05822 	lsr	r5, r2, #16
   2f180:	e1a03823 	lsr	r3, r3, #16
   2f184:	ea000017 	b	2f1e8 <strcmp+0x1fc>
   2f188:	e20250ff 	and	r5, r2, #255	; 0xff
   2f18c:	e1550c23 	cmp	r5, r3, lsr #24
   2f190:	e042c004 	sub	ip, r2, r4
   2f194:	e1ccc002 	bic	ip, ip, r2
   2f198:	1a000007 	bne	2f1bc <strcmp+0x1d0>
   2f19c:	e01cc384 	ands	ip, ip, r4, lsl #7
   2f1a0:	04913004 	ldreq	r3, [r1], #4
   2f1a4:	1a000006 	bne	2f1c4 <strcmp+0x1d8>
   2f1a8:	e0255002 	eor	r5, r5, r2
   2f1ac:	e1550403 	cmp	r5, r3, lsl #8
   2f1b0:	1a000006 	bne	2f1d0 <strcmp+0x1e4>
   2f1b4:	e4902004 	ldr	r2, [r0], #4
   2f1b8:	eafffff2 	b	2f188 <strcmp+0x19c>
   2f1bc:	e1a03c23 	lsr	r3, r3, #24
   2f1c0:	ea000008 	b	2f1e8 <strcmp+0x1fc>
   2f1c4:	e31200ff 	tst	r2, #255	; 0xff
   2f1c8:	0a000003 	beq	2f1dc <strcmp+0x1f0>
   2f1cc:	e4913004 	ldr	r3, [r1], #4
   2f1d0:	e1a05422 	lsr	r5, r2, #8
   2f1d4:	e3c334ff 	bic	r3, r3, #-16777216	; 0xff000000
   2f1d8:	ea000002 	b	2f1e8 <strcmp+0x1fc>
   2f1dc:	e3a00000 	mov	r0, #0
   2f1e0:	e8bd0030 	pop	{r4, r5}
   2f1e4:	e12fff1e 	bx	lr
   2f1e8:	e20520ff 	and	r2, r5, #255	; 0xff
   2f1ec:	e20300ff 	and	r0, r3, #255	; 0xff
   2f1f0:	e3500001 	cmp	r0, #1
   2f1f4:	21500002 	cmpcs	r0, r2
   2f1f8:	01a05425 	lsreq	r5, r5, #8
   2f1fc:	01a03423 	lsreq	r3, r3, #8
   2f200:	0afffff8 	beq	2f1e8 <strcmp+0x1fc>
   2f204:	e0420000 	sub	r0, r2, r0
   2f208:	e8bd0030 	pop	{r4, r5}
   2f20c:	e12fff1e 	bx	lr

0002f210 <rf_rpl_reg_rd>:
   2f210:	6800      	ldr	r0, [r0, #0]
   2f212:	4770      	bx	lr

0002f214 <rf_rpl_reg_wr>:
   2f214:	6001      	str	r1, [r0, #0]
   2f216:	4770      	bx	lr

0002f218 <rf_txpwr_dbm_get>:
   2f218:	2000      	movs	r0, #0
   2f21a:	4770      	bx	lr

0002f21c <rf_sleep>:
   2f21c:	2307      	movs	r3, #7
   2f21e:	4a02      	ldr	r2, [pc, #8]	; (2f228 <rf_sleep+0xc>)
   2f220:	6811      	ldr	r1, [r2, #0]
   2f222:	430b      	orrs	r3, r1
   2f224:	6013      	str	r3, [r2, #0]
   2f226:	4770      	bx	lr
   2f228:	00820030 	.word	0x00820030

0002f22c <rf_force_agc_enable>:
   2f22c:	4906      	ldr	r1, [pc, #24]	; (2f248 <rf_force_agc_enable+0x1c>)
   2f22e:	07c2      	lsls	r2, r0, #31
   2f230:	680b      	ldr	r3, [r1, #0]
   2f232:	005b      	lsls	r3, r3, #1
   2f234:	085b      	lsrs	r3, r3, #1
   2f236:	4313      	orrs	r3, r2
   2f238:	600b      	str	r3, [r1, #0]
   2f23a:	4904      	ldr	r1, [pc, #16]	; (2f24c <rf_force_agc_enable+0x20>)
   2f23c:	680b      	ldr	r3, [r1, #0]
   2f23e:	005b      	lsls	r3, r3, #1
   2f240:	0858      	lsrs	r0, r3, #1
   2f242:	4310      	orrs	r0, r2
   2f244:	6008      	str	r0, [r1, #0]
   2f246:	4770      	bx	lr
   2f248:	00820074 	.word	0x00820074
   2f24c:	00820874 	.word	0x00820874

0002f250 <rf_rssi_convert>:
   2f250:	0840      	lsrs	r0, r0, #1
   2f252:	3876      	subs	r0, #118	; 0x76
   2f254:	0600      	lsls	r0, r0, #24
   2f256:	1600      	asrs	r0, r0, #24
   2f258:	4770      	bx	lr
	...

0002f25c <rf_txpwr_cs_get>:
   2f25c:	0002      	movs	r2, r0
   2f25e:	2301      	movs	r3, #1
   2f260:	b530      	push	{r4, r5, lr}
   2f262:	4c0a      	ldr	r4, [pc, #40]	; (2f28c <rf_txpwr_cs_get+0x30>)
   2f264:	571d      	ldrsb	r5, [r3, r4]
   2f266:	0618      	lsls	r0, r3, #24
   2f268:	0e00      	lsrs	r0, r0, #24
   2f26a:	4295      	cmp	r5, r2
   2f26c:	da03      	bge.n	2f276 <rf_txpwr_cs_get+0x1a>
   2f26e:	3301      	adds	r3, #1
   2f270:	2b0d      	cmp	r3, #13
   2f272:	d1f7      	bne.n	2f264 <rf_txpwr_cs_get+0x8>
   2f274:	0018      	movs	r0, r3
   2f276:	5623      	ldrsb	r3, [r4, r0]
   2f278:	4293      	cmp	r3, r2
   2f27a:	d006      	beq.n	2f28a <rf_txpwr_cs_get+0x2e>
   2f27c:	2900      	cmp	r1, #0
   2f27e:	d104      	bne.n	2f28a <rf_txpwr_cs_get+0x2e>
   2f280:	2801      	cmp	r0, #1
   2f282:	d002      	beq.n	2f28a <rf_txpwr_cs_get+0x2e>
   2f284:	3801      	subs	r0, #1
   2f286:	0600      	lsls	r0, r0, #24
   2f288:	0e00      	lsrs	r0, r0, #24
   2f28a:	bd30      	pop	{r4, r5, pc}
   2f28c:	0003f20c 	.word	0x0003f20c

0002f290 <app_dis_init>:
   2f290:	4770      	bx	lr
	...

0002f294 <prf_get_id_from_task>:
   2f294:	490b      	ldr	r1, [pc, #44]	; (2f2c4 <prf_get_id_from_task+0x30>)
   2f296:	b530      	push	{r4, r5, lr}
   2f298:	2200      	movs	r2, #0
   2f29a:	000c      	movs	r4, r1
   2f29c:	0a03      	lsrs	r3, r0, #8
   2f29e:	0600      	lsls	r0, r0, #24
   2f2a0:	0e00      	lsrs	r0, r0, #24
   2f2a2:	8a0d      	ldrh	r5, [r1, #16]
   2f2a4:	4285      	cmp	r5, r0
   2f2a6:	d106      	bne.n	2f2b6 <prf_get_id_from_task+0x22>
   2f2a8:	2118      	movs	r1, #24
   2f2aa:	434a      	muls	r2, r1
   2f2ac:	18a4      	adds	r4, r4, r2
   2f2ae:	8a62      	ldrh	r2, [r4, #18]
   2f2b0:	0218      	lsls	r0, r3, #8
   2f2b2:	4310      	orrs	r0, r2
   2f2b4:	bd30      	pop	{r4, r5, pc}
   2f2b6:	3201      	adds	r2, #1
   2f2b8:	3118      	adds	r1, #24
   2f2ba:	2a28      	cmp	r2, #40	; 0x28
   2f2bc:	d1f1      	bne.n	2f2a2 <prf_get_id_from_task+0xe>
   2f2be:	32d7      	adds	r2, #215	; 0xd7
   2f2c0:	e7f6      	b.n	2f2b0 <prf_get_id_from_task+0x1c>
   2f2c2:	46c0      	nop			; (mov r8, r8)
   2f2c4:	00402340 	.word	0x00402340

0002f2c8 <prf_get_task_from_id>:
   2f2c8:	490b      	ldr	r1, [pc, #44]	; (2f2f8 <prf_get_task_from_id+0x30>)
   2f2ca:	b530      	push	{r4, r5, lr}
   2f2cc:	2200      	movs	r2, #0
   2f2ce:	000c      	movs	r4, r1
   2f2d0:	0a03      	lsrs	r3, r0, #8
   2f2d2:	0600      	lsls	r0, r0, #24
   2f2d4:	0e00      	lsrs	r0, r0, #24
   2f2d6:	8a4d      	ldrh	r5, [r1, #18]
   2f2d8:	4285      	cmp	r5, r0
   2f2da:	d106      	bne.n	2f2ea <prf_get_task_from_id+0x22>
   2f2dc:	2118      	movs	r1, #24
   2f2de:	434a      	muls	r2, r1
   2f2e0:	18a4      	adds	r4, r4, r2
   2f2e2:	8a22      	ldrh	r2, [r4, #16]
   2f2e4:	0218      	lsls	r0, r3, #8
   2f2e6:	4310      	orrs	r0, r2
   2f2e8:	bd30      	pop	{r4, r5, pc}
   2f2ea:	3201      	adds	r2, #1
   2f2ec:	3118      	adds	r1, #24
   2f2ee:	2a28      	cmp	r2, #40	; 0x28
   2f2f0:	d1f1      	bne.n	2f2d6 <prf_get_task_from_id+0xe>
   2f2f2:	32d7      	adds	r2, #215	; 0xd7
   2f2f4:	e7f6      	b.n	2f2e4 <prf_get_task_from_id+0x1c>
   2f2f6:	46c0      	nop			; (mov r8, r8)
   2f2f8:	00402340 	.word	0x00402340

0002f2fc <rwble_sleep_wakeup_end>:
   2f2fc:	2200      	movs	r2, #0
   2f2fe:	4b01      	ldr	r3, [pc, #4]	; (2f304 <rwble_sleep_wakeup_end+0x8>)
   2f300:	601a      	str	r2, [r3, #0]
   2f302:	4770      	bx	lr
   2f304:	0082080c 	.word	0x0082080c

0002f308 <app_sec_msg_dflt_handler>:
   2f308:	2000      	movs	r0, #0
   2f30a:	4770      	bx	lr

0002f30c <bass_batt_level_ntf_cfg_ind_handler>:
   2f30c:	2000      	movs	r0, #0
   2f30e:	4770      	bx	lr

0002f310 <batt_level_upd_handler>:
   2f310:	2000      	movs	r0, #0
   2f312:	4770      	bx	lr

0002f314 <bass_enable_rsp_handler>:
   2f314:	2000      	movs	r0, #0
   2f316:	4770      	bx	lr

0002f318 <app_batt_msg_dflt_handler>:
   2f318:	2000      	movs	r0, #0
   2f31a:	4770      	bx	lr

0002f31c <oads_enable_rsp_handler>:
   2f31c:	2000      	movs	r0, #0
   2f31e:	4770      	bx	lr

0002f320 <app_get_handler>:
   2f320:	b5f8      	push	{r3, r4, r5, r6, r7, lr}
   2f322:	0005      	movs	r5, r0
   2f324:	0008      	movs	r0, r1
   2f326:	792c      	ldrb	r4, [r5, #4]
   2f328:	0011      	movs	r1, r2
   2f32a:	4a0c      	ldr	r2, [pc, #48]	; (2f35c <app_get_handler+0x3c>)
   2f32c:	4e0c      	ldr	r6, [pc, #48]	; (2f360 <app_get_handler+0x40>)
   2f32e:	18a4      	adds	r4, r4, r2
   2f330:	00e4      	lsls	r4, r4, #3
   2f332:	0022      	movs	r2, r4
   2f334:	3208      	adds	r2, #8
   2f336:	d101      	bne.n	2f33c <app_get_handler+0x1c>
   2f338:	2000      	movs	r0, #0
   2f33a:	e009      	b.n	2f350 <app_get_handler+0x30>
   2f33c:	682a      	ldr	r2, [r5, #0]
   2f33e:	1917      	adds	r7, r2, r4
   2f340:	5b12      	ldrh	r2, [r2, r4]
   2f342:	4282      	cmp	r2, r0
   2f344:	d105      	bne.n	2f352 <app_get_handler+0x32>
   2f346:	2203      	movs	r2, #3
   2f348:	687c      	ldr	r4, [r7, #4]
   2f34a:	47a0      	blx	r4
   2f34c:	0600      	lsls	r0, r0, #24
   2f34e:	0e00      	lsrs	r0, r0, #24
   2f350:	bdf8      	pop	{r3, r4, r5, r6, r7, pc}
   2f352:	3c08      	subs	r4, #8
   2f354:	42b2      	cmp	r2, r6
   2f356:	d1ec      	bne.n	2f332 <app_get_handler+0x12>
   2f358:	e7f5      	b.n	2f346 <app_get_handler+0x26>
   2f35a:	46c0      	nop			; (mov r8, r8)
   2f35c:	1fffffff 	.word	0x1fffffff
   2f360:	0000ffff 	.word	0x0000ffff

0002f364 <appm_msg_handler>:
   2f364:	000a      	movs	r2, r1
   2f366:	b510      	push	{r4, lr}
   2f368:	0a01      	lsrs	r1, r0, #8
   2f36a:	0004      	movs	r4, r0
   2f36c:	2947      	cmp	r1, #71	; 0x47
   2f36e:	d019      	beq.n	2f3a4 <appm_msg_handler+0x40>
   2f370:	d807      	bhi.n	2f382 <appm_msg_handler+0x1e>
   2f372:	2914      	cmp	r1, #20
   2f374:	d01c      	beq.n	2f3b0 <appm_msg_handler+0x4c>
   2f376:	2924      	cmp	r1, #36	; 0x24
   2f378:	d01d      	beq.n	2f3b6 <appm_msg_handler+0x52>
   2f37a:	2000      	movs	r0, #0
   2f37c:	290e      	cmp	r1, #14
   2f37e:	d008      	beq.n	2f392 <appm_msg_handler+0x2e>
   2f380:	bd10      	pop	{r4, pc}
   2f382:	2948      	cmp	r1, #72	; 0x48
   2f384:	d011      	beq.n	2f3aa <appm_msg_handler+0x46>
   2f386:	2000      	movs	r0, #0
   2f388:	2949      	cmp	r1, #73	; 0x49
   2f38a:	d1f9      	bne.n	2f380 <appm_msg_handler+0x1c>
   2f38c:	0021      	movs	r1, r4
   2f38e:	480b      	ldr	r0, [pc, #44]	; (2f3bc <appm_msg_handler+0x58>)
   2f390:	e005      	b.n	2f39e <appm_msg_handler+0x3a>
   2f392:	490b      	ldr	r1, [pc, #44]	; (2f3c0 <appm_msg_handler+0x5c>)
   2f394:	1861      	adds	r1, r4, r1
   2f396:	2909      	cmp	r1, #9
   2f398:	d8f2      	bhi.n	2f380 <appm_msg_handler+0x1c>
   2f39a:	0021      	movs	r1, r4
   2f39c:	4809      	ldr	r0, [pc, #36]	; (2f3c4 <appm_msg_handler+0x60>)
   2f39e:	f7ff ffbf 	bl	2f320 <app_get_handler>
   2f3a2:	e7ed      	b.n	2f380 <appm_msg_handler+0x1c>
   2f3a4:	0001      	movs	r1, r0
   2f3a6:	4808      	ldr	r0, [pc, #32]	; (2f3c8 <appm_msg_handler+0x64>)
   2f3a8:	e7f9      	b.n	2f39e <appm_msg_handler+0x3a>
   2f3aa:	0001      	movs	r1, r0
   2f3ac:	4807      	ldr	r0, [pc, #28]	; (2f3cc <appm_msg_handler+0x68>)
   2f3ae:	e7f6      	b.n	2f39e <appm_msg_handler+0x3a>
   2f3b0:	0001      	movs	r1, r0
   2f3b2:	4807      	ldr	r0, [pc, #28]	; (2f3d0 <appm_msg_handler+0x6c>)
   2f3b4:	e7f3      	b.n	2f39e <appm_msg_handler+0x3a>
   2f3b6:	0001      	movs	r1, r0
   2f3b8:	4806      	ldr	r0, [pc, #24]	; (2f3d4 <appm_msg_handler+0x70>)
   2f3ba:	e7f0      	b.n	2f39e <appm_msg_handler+0x3a>
   2f3bc:	0003f874 	.word	0x0003f874
   2f3c0:	fffff1ee 	.word	0xfffff1ee
   2f3c4:	0003f8ac 	.word	0x0003f8ac
   2f3c8:	0003f834 	.word	0x0003f834
   2f3cc:	0003f80c 	.word	0x0003f80c
   2f3d0:	0003f7fc 	.word	0x0003f7fc
   2f3d4:	0003f7d4 	.word	0x0003f7d4

0002f3d8 <app_ancs_req_handler>:
   2f3d8:	2000      	movs	r0, #0
   2f3da:	4770      	bx	lr

0002f3dc <app_period_timer_handler>:
   2f3dc:	2000      	movs	r0, #0
   2f3de:	4770      	bx	lr

0002f3e0 <nvds_walk_tag>:
   2f3e0:	b5f8      	push	{r3, r4, r5, r6, r7, lr}
   2f3e2:	000f      	movs	r7, r1
   2f3e4:	4c0b      	ldr	r4, [pc, #44]	; (2f414 <nvds_walk_tag+0x34>)
   2f3e6:	0015      	movs	r5, r2
   2f3e8:	6823      	ldr	r3, [r4, #0]
   2f3ea:	000a      	movs	r2, r1
   2f3ec:	2103      	movs	r1, #3
   2f3ee:	0006      	movs	r6, r0
   2f3f0:	4798      	blx	r3
   2f3f2:	783b      	ldrb	r3, [r7, #0]
   2f3f4:	2002      	movs	r0, #2
   2f3f6:	2bff      	cmp	r3, #255	; 0xff
   2f3f8:	d00b      	beq.n	2f412 <nvds_walk_tag+0x32>
   2f3fa:	78b8      	ldrb	r0, [r7, #2]
   2f3fc:	6922      	ldr	r2, [r4, #16]
   2f3fe:	1980      	adds	r0, r0, r6
   2f400:	1cc3      	adds	r3, r0, #3
   2f402:	602b      	str	r3, [r5, #0]
   2f404:	4b04      	ldr	r3, [pc, #16]	; (2f418 <nvds_walk_tag+0x38>)
   2f406:	3a01      	subs	r2, #1
   2f408:	18c3      	adds	r3, r0, r3
   2f40a:	2000      	movs	r0, #0
   2f40c:	4293      	cmp	r3, r2
   2f40e:	d900      	bls.n	2f412 <nvds_walk_tag+0x32>
   2f410:	3006      	adds	r0, #6
   2f412:	bdf8      	pop	{r3, r4, r5, r6, r7, pc}
   2f414:	00402320 	.word	0x00402320
   2f418:	fff81003 	.word	0xfff81003

0002f41c <nvds_browse_tag>:
   2f41c:	b5f7      	push	{r0, r1, r2, r4, r5, r6, r7, lr}
   2f41e:	0006      	movs	r6, r0
   2f420:	000c      	movs	r4, r1
   2f422:	0015      	movs	r5, r2
   2f424:	4b09      	ldr	r3, [pc, #36]	; (2f44c <nvds_browse_tag+0x30>)
   2f426:	9301      	str	r3, [sp, #4]
   2f428:	9f01      	ldr	r7, [sp, #4]
   2f42a:	0021      	movs	r1, r4
   2f42c:	0038      	movs	r0, r7
   2f42e:	aa01      	add	r2, sp, #4
   2f430:	f7ff ffd6 	bl	2f3e0 <nvds_walk_tag>
   2f434:	2800      	cmp	r0, #0
   2f436:	d107      	bne.n	2f448 <nvds_browse_tag+0x2c>
   2f438:	7823      	ldrb	r3, [r4, #0]
   2f43a:	42b3      	cmp	r3, r6
   2f43c:	d1f4      	bne.n	2f428 <nvds_browse_tag+0xc>
   2f43e:	2205      	movs	r2, #5
   2f440:	7863      	ldrb	r3, [r4, #1]
   2f442:	4013      	ands	r3, r2
   2f444:	2b04      	cmp	r3, #4
   2f446:	d1ef      	bne.n	2f428 <nvds_browse_tag+0xc>
   2f448:	602f      	str	r7, [r5, #0]
   2f44a:	bdfe      	pop	{r1, r2, r3, r4, r5, r6, r7, pc}
   2f44c:	0007f004 	.word	0x0007f004

0002f450 <nvds_get>:
   2f450:	b573      	push	{r0, r1, r4, r5, r6, lr}
   2f452:	000d      	movs	r5, r1
   2f454:	0016      	movs	r6, r2
   2f456:	4669      	mov	r1, sp
   2f458:	aa01      	add	r2, sp, #4
   2f45a:	f7ff ffdf 	bl	2f41c <nvds_browse_tag>
   2f45e:	1e04      	subs	r4, r0, #0
   2f460:	d10f      	bne.n	2f482 <nvds_get+0x32>
   2f462:	466b      	mov	r3, sp
   2f464:	7899      	ldrb	r1, [r3, #2]
   2f466:	782b      	ldrb	r3, [r5, #0]
   2f468:	428b      	cmp	r3, r1
   2f46a:	d30c      	bcc.n	2f486 <nvds_get+0x36>
   2f46c:	9b01      	ldr	r3, [sp, #4]
   2f46e:	0032      	movs	r2, r6
   2f470:	1cd8      	adds	r0, r3, #3
   2f472:	4b06      	ldr	r3, [pc, #24]	; (2f48c <nvds_get+0x3c>)
   2f474:	681b      	ldr	r3, [r3, #0]
   2f476:	4798      	blx	r3
   2f478:	466b      	mov	r3, sp
   2f47a:	789b      	ldrb	r3, [r3, #2]
   2f47c:	702b      	strb	r3, [r5, #0]
   2f47e:	0020      	movs	r0, r4
   2f480:	bd76      	pop	{r1, r2, r4, r5, r6, pc}
   2f482:	2300      	movs	r3, #0
   2f484:	e7fa      	b.n	2f47c <nvds_get+0x2c>
   2f486:	2404      	movs	r4, #4
   2f488:	e7f9      	b.n	2f47e <nvds_get+0x2e>
   2f48a:	46c0      	nop			; (mov r8, r8)
   2f48c:	00402320 	.word	0x00402320

0002f490 <nvds_del>:
   2f490:	b530      	push	{r4, r5, lr}
   2f492:	b085      	sub	sp, #20
   2f494:	ad02      	add	r5, sp, #8
   2f496:	0029      	movs	r1, r5
   2f498:	aa03      	add	r2, sp, #12
   2f49a:	f7ff ffbf 	bl	2f41c <nvds_browse_tag>
   2f49e:	1e04      	subs	r4, r0, #0
   2f4a0:	d10d      	bne.n	2f4be <nvds_del+0x2e>
   2f4a2:	786b      	ldrb	r3, [r5, #1]
   2f4a4:	079a      	lsls	r2, r3, #30
   2f4a6:	d50d      	bpl.n	2f4c4 <nvds_del+0x34>
   2f4a8:	466a      	mov	r2, sp
   2f4aa:	2104      	movs	r1, #4
   2f4ac:	3207      	adds	r2, #7
   2f4ae:	438b      	bics	r3, r1
   2f4b0:	7013      	strb	r3, [r2, #0]
   2f4b2:	9b03      	ldr	r3, [sp, #12]
   2f4b4:	3903      	subs	r1, #3
   2f4b6:	1c58      	adds	r0, r3, #1
   2f4b8:	4b03      	ldr	r3, [pc, #12]	; (2f4c8 <nvds_del+0x38>)
   2f4ba:	685b      	ldr	r3, [r3, #4]
   2f4bc:	4798      	blx	r3
   2f4be:	0020      	movs	r0, r4
   2f4c0:	b005      	add	sp, #20
   2f4c2:	bd30      	pop	{r4, r5, pc}
   2f4c4:	2405      	movs	r4, #5
   2f4c6:	e7fa      	b.n	2f4be <nvds_del+0x2e>
   2f4c8:	00402320 	.word	0x00402320

0002f4cc <nvds_init_memory>:
   2f4cc:	b570      	push	{r4, r5, r6, lr}
   2f4ce:	25fe      	movs	r5, #254	; 0xfe
   2f4d0:	4c05      	ldr	r4, [pc, #20]	; (2f4e8 <nvds_init_memory+0x1c>)
   2f4d2:	02ed      	lsls	r5, r5, #11
   2f4d4:	0028      	movs	r0, r5
   2f4d6:	6921      	ldr	r1, [r4, #16]
   2f4d8:	68a3      	ldr	r3, [r4, #8]
   2f4da:	4798      	blx	r3
   2f4dc:	0028      	movs	r0, r5
   2f4de:	2104      	movs	r1, #4
   2f4e0:	6863      	ldr	r3, [r4, #4]
   2f4e2:	4a02      	ldr	r2, [pc, #8]	; (2f4ec <nvds_init_memory+0x20>)
   2f4e4:	4798      	blx	r3
   2f4e6:	bd70      	pop	{r4, r5, r6, pc}
   2f4e8:	00402320 	.word	0x00402320
   2f4ec:	0003fc7c 	.word	0x0003fc7c

0002f4f0 <prf_itf_get>:
   2f4f0:	0603      	lsls	r3, r0, #24
   2f4f2:	b500      	push	{lr}
   2f4f4:	2000      	movs	r0, #0
   2f4f6:	0e1b      	lsrs	r3, r3, #24
   2f4f8:	2b4c      	cmp	r3, #76	; 0x4c
   2f4fa:	d808      	bhi.n	2f50e <prf_itf_get+0x1e>
   2f4fc:	2b46      	cmp	r3, #70	; 0x46
   2f4fe:	d807      	bhi.n	2f510 <prf_itf_get+0x20>
   2f500:	480d      	ldr	r0, [pc, #52]	; (2f538 <prf_itf_get+0x48>)
   2f502:	2b14      	cmp	r3, #20
   2f504:	d003      	beq.n	2f50e <prf_itf_get+0x1e>
   2f506:	2000      	movs	r0, #0
   2f508:	2b24      	cmp	r3, #36	; 0x24
   2f50a:	d100      	bne.n	2f50e <prf_itf_get+0x1e>
   2f50c:	480b      	ldr	r0, [pc, #44]	; (2f53c <prf_itf_get+0x4c>)
   2f50e:	bd00      	pop	{pc}
   2f510:	3b47      	subs	r3, #71	; 0x47
   2f512:	0018      	movs	r0, r3
   2f514:	2b05      	cmp	r3, #5
   2f516:	d806      	bhi.n	2f526 <prf_itf_get+0x36>
   2f518:	f7fe fd9a 	bl	2e050 <__gnu_thumb1_case_uqi>
   2f51c:	05090b03 	.word	0x05090b03
   2f520:	0705      	.short	0x0705
   2f522:	4807      	ldr	r0, [pc, #28]	; (2f540 <prf_itf_get+0x50>)
   2f524:	e7f3      	b.n	2f50e <prf_itf_get+0x1e>
   2f526:	2000      	movs	r0, #0
   2f528:	e7f1      	b.n	2f50e <prf_itf_get+0x1e>
   2f52a:	4806      	ldr	r0, [pc, #24]	; (2f544 <prf_itf_get+0x54>)
   2f52c:	e7ef      	b.n	2f50e <prf_itf_get+0x1e>
   2f52e:	4806      	ldr	r0, [pc, #24]	; (2f548 <prf_itf_get+0x58>)
   2f530:	e7ed      	b.n	2f50e <prf_itf_get+0x1e>
   2f532:	4806      	ldr	r0, [pc, #24]	; (2f54c <prf_itf_get+0x5c>)
   2f534:	e7eb      	b.n	2f50e <prf_itf_get+0x1e>
   2f536:	46c0      	nop			; (mov r8, r8)
   2f538:	0003fae8 	.word	0x0003fae8
   2f53c:	0003fa10 	.word	0x0003fa10
   2f540:	0003fc3c 	.word	0x0003fc3c
   2f544:	0003fd08 	.word	0x0003fd08
   2f548:	0003fcc8 	.word	0x0003fcc8
   2f54c:	0003fb94 	.word	0x0003fb94

0002f550 <prf_create>:
   2f550:	23f0      	movs	r3, #240	; 0xf0
   2f552:	b570      	push	{r4, r5, r6, lr}
   2f554:	0005      	movs	r5, r0
   2f556:	4c08      	ldr	r4, [pc, #32]	; (2f578 <prf_create+0x28>)
   2f558:	009b      	lsls	r3, r3, #2
   2f55a:	18e6      	adds	r6, r4, r3
   2f55c:	8a60      	ldrh	r0, [r4, #18]
   2f55e:	f7ff ffc7 	bl	2f4f0 <prf_itf_get>
   2f562:	2800      	cmp	r0, #0
   2f564:	d003      	beq.n	2f56e <prf_create+0x1e>
   2f566:	6883      	ldr	r3, [r0, #8]
   2f568:	0029      	movs	r1, r5
   2f56a:	0020      	movs	r0, r4
   2f56c:	4798      	blx	r3
   2f56e:	3418      	adds	r4, #24
   2f570:	42b4      	cmp	r4, r6
   2f572:	d1f3      	bne.n	2f55c <prf_create+0xc>
   2f574:	bd70      	pop	{r4, r5, r6, pc}
   2f576:	46c0      	nop			; (mov r8, r8)
   2f578:	00402340 	.word	0x00402340

0002f57c <prf_cleanup>:
   2f57c:	b5f8      	push	{r3, r4, r5, r6, r7, lr}
   2f57e:	23f0      	movs	r3, #240	; 0xf0
   2f580:	0005      	movs	r5, r0
   2f582:	000e      	movs	r6, r1
   2f584:	4c08      	ldr	r4, [pc, #32]	; (2f5a8 <prf_cleanup+0x2c>)
   2f586:	009b      	lsls	r3, r3, #2
   2f588:	18e7      	adds	r7, r4, r3
   2f58a:	8a60      	ldrh	r0, [r4, #18]
   2f58c:	f7ff ffb0 	bl	2f4f0 <prf_itf_get>
   2f590:	2800      	cmp	r0, #0
   2f592:	d004      	beq.n	2f59e <prf_cleanup+0x22>
   2f594:	68c3      	ldr	r3, [r0, #12]
   2f596:	0032      	movs	r2, r6
   2f598:	0029      	movs	r1, r5
   2f59a:	0020      	movs	r0, r4
   2f59c:	4798      	blx	r3
   2f59e:	3418      	adds	r4, #24
   2f5a0:	42bc      	cmp	r4, r7
   2f5a2:	d1f2      	bne.n	2f58a <prf_cleanup+0xe>
   2f5a4:	bdf8      	pop	{r3, r4, r5, r6, r7, pc}
   2f5a6:	46c0      	nop			; (mov r8, r8)
   2f5a8:	00402340 	.word	0x00402340

0002f5ac <prf_env_get>:
   2f5ac:	4a08      	ldr	r2, [pc, #32]	; (2f5d0 <prf_env_get+0x24>)
   2f5ae:	2300      	movs	r3, #0
   2f5b0:	0011      	movs	r1, r2
   2f5b2:	b510      	push	{r4, lr}
   2f5b4:	8a54      	ldrh	r4, [r2, #18]
   2f5b6:	4284      	cmp	r4, r0
   2f5b8:	d104      	bne.n	2f5c4 <prf_env_get+0x18>
   2f5ba:	2218      	movs	r2, #24
   2f5bc:	4353      	muls	r3, r2
   2f5be:	18c9      	adds	r1, r1, r3
   2f5c0:	68c8      	ldr	r0, [r1, #12]
   2f5c2:	bd10      	pop	{r4, pc}
   2f5c4:	3301      	adds	r3, #1
   2f5c6:	3218      	adds	r2, #24
   2f5c8:	2b28      	cmp	r3, #40	; 0x28
   2f5ca:	d1f3      	bne.n	2f5b4 <prf_env_get+0x8>
   2f5cc:	2000      	movs	r0, #0
   2f5ce:	e7f8      	b.n	2f5c2 <prf_env_get+0x16>
   2f5d0:	00402340 	.word	0x00402340

0002f5d4 <prf_env_get_from_handle>:
   2f5d4:	2328      	movs	r3, #40	; 0x28
   2f5d6:	b5f0      	push	{r4, r5, r6, r7, lr}
   2f5d8:	4c20      	ldr	r4, [pc, #128]	; (2f65c <prf_env_get_from_handle+0x88>)
   2f5da:	b085      	sub	sp, #20
   2f5dc:	9003      	str	r0, [sp, #12]
   2f5de:	9101      	str	r1, [sp, #4]
   2f5e0:	7d22      	ldrb	r2, [r4, #20]
   2f5e2:	2a01      	cmp	r2, #1
   2f5e4:	d115      	bne.n	2f612 <prf_env_get_from_handle+0x3e>
   2f5e6:	68e0      	ldr	r0, [r4, #12]
   2f5e8:	9d03      	ldr	r5, [sp, #12]
   2f5ea:	7902      	ldrb	r2, [r0, #4]
   2f5ec:	42aa      	cmp	r2, r5
   2f5ee:	d110      	bne.n	2f612 <prf_env_get_from_handle+0x3e>
   2f5f0:	2600      	movs	r6, #0
   2f5f2:	68c2      	ldr	r2, [r0, #12]
   2f5f4:	6852      	ldr	r2, [r2, #4]
   2f5f6:	7e15      	ldrb	r5, [r2, #24]
   2f5f8:	9502      	str	r5, [sp, #8]
   2f5fa:	9902      	ldr	r1, [sp, #8]
   2f5fc:	0635      	lsls	r5, r6, #24
   2f5fe:	0e2d      	lsrs	r5, r5, #24
   2f600:	42a9      	cmp	r1, r5
   2f602:	d80e      	bhi.n	2f622 <prf_env_get_from_handle+0x4e>
   2f604:	7e91      	ldrb	r1, [r2, #26]
   2f606:	2600      	movs	r6, #0
   2f608:	468c      	mov	ip, r1
   2f60a:	0635      	lsls	r5, r6, #24
   2f60c:	0e2d      	lsrs	r5, r5, #24
   2f60e:	45ac      	cmp	ip, r5
   2f610:	d819      	bhi.n	2f646 <prf_env_get_from_handle+0x72>
   2f612:	3b01      	subs	r3, #1
   2f614:	061b      	lsls	r3, r3, #24
   2f616:	0e1b      	lsrs	r3, r3, #24
   2f618:	3418      	adds	r4, #24
   2f61a:	2b00      	cmp	r3, #0
   2f61c:	d1e0      	bne.n	2f5e0 <prf_env_get_from_handle+0xc>
   2f61e:	0018      	movs	r0, r3
   2f620:	e009      	b.n	2f636 <prf_env_get_from_handle+0x62>
   2f622:	2718      	movs	r7, #24
   2f624:	4377      	muls	r7, r6
   2f626:	69d1      	ldr	r1, [r2, #28]
   2f628:	19cf      	adds	r7, r1, r7
   2f62a:	8a79      	ldrh	r1, [r7, #18]
   2f62c:	468c      	mov	ip, r1
   2f62e:	9901      	ldr	r1, [sp, #4]
   2f630:	458c      	cmp	ip, r1
   2f632:	d102      	bne.n	2f63a <prf_env_get_from_handle+0x66>
   2f634:	7655      	strb	r5, [r2, #25]
   2f636:	b005      	add	sp, #20
   2f638:	bdf0      	pop	{r4, r5, r6, r7, pc}
   2f63a:	8abf      	ldrh	r7, [r7, #20]
   2f63c:	9901      	ldr	r1, [sp, #4]
   2f63e:	3601      	adds	r6, #1
   2f640:	428f      	cmp	r7, r1
   2f642:	d1da      	bne.n	2f5fa <prf_env_get_from_handle+0x26>
   2f644:	e7f6      	b.n	2f634 <prf_env_get_from_handle+0x60>
   2f646:	273c      	movs	r7, #60	; 0x3c
   2f648:	4377      	muls	r7, r6
   2f64a:	6a11      	ldr	r1, [r2, #32]
   2f64c:	3601      	adds	r6, #1
   2f64e:	19cf      	adds	r7, r1, r7
   2f650:	8a7f      	ldrh	r7, [r7, #18]
   2f652:	9901      	ldr	r1, [sp, #4]
   2f654:	428f      	cmp	r7, r1
   2f656:	d1d8      	bne.n	2f60a <prf_env_get_from_handle+0x36>
   2f658:	e7ec      	b.n	2f634 <prf_env_get_from_handle+0x60>
   2f65a:	46c0      	nop			; (mov r8, r8)
   2f65c:	00402340 	.word	0x00402340

0002f660 <cpu_reset>:
   2f660:	2380      	movs	r3, #128	; 0x80
   2f662:	4a05      	ldr	r2, [pc, #20]	; (2f678 <cpu_reset+0x18>)
   2f664:	021b      	lsls	r3, r3, #8
   2f666:	6811      	ldr	r1, [r2, #0]
   2f668:	430b      	orrs	r3, r1
   2f66a:	6013      	str	r3, [r2, #0]
   2f66c:	2301      	movs	r3, #1
   2f66e:	4a03      	ldr	r2, [pc, #12]	; (2f67c <cpu_reset+0x1c>)
   2f670:	6811      	ldr	r1, [r2, #0]
   2f672:	430b      	orrs	r3, r1
   2f674:	6013      	str	r3, [r2, #0]
   2f676:	4770      	bx	lr
   2f678:	00800804 	.word	0x00800804
   2f67c:	00800800 	.word	0x00800800

0002f680 <uart_send>:
   2f680:	b5f0      	push	{r4, r5, r6, r7, lr}
   2f682:	2480      	movs	r4, #128	; 0x80
   2f684:	4b08      	ldr	r3, [pc, #32]	; (2f6a8 <uart_send+0x28>)
   2f686:	4a09      	ldr	r2, [pc, #36]	; (2f6ac <uart_send+0x2c>)
   2f688:	4d09      	ldr	r5, [pc, #36]	; (2f6b0 <uart_send+0x30>)
   2f68a:	0364      	lsls	r4, r4, #13
   2f68c:	3901      	subs	r1, #1
   2f68e:	0409      	lsls	r1, r1, #16
   2f690:	0c09      	lsrs	r1, r1, #16
   2f692:	4299      	cmp	r1, r3
   2f694:	d100      	bne.n	2f698 <uart_send+0x18>
   2f696:	bdf0      	pop	{r4, r5, r6, r7, pc}
   2f698:	7806      	ldrb	r6, [r0, #0]
   2f69a:	6817      	ldr	r7, [r2, #0]
   2f69c:	4227      	tst	r7, r4
   2f69e:	d0fc      	beq.n	2f69a <uart_send+0x1a>
   2f6a0:	602e      	str	r6, [r5, #0]
   2f6a2:	3001      	adds	r0, #1
   2f6a4:	e7f2      	b.n	2f68c <uart_send+0xc>
   2f6a6:	46c0      	nop			; (mov r8, r8)
   2f6a8:	0000ffff 	.word	0x0000ffff
   2f6ac:	00806308 	.word	0x00806308
   2f6b0:	0080630c 	.word	0x0080630c

0002f6b4 <uart_flow_off>:
   2f6b4:	2001      	movs	r0, #1
   2f6b6:	4770      	bx	lr

0002f6b8 <uart_read>:
   2f6b8:	b510      	push	{r4, lr}
   2f6ba:	4c04      	ldr	r4, [pc, #16]	; (2f6cc <uart_read+0x14>)
   2f6bc:	60a2      	str	r2, [r4, #8]
   2f6be:	60e3      	str	r3, [r4, #12]
   2f6c0:	2301      	movs	r3, #1
   2f6c2:	61a0      	str	r0, [r4, #24]
   2f6c4:	6221      	str	r1, [r4, #32]
   2f6c6:	3406      	adds	r4, #6
   2f6c8:	77e3      	strb	r3, [r4, #31]
   2f6ca:	bd10      	pop	{r4, pc}
   2f6cc:	0040a19c 	.word	0x0040a19c

0002f6d0 <uart_write>:
   2f6d0:	b510      	push	{r4, lr}
   2f6d2:	4c04      	ldr	r4, [pc, #16]	; (2f6e4 <uart_write+0x14>)
   2f6d4:	6022      	str	r2, [r4, #0]
   2f6d6:	6063      	str	r3, [r4, #4]
   2f6d8:	2301      	movs	r3, #1
   2f6da:	6160      	str	r0, [r4, #20]
   2f6dc:	61e1      	str	r1, [r4, #28]
   2f6de:	3405      	adds	r4, #5
   2f6e0:	77e3      	strb	r3, [r4, #31]
   2f6e2:	bd10      	pop	{r4, pc}
   2f6e4:	0040a19c 	.word	0x0040a19c

0002f6e8 <uart2_rx_cmd_handler.part.0>:
   2f6e8:	b510      	push	{r4, lr}
   2f6ea:	2905      	cmp	r1, #5
   2f6ec:	d10e      	bne.n	2f70c <uart2_rx_cmd_handler.part.0+0x24>
   2f6ee:	7843      	ldrb	r3, [r0, #1]
   2f6f0:	7882      	ldrb	r2, [r0, #2]
   2f6f2:	061b      	lsls	r3, r3, #24
   2f6f4:	0412      	lsls	r2, r2, #16
   2f6f6:	4313      	orrs	r3, r2
   2f6f8:	7902      	ldrb	r2, [r0, #4]
   2f6fa:	4313      	orrs	r3, r2
   2f6fc:	78c2      	ldrb	r2, [r0, #3]
   2f6fe:	0212      	lsls	r2, r2, #8
   2f700:	4313      	orrs	r3, r2
   2f702:	4a03      	ldr	r2, [pc, #12]	; (2f710 <uart2_rx_cmd_handler.part.0+0x28>)
   2f704:	4293      	cmp	r3, r2
   2f706:	d101      	bne.n	2f70c <uart2_rx_cmd_handler.part.0+0x24>
   2f708:	f7ff ffaa 	bl	2f660 <cpu_reset>
   2f70c:	bd10      	pop	{r4, pc}
   2f70e:	46c0      	nop			; (mov r8, r8)
   2f710:	95279527 	.word	0x95279527

0002f714 <set_flash_clk>:
   2f714:	4a05      	ldr	r2, [pc, #20]	; (2f72c <set_flash_clk+0x18>)
   2f716:	4906      	ldr	r1, [pc, #24]	; (2f730 <set_flash_clk+0x1c>)
   2f718:	6813      	ldr	r3, [r2, #0]
   2f71a:	400b      	ands	r3, r1
   2f71c:	4303      	orrs	r3, r0
   2f71e:	6013      	str	r3, [r2, #0]
   2f720:	4a04      	ldr	r2, [pc, #16]	; (2f734 <set_flash_clk+0x20>)
   2f722:	6813      	ldr	r3, [r2, #0]
   2f724:	2b00      	cmp	r3, #0
   2f726:	dbfc      	blt.n	2f722 <set_flash_clk+0xe>
   2f728:	4770      	bx	lr
   2f72a:	46c0      	nop			; (mov r8, r8)
   2f72c:	0080201c 	.word	0x0080201c
   2f730:	07fffff0 	.word	0x07fffff0
   2f734:	00802000 	.word	0x00802000

0002f738 <get_flash_ID>:
   2f738:	4b0b      	ldr	r3, [pc, #44]	; (2f768 <get_flash_ID+0x30>)
   2f73a:	681a      	ldr	r2, [r3, #0]
   2f73c:	2a00      	cmp	r2, #0
   2f73e:	dbfc      	blt.n	2f73a <get_flash_ID+0x2>
   2f740:	4a0a      	ldr	r2, [pc, #40]	; (2f76c <get_flash_ID+0x34>)
   2f742:	601a      	str	r2, [r3, #0]
   2f744:	681a      	ldr	r2, [r3, #0]
   2f746:	2a00      	cmp	r2, #0
   2f748:	dbfc      	blt.n	2f744 <get_flash_ID+0xc>
   2f74a:	2201      	movs	r2, #1
   2f74c:	4b08      	ldr	r3, [pc, #32]	; (2f770 <get_flash_ID+0x38>)
   2f74e:	4252      	negs	r2, r2
   2f750:	601a      	str	r2, [r3, #0]
   2f752:	601a      	str	r2, [r3, #0]
   2f754:	601a      	str	r2, [r3, #0]
   2f756:	601a      	str	r2, [r3, #0]
   2f758:	601a      	str	r2, [r3, #0]
   2f75a:	601a      	str	r2, [r3, #0]
   2f75c:	601a      	str	r2, [r3, #0]
   2f75e:	601a      	str	r2, [r3, #0]
   2f760:	4b04      	ldr	r3, [pc, #16]	; (2f774 <get_flash_ID+0x3c>)
   2f762:	6818      	ldr	r0, [r3, #0]
   2f764:	4770      	bx	lr
   2f766:	46c0      	nop			; (mov r8, r8)
   2f768:	00802000 	.word	0x00802000
   2f76c:	3407d000 	.word	0x3407d000
   2f770:	00802004 	.word	0x00802004
   2f774:	00802010 	.word	0x00802010

0002f778 <flash_read_sr>:
   2f778:	4a0b      	ldr	r2, [pc, #44]	; (2f7a8 <flash_read_sr+0x30>)
   2f77a:	6813      	ldr	r3, [r2, #0]
   2f77c:	2b00      	cmp	r3, #0
   2f77e:	dbfc      	blt.n	2f77a <flash_read_sr+0x2>
   2f780:	4b0a      	ldr	r3, [pc, #40]	; (2f7ac <flash_read_sr+0x34>)
   2f782:	6013      	str	r3, [r2, #0]
   2f784:	6813      	ldr	r3, [r2, #0]
   2f786:	2b00      	cmp	r3, #0
   2f788:	dbfc      	blt.n	2f784 <flash_read_sr+0xc>
   2f78a:	4909      	ldr	r1, [pc, #36]	; (2f7b0 <flash_read_sr+0x38>)
   2f78c:	4809      	ldr	r0, [pc, #36]	; (2f7b4 <flash_read_sr+0x3c>)
   2f78e:	680b      	ldr	r3, [r1, #0]
   2f790:	6010      	str	r0, [r2, #0]
   2f792:	061b      	lsls	r3, r3, #24
   2f794:	0e1b      	lsrs	r3, r3, #24
   2f796:	6810      	ldr	r0, [r2, #0]
   2f798:	2800      	cmp	r0, #0
   2f79a:	dbfc      	blt.n	2f796 <flash_read_sr+0x1e>
   2f79c:	6808      	ldr	r0, [r1, #0]
   2f79e:	0600      	lsls	r0, r0, #24
   2f7a0:	0c00      	lsrs	r0, r0, #16
   2f7a2:	4318      	orrs	r0, r3
   2f7a4:	4770      	bx	lr
   2f7a6:	46c0      	nop			; (mov r8, r8)
   2f7a8:	00802000 	.word	0x00802000
   2f7ac:	2307d000 	.word	0x2307d000
   2f7b0:	00802014 	.word	0x00802014
   2f7b4:	2607d000 	.word	0x2607d000

0002f7b8 <flash_write_sr_temp>:
   2f7b8:	b570      	push	{r4, r5, r6, lr}
   2f7ba:	0005      	movs	r5, r0
   2f7bc:	000c      	movs	r4, r1
   2f7be:	f7ff ffbb 	bl	2f738 <get_flash_ID>
   2f7c2:	4e22      	ldr	r6, [pc, #136]	; (2f84c <flash_write_sr_temp+0x94>)
   2f7c4:	6833      	ldr	r3, [r6, #0]
   2f7c6:	4298      	cmp	r0, r3
   2f7c8:	d12c      	bne.n	2f824 <flash_write_sr_temp+0x6c>
   2f7ca:	4a21      	ldr	r2, [pc, #132]	; (2f850 <flash_write_sr_temp+0x98>)
   2f7cc:	4b21      	ldr	r3, [pc, #132]	; (2f854 <flash_write_sr_temp+0x9c>)
   2f7ce:	4290      	cmp	r0, r2
   2f7d0:	d030      	beq.n	2f834 <flash_write_sr_temp+0x7c>
   2f7d2:	d828      	bhi.n	2f826 <flash_write_sr_temp+0x6e>
   2f7d4:	4a20      	ldr	r2, [pc, #128]	; (2f858 <flash_write_sr_temp+0xa0>)
   2f7d6:	4290      	cmp	r0, r2
   2f7d8:	d02f      	beq.n	2f83a <flash_write_sr_temp+0x82>
   2f7da:	4a20      	ldr	r2, [pc, #128]	; (2f85c <flash_write_sr_temp+0xa4>)
   2f7dc:	1880      	adds	r0, r0, r2
   2f7de:	2801      	cmp	r0, #1
   2f7e0:	d82e      	bhi.n	2f840 <flash_write_sr_temp+0x88>
   2f7e2:	681a      	ldr	r2, [r3, #0]
   2f7e4:	491e      	ldr	r1, [pc, #120]	; (2f860 <flash_write_sr_temp+0xa8>)
   2f7e6:	400a      	ands	r2, r1
   2f7e8:	601a      	str	r2, [r3, #0]
   2f7ea:	6819      	ldr	r1, [r3, #0]
   2f7ec:	02a4      	lsls	r4, r4, #10
   2f7ee:	430c      	orrs	r4, r1
   2f7f0:	2180      	movs	r1, #128	; 0x80
   2f7f2:	0089      	lsls	r1, r1, #2
   2f7f4:	430c      	orrs	r4, r1
   2f7f6:	601c      	str	r4, [r3, #0]
   2f7f8:	4c1a      	ldr	r4, [pc, #104]	; (2f864 <flash_write_sr_temp+0xac>)
   2f7fa:	6823      	ldr	r3, [r4, #0]
   2f7fc:	2b00      	cmp	r3, #0
   2f7fe:	dbfc      	blt.n	2f7fa <flash_write_sr_temp+0x42>
   2f800:	f7ff ff9a 	bl	2f738 <get_flash_ID>
   2f804:	6833      	ldr	r3, [r6, #0]
   2f806:	4298      	cmp	r0, r3
   2f808:	d10c      	bne.n	2f824 <flash_write_sr_temp+0x6c>
   2f80a:	2d01      	cmp	r5, #1
   2f80c:	d11b      	bne.n	2f846 <flash_write_sr_temp+0x8e>
   2f80e:	4b16      	ldr	r3, [pc, #88]	; (2f868 <flash_write_sr_temp+0xb0>)
   2f810:	6023      	str	r3, [r4, #0]
   2f812:	6823      	ldr	r3, [r4, #0]
   2f814:	2b00      	cmp	r3, #0
   2f816:	dbfc      	blt.n	2f812 <flash_write_sr_temp+0x5a>
   2f818:	23fa      	movs	r3, #250	; 0xfa
   2f81a:	02db      	lsls	r3, r3, #11
   2f81c:	6023      	str	r3, [r4, #0]
   2f81e:	6823      	ldr	r3, [r4, #0]
   2f820:	2b00      	cmp	r3, #0
   2f822:	dbfc      	blt.n	2f81e <flash_write_sr_temp+0x66>
   2f824:	bd70      	pop	{r4, r5, r6, pc}
   2f826:	4a11      	ldr	r2, [pc, #68]	; (2f86c <flash_write_sr_temp+0xb4>)
   2f828:	4290      	cmp	r0, r2
   2f82a:	d006      	beq.n	2f83a <flash_write_sr_temp+0x82>
   2f82c:	4a10      	ldr	r2, [pc, #64]	; (2f870 <flash_write_sr_temp+0xb8>)
   2f82e:	1880      	adds	r0, r0, r2
   2f830:	2801      	cmp	r0, #1
   2f832:	d805      	bhi.n	2f840 <flash_write_sr_temp+0x88>
   2f834:	681a      	ldr	r2, [r3, #0]
   2f836:	490f      	ldr	r1, [pc, #60]	; (2f874 <flash_write_sr_temp+0xbc>)
   2f838:	e7d5      	b.n	2f7e6 <flash_write_sr_temp+0x2e>
   2f83a:	681a      	ldr	r2, [r3, #0]
   2f83c:	490e      	ldr	r1, [pc, #56]	; (2f878 <flash_write_sr_temp+0xc0>)
   2f83e:	e7d2      	b.n	2f7e6 <flash_write_sr_temp+0x2e>
   2f840:	681a      	ldr	r2, [r3, #0]
   2f842:	490e      	ldr	r1, [pc, #56]	; (2f87c <flash_write_sr_temp+0xc4>)
   2f844:	e7cf      	b.n	2f7e6 <flash_write_sr_temp+0x2e>
   2f846:	4b0e      	ldr	r3, [pc, #56]	; (2f880 <flash_write_sr_temp+0xc8>)
   2f848:	e7e2      	b.n	2f810 <flash_write_sr_temp+0x58>
   2f84a:	46c0      	nop			; (mov r8, r8)
   2f84c:	00402200 	.word	0x00402200
   2f850:	00c84013 	.word	0x00c84013
   2f854:	0080201c 	.word	0x0080201c
   2f858:	00856013 	.word	0x00856013
   2f85c:	ff3ddced 	.word	0xff3ddced
   2f860:	ffdf0fff 	.word	0xffdf0fff
   2f864:	00802000 	.word	0x00802000
   2f868:	6407d000 	.word	0x6407d000
   2f86c:	00cd6013 	.word	0x00cd6013
   2f870:	ff1fbfed 	.word	0xff1fbfed
   2f874:	fefe0fff 	.word	0xfefe0fff
   2f878:	fef00fff 	.word	0xfef00fff
   2f87c:	ffff0fff 	.word	0xffff0fff
   2f880:	6707d000 	.word	0x6707d000

0002f884 <rf_reset>:
   2f884:	4770      	bx	lr
	...

0002f888 <wdt_enable>:
   2f888:	2200      	movs	r2, #0
   2f88a:	4b04      	ldr	r3, [pc, #16]	; (2f89c <wdt_enable+0x14>)
   2f88c:	601a      	str	r2, [r3, #0]
   2f88e:	4a04      	ldr	r2, [pc, #16]	; (2f8a0 <wdt_enable+0x18>)
   2f890:	6010      	str	r0, [r2, #0]
   2f892:	225a      	movs	r2, #90	; 0x5a
   2f894:	601a      	str	r2, [r3, #0]
   2f896:	324b      	adds	r2, #75	; 0x4b
   2f898:	601a      	str	r2, [r3, #0]
   2f89a:	4770      	bx	lr
   2f89c:	00800c04 	.word	0x00800c04
   2f8a0:	00800c08 	.word	0x00800c08

0002f8a4 <bass_create>:
   2f8a4:	2200      	movs	r2, #0
   2f8a6:	68c3      	ldr	r3, [r0, #12]
   2f8a8:	185b      	adds	r3, r3, r1
   2f8aa:	775a      	strb	r2, [r3, #29]
   2f8ac:	4770      	bx	lr

0002f8ae <bass_cleanup>:
   2f8ae:	2200      	movs	r2, #0
   2f8b0:	68c3      	ldr	r3, [r0, #12]
   2f8b2:	185b      	adds	r3, r3, r1
   2f8b4:	775a      	strb	r2, [r3, #29]
   2f8b6:	4770      	bx	lr

0002f8b8 <diss_create>:
   2f8b8:	4770      	bx	lr

0002f8ba <diss_cleanup>:
   2f8ba:	4770      	bx	lr

0002f8bc <diss_value_to_handle>:
   2f8bc:	b530      	push	{r4, r5, lr}
   2f8be:	2200      	movs	r2, #0
   2f8c0:	2401      	movs	r4, #1
   2f8c2:	8983      	ldrh	r3, [r0, #12]
   2f8c4:	89c0      	ldrh	r0, [r0, #14]
   2f8c6:	3301      	adds	r3, #1
   2f8c8:	041b      	lsls	r3, r3, #16
   2f8ca:	0c1b      	lsrs	r3, r3, #16
   2f8cc:	0005      	movs	r5, r0
   2f8ce:	4115      	asrs	r5, r2
   2f8d0:	4225      	tst	r5, r4
   2f8d2:	d008      	beq.n	2f8e6 <diss_value_to_handle+0x2a>
   2f8d4:	428a      	cmp	r2, r1
   2f8d6:	d103      	bne.n	2f8e0 <diss_value_to_handle+0x24>
   2f8d8:	3301      	adds	r3, #1
   2f8da:	0418      	lsls	r0, r3, #16
   2f8dc:	0c00      	lsrs	r0, r0, #16
   2f8de:	bd30      	pop	{r4, r5, pc}
   2f8e0:	3302      	adds	r3, #2
   2f8e2:	041b      	lsls	r3, r3, #16
   2f8e4:	0c1b      	lsrs	r3, r3, #16
   2f8e6:	3201      	adds	r2, #1
   2f8e8:	2a09      	cmp	r2, #9
   2f8ea:	d1ef      	bne.n	2f8cc <diss_value_to_handle+0x10>
   2f8ec:	2000      	movs	r0, #0
   2f8ee:	e7f6      	b.n	2f8de <diss_value_to_handle+0x22>

0002f8f0 <fee0s_create>:
   2f8f0:	4a03      	ldr	r2, [pc, #12]	; (2f900 <fee0s_create+0x10>)
   2f8f2:	68c3      	ldr	r3, [r0, #12]
   2f8f4:	1889      	adds	r1, r1, r2
   2f8f6:	0049      	lsls	r1, r1, #1
   2f8f8:	1859      	adds	r1, r3, r1
   2f8fa:	2300      	movs	r3, #0
   2f8fc:	808b      	strh	r3, [r1, #4]
   2f8fe:	4770      	bx	lr
   2f900:	00000764 	.word	0x00000764

0002f904 <fee0s_cleanup>:
   2f904:	4a03      	ldr	r2, [pc, #12]	; (2f914 <fee0s_cleanup+0x10>)
   2f906:	68c3      	ldr	r3, [r0, #12]
   2f908:	1889      	adds	r1, r1, r2
   2f90a:	0049      	lsls	r1, r1, #1
   2f90c:	1859      	adds	r1, r3, r1
   2f90e:	2300      	movs	r3, #0
   2f910:	808b      	strh	r3, [r1, #4]
   2f912:	4770      	bx	lr
   2f914:	00000764 	.word	0x00000764

0002f918 <fee0s_get_att_idx>:
   2f918:	b570      	push	{r4, r5, r6, lr}
   2f91a:	0004      	movs	r4, r0
   2f91c:	2047      	movs	r0, #71	; 0x47
   2f91e:	000d      	movs	r5, r1
   2f920:	f7ff fe44 	bl	2f5ac <prf_env_get>
   2f924:	8a03      	ldrh	r3, [r0, #16]
   2f926:	2080      	movs	r0, #128	; 0x80
   2f928:	001a      	movs	r2, r3
   2f92a:	320d      	adds	r2, #13
   2f92c:	4294      	cmp	r4, r2
   2f92e:	dc02      	bgt.n	2f936 <fee0s_get_att_idx+0x1e>
   2f930:	2000      	movs	r0, #0
   2f932:	1ae4      	subs	r4, r4, r3
   2f934:	702c      	strb	r4, [r5, #0]
   2f936:	bd70      	pop	{r4, r5, r6, pc}

0002f938 <fcc0s_create>:
   2f938:	2282      	movs	r2, #130	; 0x82
   2f93a:	0092      	lsls	r2, r2, #2
   2f93c:	68c3      	ldr	r3, [r0, #12]
   2f93e:	1889      	adds	r1, r1, r2
   2f940:	0049      	lsls	r1, r1, #1
   2f942:	1859      	adds	r1, r3, r1
   2f944:	2300      	movs	r3, #0
   2f946:	808b      	strh	r3, [r1, #4]
   2f948:	4770      	bx	lr

0002f94a <fcc0s_cleanup>:
   2f94a:	2282      	movs	r2, #130	; 0x82
   2f94c:	0092      	lsls	r2, r2, #2
   2f94e:	68c3      	ldr	r3, [r0, #12]
   2f950:	1889      	adds	r1, r1, r2
   2f952:	0049      	lsls	r1, r1, #1
   2f954:	1859      	adds	r1, r3, r1
   2f956:	2300      	movs	r3, #0
   2f958:	808b      	strh	r3, [r1, #4]
   2f95a:	4770      	bx	lr

0002f95c <fcc0s_get_att_idx>:
   2f95c:	b570      	push	{r4, r5, r6, lr}
   2f95e:	0004      	movs	r4, r0
   2f960:	2048      	movs	r0, #72	; 0x48
   2f962:	000d      	movs	r5, r1
   2f964:	f7ff fe22 	bl	2f5ac <prf_env_get>
   2f968:	8a03      	ldrh	r3, [r0, #16]
   2f96a:	2080      	movs	r0, #128	; 0x80
   2f96c:	1d5a      	adds	r2, r3, #5
   2f96e:	4294      	cmp	r4, r2
   2f970:	dc02      	bgt.n	2f978 <fcc0s_get_att_idx+0x1c>
   2f972:	2000      	movs	r0, #0
   2f974:	1ae4      	subs	r4, r4, r3
   2f976:	702c      	strb	r4, [r5, #0]
   2f978:	bd70      	pop	{r4, r5, r6, pc}

0002f97a <oads_create>:
   2f97a:	68c3      	ldr	r3, [r0, #12]
   2f97c:	2000      	movs	r0, #0
   2f97e:	185a      	adds	r2, r3, r1
   2f980:	3120      	adds	r1, #32
   2f982:	0049      	lsls	r1, r1, #1
   2f984:	323d      	adds	r2, #61	; 0x3d
   2f986:	1859      	adds	r1, r3, r1
   2f988:	7010      	strb	r0, [r2, #0]
   2f98a:	8088      	strh	r0, [r1, #4]
   2f98c:	4770      	bx	lr

0002f98e <oads_cleanup>:
   2f98e:	68c3      	ldr	r3, [r0, #12]
   2f990:	2000      	movs	r0, #0
   2f992:	185a      	adds	r2, r3, r1
   2f994:	3120      	adds	r1, #32
   2f996:	0049      	lsls	r1, r1, #1
   2f998:	323d      	adds	r2, #61	; 0x3d
   2f99a:	1859      	adds	r1, r3, r1
   2f99c:	7010      	strb	r0, [r2, #0]
   2f99e:	8088      	strh	r0, [r1, #4]
   2f9a0:	4770      	bx	lr

0002f9a2 <sdp_enable_req_handler>:
   2f9a2:	2000      	movs	r0, #0
   2f9a4:	4770      	bx	lr

0002f9a6 <bass_get_att_idx.constprop.0>:
   2f9a6:	b5f0      	push	{r4, r5, r6, r7, lr}
   2f9a8:	0004      	movs	r4, r0
   2f9aa:	b085      	sub	sp, #20
   2f9ac:	2024      	movs	r0, #36	; 0x24
   2f9ae:	000d      	movs	r5, r1
   2f9b0:	0016      	movs	r6, r2
   2f9b2:	f7ff fdfb 	bl	2f5ac <prf_env_get>
   2f9b6:	2300      	movs	r3, #0
   2f9b8:	8b02      	ldrh	r2, [r0, #24]
   2f9ba:	702b      	strb	r3, [r5, #0]
   2f9bc:	1d83      	adds	r3, r0, #6
   2f9be:	9302      	str	r3, [sp, #8]
   2f9c0:	1d43      	adds	r3, r0, #5
   2f9c2:	9303      	str	r3, [sp, #12]
   2f9c4:	2301      	movs	r3, #1
   2f9c6:	469c      	mov	ip, r3
   2f9c8:	9b02      	ldr	r3, [sp, #8]
   2f9ca:	7829      	ldrb	r1, [r5, #0]
   2f9cc:	7fdf      	ldrb	r7, [r3, #31]
   2f9ce:	42b9      	cmp	r1, r7
   2f9d0:	d201      	bcs.n	2f9d6 <bass_get_att_idx.constprop.0+0x30>
   2f9d2:	4294      	cmp	r4, r2
   2f9d4:	d201      	bcs.n	2f9da <bass_get_att_idx.constprop.0+0x34>
   2f9d6:	2080      	movs	r0, #128	; 0x80
   2f9d8:	e006      	b.n	2f9e8 <bass_get_att_idx.constprop.0+0x42>
   2f9da:	1c93      	adds	r3, r2, #2
   2f9dc:	9301      	str	r3, [sp, #4]
   2f9de:	429c      	cmp	r4, r3
   2f9e0:	dc04      	bgt.n	2f9ec <bass_get_att_idx.constprop.0+0x46>
   2f9e2:	1aa2      	subs	r2, r4, r2
   2f9e4:	7032      	strb	r2, [r6, #0]
   2f9e6:	2000      	movs	r0, #0
   2f9e8:	b005      	add	sp, #20
   2f9ea:	bdf0      	pop	{r4, r5, r6, r7, pc}
   2f9ec:	9803      	ldr	r0, [sp, #12]
   2f9ee:	4663      	mov	r3, ip
   2f9f0:	7fc0      	ldrb	r0, [r0, #31]
   2f9f2:	4108      	asrs	r0, r1
   2f9f4:	4218      	tst	r0, r3
   2f9f6:	d007      	beq.n	2fa08 <bass_get_att_idx.constprop.0+0x62>
   2f9f8:	3203      	adds	r2, #3
   2f9fa:	0412      	lsls	r2, r2, #16
   2f9fc:	0c12      	lsrs	r2, r2, #16
   2f9fe:	4294      	cmp	r4, r2
   2fa00:	d105      	bne.n	2fa0e <bass_get_att_idx.constprop.0+0x68>
   2fa02:	2303      	movs	r3, #3
   2fa04:	7033      	strb	r3, [r6, #0]
   2fa06:	e7ee      	b.n	2f9e6 <bass_get_att_idx.constprop.0+0x40>
   2fa08:	9b01      	ldr	r3, [sp, #4]
   2fa0a:	041a      	lsls	r2, r3, #16
   2fa0c:	0c12      	lsrs	r2, r2, #16
   2fa0e:	2f01      	cmp	r7, #1
   2fa10:	d906      	bls.n	2fa20 <bass_get_att_idx.constprop.0+0x7a>
   2fa12:	3201      	adds	r2, #1
   2fa14:	0412      	lsls	r2, r2, #16
   2fa16:	0c12      	lsrs	r2, r2, #16
   2fa18:	4294      	cmp	r4, r2
   2fa1a:	d101      	bne.n	2fa20 <bass_get_att_idx.constprop.0+0x7a>
   2fa1c:	2304      	movs	r3, #4
   2fa1e:	e7f1      	b.n	2fa04 <bass_get_att_idx.constprop.0+0x5e>
   2fa20:	3201      	adds	r2, #1
   2fa22:	0412      	lsls	r2, r2, #16
   2fa24:	3101      	adds	r1, #1
   2fa26:	0c12      	lsrs	r2, r2, #16
   2fa28:	7029      	strb	r1, [r5, #0]
   2fa2a:	e7cd      	b.n	2f9c8 <bass_get_att_idx.constprop.0+0x22>

0002fa2c <prf_dst_task_get.isra.0>:
   2fa2c:	0003      	movs	r3, r0
   2fa2e:	0440      	lsls	r0, r0, #17
   2fa30:	041b      	lsls	r3, r3, #16
   2fa32:	0c40      	lsrs	r0, r0, #17
   2fa34:	141b      	asrs	r3, r3, #16
   2fa36:	d501      	bpl.n	2fa3c <prf_dst_task_get.isra.0+0x10>
   2fa38:	0209      	lsls	r1, r1, #8
   2fa3a:	4308      	orrs	r0, r1
   2fa3c:	4770      	bx	lr

0002fa3e <prf_src_task_get.isra.0>:
   2fa3e:	0003      	movs	r3, r0
   2fa40:	0440      	lsls	r0, r0, #17
   2fa42:	041b      	lsls	r3, r3, #16
   2fa44:	0c40      	lsrs	r0, r0, #17
   2fa46:	141b      	asrs	r3, r3, #16
   2fa48:	d501      	bpl.n	2fa4e <prf_src_task_get.isra.0+0x10>
   2fa4a:	0209      	lsls	r1, r1, #8
   2fa4c:	4308      	orrs	r0, r1
   2fa4e:	4770      	bx	lr

0002fa50 <flash_read_data>:
   2fa50:	b5f0      	push	{r4, r5, r6, r7, lr}
   2fa52:	0006      	movs	r6, r0
   2fa54:	000c      	movs	r4, r1
   2fa56:	0015      	movs	r5, r2
   2fa58:	b08d      	sub	sp, #52	; 0x34
   2fa5a:	2a00      	cmp	r2, #0
   2fa5c:	d049      	beq.n	2faf2 <flash_read_data+0xa2>
   2fa5e:	f00e fa29 	bl	3deb4 <____disable_fiq_from_thumb>
   2fa62:	9002      	str	r0, [sp, #8]
   2fa64:	f00e fa48 	bl	3def8 <____disable_irq_from_thumb>
   2fa68:	4b23      	ldr	r3, [pc, #140]	; (2faf8 <flash_read_data+0xa8>)
   2fa6a:	9003      	str	r0, [sp, #12]
   2fa6c:	681a      	ldr	r2, [r3, #0]
   2fa6e:	2a00      	cmp	r2, #0
   2fa70:	dbfc      	blt.n	2fa6c <flash_read_data+0x1c>
   2fa72:	0021      	movs	r1, r4
   2fa74:	221f      	movs	r2, #31
   2fa76:	4391      	bics	r1, r2
   2fa78:	9101      	str	r1, [sp, #4]
   2fa7a:	2294      	movs	r2, #148	; 0x94
   2fa7c:	9901      	ldr	r1, [sp, #4]
   2fa7e:	0592      	lsls	r2, r2, #22
   2fa80:	430a      	orrs	r2, r1
   2fa82:	601a      	str	r2, [r3, #0]
   2fa84:	681a      	ldr	r2, [r3, #0]
   2fa86:	2a00      	cmp	r2, #0
   2fa88:	dbfc      	blt.n	2fa84 <flash_read_data+0x34>
   2fa8a:	9a01      	ldr	r2, [sp, #4]
   2fa8c:	3220      	adds	r2, #32
   2fa8e:	9201      	str	r2, [sp, #4]
   2fa90:	2200      	movs	r2, #0
   2fa92:	491a      	ldr	r1, [pc, #104]	; (2fafc <flash_read_data+0xac>)
   2fa94:	af04      	add	r7, sp, #16
   2fa96:	6808      	ldr	r0, [r1, #0]
   2fa98:	4684      	mov	ip, r0
   2fa9a:	4661      	mov	r1, ip
   2fa9c:	0090      	lsls	r0, r2, #2
   2fa9e:	3201      	adds	r2, #1
   2faa0:	51c1      	str	r1, [r0, r7]
   2faa2:	2a08      	cmp	r2, #8
   2faa4:	d1f5      	bne.n	2fa92 <flash_read_data+0x42>
   2faa6:	3217      	adds	r2, #23
   2faa8:	4022      	ands	r2, r4
   2faaa:	a904      	add	r1, sp, #16
   2faac:	5c51      	ldrb	r1, [r2, r1]
   2faae:	3d01      	subs	r5, #1
   2fab0:	7031      	strb	r1, [r6, #0]
   2fab2:	3401      	adds	r4, #1
   2fab4:	3601      	adds	r6, #1
   2fab6:	2d00      	cmp	r5, #0
   2fab8:	d003      	beq.n	2fac2 <flash_read_data+0x72>
   2faba:	3201      	adds	r2, #1
   2fabc:	2a20      	cmp	r2, #32
   2fabe:	d1f4      	bne.n	2faaa <flash_read_data+0x5a>
   2fac0:	e7db      	b.n	2fa7a <flash_read_data+0x2a>
   2fac2:	22fa      	movs	r2, #250	; 0xfa
   2fac4:	02d2      	lsls	r2, r2, #11
   2fac6:	601a      	str	r2, [r3, #0]
   2fac8:	2201      	movs	r2, #1
   2faca:	4b0d      	ldr	r3, [pc, #52]	; (2fb00 <flash_read_data+0xb0>)
   2facc:	4252      	negs	r2, r2
   2face:	601a      	str	r2, [r3, #0]
   2fad0:	601a      	str	r2, [r3, #0]
   2fad2:	601a      	str	r2, [r3, #0]
   2fad4:	601a      	str	r2, [r3, #0]
   2fad6:	601a      	str	r2, [r3, #0]
   2fad8:	601a      	str	r2, [r3, #0]
   2fada:	601a      	str	r2, [r3, #0]
   2fadc:	601a      	str	r2, [r3, #0]
   2fade:	9b02      	ldr	r3, [sp, #8]
   2fae0:	2b00      	cmp	r3, #0
   2fae2:	d101      	bne.n	2fae8 <flash_read_data+0x98>
   2fae4:	f00e f9bc 	bl	3de60 <____enable_fiq_from_thumb>
   2fae8:	9b03      	ldr	r3, [sp, #12]
   2faea:	2b00      	cmp	r3, #0
   2faec:	d101      	bne.n	2faf2 <flash_read_data+0xa2>
   2faee:	f00e f9cf 	bl	3de90 <____enable_irq_from_thumb>
   2faf2:	b00d      	add	sp, #52	; 0x34
   2faf4:	bdf0      	pop	{r4, r5, r6, r7, pc}
   2faf6:	46c0      	nop			; (mov r8, r8)
   2faf8:	00802000 	.word	0x00802000
   2fafc:	00802008 	.word	0x00802008
   2fb00:	00802004 	.word	0x00802004

0002fb04 <flash_read.constprop.0.isra.0>:
   2fb04:	b5f8      	push	{r3, r4, r5, r6, r7, lr}
   2fb06:	1847      	adds	r7, r0, r1
   2fb08:	23ff      	movs	r3, #255	; 0xff
   2fb0a:	0014      	movs	r4, r2
   2fb0c:	003e      	movs	r6, r7
   2fb0e:	0002      	movs	r2, r0
   2fb10:	439e      	bics	r6, r3
   2fb12:	439a      	bics	r2, r3
   2fb14:	42b2      	cmp	r2, r6
   2fb16:	d00b      	beq.n	2fb30 <flash_read.constprop.0.isra.0+0x2c>
   2fb18:	1a35      	subs	r5, r6, r0
   2fb1a:	0001      	movs	r1, r0
   2fb1c:	002a      	movs	r2, r5
   2fb1e:	0020      	movs	r0, r4
   2fb20:	f7ff ff96 	bl	2fa50 <flash_read_data>
   2fb24:	0031      	movs	r1, r6
   2fb26:	1bba      	subs	r2, r7, r6
   2fb28:	1960      	adds	r0, r4, r5
   2fb2a:	f7ff ff91 	bl	2fa50 <flash_read_data>
   2fb2e:	bdf8      	pop	{r3, r4, r5, r6, r7, pc}
   2fb30:	000a      	movs	r2, r1
   2fb32:	0001      	movs	r1, r0
   2fb34:	0020      	movs	r0, r4
   2fb36:	e7f8      	b.n	2fb2a <flash_read.constprop.0.isra.0+0x26>

0002fb38 <nvds_read>:
   2fb38:	b510      	push	{r4, lr}
   2fb3a:	f7ff ffe3 	bl	2fb04 <flash_read.constprop.0.isra.0>
   2fb3e:	bd10      	pop	{r4, pc}

0002fb40 <gapm_gen_rand_nb_ind_handler>:
   2fb40:	4808      	ldr	r0, [pc, #32]	; (2fb64 <gapm_gen_rand_nb_ind_handler+0x24>)
   2fb42:	b510      	push	{r4, lr}
   2fb44:	0003      	movs	r3, r0
   2fb46:	332f      	adds	r3, #47	; 0x2f
   2fb48:	781b      	ldrb	r3, [r3, #0]
   2fb4a:	2b01      	cmp	r3, #1
   2fb4c:	d105      	bne.n	2fb5a <gapm_gen_rand_nb_ind_handler+0x1a>
   2fb4e:	301e      	adds	r0, #30
   2fb50:	2208      	movs	r2, #8
   2fb52:	f006 fac3 	bl	360dc <memcpy>
   2fb56:	2000      	movs	r0, #0
   2fb58:	bd10      	pop	{r4, pc}
   2fb5a:	2b02      	cmp	r3, #2
   2fb5c:	d1fb      	bne.n	2fb56 <gapm_gen_rand_nb_ind_handler+0x16>
   2fb5e:	3026      	adds	r0, #38	; 0x26
   2fb60:	e7f6      	b.n	2fb50 <gapm_gen_rand_nb_ind_handler+0x10>
   2fb62:	46c0      	nop			; (mov r8, r8)
   2fb64:	00401976 	.word	0x00401976

0002fb68 <oad_save_reciveData>:
   2fb68:	b510      	push	{r4, lr}
   2fb6a:	4c07      	ldr	r4, [pc, #28]	; (2fb88 <oad_save_reciveData+0x20>)
   2fb6c:	1c81      	adds	r1, r0, #2
   2fb6e:	69a3      	ldr	r3, [r4, #24]
   2fb70:	1c5a      	adds	r2, r3, #1
   2fb72:	011b      	lsls	r3, r3, #4
   2fb74:	331e      	adds	r3, #30
   2fb76:	191b      	adds	r3, r3, r4
   2fb78:	61a2      	str	r2, [r4, #24]
   2fb7a:	0018      	movs	r0, r3
   2fb7c:	2210      	movs	r2, #16
   2fb7e:	f006 faad 	bl	360dc <memcpy>
   2fb82:	2301      	movs	r3, #1
   2fb84:	7723      	strb	r3, [r4, #28]
   2fb86:	bd10      	pop	{r4, pc}
   2fb88:	004019e4 	.word	0x004019e4

0002fb8c <nvds_put>:
   2fb8c:	b5f0      	push	{r4, r5, r6, r7, lr}
   2fb8e:	4c4f      	ldr	r4, [pc, #316]	; (2fccc <nvds_put+0x140>)
   2fb90:	4b4f      	ldr	r3, [pc, #316]	; (2fcd0 <nvds_put+0x144>)
   2fb92:	44a5      	add	sp, r4
   2fb94:	9308      	str	r3, [sp, #32]
   2fb96:	2300      	movs	r3, #0
   2fb98:	9002      	str	r0, [sp, #8]
   2fb9a:	9100      	str	r1, [sp, #0]
   2fb9c:	9203      	str	r2, [sp, #12]
   2fb9e:	9301      	str	r3, [sp, #4]
   2fba0:	9c08      	ldr	r4, [sp, #32]
   2fba2:	ae06      	add	r6, sp, #24
   2fba4:	0031      	movs	r1, r6
   2fba6:	0020      	movs	r0, r4
   2fba8:	aa08      	add	r2, sp, #32
   2fbaa:	f7ff fc19 	bl	2f3e0 <nvds_walk_tag>
   2fbae:	1e05      	subs	r5, r0, #0
   2fbb0:	d15d      	bne.n	2fc6e <nvds_put+0xe2>
   2fbb2:	2205      	movs	r2, #5
   2fbb4:	7873      	ldrb	r3, [r6, #1]
   2fbb6:	401a      	ands	r2, r3
   2fbb8:	2a04      	cmp	r2, #4
   2fbba:	d1f1      	bne.n	2fba0 <nvds_put+0x14>
   2fbbc:	7832      	ldrb	r2, [r6, #0]
   2fbbe:	9902      	ldr	r1, [sp, #8]
   2fbc0:	428a      	cmp	r2, r1
   2fbc2:	d11e      	bne.n	2fc02 <nvds_put+0x76>
   2fbc4:	2202      	movs	r2, #2
   2fbc6:	4213      	tst	r3, r2
   2fbc8:	d020      	beq.n	2fc0c <nvds_put+0x80>
   2fbca:	4f42      	ldr	r7, [pc, #264]	; (2fcd4 <nvds_put+0x148>)
   2fbcc:	aa0a      	add	r2, sp, #40	; 0x28
   2fbce:	683b      	ldr	r3, [r7, #0]
   2fbd0:	78b1      	ldrb	r1, [r6, #2]
   2fbd2:	1ce0      	adds	r0, r4, #3
   2fbd4:	4798      	blx	r3
   2fbd6:	78b3      	ldrb	r3, [r6, #2]
   2fbd8:	9a00      	ldr	r2, [sp, #0]
   2fbda:	4293      	cmp	r3, r2
   2fbdc:	d105      	bne.n	2fbea <nvds_put+0x5e>
   2fbde:	9803      	ldr	r0, [sp, #12]
   2fbe0:	a90a      	add	r1, sp, #40	; 0x28
   2fbe2:	f7fa fd57 	bl	2a694 <memcmp>
   2fbe6:	2800      	cmp	r0, #0
   2fbe8:	d03c      	beq.n	2fc64 <nvds_put+0xd8>
   2fbea:	2104      	movs	r1, #4
   2fbec:	ab04      	add	r3, sp, #16
   2fbee:	1dda      	adds	r2, r3, #7
   2fbf0:	ab06      	add	r3, sp, #24
   2fbf2:	785b      	ldrb	r3, [r3, #1]
   2fbf4:	1c60      	adds	r0, r4, #1
   2fbf6:	438b      	bics	r3, r1
   2fbf8:	7013      	strb	r3, [r2, #0]
   2fbfa:	3903      	subs	r1, #3
   2fbfc:	687b      	ldr	r3, [r7, #4]
   2fbfe:	4798      	blx	r3
   2fc00:	e7ce      	b.n	2fba0 <nvds_put+0x14>
   2fc02:	78b3      	ldrb	r3, [r6, #2]
   2fc04:	9a01      	ldr	r2, [sp, #4]
   2fc06:	3303      	adds	r3, #3
   2fc08:	18d3      	adds	r3, r2, r3
   2fc0a:	e7c8      	b.n	2fb9e <nvds_put+0x12>
   2fc0c:	2505      	movs	r5, #5
   2fc0e:	e029      	b.n	2fc64 <nvds_put+0xd8>
   2fc10:	f7ff fc5c 	bl	2f4cc <nvds_init_memory>
   2fc14:	4d2f      	ldr	r5, [pc, #188]	; (2fcd4 <nvds_put+0x148>)
   2fc16:	aa4a      	add	r2, sp, #296	; 0x128
   2fc18:	686b      	ldr	r3, [r5, #4]
   2fc1a:	0031      	movs	r1, r6
   2fc1c:	482c      	ldr	r0, [pc, #176]	; (2fcd0 <nvds_put+0x144>)
   2fc1e:	4798      	blx	r3
   2fc20:	4b2b      	ldr	r3, [pc, #172]	; (2fcd0 <nvds_put+0x144>)
   2fc22:	4a2d      	ldr	r2, [pc, #180]	; (2fcd8 <nvds_put+0x14c>)
   2fc24:	469c      	mov	ip, r3
   2fc26:	9b00      	ldr	r3, [sp, #0]
   2fc28:	9c01      	ldr	r4, [sp, #4]
   2fc2a:	189a      	adds	r2, r3, r2
   2fc2c:	692b      	ldr	r3, [r5, #16]
   2fc2e:	4464      	add	r4, ip
   2fc30:	1912      	adds	r2, r2, r4
   2fc32:	3b01      	subs	r3, #1
   2fc34:	2503      	movs	r5, #3
   2fc36:	429a      	cmp	r2, r3
   2fc38:	d814      	bhi.n	2fc64 <nvds_put+0xd8>
   2fc3a:	4d26      	ldr	r5, [pc, #152]	; (2fcd4 <nvds_put+0x148>)
   2fc3c:	9a03      	ldr	r2, [sp, #12]
   2fc3e:	686b      	ldr	r3, [r5, #4]
   2fc40:	9900      	ldr	r1, [sp, #0]
   2fc42:	1ce0      	adds	r0, r4, #3
   2fc44:	4798      	blx	r3
   2fc46:	9a02      	ldr	r2, [sp, #8]
   2fc48:	ab04      	add	r3, sp, #16
   2fc4a:	721a      	strb	r2, [r3, #8]
   2fc4c:	2306      	movs	r3, #6
   2fc4e:	aa04      	add	r2, sp, #16
   2fc50:	7253      	strb	r3, [r2, #9]
   2fc52:	0013      	movs	r3, r2
   2fc54:	9a00      	ldr	r2, [sp, #0]
   2fc56:	2103      	movs	r1, #3
   2fc58:	729a      	strb	r2, [r3, #10]
   2fc5a:	0020      	movs	r0, r4
   2fc5c:	686b      	ldr	r3, [r5, #4]
   2fc5e:	aa06      	add	r2, sp, #24
   2fc60:	4798      	blx	r3
   2fc62:	2500      	movs	r5, #0
   2fc64:	0028      	movs	r0, r5
   2fc66:	23cb      	movs	r3, #203	; 0xcb
   2fc68:	009b      	lsls	r3, r3, #2
   2fc6a:	449d      	add	sp, r3
   2fc6c:	bdf0      	pop	{r4, r5, r6, r7, pc}
   2fc6e:	9b00      	ldr	r3, [sp, #0]
   2fc70:	4a1a      	ldr	r2, [pc, #104]	; (2fcdc <nvds_put+0x150>)
   2fc72:	189a      	adds	r2, r3, r2
   2fc74:	4b17      	ldr	r3, [pc, #92]	; (2fcd4 <nvds_put+0x148>)
   2fc76:	1912      	adds	r2, r2, r4
   2fc78:	691b      	ldr	r3, [r3, #16]
   2fc7a:	3b01      	subs	r3, #1
   2fc7c:	429a      	cmp	r2, r3
   2fc7e:	d9dc      	bls.n	2fc3a <nvds_put+0xae>
   2fc80:	2600      	movs	r6, #0
   2fc82:	4b13      	ldr	r3, [pc, #76]	; (2fcd0 <nvds_put+0x144>)
   2fc84:	ac4a      	add	r4, sp, #296	; 0x128
   2fc86:	9309      	str	r3, [sp, #36]	; 0x24
   2fc88:	9d09      	ldr	r5, [sp, #36]	; 0x24
   2fc8a:	aa09      	add	r2, sp, #36	; 0x24
   2fc8c:	0028      	movs	r0, r5
   2fc8e:	a907      	add	r1, sp, #28
   2fc90:	f7ff fba6 	bl	2f3e0 <nvds_walk_tag>
   2fc94:	2800      	cmp	r0, #0
   2fc96:	d1bb      	bne.n	2fc10 <nvds_put+0x84>
   2fc98:	2205      	movs	r2, #5
   2fc9a:	ab04      	add	r3, sp, #16
   2fc9c:	7b5b      	ldrb	r3, [r3, #13]
   2fc9e:	4013      	ands	r3, r2
   2fca0:	2b04      	cmp	r3, #4
   2fca2:	d1f1      	bne.n	2fc88 <nvds_put+0xfc>
   2fca4:	ab04      	add	r3, sp, #16
   2fca6:	7b9f      	ldrb	r7, [r3, #14]
   2fca8:	0020      	movs	r0, r4
   2fcaa:	1cfb      	adds	r3, r7, #3
   2fcac:	3a02      	subs	r2, #2
   2fcae:	a907      	add	r1, sp, #28
   2fcb0:	18f6      	adds	r6, r6, r3
   2fcb2:	f006 fa13 	bl	360dc <memcpy>
   2fcb6:	4b07      	ldr	r3, [pc, #28]	; (2fcd4 <nvds_put+0x148>)
   2fcb8:	3403      	adds	r4, #3
   2fcba:	0022      	movs	r2, r4
   2fcbc:	681b      	ldr	r3, [r3, #0]
   2fcbe:	0039      	movs	r1, r7
   2fcc0:	1ce8      	adds	r0, r5, #3
   2fcc2:	4798      	blx	r3
   2fcc4:	ab04      	add	r3, sp, #16
   2fcc6:	7b9b      	ldrb	r3, [r3, #14]
   2fcc8:	18e4      	adds	r4, r4, r3
   2fcca:	e7dd      	b.n	2fc88 <nvds_put+0xfc>
   2fccc:	fffffcd4 	.word	0xfffffcd4
   2fcd0:	0007f004 	.word	0x0007f004
   2fcd4:	00402320 	.word	0x00402320
   2fcd8:	fff81003 	.word	0xfff81003
   2fcdc:	fff81006 	.word	0xfff81006

0002fce0 <fee4_val_upd_rsp_handler>:
   2fce0:	b510      	push	{r4, lr}
   2fce2:	7849      	ldrb	r1, [r1, #1]
   2fce4:	0018      	movs	r0, r3
   2fce6:	2900      	cmp	r1, #0
   2fce8:	d101      	bne.n	2fcee <fee4_val_upd_rsp_handler+0xe>
   2fcea:	f7f7 fc6f 	bl	275cc <ke_state_set>
   2fcee:	2000      	movs	r0, #0
   2fcf0:	bd10      	pop	{r4, pc}

0002fcf2 <sdp_create>:
   2fcf2:	b510      	push	{r4, lr}
   2fcf4:	8a00      	ldrh	r0, [r0, #16]
   2fcf6:	0209      	lsls	r1, r1, #8
   2fcf8:	4308      	orrs	r0, r1
   2fcfa:	2101      	movs	r1, #1
   2fcfc:	f7f7 fc66 	bl	275cc <ke_state_set>
   2fd00:	bd10      	pop	{r4, pc}
	...

0002fd04 <app_batt_add_bas>:
   2fd04:	b510      	push	{r4, lr}
   2fd06:	2320      	movs	r3, #32
   2fd08:	2203      	movs	r2, #3
   2fd0a:	2107      	movs	r1, #7
   2fd0c:	4806      	ldr	r0, [pc, #24]	; (2fd28 <app_batt_add_bas+0x24>)
   2fd0e:	f7f6 ffa5 	bl	26c5c <ke_msg_alloc>
   2fd12:	4b06      	ldr	r3, [pc, #24]	; (2fd2c <app_batt_add_bas+0x28>)
   2fd14:	6003      	str	r3, [r0, #0]
   2fd16:	2303      	movs	r3, #3
   2fd18:	6043      	str	r3, [r0, #4]
   2fd1a:	2302      	movs	r3, #2
   2fd1c:	33ff      	adds	r3, #255	; 0xff
   2fd1e:	8183      	strh	r3, [r0, #12]
   2fd20:	f7f6 ffb6 	bl	26c90 <ke_msg_send>
   2fd24:	bd10      	pop	{r4, pc}
   2fd26:	46c0      	nop			; (mov r8, r8)
   2fd28:	00000d1b 	.word	0x00000d1b
   2fd2c:	0024001b 	.word	0x0024001b

0002fd30 <diss_value_req_ind_handler>:
   2fd30:	b5f8      	push	{r3, r4, r5, r6, r7, lr}
   2fd32:	000e      	movs	r6, r1
   2fd34:	2700      	movs	r7, #0
   2fd36:	7830      	ldrb	r0, [r6, #0]
   2fd38:	0019      	movs	r1, r3
   2fd3a:	003d      	movs	r5, r7
   2fd3c:	2808      	cmp	r0, #8
   2fd3e:	d804      	bhi.n	2fd4a <diss_value_req_ind_handler+0x1a>
   2fd40:	4b0d      	ldr	r3, [pc, #52]	; (2fd78 <diss_value_req_ind_handler+0x48>)
   2fd42:	5c1d      	ldrb	r5, [r3, r0]
   2fd44:	4b0d      	ldr	r3, [pc, #52]	; (2fd7c <diss_value_req_ind_handler+0x4c>)
   2fd46:	0080      	lsls	r0, r0, #2
   2fd48:	58c7      	ldr	r7, [r0, r3]
   2fd4a:	1cab      	adds	r3, r5, #2
   2fd4c:	061b      	lsls	r3, r3, #24
   2fd4e:	0e1b      	lsrs	r3, r3, #24
   2fd50:	480b      	ldr	r0, [pc, #44]	; (2fd80 <diss_value_req_ind_handler+0x50>)
   2fd52:	f7f6 ff83 	bl	26c5c <ke_msg_alloc>
   2fd56:	7833      	ldrb	r3, [r6, #0]
   2fd58:	0004      	movs	r4, r0
   2fd5a:	7003      	strb	r3, [r0, #0]
   2fd5c:	7045      	strb	r5, [r0, #1]
   2fd5e:	2d00      	cmp	r5, #0
   2fd60:	d004      	beq.n	2fd6c <diss_value_req_ind_handler+0x3c>
   2fd62:	002a      	movs	r2, r5
   2fd64:	0039      	movs	r1, r7
   2fd66:	3002      	adds	r0, #2
   2fd68:	f006 f9b8 	bl	360dc <memcpy>
   2fd6c:	0020      	movs	r0, r4
   2fd6e:	f7f6 ff8f 	bl	26c90 <ke_msg_send>
   2fd72:	2000      	movs	r0, #0
   2fd74:	bdf8      	pop	{r3, r4, r5, r6, r7, pc}
   2fd76:	46c0      	nop			; (mov r8, r8)
   2fd78:	0003f1dc 	.word	0x0003f1dc
   2fd7c:	0003f1e8 	.word	0x0003f1e8
   2fd80:	00001403 	.word	0x00001403

0002fd84 <app_dis_add_dis>:
   2fd84:	b510      	push	{r4, lr}
   2fd86:	230e      	movs	r3, #14
   2fd88:	2203      	movs	r2, #3
   2fd8a:	2107      	movs	r1, #7
   2fd8c:	4805      	ldr	r0, [pc, #20]	; (2fda4 <app_dis_add_dis+0x20>)
   2fd8e:	f7f6 ff65 	bl	26c5c <ke_msg_alloc>
   2fd92:	4b05      	ldr	r3, [pc, #20]	; (2fda8 <app_dis_add_dis+0x24>)
   2fd94:	6003      	str	r3, [r0, #0]
   2fd96:	2303      	movs	r3, #3
   2fd98:	6043      	str	r3, [r0, #4]
   2fd9a:	4b04      	ldr	r3, [pc, #16]	; (2fdac <app_dis_add_dis+0x28>)
   2fd9c:	8183      	strh	r3, [r0, #12]
   2fd9e:	f7f6 ff77 	bl	26c90 <ke_msg_send>
   2fda2:	bd10      	pop	{r4, pc}
   2fda4:	00000d1b 	.word	0x00000d1b
   2fda8:	0014001b 	.word	0x0014001b
   2fdac:	000001ff 	.word	0x000001ff

0002fdb0 <gapc_get_dev_info_req_ind_handler>:
   2fdb0:	b570      	push	{r4, r5, r6, lr}
   2fdb2:	000c      	movs	r4, r1
   2fdb4:	0019      	movs	r1, r3
   2fdb6:	7823      	ldrb	r3, [r4, #0]
   2fdb8:	2b01      	cmp	r3, #1
   2fdba:	d018      	beq.n	2fdee <gapc_get_dev_info_req_ind_handler+0x3e>
   2fdbc:	2b02      	cmp	r3, #2
   2fdbe:	d01f      	beq.n	2fe00 <gapc_get_dev_info_req_ind_handler+0x50>
   2fdc0:	2b00      	cmp	r3, #0
   2fdc2:	d112      	bne.n	2fdea <gapc_get_dev_info_req_ind_handler+0x3a>
   2fdc4:	331c      	adds	r3, #28
   2fdc6:	4816      	ldr	r0, [pc, #88]	; (2fe20 <gapc_get_dev_info_req_ind_handler+0x70>)
   2fdc8:	f7f6 ff48 	bl	26c5c <ke_msg_alloc>
   2fdcc:	7823      	ldrb	r3, [r4, #0]
   2fdce:	4c15      	ldr	r4, [pc, #84]	; (2fe24 <gapc_get_dev_info_req_ind_handler+0x74>)
   2fdd0:	0005      	movs	r5, r0
   2fdd2:	0021      	movs	r1, r4
   2fdd4:	7003      	strb	r3, [r0, #0]
   2fdd6:	7ae2      	ldrb	r2, [r4, #11]
   2fdd8:	3004      	adds	r0, #4
   2fdda:	310c      	adds	r1, #12
   2fddc:	f006 f97e 	bl	360dc <memcpy>
   2fde0:	0028      	movs	r0, r5
   2fde2:	7ae3      	ldrb	r3, [r4, #11]
   2fde4:	806b      	strh	r3, [r5, #2]
   2fde6:	f7f6 ff53 	bl	26c90 <ke_msg_send>
   2fdea:	2000      	movs	r0, #0
   2fdec:	bd70      	pop	{r4, r5, r6, pc}
   2fdee:	230a      	movs	r3, #10
   2fdf0:	480b      	ldr	r0, [pc, #44]	; (2fe20 <gapc_get_dev_info_req_ind_handler+0x70>)
   2fdf2:	f7f6 ff33 	bl	26c5c <ke_msg_alloc>
   2fdf6:	7823      	ldrb	r3, [r4, #0]
   2fdf8:	7003      	strb	r3, [r0, #0]
   2fdfa:	2300      	movs	r3, #0
   2fdfc:	8043      	strh	r3, [r0, #2]
   2fdfe:	e7f2      	b.n	2fde6 <gapc_get_dev_info_req_ind_handler+0x36>
   2fe00:	230a      	movs	r3, #10
   2fe02:	4807      	ldr	r0, [pc, #28]	; (2fe20 <gapc_get_dev_info_req_ind_handler+0x70>)
   2fe04:	f7f6 ff2a 	bl	26c5c <ke_msg_alloc>
   2fe08:	7823      	ldrb	r3, [r4, #0]
   2fe0a:	7003      	strb	r3, [r0, #0]
   2fe0c:	233c      	movs	r3, #60	; 0x3c
   2fe0e:	8043      	strh	r3, [r0, #2]
   2fe10:	3328      	adds	r3, #40	; 0x28
   2fe12:	8083      	strh	r3, [r0, #4]
   2fe14:	2300      	movs	r3, #0
   2fe16:	80c3      	strh	r3, [r0, #6]
   2fe18:	2396      	movs	r3, #150	; 0x96
   2fe1a:	009b      	lsls	r3, r3, #2
   2fe1c:	8103      	strh	r3, [r0, #8]
   2fe1e:	e7e2      	b.n	2fde6 <gapc_get_dev_info_req_ind_handler+0x36>
   2fe20:	00000e0b 	.word	0x00000e0b
   2fe24:	00401976 	.word	0x00401976

0002fe28 <gapc_set_dev_info_req_ind_handler>:
   2fe28:	b510      	push	{r4, lr}
   2fe2a:	4807      	ldr	r0, [pc, #28]	; (2fe48 <gapc_set_dev_info_req_ind_handler+0x20>)
   2fe2c:	000c      	movs	r4, r1
   2fe2e:	0019      	movs	r1, r3
   2fe30:	2302      	movs	r3, #2
   2fe32:	f7f6 ff13 	bl	26c5c <ke_msg_alloc>
   2fe36:	2348      	movs	r3, #72	; 0x48
   2fe38:	7043      	strb	r3, [r0, #1]
   2fe3a:	7823      	ldrb	r3, [r4, #0]
   2fe3c:	7003      	strb	r3, [r0, #0]
   2fe3e:	f7f6 ff27 	bl	26c90 <ke_msg_send>
   2fe42:	2000      	movs	r0, #0
   2fe44:	bd10      	pop	{r4, pc}
   2fe46:	46c0      	nop			; (mov r8, r8)
   2fe48:	00000e0d 	.word	0x00000e0d

0002fe4c <app_fcc0_add_fcc0s>:
   2fe4c:	b510      	push	{r4, lr}
   2fe4e:	230e      	movs	r3, #14
   2fe50:	2203      	movs	r2, #3
   2fe52:	2107      	movs	r1, #7
   2fe54:	4805      	ldr	r0, [pc, #20]	; (2fe6c <app_fcc0_add_fcc0s+0x20>)
   2fe56:	f7f6 ff01 	bl	26c5c <ke_msg_alloc>
   2fe5a:	4b05      	ldr	r3, [pc, #20]	; (2fe70 <app_fcc0_add_fcc0s+0x24>)
   2fe5c:	6003      	str	r3, [r0, #0]
   2fe5e:	2303      	movs	r3, #3
   2fe60:	6043      	str	r3, [r0, #4]
   2fe62:	3b02      	subs	r3, #2
   2fe64:	7303      	strb	r3, [r0, #12]
   2fe66:	f7f6 ff13 	bl	26c90 <ke_msg_send>
   2fe6a:	bd10      	pop	{r4, pc}
   2fe6c:	00000d1b 	.word	0x00000d1b
   2fe70:	0048001b 	.word	0x0048001b

0002fe74 <app_fee0_add_fee0s>:
   2fe74:	23a1      	movs	r3, #161	; 0xa1
   2fe76:	b510      	push	{r4, lr}
   2fe78:	2203      	movs	r2, #3
   2fe7a:	2107      	movs	r1, #7
   2fe7c:	009b      	lsls	r3, r3, #2
   2fe7e:	4809      	ldr	r0, [pc, #36]	; (2fea4 <app_fee0_add_fee0s+0x30>)
   2fe80:	f7f6 feec 	bl	26c5c <ke_msg_alloc>
   2fe84:	4b08      	ldr	r3, [pc, #32]	; (2fea8 <app_fee0_add_fee0s+0x34>)
   2fe86:	220e      	movs	r2, #14
   2fe88:	6003      	str	r3, [r0, #0]
   2fe8a:	2303      	movs	r3, #3
   2fe8c:	0004      	movs	r4, r0
   2fe8e:	6043      	str	r3, [r0, #4]
   2fe90:	81c2      	strh	r2, [r0, #14]
   2fe92:	4906      	ldr	r1, [pc, #24]	; (2feac <app_fee0_add_fee0s+0x38>)
   2fe94:	3010      	adds	r0, #16
   2fe96:	f006 f921 	bl	360dc <memcpy>
   2fe9a:	0020      	movs	r0, r4
   2fe9c:	f7f6 fef8 	bl	26c90 <ke_msg_send>
   2fea0:	bd10      	pop	{r4, pc}
   2fea2:	46c0      	nop			; (mov r8, r8)
   2fea4:	00000d1b 	.word	0x00000d1b
   2fea8:	0047001b 	.word	0x0047001b
   2feac:	0003df3b 	.word	0x0003df3b

0002feb0 <appm_stop_scaning>:
   2feb0:	b510      	push	{r4, lr}
   2feb2:	2203      	movs	r2, #3
   2feb4:	2107      	movs	r1, #7
   2feb6:	2302      	movs	r3, #2
   2feb8:	4806      	ldr	r0, [pc, #24]	; (2fed4 <appm_stop_scaning+0x24>)
   2feba:	f7f6 fecf 	bl	26c5c <ke_msg_alloc>
   2febe:	23a5      	movs	r3, #165	; 0xa5
   2fec0:	4c05      	ldr	r4, [pc, #20]	; (2fed8 <appm_stop_scaning+0x28>)
   2fec2:	7003      	strb	r3, [r0, #0]
   2fec4:	7963      	ldrb	r3, [r4, #5]
   2fec6:	7043      	strb	r3, [r0, #1]
   2fec8:	f7f6 fee2 	bl	26c90 <ke_msg_send>
   2fecc:	2305      	movs	r3, #5
   2fece:	71a3      	strb	r3, [r4, #6]
   2fed0:	bd10      	pop	{r4, pc}
   2fed2:	46c0      	nop			; (mov r8, r8)
   2fed4:	00000da2 	.word	0x00000da2
   2fed8:	00401976 	.word	0x00401976

0002fedc <prf_register_atthdl2gatt.part.0>:
   2fedc:	b570      	push	{r4, r5, r6, lr}
   2fede:	000c      	movs	r4, r1
   2fee0:	8840      	ldrh	r0, [r0, #2]
   2fee2:	0015      	movs	r5, r2
   2fee4:	f7ff fdab 	bl	2fa3e <prf_src_task_get.isra.0>
   2fee8:	0221      	lsls	r1, r4, #8
   2feea:	2406      	movs	r4, #6
   2feec:	0002      	movs	r2, r0
   2feee:	4321      	orrs	r1, r4
   2fef0:	2308      	movs	r3, #8
   2fef2:	4806      	ldr	r0, [pc, #24]	; (2ff0c <prf_register_atthdl2gatt.part.0+0x30>)
   2fef4:	f7f6 feb2 	bl	26c5c <ke_msg_alloc>
   2fef8:	2310      	movs	r3, #16
   2fefa:	7003      	strb	r3, [r0, #0]
   2fefc:	8aab      	ldrh	r3, [r5, #20]
   2fefe:	8083      	strh	r3, [r0, #4]
   2ff00:	8aeb      	ldrh	r3, [r5, #22]
   2ff02:	80c3      	strh	r3, [r0, #6]
   2ff04:	f7f6 fec4 	bl	26c90 <ke_msg_send>
   2ff08:	bd70      	pop	{r4, r5, r6, pc}
   2ff0a:	46c0      	nop			; (mov r8, r8)
   2ff0c:	00000c0f 	.word	0x00000c0f

0002ff10 <prf_gatt_write.part.0>:
   2ff10:	b5f7      	push	{r0, r1, r2, r4, r5, r6, r7, lr}
   2ff12:	000c      	movs	r4, r1
   2ff14:	001d      	movs	r5, r3
   2ff16:	ab08      	add	r3, sp, #32
   2ff18:	881e      	ldrh	r6, [r3, #0]
   2ff1a:	ab09      	add	r3, sp, #36	; 0x24
   2ff1c:	781f      	ldrb	r7, [r3, #0]
   2ff1e:	ab0a      	add	r3, sp, #40	; 0x28
   2ff20:	781b      	ldrb	r3, [r3, #0]
   2ff22:	8840      	ldrh	r0, [r0, #2]
   2ff24:	9200      	str	r2, [sp, #0]
   2ff26:	9301      	str	r3, [sp, #4]
   2ff28:	f7ff fd89 	bl	2fa3e <prf_src_task_get.isra.0>
   2ff2c:	0033      	movs	r3, r6
   2ff2e:	0221      	lsls	r1, r4, #8
   2ff30:	2406      	movs	r4, #6
   2ff32:	330c      	adds	r3, #12
   2ff34:	041b      	lsls	r3, r3, #16
   2ff36:	0002      	movs	r2, r0
   2ff38:	4321      	orrs	r1, r4
   2ff3a:	0c1b      	lsrs	r3, r3, #16
   2ff3c:	480b      	ldr	r0, [pc, #44]	; (2ff6c <prf_gatt_write.part.0+0x5c>)
   2ff3e:	f7f6 fe8d 	bl	26c5c <ke_msg_alloc>
   2ff42:	2300      	movs	r3, #0
   2ff44:	80c3      	strh	r3, [r0, #6]
   2ff46:	8143      	strh	r3, [r0, #10]
   2ff48:	9b00      	ldr	r3, [sp, #0]
   2ff4a:	0004      	movs	r4, r0
   2ff4c:	8083      	strh	r3, [r0, #4]
   2ff4e:	9b01      	ldr	r3, [sp, #4]
   2ff50:	0032      	movs	r2, r6
   2ff52:	8043      	strh	r3, [r0, #2]
   2ff54:	2301      	movs	r3, #1
   2ff56:	0029      	movs	r1, r5
   2ff58:	7007      	strb	r7, [r0, #0]
   2ff5a:	8106      	strh	r6, [r0, #8]
   2ff5c:	7043      	strb	r3, [r0, #1]
   2ff5e:	300c      	adds	r0, #12
   2ff60:	f006 f8bc 	bl	360dc <memcpy>
   2ff64:	0020      	movs	r0, r4
   2ff66:	f7f6 fe93 	bl	26c90 <ke_msg_send>
   2ff6a:	bdf7      	pop	{r0, r1, r2, r4, r5, r6, r7, pc}
   2ff6c:	00000c0a 	.word	0x00000c0a

0002ff70 <bass_notify_batt_lvl>:
   2ff70:	b5f8      	push	{r3, r4, r5, r6, r7, lr}
   2ff72:	000c      	movs	r4, r1
   2ff74:	0005      	movs	r5, r0
   2ff76:	2100      	movs	r1, #0
   2ff78:	8840      	ldrh	r0, [r0, #2]
   2ff7a:	0016      	movs	r6, r2
   2ff7c:	f7ff fd5f 	bl	2fa3e <prf_src_task_get.isra.0>
   2ff80:	2106      	movs	r1, #6
   2ff82:	0002      	movs	r2, r0
   2ff84:	20c1      	movs	r0, #193	; 0xc1
   2ff86:	0224      	lsls	r4, r4, #8
   2ff88:	4321      	orrs	r1, r4
   2ff8a:	2309      	movs	r3, #9
   2ff8c:	0100      	lsls	r0, r0, #4
   2ff8e:	f7f6 fe65 	bl	26c5c <ke_msg_alloc>
   2ff92:	2312      	movs	r3, #18
   2ff94:	0004      	movs	r4, r0
   2ff96:	7003      	strb	r3, [r0, #0]
   2ff98:	2024      	movs	r0, #36	; 0x24
   2ff9a:	f7ff fb07 	bl	2f5ac <prf_env_get>
   2ff9e:	1d83      	adds	r3, r0, #6
   2ffa0:	7fda      	ldrb	r2, [r3, #31]
   2ffa2:	2300      	movs	r3, #0
   2ffa4:	42b2      	cmp	r2, r6
   2ffa6:	d909      	bls.n	2ffbc <bass_notify_batt_lvl+0x4c>
   2ffa8:	2701      	movs	r7, #1
   2ffaa:	8b01      	ldrh	r1, [r0, #24]
   2ffac:	3005      	adds	r0, #5
   2ffae:	061a      	lsls	r2, r3, #24
   2ffb0:	0e12      	lsrs	r2, r2, #24
   2ffb2:	4296      	cmp	r6, r2
   2ffb4:	d80c      	bhi.n	2ffd0 <bass_notify_batt_lvl+0x60>
   2ffb6:	3102      	adds	r1, #2
   2ffb8:	040b      	lsls	r3, r1, #16
   2ffba:	0c1b      	lsrs	r3, r3, #16
   2ffbc:	80a3      	strh	r3, [r4, #4]
   2ffbe:	2301      	movs	r3, #1
   2ffc0:	19ad      	adds	r5, r5, r6
   2ffc2:	80e3      	strh	r3, [r4, #6]
   2ffc4:	7eab      	ldrb	r3, [r5, #26]
   2ffc6:	0020      	movs	r0, r4
   2ffc8:	7223      	strb	r3, [r4, #8]
   2ffca:	f7f6 fe61 	bl	26c90 <ke_msg_send>
   2ffce:	bdf8      	pop	{r3, r4, r5, r6, r7, pc}
   2ffd0:	7fc2      	ldrb	r2, [r0, #31]
   2ffd2:	411a      	asrs	r2, r3
   2ffd4:	403a      	ands	r2, r7
   2ffd6:	3204      	adds	r2, #4
   2ffd8:	1889      	adds	r1, r1, r2
   2ffda:	0409      	lsls	r1, r1, #16
   2ffdc:	0c09      	lsrs	r1, r1, #16
   2ffde:	3301      	adds	r3, #1
   2ffe0:	e7e5      	b.n	2ffae <bass_notify_batt_lvl+0x3e>
	...

0002ffe4 <gattc_att_info_req_ind_handler.lto_priv.0>:
   2ffe4:	b5f7      	push	{r0, r1, r2, r4, r5, r6, r7, lr}
   2ffe6:	001e      	movs	r6, r3
   2ffe8:	466b      	mov	r3, sp
   2ffea:	000d      	movs	r5, r1
   2ffec:	0017      	movs	r7, r2
   2ffee:	1dd9      	adds	r1, r3, #7
   2fff0:	466a      	mov	r2, sp
   2fff2:	2300      	movs	r3, #0
   2fff4:	3206      	adds	r2, #6
   2fff6:	8828      	ldrh	r0, [r5, #0]
   2fff8:	7013      	strb	r3, [r2, #0]
   2fffa:	700b      	strb	r3, [r1, #0]
   2fffc:	f7ff fcd3 	bl	2f9a6 <bass_get_att_idx.constprop.0>
   30000:	2306      	movs	r3, #6
   30002:	0004      	movs	r4, r0
   30004:	003a      	movs	r2, r7
   30006:	0031      	movs	r1, r6
   30008:	480a      	ldr	r0, [pc, #40]	; (30034 <gattc_att_info_req_ind_handler.lto_priv.0+0x50>)
   3000a:	f7f6 fe27 	bl	26c5c <ke_msg_alloc>
   3000e:	882b      	ldrh	r3, [r5, #0]
   30010:	8003      	strh	r3, [r0, #0]
   30012:	2c00      	cmp	r4, #0
   30014:	d105      	bne.n	30022 <gattc_att_info_req_ind_handler.lto_priv.0+0x3e>
   30016:	466b      	mov	r3, sp
   30018:	799b      	ldrb	r3, [r3, #6]
   3001a:	2b03      	cmp	r3, #3
   3001c:	d106      	bne.n	3002c <gattc_att_info_req_ind_handler.lto_priv.0+0x48>
   3001e:	3b01      	subs	r3, #1
   30020:	8043      	strh	r3, [r0, #2]
   30022:	7104      	strb	r4, [r0, #4]
   30024:	f7f6 fe34 	bl	26c90 <ke_msg_send>
   30028:	2000      	movs	r0, #0
   3002a:	bdfe      	pop	{r1, r2, r3, r4, r5, r6, r7, pc}
   3002c:	8044      	strh	r4, [r0, #2]
   3002e:	2403      	movs	r4, #3
   30030:	e7f7      	b.n	30022 <gattc_att_info_req_ind_handler.lto_priv.0+0x3e>
   30032:	46c0      	nop			; (mov r8, r8)
   30034:	00000c18 	.word	0x00000c18

00030038 <gattc_write_req_ind_handler.lto_priv.0>:
   30038:	b5f0      	push	{r4, r5, r6, r7, lr}
   3003a:	b087      	sub	sp, #28
   3003c:	9303      	str	r3, [sp, #12]
   3003e:	2300      	movs	r3, #0
   30040:	0017      	movs	r7, r2
   30042:	aa04      	add	r2, sp, #16
   30044:	71d3      	strb	r3, [r2, #7]
   30046:	7193      	strb	r3, [r2, #6]
   30048:	0013      	movs	r3, r2
   3004a:	8808      	ldrh	r0, [r1, #0]
   3004c:	000d      	movs	r5, r1
   3004e:	3206      	adds	r2, #6
   30050:	1dd9      	adds	r1, r3, #7
   30052:	f7ff fca8 	bl	2f9a6 <bass_get_att_idx.constprop.0>
   30056:	1e04      	subs	r4, r0, #0
   30058:	d131      	bne.n	300be <gattc_write_req_ind_handler.lto_priv.0+0x86>
   3005a:	ab04      	add	r3, sp, #16
   3005c:	799b      	ldrb	r3, [r3, #6]
   3005e:	2b03      	cmp	r3, #3
   30060:	d13e      	bne.n	300e0 <gattc_write_req_ind_handler.lto_priv.0+0xa8>
   30062:	79ee      	ldrb	r6, [r5, #7]
   30064:	79ab      	ldrb	r3, [r5, #6]
   30066:	0236      	lsls	r6, r6, #8
   30068:	431e      	orrs	r6, r3
   3006a:	2e01      	cmp	r6, #1
   3006c:	d838      	bhi.n	300e0 <gattc_write_req_ind_handler.lto_priv.0+0xa8>
   3006e:	9b03      	ldr	r3, [sp, #12]
   30070:	2024      	movs	r0, #36	; 0x24
   30072:	0a1b      	lsrs	r3, r3, #8
   30074:	9302      	str	r3, [sp, #8]
   30076:	f7ff fa99 	bl	2f5ac <prf_env_get>
   3007a:	9a02      	ldr	r2, [sp, #8]
   3007c:	ab04      	add	r3, sp, #16
   3007e:	1881      	adds	r1, r0, r2
   30080:	2280      	movs	r2, #128	; 0x80
   30082:	79db      	ldrb	r3, [r3, #7]
   30084:	0452      	lsls	r2, r2, #17
   30086:	9001      	str	r0, [sp, #4]
   30088:	409a      	lsls	r2, r3
   3008a:	201d      	movs	r0, #29
   3008c:	1613      	asrs	r3, r2, #24
   3008e:	5608      	ldrsb	r0, [r1, r0]
   30090:	2e01      	cmp	r6, #1
   30092:	d122      	bne.n	300da <gattc_write_req_ind_handler.lto_priv.0+0xa2>
   30094:	4303      	orrs	r3, r0
   30096:	774b      	strb	r3, [r1, #29]
   30098:	9e02      	ldr	r6, [sp, #8]
   3009a:	9b01      	ldr	r3, [sp, #4]
   3009c:	0031      	movs	r1, r6
   3009e:	8818      	ldrh	r0, [r3, #0]
   300a0:	f7ff fcc4 	bl	2fa2c <prf_dst_task_get.isra.0>
   300a4:	2302      	movs	r3, #2
   300a6:	0001      	movs	r1, r0
   300a8:	003a      	movs	r2, r7
   300aa:	480e      	ldr	r0, [pc, #56]	; (300e4 <gattc_write_req_ind_handler.lto_priv.0+0xac>)
   300ac:	f7f6 fdd6 	bl	26c5c <ke_msg_alloc>
   300b0:	9b01      	ldr	r3, [sp, #4]
   300b2:	7006      	strb	r6, [r0, #0]
   300b4:	199e      	adds	r6, r3, r6
   300b6:	7f73      	ldrb	r3, [r6, #29]
   300b8:	7043      	strb	r3, [r0, #1]
   300ba:	f7f6 fde9 	bl	26c90 <ke_msg_send>
   300be:	003a      	movs	r2, r7
   300c0:	9903      	ldr	r1, [sp, #12]
   300c2:	2304      	movs	r3, #4
   300c4:	4808      	ldr	r0, [pc, #32]	; (300e8 <gattc_write_req_ind_handler.lto_priv.0+0xb0>)
   300c6:	f7f6 fdc9 	bl	26c5c <ke_msg_alloc>
   300ca:	882b      	ldrh	r3, [r5, #0]
   300cc:	7084      	strb	r4, [r0, #2]
   300ce:	8003      	strh	r3, [r0, #0]
   300d0:	f7f6 fdde 	bl	26c90 <ke_msg_send>
   300d4:	2000      	movs	r0, #0
   300d6:	b007      	add	sp, #28
   300d8:	bdf0      	pop	{r4, r5, r6, r7, pc}
   300da:	4398      	bics	r0, r3
   300dc:	7748      	strb	r0, [r1, #29]
   300de:	e7db      	b.n	30098 <gattc_write_req_ind_handler.lto_priv.0+0x60>
   300e0:	2480      	movs	r4, #128	; 0x80
   300e2:	e7ec      	b.n	300be <gattc_write_req_ind_handler.lto_priv.0+0x86>
   300e4:	00002404 	.word	0x00002404
   300e8:	00000c16 	.word	0x00000c16

000300ec <gattc_read_req_ind_handler.lto_priv.0>:
   300ec:	b5f0      	push	{r4, r5, r6, r7, lr}
   300ee:	2500      	movs	r5, #0
   300f0:	b085      	sub	sp, #20
   300f2:	001f      	movs	r7, r3
   300f4:	ab02      	add	r3, sp, #8
   300f6:	71dd      	strb	r5, [r3, #7]
   300f8:	719d      	strb	r5, [r3, #6]
   300fa:	ab02      	add	r3, sp, #8
   300fc:	8808      	ldrh	r0, [r1, #0]
   300fe:	9100      	str	r1, [sp, #0]
   30100:	9201      	str	r2, [sp, #4]
   30102:	1dd9      	adds	r1, r3, #7
   30104:	1d9a      	adds	r2, r3, #6
   30106:	f7ff fc4e 	bl	2f9a6 <bass_get_att_idx.constprop.0>
   3010a:	0006      	movs	r6, r0
   3010c:	2024      	movs	r0, #36	; 0x24
   3010e:	f7ff fa4d 	bl	2f5ac <prf_env_get>
   30112:	0004      	movs	r4, r0
   30114:	42ae      	cmp	r6, r5
   30116:	d108      	bne.n	3012a <gattc_read_req_ind_handler.lto_priv.0+0x3e>
   30118:	ab02      	add	r3, sp, #8
   3011a:	799b      	ldrb	r3, [r3, #6]
   3011c:	2b02      	cmp	r3, #2
   3011e:	d024      	beq.n	3016a <gattc_read_req_ind_handler.lto_priv.0+0x7e>
   30120:	2b03      	cmp	r3, #3
   30122:	d024      	beq.n	3016e <gattc_read_req_ind_handler.lto_priv.0+0x82>
   30124:	2b04      	cmp	r3, #4
   30126:	d024      	beq.n	30172 <gattc_read_req_ind_handler.lto_priv.0+0x86>
   30128:	2680      	movs	r6, #128	; 0x80
   3012a:	1dab      	adds	r3, r5, #6
   3012c:	0039      	movs	r1, r7
   3012e:	9a01      	ldr	r2, [sp, #4]
   30130:	4822      	ldr	r0, [pc, #136]	; (301bc <gattc_read_req_ind_handler.lto_priv.0+0xd0>)
   30132:	f7f6 fd93 	bl	26c5c <ke_msg_alloc>
   30136:	9b00      	ldr	r3, [sp, #0]
   30138:	881b      	ldrh	r3, [r3, #0]
   3013a:	7106      	strb	r6, [r0, #4]
   3013c:	8003      	strh	r3, [r0, #0]
   3013e:	8045      	strh	r5, [r0, #2]
   30140:	2e00      	cmp	r6, #0
   30142:	d10d      	bne.n	30160 <gattc_read_req_ind_handler.lto_priv.0+0x74>
   30144:	ab02      	add	r3, sp, #8
   30146:	3306      	adds	r3, #6
   30148:	781b      	ldrb	r3, [r3, #0]
   3014a:	2b02      	cmp	r3, #2
   3014c:	d113      	bne.n	30176 <gattc_read_req_ind_handler.lto_priv.0+0x8a>
   3014e:	ab02      	add	r3, sp, #8
   30150:	3307      	adds	r3, #7
   30152:	781b      	ldrb	r3, [r3, #0]
   30154:	18e4      	adds	r4, r4, r3
   30156:	7ea3      	ldrb	r3, [r4, #26]
   30158:	7143      	strb	r3, [r0, #5]
   3015a:	7ea3      	ldrb	r3, [r4, #26]
   3015c:	3301      	adds	r3, #1
   3015e:	76a3      	strb	r3, [r4, #26]
   30160:	f7f6 fd96 	bl	26c90 <ke_msg_send>
   30164:	2000      	movs	r0, #0
   30166:	b005      	add	sp, #20
   30168:	bdf0      	pop	{r4, r5, r6, r7, pc}
   3016a:	2501      	movs	r5, #1
   3016c:	e7dd      	b.n	3012a <gattc_read_req_ind_handler.lto_priv.0+0x3e>
   3016e:	2502      	movs	r5, #2
   30170:	e7db      	b.n	3012a <gattc_read_req_ind_handler.lto_priv.0+0x3e>
   30172:	2507      	movs	r5, #7
   30174:	e7d9      	b.n	3012a <gattc_read_req_ind_handler.lto_priv.0+0x3e>
   30176:	2b03      	cmp	r3, #3
   30178:	d10b      	bne.n	30192 <gattc_read_req_ind_handler.lto_priv.0+0xa6>
   3017a:	0a3b      	lsrs	r3, r7, #8
   3017c:	aa02      	add	r2, sp, #8
   3017e:	18e4      	adds	r4, r4, r3
   30180:	3207      	adds	r2, #7
   30182:	7f63      	ldrb	r3, [r4, #29]
   30184:	7812      	ldrb	r2, [r2, #0]
   30186:	7186      	strb	r6, [r0, #6]
   30188:	4113      	asrs	r3, r2
   3018a:	2201      	movs	r2, #1
   3018c:	4013      	ands	r3, r2
   3018e:	7143      	strb	r3, [r0, #5]
   30190:	e7e6      	b.n	30160 <gattc_read_req_ind_handler.lto_priv.0+0x74>
   30192:	2b04      	cmp	r3, #4
   30194:	d1e4      	bne.n	30160 <gattc_read_req_ind_handler.lto_priv.0+0x74>
   30196:	ab02      	add	r3, sp, #8
   30198:	79db      	ldrb	r3, [r3, #7]
   3019a:	00db      	lsls	r3, r3, #3
   3019c:	18e4      	adds	r4, r4, r3
   3019e:	7a23      	ldrb	r3, [r4, #8]
   301a0:	7143      	strb	r3, [r0, #5]
   301a2:	7a63      	ldrb	r3, [r4, #9]
   301a4:	7183      	strb	r3, [r0, #6]
   301a6:	88a3      	ldrh	r3, [r4, #4]
   301a8:	71c3      	strb	r3, [r0, #7]
   301aa:	0a1b      	lsrs	r3, r3, #8
   301ac:	7203      	strb	r3, [r0, #8]
   301ae:	7aa3      	ldrb	r3, [r4, #10]
   301b0:	7243      	strb	r3, [r0, #9]
   301b2:	88e3      	ldrh	r3, [r4, #6]
   301b4:	7283      	strb	r3, [r0, #10]
   301b6:	0a1b      	lsrs	r3, r3, #8
   301b8:	72c3      	strb	r3, [r0, #11]
   301ba:	e7d1      	b.n	30160 <gattc_read_req_ind_handler.lto_priv.0+0x74>
   301bc:	00000c14 	.word	0x00000c14

000301c0 <oadImgBlockReq.constprop.0>:
   301c0:	b537      	push	{r0, r1, r2, r4, r5, lr}
   301c2:	0004      	movs	r4, r0
   301c4:	2049      	movs	r0, #73	; 0x49
   301c6:	f7ff f9f1 	bl	2f5ac <prf_env_get>
   301ca:	466b      	mov	r3, sp
   301cc:	711c      	strb	r4, [r3, #4]
   301ce:	0a24      	lsrs	r4, r4, #8
   301d0:	0005      	movs	r5, r0
   301d2:	715c      	strb	r4, [r3, #5]
   301d4:	2100      	movs	r1, #0
   301d6:	8840      	ldrh	r0, [r0, #2]
   301d8:	f7ff fc31 	bl	2fa3e <prf_src_task_get.isra.0>
   301dc:	0002      	movs	r2, r0
   301de:	20c1      	movs	r0, #193	; 0xc1
   301e0:	230a      	movs	r3, #10
   301e2:	2106      	movs	r1, #6
   301e4:	0100      	lsls	r0, r0, #4
   301e6:	f7f6 fd39 	bl	26c5c <ke_msg_alloc>
   301ea:	2312      	movs	r3, #18
   301ec:	2202      	movs	r2, #2
   301ee:	0004      	movs	r4, r0
   301f0:	7003      	strb	r3, [r0, #0]
   301f2:	892b      	ldrh	r3, [r5, #8]
   301f4:	a901      	add	r1, sp, #4
   301f6:	3306      	adds	r3, #6
   301f8:	8083      	strh	r3, [r0, #4]
   301fa:	80c2      	strh	r2, [r0, #6]
   301fc:	3008      	adds	r0, #8
   301fe:	f005 ff6d 	bl	360dc <memcpy>
   30202:	0020      	movs	r0, r4
   30204:	f7f6 fd44 	bl	26c90 <ke_msg_send>
   30208:	bd37      	pop	{r0, r1, r2, r4, r5, pc}
	...

0003020c <appm_update_param.constprop.0>:
   3020c:	2108      	movs	r1, #8
   3020e:	b510      	push	{r4, lr}
   30210:	4b0d      	ldr	r3, [pc, #52]	; (30248 <appm_update_param.constprop.0+0x3c>)
   30212:	0004      	movs	r4, r0
   30214:	789b      	ldrb	r3, [r3, #2]
   30216:	2203      	movs	r2, #3
   30218:	021b      	lsls	r3, r3, #8
   3021a:	4319      	orrs	r1, r3
   3021c:	480b      	ldr	r0, [pc, #44]	; (3024c <appm_update_param.constprop.0+0x40>)
   3021e:	230e      	movs	r3, #14
   30220:	f7f6 fd1c 	bl	26c5c <ke_msg_alloc>
   30224:	2309      	movs	r3, #9
   30226:	7003      	strb	r3, [r0, #0]
   30228:	8823      	ldrh	r3, [r4, #0]
   3022a:	8043      	strh	r3, [r0, #2]
   3022c:	8863      	ldrh	r3, [r4, #2]
   3022e:	8083      	strh	r3, [r0, #4]
   30230:	88a3      	ldrh	r3, [r4, #4]
   30232:	80c3      	strh	r3, [r0, #6]
   30234:	88e3      	ldrh	r3, [r4, #6]
   30236:	8103      	strh	r3, [r0, #8]
   30238:	2301      	movs	r3, #1
   3023a:	425b      	negs	r3, r3
   3023c:	8143      	strh	r3, [r0, #10]
   3023e:	8183      	strh	r3, [r0, #12]
   30240:	f7f6 fd26 	bl	26c90 <ke_msg_send>
   30244:	bd10      	pop	{r4, pc}
   30246:	46c0      	nop			; (mov r8, r8)
   30248:	00401976 	.word	0x00401976
   3024c:	00000e0e 	.word	0x00000e0e

00030250 <prf_read_char_send.constprop.0.isra.0>:
   30250:	b570      	push	{r4, r5, r6, lr}
   30252:	000c      	movs	r4, r1
   30254:	0015      	movs	r5, r2
   30256:	f7ff fbf2 	bl	2fa3e <prf_src_task_get.isra.0>
   3025a:	0221      	lsls	r1, r4, #8
   3025c:	2406      	movs	r4, #6
   3025e:	0002      	movs	r2, r0
   30260:	4321      	orrs	r1, r4
   30262:	230a      	movs	r3, #10
   30264:	4806      	ldr	r0, [pc, #24]	; (30280 <prf_read_char_send.constprop.0.isra.0+0x30>)
   30266:	f7f6 fcf9 	bl	26c5c <ke_msg_alloc>
   3026a:	2384      	movs	r3, #132	; 0x84
   3026c:	005b      	lsls	r3, r3, #1
   3026e:	8003      	strh	r3, [r0, #0]
   30270:	2300      	movs	r3, #0
   30272:	8085      	strh	r5, [r0, #4]
   30274:	80c3      	strh	r3, [r0, #6]
   30276:	8103      	strh	r3, [r0, #8]
   30278:	f7f6 fd0a 	bl	26c90 <ke_msg_send>
   3027c:	bd70      	pop	{r4, r5, r6, pc}
   3027e:	46c0      	nop			; (mov r8, r8)
   30280:	00000c08 	.word	0x00000c08

00030284 <uart2_printf>:
   30284:	b40f      	push	{r0, r1, r2, r3}
   30286:	b5f0      	push	{r4, r5, r6, r7, lr}
   30288:	b0a3      	sub	sp, #140	; 0x8c
   3028a:	aa28      	add	r2, sp, #160	; 0xa0
   3028c:	ca02      	ldmia	r2!, {r1}
   3028e:	a802      	add	r0, sp, #8
   30290:	9201      	str	r2, [sp, #4]
   30292:	f006 f83b 	bl	3630c <vsprintf>
   30296:	2480      	movs	r4, #128	; 0x80
   30298:	0002      	movs	r2, r0
   3029a:	4909      	ldr	r1, [pc, #36]	; (302c0 <uart2_printf+0x3c>)
   3029c:	4d09      	ldr	r5, [pc, #36]	; (302c4 <uart2_printf+0x40>)
   3029e:	ab02      	add	r3, sp, #8
   302a0:	0364      	lsls	r4, r4, #13
   302a2:	3a01      	subs	r2, #1
   302a4:	d204      	bcs.n	302b0 <uart2_printf+0x2c>
   302a6:	b023      	add	sp, #140	; 0x8c
   302a8:	bcf0      	pop	{r4, r5, r6, r7}
   302aa:	bc08      	pop	{r3}
   302ac:	b004      	add	sp, #16
   302ae:	4718      	bx	r3
   302b0:	781e      	ldrb	r6, [r3, #0]
   302b2:	680f      	ldr	r7, [r1, #0]
   302b4:	4227      	tst	r7, r4
   302b6:	d0fc      	beq.n	302b2 <uart2_printf+0x2e>
   302b8:	602e      	str	r6, [r5, #0]
   302ba:	3301      	adds	r3, #1
   302bc:	e7f1      	b.n	302a2 <uart2_printf+0x1e>
   302be:	46c0      	nop			; (mov r8, r8)
   302c0:	00806a08 	.word	0x00806a08
   302c4:	00806a0c 	.word	0x00806a0c

000302c8 <platform_reset>:
   302c8:	b510      	push	{r4, lr}
   302ca:	0001      	movs	r1, r0
   302cc:	4804      	ldr	r0, [pc, #16]	; (302e0 <platform_reset+0x18>)
   302ce:	f7ff ffd9 	bl	30284 <uart2_printf>
   302d2:	f00d fdef 	bl	3deb4 <____disable_fiq_from_thumb>
   302d6:	f00d fe0f 	bl	3def8 <____disable_irq_from_thumb>
   302da:	f7ff f9c1 	bl	2f660 <cpu_reset>
   302de:	bd10      	pop	{r4, pc}
   302e0:	0003df4a 	.word	0x0003df4a

000302e4 <prf_init>:
   302e4:	b5f8      	push	{r3, r4, r5, r6, r7, lr}
   302e6:	2509      	movs	r5, #9
   302e8:	27ff      	movs	r7, #255	; 0xff
   302ea:	0001      	movs	r1, r0
   302ec:	0006      	movs	r6, r0
   302ee:	4815      	ldr	r0, [pc, #84]	; (30344 <prf_init+0x60>)
   302f0:	f7ff ffc8 	bl	30284 <uart2_printf>
   302f4:	4c14      	ldr	r4, [pc, #80]	; (30348 <prf_init+0x64>)
   302f6:	2e01      	cmp	r6, #1
   302f8:	d01c      	beq.n	30334 <prf_init+0x50>
   302fa:	2e02      	cmp	r6, #2
   302fc:	d00e      	beq.n	3031c <prf_init+0x38>
   302fe:	2e00      	cmp	r6, #0
   30300:	d105      	bne.n	3030e <prf_init+0x2a>
   30302:	0628      	lsls	r0, r5, #24
   30304:	0021      	movs	r1, r4
   30306:	8225      	strh	r5, [r4, #16]
   30308:	0e00      	lsrs	r0, r0, #24
   3030a:	f7f7 f921 	bl	27550 <ke_task_create>
   3030e:	3501      	adds	r5, #1
   30310:	042d      	lsls	r5, r5, #16
   30312:	3418      	adds	r4, #24
   30314:	0c2d      	lsrs	r5, r5, #16
   30316:	2d31      	cmp	r5, #49	; 0x31
   30318:	d1ed      	bne.n	302f6 <prf_init+0x12>
   3031a:	bdf8      	pop	{r3, r4, r5, r6, r7, pc}
   3031c:	8a60      	ldrh	r0, [r4, #18]
   3031e:	f7ff f8e7 	bl	2f4f0 <prf_itf_get>
   30322:	2800      	cmp	r0, #0
   30324:	d002      	beq.n	3032c <prf_init+0x48>
   30326:	6843      	ldr	r3, [r0, #4]
   30328:	0020      	movs	r0, r4
   3032a:	4798      	blx	r3
   3032c:	8a20      	ldrh	r0, [r4, #16]
   3032e:	4038      	ands	r0, r7
   30330:	f7f7 f9a2 	bl	27678 <ke_task_msg_flush>
   30334:	2300      	movs	r3, #0
   30336:	8267      	strh	r7, [r4, #18]
   30338:	60e3      	str	r3, [r4, #12]
   3033a:	6023      	str	r3, [r4, #0]
   3033c:	6063      	str	r3, [r4, #4]
   3033e:	8123      	strh	r3, [r4, #8]
   30340:	8163      	strh	r3, [r4, #10]
   30342:	e7e4      	b.n	3030e <prf_init+0x2a>
   30344:	0003df5d 	.word	0x0003df5d
   30348:	00402340 	.word	0x00402340

0003034c <prf_add_profile>:
   3034c:	b5f0      	push	{r4, r5, r6, r7, lr}
   3034e:	b085      	sub	sp, #20
   30350:	9103      	str	r1, [sp, #12]
   30352:	0004      	movs	r4, r0
   30354:	8840      	ldrh	r0, [r0, #2]
   30356:	f7ff f8cb 	bl	2f4f0 <prf_itf_get>
   3035a:	0007      	movs	r7, r0
   3035c:	481d      	ldr	r0, [pc, #116]	; (303d4 <prf_add_profile+0x88>)
   3035e:	f7ff ff91 	bl	30284 <uart2_printf>
   30362:	2540      	movs	r5, #64	; 0x40
   30364:	2f00      	cmp	r7, #0
   30366:	d026      	beq.n	303b6 <prf_add_profile+0x6a>
   30368:	22f0      	movs	r2, #240	; 0xf0
   3036a:	2300      	movs	r3, #0
   3036c:	8861      	ldrh	r1, [r4, #2]
   3036e:	481a      	ldr	r0, [pc, #104]	; (303d8 <prf_add_profile+0x8c>)
   30370:	0092      	lsls	r2, r2, #2
   30372:	5ac5      	ldrh	r5, [r0, r3]
   30374:	428d      	cmp	r5, r1
   30376:	d02b      	beq.n	303d0 <prf_add_profile+0x84>
   30378:	3318      	adds	r3, #24
   3037a:	4293      	cmp	r3, r2
   3037c:	d1f9      	bne.n	30372 <prf_add_profile+0x26>
   3037e:	4b17      	ldr	r3, [pc, #92]	; (303dc <prf_add_profile+0x90>)
   30380:	2000      	movs	r0, #0
   30382:	001e      	movs	r6, r3
   30384:	8a5a      	ldrh	r2, [r3, #18]
   30386:	2aff      	cmp	r2, #255	; 0xff
   30388:	d11c      	bne.n	303c4 <prf_add_profile+0x78>
   3038a:	2518      	movs	r5, #24
   3038c:	4368      	muls	r0, r5
   3038e:	1836      	adds	r6, r6, r0
   30390:	0020      	movs	r0, r4
   30392:	300c      	adds	r0, #12
   30394:	9000      	str	r0, [sp, #0]
   30396:	683d      	ldr	r5, [r7, #0]
   30398:	0030      	movs	r0, r6
   3039a:	7863      	ldrb	r3, [r4, #1]
   3039c:	88a2      	ldrh	r2, [r4, #4]
   3039e:	1da1      	adds	r1, r4, #6
   303a0:	47a8      	blx	r5
   303a2:	1e05      	subs	r5, r0, #0
   303a4:	d107      	bne.n	303b6 <prf_add_profile+0x6a>
   303a6:	8863      	ldrh	r3, [r4, #2]
   303a8:	9a03      	ldr	r2, [sp, #12]
   303aa:	8273      	strh	r3, [r6, #18]
   303ac:	88a3      	ldrh	r3, [r4, #4]
   303ae:	0a1b      	lsrs	r3, r3, #8
   303b0:	7573      	strb	r3, [r6, #21]
   303b2:	8a33      	ldrh	r3, [r6, #16]
   303b4:	8013      	strh	r3, [r2, #0]
   303b6:	0029      	movs	r1, r5
   303b8:	4809      	ldr	r0, [pc, #36]	; (303e0 <prf_add_profile+0x94>)
   303ba:	f7ff ff63 	bl	30284 <uart2_printf>
   303be:	0028      	movs	r0, r5
   303c0:	b005      	add	sp, #20
   303c2:	bdf0      	pop	{r4, r5, r6, r7, pc}
   303c4:	3001      	adds	r0, #1
   303c6:	3318      	adds	r3, #24
   303c8:	2828      	cmp	r0, #40	; 0x28
   303ca:	d1db      	bne.n	30384 <prf_add_profile+0x38>
   303cc:	254b      	movs	r5, #75	; 0x4b
   303ce:	e7f2      	b.n	303b6 <prf_add_profile+0x6a>
   303d0:	2542      	movs	r5, #66	; 0x42
   303d2:	e7f0      	b.n	303b6 <prf_add_profile+0x6a>
   303d4:	0003df71 	.word	0x0003df71
   303d8:	00402352 	.word	0x00402352
   303dc:	00402340 	.word	0x00402340
   303e0:	0003df82 	.word	0x0003df82

000303e4 <gapc_encrypt_req_ind_handler>:
   303e4:	b5f0      	push	{r4, r5, r6, r7, lr}
   303e6:	481a      	ldr	r0, [pc, #104]	; (30450 <gapc_encrypt_req_ind_handler+0x6c>)
   303e8:	b089      	sub	sp, #36	; 0x24
   303ea:	001c      	movs	r4, r3
   303ec:	000d      	movs	r5, r1
   303ee:	f7ff ff49 	bl	30284 <uart2_printf>
   303f2:	2201      	movs	r2, #1
   303f4:	4b17      	ldr	r3, [pc, #92]	; (30454 <gapc_encrypt_req_ind_handler+0x70>)
   303f6:	0021      	movs	r1, r4
   303f8:	709a      	strb	r2, [r3, #2]
   303fa:	466b      	mov	r3, sp
   303fc:	1cdf      	adds	r7, r3, #3
   303fe:	231c      	movs	r3, #28
   30400:	3202      	adds	r2, #2
   30402:	703b      	strb	r3, [r7, #0]
   30404:	4814      	ldr	r0, [pc, #80]	; (30458 <gapc_encrypt_req_ind_handler+0x74>)
   30406:	3b0a      	subs	r3, #10
   30408:	f7f6 fc28 	bl	26c5c <ke_msg_alloc>
   3040c:	2300      	movs	r3, #0
   3040e:	ae01      	add	r6, sp, #4
   30410:	0004      	movs	r4, r0
   30412:	7003      	strb	r3, [r0, #0]
   30414:	0032      	movs	r2, r6
   30416:	0039      	movs	r1, r7
   30418:	2098      	movs	r0, #152	; 0x98
   3041a:	f7ff f819 	bl	2f450 <nvds_get>
   3041e:	2800      	cmp	r0, #0
   30420:	d113      	bne.n	3044a <gapc_encrypt_req_ind_handler+0x66>
   30422:	882a      	ldrh	r2, [r5, #0]
   30424:	8a33      	ldrh	r3, [r6, #16]
   30426:	429a      	cmp	r2, r3
   30428:	d10f      	bne.n	3044a <gapc_encrypt_req_ind_handler+0x66>
   3042a:	2116      	movs	r1, #22
   3042c:	2208      	movs	r2, #8
   3042e:	1ca8      	adds	r0, r5, #2
   30430:	4469      	add	r1, sp
   30432:	f7fa f92f 	bl	2a694 <memcmp>
   30436:	2800      	cmp	r0, #0
   30438:	d107      	bne.n	3044a <gapc_encrypt_req_ind_handler+0x66>
   3043a:	2301      	movs	r3, #1
   3043c:	2210      	movs	r2, #16
   3043e:	0031      	movs	r1, r6
   30440:	7023      	strb	r3, [r4, #0]
   30442:	7462      	strb	r2, [r4, #17]
   30444:	18e0      	adds	r0, r4, r3
   30446:	f005 fe49 	bl	360dc <memcpy>
   3044a:	2000      	movs	r0, #0
   3044c:	b009      	add	sp, #36	; 0x24
   3044e:	bdf0      	pop	{r4, r5, r6, r7, pc}
   30450:	0003df9d 	.word	0x0003df9d
   30454:	004019b1 	.word	0x004019b1
   30458:	00000e18 	.word	0x00000e18

0003045c <gapc_encrypt_ind_handler>:
   3045c:	b510      	push	{r4, lr}
   3045e:	000c      	movs	r4, r1
   30460:	4904      	ldr	r1, [pc, #16]	; (30474 <gapc_encrypt_ind_handler+0x18>)
   30462:	4805      	ldr	r0, [pc, #20]	; (30478 <gapc_encrypt_ind_handler+0x1c>)
   30464:	f7ff ff0e 	bl	30284 <uart2_printf>
   30468:	7821      	ldrb	r1, [r4, #0]
   3046a:	4804      	ldr	r0, [pc, #16]	; (3047c <gapc_encrypt_ind_handler+0x20>)
   3046c:	f7ff ff0a 	bl	30284 <uart2_printf>
   30470:	2000      	movs	r0, #0
   30472:	bd10      	pop	{r4, pc}
   30474:	0003f238 	.word	0x0003f238
   30478:	0003ebdb 	.word	0x0003ebdb
   3047c:	0003dfaf 	.word	0x0003dfaf

00030480 <appm_add_svc>:
   30480:	b570      	push	{r4, r5, r6, lr}
   30482:	4d0a      	ldr	r5, [pc, #40]	; (304ac <appm_add_svc+0x2c>)
   30484:	2400      	movs	r4, #0
   30486:	7a6b      	ldrb	r3, [r5, #9]
   30488:	2b05      	cmp	r3, #5
   3048a:	d007      	beq.n	3049c <appm_add_svc+0x1c>
   3048c:	4a08      	ldr	r2, [pc, #32]	; (304b0 <appm_add_svc+0x30>)
   3048e:	009b      	lsls	r3, r3, #2
   30490:	589b      	ldr	r3, [r3, r2]
   30492:	4798      	blx	r3
   30494:	7a6b      	ldrb	r3, [r5, #9]
   30496:	3401      	adds	r4, #1
   30498:	3301      	adds	r3, #1
   3049a:	726b      	strb	r3, [r5, #9]
   3049c:	0022      	movs	r2, r4
   3049e:	4905      	ldr	r1, [pc, #20]	; (304b4 <appm_add_svc+0x34>)
   304a0:	4805      	ldr	r0, [pc, #20]	; (304b8 <appm_add_svc+0x38>)
   304a2:	f7ff feef 	bl	30284 <uart2_printf>
   304a6:	0020      	movs	r0, r4
   304a8:	bd70      	pop	{r4, r5, r6, pc}
   304aa:	46c0      	nop			; (mov r8, r8)
   304ac:	00401976 	.word	0x00401976
   304b0:	0003f8dc 	.word	0x0003f8dc
   304b4:	0003f38f 	.word	0x0003f38f
   304b8:	0003dfcc 	.word	0x0003dfcc

000304bc <app_oad_add_oads>:
   304bc:	b510      	push	{r4, lr}
   304be:	480c      	ldr	r0, [pc, #48]	; (304f0 <app_oad_add_oads+0x34>)
   304c0:	f7ff fee0 	bl	30284 <uart2_printf>
   304c4:	230e      	movs	r3, #14
   304c6:	2203      	movs	r2, #3
   304c8:	2107      	movs	r1, #7
   304ca:	480a      	ldr	r0, [pc, #40]	; (304f4 <app_oad_add_oads+0x38>)
   304cc:	f7f6 fbc6 	bl	26c5c <ke_msg_alloc>
   304d0:	4b09      	ldr	r3, [pc, #36]	; (304f8 <app_oad_add_oads+0x3c>)
   304d2:	2203      	movs	r2, #3
   304d4:	6003      	str	r3, [r0, #0]
   304d6:	2301      	movs	r3, #1
   304d8:	0004      	movs	r4, r0
   304da:	6042      	str	r2, [r0, #4]
   304dc:	7343      	strb	r3, [r0, #13]
   304de:	2107      	movs	r1, #7
   304e0:	4806      	ldr	r0, [pc, #24]	; (304fc <app_oad_add_oads+0x40>)
   304e2:	f7ff fecf 	bl	30284 <uart2_printf>
   304e6:	0020      	movs	r0, r4
   304e8:	f7f6 fbd2 	bl	26c90 <ke_msg_send>
   304ec:	bd10      	pop	{r4, pc}
   304ee:	46c0      	nop			; (mov r8, r8)
   304f0:	0003dfdd 	.word	0x0003dfdd
   304f4:	00000d1b 	.word	0x00000d1b
   304f8:	0049001b 	.word	0x0049001b
   304fc:	0003dff0 	.word	0x0003dff0

00030500 <app_oads_msg_dflt_handler>:
   30500:	b570      	push	{r4, r5, r6, lr}
   30502:	0015      	movs	r5, r2
   30504:	001e      	movs	r6, r3
   30506:	0004      	movs	r4, r0
   30508:	4905      	ldr	r1, [pc, #20]	; (30520 <app_oads_msg_dflt_handler+0x20>)
   3050a:	4806      	ldr	r0, [pc, #24]	; (30524 <app_oads_msg_dflt_handler+0x24>)
   3050c:	f7ff feba 	bl	30284 <uart2_printf>
   30510:	0033      	movs	r3, r6
   30512:	002a      	movs	r2, r5
   30514:	0021      	movs	r1, r4
   30516:	4804      	ldr	r0, [pc, #16]	; (30528 <app_oads_msg_dflt_handler+0x28>)
   30518:	f7ff feb4 	bl	30284 <uart2_printf>
   3051c:	2000      	movs	r0, #0
   3051e:	bd70      	pop	{r4, r5, r6, pc}
   30520:	0003f2af 	.word	0x0003f2af
   30524:	0003e455 	.word	0x0003e455
   30528:	0003e011 	.word	0x0003e011

0003052c <app_ffc2_writer_req_handler>:
   3052c:	b510      	push	{r4, lr}
   3052e:	4903      	ldr	r1, [pc, #12]	; (3053c <app_ffc2_writer_req_handler+0x10>)
   30530:	4803      	ldr	r0, [pc, #12]	; (30540 <app_ffc2_writer_req_handler+0x14>)
   30532:	f7ff fea7 	bl	30284 <uart2_printf>
   30536:	2000      	movs	r0, #0
   30538:	bd10      	pop	{r4, pc}
   3053a:	46c0      	nop			; (mov r8, r8)
   3053c:	0003f5ee 	.word	0x0003f5ee
   30540:	0003e455 	.word	0x0003e455

00030544 <oads_ffc1_upd_rsp_handler>:
   30544:	b510      	push	{r4, lr}
   30546:	4903      	ldr	r1, [pc, #12]	; (30554 <oads_ffc1_upd_rsp_handler+0x10>)
   30548:	4803      	ldr	r0, [pc, #12]	; (30558 <oads_ffc1_upd_rsp_handler+0x14>)
   3054a:	f7ff fe9b 	bl	30284 <uart2_printf>
   3054e:	2000      	movs	r0, #0
   30550:	bd10      	pop	{r4, pc}
   30552:	46c0      	nop			; (mov r8, r8)
   30554:	0003f53c 	.word	0x0003f53c
   30558:	0003e455 	.word	0x0003e455

0003055c <oads_ffc2_upd_rsp_handler>:
   3055c:	b510      	push	{r4, lr}
   3055e:	4903      	ldr	r1, [pc, #12]	; (3056c <oads_ffc2_upd_rsp_handler+0x10>)
   30560:	4803      	ldr	r0, [pc, #12]	; (30570 <oads_ffc2_upd_rsp_handler+0x14>)
   30562:	f7ff fe8f 	bl	30284 <uart2_printf>
   30566:	2000      	movs	r0, #0
   30568:	bd10      	pop	{r4, pc}
   3056a:	46c0      	nop			; (mov r8, r8)
   3056c:	0003f693 	.word	0x0003f693
   30570:	0003e455 	.word	0x0003e455

00030574 <gapm_activity_created_ind_handler>:
   30574:	b510      	push	{r4, lr}
   30576:	4814      	ldr	r0, [pc, #80]	; (305c8 <gapm_activity_created_ind_handler+0x54>)
   30578:	780b      	ldrb	r3, [r1, #0]
   3057a:	784a      	ldrb	r2, [r1, #1]
   3057c:	000c      	movs	r4, r1
   3057e:	4913      	ldr	r1, [pc, #76]	; (305cc <gapm_activity_created_ind_handler+0x58>)
   30580:	f7ff fe80 	bl	30284 <uart2_printf>
   30584:	4b12      	ldr	r3, [pc, #72]	; (305d0 <gapm_activity_created_ind_handler+0x5c>)
   30586:	791a      	ldrb	r2, [r3, #4]
   30588:	2a01      	cmp	r2, #1
   3058a:	d106      	bne.n	3059a <gapm_activity_created_ind_handler+0x26>
   3058c:	7862      	ldrb	r2, [r4, #1]
   3058e:	2a00      	cmp	r2, #0
   30590:	d103      	bne.n	3059a <gapm_activity_created_ind_handler+0x26>
   30592:	7822      	ldrb	r2, [r4, #0]
   30594:	2a00      	cmp	r2, #0
   30596:	d100      	bne.n	3059a <gapm_activity_created_ind_handler+0x26>
   30598:	70da      	strb	r2, [r3, #3]
   3059a:	799a      	ldrb	r2, [r3, #6]
   3059c:	2a01      	cmp	r2, #1
   3059e:	d108      	bne.n	305b2 <gapm_activity_created_ind_handler+0x3e>
   305a0:	7862      	ldrb	r2, [r4, #1]
   305a2:	2a01      	cmp	r2, #1
   305a4:	d105      	bne.n	305b2 <gapm_activity_created_ind_handler+0x3e>
   305a6:	7822      	ldrb	r2, [r4, #0]
   305a8:	715a      	strb	r2, [r3, #5]
   305aa:	2202      	movs	r2, #2
   305ac:	719a      	strb	r2, [r3, #6]
   305ae:	2000      	movs	r0, #0
   305b0:	bd10      	pop	{r4, pc}
   305b2:	7a1a      	ldrb	r2, [r3, #8]
   305b4:	2a01      	cmp	r2, #1
   305b6:	d1fa      	bne.n	305ae <gapm_activity_created_ind_handler+0x3a>
   305b8:	7862      	ldrb	r2, [r4, #1]
   305ba:	2a02      	cmp	r2, #2
   305bc:	d1f7      	bne.n	305ae <gapm_activity_created_ind_handler+0x3a>
   305be:	7821      	ldrb	r1, [r4, #0]
   305c0:	721a      	strb	r2, [r3, #8]
   305c2:	71d9      	strb	r1, [r3, #7]
   305c4:	e7f3      	b.n	305ae <gapm_activity_created_ind_handler+0x3a>
   305c6:	46c0      	nop			; (mov r8, r8)
   305c8:	0003e03d 	.word	0x0003e03d
   305cc:	0003f402 	.word	0x0003f402
   305d0:	00401976 	.word	0x00401976

000305d4 <gapc_param_update_req_ind_handler>:
   305d4:	b510      	push	{r4, lr}
   305d6:	4c0e      	ldr	r4, [pc, #56]	; (30610 <gapc_param_update_req_ind_handler+0x3c>)
   305d8:	0a1b      	lsrs	r3, r3, #8
   305da:	480e      	ldr	r0, [pc, #56]	; (30614 <gapc_param_update_req_ind_handler+0x40>)
   305dc:	70a3      	strb	r3, [r4, #2]
   305de:	f7ff fe51 	bl	30284 <uart2_printf>
   305e2:	78a1      	ldrb	r1, [r4, #2]
   305e4:	29ff      	cmp	r1, #255	; 0xff
   305e6:	d010      	beq.n	3060a <gapc_param_update_req_ind_handler+0x36>
   305e8:	2308      	movs	r3, #8
   305ea:	20e1      	movs	r0, #225	; 0xe1
   305ec:	0209      	lsls	r1, r1, #8
   305ee:	4319      	orrs	r1, r3
   305f0:	2203      	movs	r2, #3
   305f2:	3b02      	subs	r3, #2
   305f4:	0100      	lsls	r0, r0, #4
   305f6:	f7f6 fb31 	bl	26c5c <ke_msg_alloc>
   305fa:	2301      	movs	r3, #1
   305fc:	7003      	strb	r3, [r0, #0]
   305fe:	18db      	adds	r3, r3, r3
   30600:	8043      	strh	r3, [r0, #2]
   30602:	3302      	adds	r3, #2
   30604:	8083      	strh	r3, [r0, #4]
   30606:	f7f6 fb43 	bl	26c90 <ke_msg_send>
   3060a:	2000      	movs	r0, #0
   3060c:	bd10      	pop	{r4, pc}
   3060e:	46c0      	nop			; (mov r8, r8)
   30610:	00401976 	.word	0x00401976
   30614:	0003e06e 	.word	0x0003e06e

00030618 <gapc_param_updated_ind_handler>:
   30618:	b510      	push	{r4, lr}
   3061a:	000c      	movs	r4, r1
   3061c:	4908      	ldr	r1, [pc, #32]	; (30640 <gapc_param_updated_ind_handler+0x28>)
   3061e:	4809      	ldr	r0, [pc, #36]	; (30644 <gapc_param_updated_ind_handler+0x2c>)
   30620:	f7ff fe30 	bl	30284 <uart2_printf>
   30624:	8821      	ldrh	r1, [r4, #0]
   30626:	4808      	ldr	r0, [pc, #32]	; (30648 <gapc_param_updated_ind_handler+0x30>)
   30628:	f7ff fe2c 	bl	30284 <uart2_printf>
   3062c:	8861      	ldrh	r1, [r4, #2]
   3062e:	4807      	ldr	r0, [pc, #28]	; (3064c <gapc_param_updated_ind_handler+0x34>)
   30630:	f7ff fe28 	bl	30284 <uart2_printf>
   30634:	88a1      	ldrh	r1, [r4, #4]
   30636:	4806      	ldr	r0, [pc, #24]	; (30650 <gapc_param_updated_ind_handler+0x38>)
   30638:	f7ff fe24 	bl	30284 <uart2_printf>
   3063c:	2000      	movs	r0, #0
   3063e:	bd10      	pop	{r4, pc}
   30640:	0003f73b 	.word	0x0003f73b
   30644:	0003ebdb 	.word	0x0003ebdb
   30648:	0003e091 	.word	0x0003e091
   3064c:	0003e0a5 	.word	0x0003e0a5
   30650:	0003e0b8 	.word	0x0003e0b8

00030654 <gapm_scan_request_ind_handler>:
   30654:	b570      	push	{r4, r5, r6, lr}
   30656:	000c      	movs	r4, r1
   30658:	480c      	ldr	r0, [pc, #48]	; (3068c <gapm_scan_request_ind_handler+0x38>)
   3065a:	490d      	ldr	r1, [pc, #52]	; (30690 <gapm_scan_request_ind_handler+0x3c>)
   3065c:	f7ff fe12 	bl	30284 <uart2_printf>
   30660:	79e2      	ldrb	r2, [r4, #7]
   30662:	7821      	ldrb	r1, [r4, #0]
   30664:	480b      	ldr	r0, [pc, #44]	; (30694 <gapm_scan_request_ind_handler+0x40>)
   30666:	f7ff fe0d 	bl	30284 <uart2_printf>
   3066a:	480b      	ldr	r0, [pc, #44]	; (30698 <gapm_scan_request_ind_handler+0x44>)
   3066c:	f7ff fe0a 	bl	30284 <uart2_printf>
   30670:	1c65      	adds	r5, r4, #1
   30672:	3407      	adds	r4, #7
   30674:	7829      	ldrb	r1, [r5, #0]
   30676:	4809      	ldr	r0, [pc, #36]	; (3069c <gapm_scan_request_ind_handler+0x48>)
   30678:	3501      	adds	r5, #1
   3067a:	f7ff fe03 	bl	30284 <uart2_printf>
   3067e:	42a5      	cmp	r5, r4
   30680:	d1f8      	bne.n	30674 <gapm_scan_request_ind_handler+0x20>
   30682:	4807      	ldr	r0, [pc, #28]	; (306a0 <gapm_scan_request_ind_handler+0x4c>)
   30684:	f7ff fdfe 	bl	30284 <uart2_printf>
   30688:	2000      	movs	r0, #0
   3068a:	bd70      	pop	{r4, r5, r6, pc}
   3068c:	0003e455 	.word	0x0003e455
   30690:	0003f6ad 	.word	0x0003f6ad
   30694:	0003e0c6 	.word	0x0003e0c6
   30698:	0003e0e1 	.word	0x0003e0e1
   3069c:	0003e0e7 	.word	0x0003e0e7
   306a0:	0003e974 	.word	0x0003e974

000306a4 <app_update_conn_param_req_ind_handler>:
   306a4:	b513      	push	{r0, r1, r4, lr}
   306a6:	4809      	ldr	r0, [pc, #36]	; (306cc <app_update_conn_param_req_ind_handler+0x28>)
   306a8:	f7ff fdec 	bl	30284 <uart2_printf>
   306ac:	466a      	mov	r2, sp
   306ae:	233c      	movs	r3, #60	; 0x3c
   306b0:	8013      	strh	r3, [r2, #0]
   306b2:	3328      	adds	r3, #40	; 0x28
   306b4:	8053      	strh	r3, [r2, #2]
   306b6:	2396      	movs	r3, #150	; 0x96
   306b8:	2400      	movs	r4, #0
   306ba:	4668      	mov	r0, sp
   306bc:	009b      	lsls	r3, r3, #2
   306be:	8094      	strh	r4, [r2, #4]
   306c0:	80d3      	strh	r3, [r2, #6]
   306c2:	f7ff fda3 	bl	3020c <appm_update_param.constprop.0>
   306c6:	0020      	movs	r0, r4
   306c8:	bd16      	pop	{r1, r2, r4, pc}
   306ca:	46c0      	nop			; (mov r8, r8)
   306cc:	0003e0ee 	.word	0x0003e0ee

000306d0 <app_mtu_exchange_req_handler>:
   306d0:	b510      	push	{r4, lr}
   306d2:	490b      	ldr	r1, [pc, #44]	; (30700 <app_mtu_exchange_req_handler+0x30>)
   306d4:	480b      	ldr	r0, [pc, #44]	; (30704 <app_mtu_exchange_req_handler+0x34>)
   306d6:	f7ff fdd5 	bl	30284 <uart2_printf>
   306da:	2106      	movs	r1, #6
   306dc:	4b0a      	ldr	r3, [pc, #40]	; (30708 <app_mtu_exchange_req_handler+0x38>)
   306de:	2203      	movs	r2, #3
   306e0:	789b      	ldrb	r3, [r3, #2]
   306e2:	480a      	ldr	r0, [pc, #40]	; (3070c <app_mtu_exchange_req_handler+0x3c>)
   306e4:	021b      	lsls	r3, r3, #8
   306e6:	4319      	orrs	r1, r3
   306e8:	2304      	movs	r3, #4
   306ea:	f7f6 fab7 	bl	26c5c <ke_msg_alloc>
   306ee:	2400      	movs	r4, #0
   306f0:	2301      	movs	r3, #1
   306f2:	8044      	strh	r4, [r0, #2]
   306f4:	7003      	strb	r3, [r0, #0]
   306f6:	f7f6 facb 	bl	26c90 <ke_msg_send>
   306fa:	0020      	movs	r0, r4
   306fc:	bd10      	pop	{r4, pc}
   306fe:	46c0      	nop			; (mov r8, r8)
   30700:	0003f7b5 	.word	0x0003f7b5
   30704:	0003ebdb 	.word	0x0003ebdb
   30708:	00401976 	.word	0x00401976
   3070c:	00000c01 	.word	0x00000c01

00030710 <gapm_mesh_pub_key_ind_handler>:
   30710:	b5f7      	push	{r0, r1, r2, r4, r5, r6, r7, lr}
   30712:	000c      	movs	r4, r1
   30714:	481d      	ldr	r0, [pc, #116]	; (3078c <gapm_mesh_pub_key_ind_handler+0x7c>)
   30716:	0027      	movs	r7, r4
   30718:	f7ff fdb4 	bl	30284 <uart2_printf>
   3071c:	0025      	movs	r5, r4
   3071e:	3720      	adds	r7, #32
   30720:	7829      	ldrb	r1, [r5, #0]
   30722:	481b      	ldr	r0, [pc, #108]	; (30790 <gapm_mesh_pub_key_ind_handler+0x80>)
   30724:	3501      	adds	r5, #1
   30726:	f7ff fdad 	bl	30284 <uart2_printf>
   3072a:	42bd      	cmp	r5, r7
   3072c:	d1f8      	bne.n	30720 <gapm_mesh_pub_key_ind_handler+0x10>
   3072e:	4e19      	ldr	r6, [pc, #100]	; (30794 <gapm_mesh_pub_key_ind_handler+0x84>)
   30730:	003d      	movs	r5, r7
   30732:	0030      	movs	r0, r6
   30734:	f7ff fda6 	bl	30284 <uart2_printf>
   30738:	4817      	ldr	r0, [pc, #92]	; (30798 <gapm_mesh_pub_key_ind_handler+0x88>)
   3073a:	f7ff fda3 	bl	30284 <uart2_printf>
   3073e:	0023      	movs	r3, r4
   30740:	3340      	adds	r3, #64	; 0x40
   30742:	9301      	str	r3, [sp, #4]
   30744:	7829      	ldrb	r1, [r5, #0]
   30746:	4812      	ldr	r0, [pc, #72]	; (30790 <gapm_mesh_pub_key_ind_handler+0x80>)
   30748:	f7ff fd9c 	bl	30284 <uart2_printf>
   3074c:	9b01      	ldr	r3, [sp, #4]
   3074e:	3501      	adds	r5, #1
   30750:	429d      	cmp	r5, r3
   30752:	d1f7      	bne.n	30744 <gapm_mesh_pub_key_ind_handler+0x34>
   30754:	0030      	movs	r0, r6
   30756:	f7ff fd95 	bl	30284 <uart2_printf>
   3075a:	2341      	movs	r3, #65	; 0x41
   3075c:	2208      	movs	r2, #8
   3075e:	2107      	movs	r1, #7
   30760:	480e      	ldr	r0, [pc, #56]	; (3079c <gapm_mesh_pub_key_ind_handler+0x8c>)
   30762:	f7f6 fa7b 	bl	26c5c <ke_msg_alloc>
   30766:	232e      	movs	r3, #46	; 0x2e
   30768:	0005      	movs	r5, r0
   3076a:	7003      	strb	r3, [r0, #0]
   3076c:	0021      	movs	r1, r4
   3076e:	2220      	movs	r2, #32
   30770:	3001      	adds	r0, #1
   30772:	f005 fcb3 	bl	360dc <memcpy>
   30776:	0028      	movs	r0, r5
   30778:	0039      	movs	r1, r7
   3077a:	2220      	movs	r2, #32
   3077c:	3021      	adds	r0, #33	; 0x21
   3077e:	f005 fcad 	bl	360dc <memcpy>
   30782:	0028      	movs	r0, r5
   30784:	f7f6 fa84 	bl	26c90 <ke_msg_send>
   30788:	2000      	movs	r0, #0
   3078a:	bdfe      	pop	{r1, r2, r3, r4, r5, r6, r7, pc}
   3078c:	0003e10c 	.word	0x0003e10c
   30790:	0003e118 	.word	0x0003e118
   30794:	0003e975 	.word	0x0003e975
   30798:	0003e120 	.word	0x0003e120
   3079c:	00000d29 	.word	0x00000d29

000307a0 <gapm_mesh_gen_dh_key_ind_handler>:
   307a0:	b570      	push	{r4, r5, r6, lr}
   307a2:	000c      	movs	r4, r1
   307a4:	4808      	ldr	r0, [pc, #32]	; (307c8 <gapm_mesh_gen_dh_key_ind_handler+0x28>)
   307a6:	0025      	movs	r5, r4
   307a8:	f7ff fd6c 	bl	30284 <uart2_printf>
   307ac:	3520      	adds	r5, #32
   307ae:	7821      	ldrb	r1, [r4, #0]
   307b0:	4806      	ldr	r0, [pc, #24]	; (307cc <gapm_mesh_gen_dh_key_ind_handler+0x2c>)
   307b2:	3401      	adds	r4, #1
   307b4:	f7ff fd66 	bl	30284 <uart2_printf>
   307b8:	42ac      	cmp	r4, r5
   307ba:	d1f8      	bne.n	307ae <gapm_mesh_gen_dh_key_ind_handler+0xe>
   307bc:	4804      	ldr	r0, [pc, #16]	; (307d0 <gapm_mesh_gen_dh_key_ind_handler+0x30>)
   307be:	f7ff fd61 	bl	30284 <uart2_printf>
   307c2:	2000      	movs	r0, #0
   307c4:	bd70      	pop	{r4, r5, r6, pc}
   307c6:	46c0      	nop			; (mov r8, r8)
   307c8:	0003e12c 	.word	0x0003e12c
   307cc:	0003e118 	.word	0x0003e118
   307d0:	0003e975 	.word	0x0003e975

000307d4 <app_start_smpc_handler>:
   307d4:	b570      	push	{r4, r5, r6, lr}
   307d6:	4d15      	ldr	r5, [pc, #84]	; (3082c <app_start_smpc_handler+0x58>)
   307d8:	4915      	ldr	r1, [pc, #84]	; (30830 <app_start_smpc_handler+0x5c>)
   307da:	0028      	movs	r0, r5
   307dc:	f7ff fd52 	bl	30284 <uart2_printf>
   307e0:	2102      	movs	r1, #2
   307e2:	4b14      	ldr	r3, [pc, #80]	; (30834 <app_start_smpc_handler+0x60>)
   307e4:	2203      	movs	r2, #3
   307e6:	5659      	ldrsb	r1, [r3, r1]
   307e8:	2308      	movs	r3, #8
   307ea:	0209      	lsls	r1, r1, #8
   307ec:	430a      	orrs	r2, r1
   307ee:	4319      	orrs	r1, r3
   307f0:	0412      	lsls	r2, r2, #16
   307f2:	0409      	lsls	r1, r1, #16
   307f4:	0c12      	lsrs	r2, r2, #16
   307f6:	0c09      	lsrs	r1, r1, #16
   307f8:	480f      	ldr	r0, [pc, #60]	; (30838 <app_start_smpc_handler+0x64>)
   307fa:	f7f6 fa2f 	bl	26c5c <ke_msg_alloc>
   307fe:	490f      	ldr	r1, [pc, #60]	; (3083c <app_start_smpc_handler+0x68>)
   30800:	0004      	movs	r4, r0
   30802:	0028      	movs	r0, r5
   30804:	f7ff fd3e 	bl	30284 <uart2_printf>
   30808:	230a      	movs	r3, #10
   3080a:	2500      	movs	r5, #0
   3080c:	7023      	strb	r3, [r4, #0]
   3080e:	3b06      	subs	r3, #6
   30810:	7063      	strb	r3, [r4, #1]
   30812:	3301      	adds	r3, #1
   30814:	70e3      	strb	r3, [r4, #3]
   30816:	330b      	adds	r3, #11
   30818:	7123      	strb	r3, [r4, #4]
   3081a:	3b09      	subs	r3, #9
   3081c:	0020      	movs	r0, r4
   3081e:	70a5      	strb	r5, [r4, #2]
   30820:	7163      	strb	r3, [r4, #5]
   30822:	71a3      	strb	r3, [r4, #6]
   30824:	f7f6 fa34 	bl	26c90 <ke_msg_send>
   30828:	0028      	movs	r0, r5
   3082a:	bd70      	pop	{r4, r5, r6, pc}
   3082c:	0003e455 	.word	0x0003e455
   30830:	0003f4da 	.word	0x0003f4da
   30834:	00401976 	.word	0x00401976
   30838:	00000e12 	.word	0x00000e12
   3083c:	0003f37a 	.word	0x0003f37a

00030840 <app_start_encrypt_handler>:
   30840:	b570      	push	{r4, r5, r6, lr}
   30842:	4929      	ldr	r1, [pc, #164]	; (308e8 <app_start_encrypt_handler+0xa8>)
   30844:	b088      	sub	sp, #32
   30846:	4829      	ldr	r0, [pc, #164]	; (308ec <app_start_encrypt_handler+0xac>)
   30848:	f7ff fd1c 	bl	30284 <uart2_printf>
   3084c:	4828      	ldr	r0, [pc, #160]	; (308f0 <app_start_encrypt_handler+0xb0>)
   3084e:	f7ff fd19 	bl	30284 <uart2_printf>
   30852:	4928      	ldr	r1, [pc, #160]	; (308f4 <app_start_encrypt_handler+0xb4>)
   30854:	221c      	movs	r2, #28
   30856:	310d      	adds	r1, #13
   30858:	a801      	add	r0, sp, #4
   3085a:	f005 fc3f 	bl	360dc <memcpy>
   3085e:	466b      	mov	r3, sp
   30860:	4825      	ldr	r0, [pc, #148]	; (308f8 <app_start_encrypt_handler+0xb8>)
   30862:	8a99      	ldrh	r1, [r3, #20]
   30864:	f7ff fd0e 	bl	30284 <uart2_printf>
   30868:	4824      	ldr	r0, [pc, #144]	; (308fc <app_start_encrypt_handler+0xbc>)
   3086a:	f7ff fd0b 	bl	30284 <uart2_printf>
   3086e:	2400      	movs	r4, #0
   30870:	466b      	mov	r3, sp
   30872:	4e23      	ldr	r6, [pc, #140]	; (30900 <app_start_encrypt_handler+0xc0>)
   30874:	3304      	adds	r3, #4
   30876:	5d19      	ldrb	r1, [r3, r4]
   30878:	0030      	movs	r0, r6
   3087a:	3401      	adds	r4, #1
   3087c:	f7ff fd02 	bl	30284 <uart2_printf>
   30880:	2c08      	cmp	r4, #8
   30882:	d1f5      	bne.n	30870 <app_start_encrypt_handler+0x30>
   30884:	4d1f      	ldr	r5, [pc, #124]	; (30904 <app_start_encrypt_handler+0xc4>)
   30886:	2400      	movs	r4, #0
   30888:	0028      	movs	r0, r5
   3088a:	f7ff fcfb 	bl	30284 <uart2_printf>
   3088e:	481e      	ldr	r0, [pc, #120]	; (30908 <app_start_encrypt_handler+0xc8>)
   30890:	f7ff fcf8 	bl	30284 <uart2_printf>
   30894:	ab01      	add	r3, sp, #4
   30896:	191b      	adds	r3, r3, r4
   30898:	0030      	movs	r0, r6
   3089a:	7c99      	ldrb	r1, [r3, #18]
   3089c:	3401      	adds	r4, #1
   3089e:	f7ff fcf1 	bl	30284 <uart2_printf>
   308a2:	2c08      	cmp	r4, #8
   308a4:	d1f6      	bne.n	30894 <app_start_encrypt_handler+0x54>
   308a6:	0028      	movs	r0, r5
   308a8:	f7ff fcec 	bl	30284 <uart2_printf>
   308ac:	2102      	movs	r1, #2
   308ae:	2203      	movs	r2, #3
   308b0:	4b16      	ldr	r3, [pc, #88]	; (3090c <app_start_encrypt_handler+0xcc>)
   308b2:	4817      	ldr	r0, [pc, #92]	; (30910 <app_start_encrypt_handler+0xd0>)
   308b4:	5659      	ldrsb	r1, [r3, r1]
   308b6:	231e      	movs	r3, #30
   308b8:	0209      	lsls	r1, r1, #8
   308ba:	430a      	orrs	r2, r1
   308bc:	4321      	orrs	r1, r4
   308be:	0412      	lsls	r2, r2, #16
   308c0:	0409      	lsls	r1, r1, #16
   308c2:	0c12      	lsrs	r2, r2, #16
   308c4:	0c09      	lsrs	r1, r1, #16
   308c6:	f7f6 f9c9 	bl	26c5c <ke_msg_alloc>
   308ca:	230b      	movs	r3, #11
   308cc:	0004      	movs	r4, r0
   308ce:	7003      	strb	r3, [r0, #0]
   308d0:	221c      	movs	r2, #28
   308d2:	a901      	add	r1, sp, #4
   308d4:	3002      	adds	r0, #2
   308d6:	f005 fc01 	bl	360dc <memcpy>
   308da:	0020      	movs	r0, r4
   308dc:	f7f6 f9d8 	bl	26c90 <ke_msg_send>
   308e0:	2000      	movs	r0, #0
   308e2:	b008      	add	sp, #32
   308e4:	bd70      	pop	{r4, r5, r6, pc}
   308e6:	46c0      	nop			; (mov r8, r8)
   308e8:	0003f4f1 	.word	0x0003f4f1
   308ec:	0003e455 	.word	0x0003e455
   308f0:	0003e135 	.word	0x0003e135
   308f4:	004019b1 	.word	0x004019b1
   308f8:	0003e14b 	.word	0x0003e14b
   308fc:	0003e162 	.word	0x0003e162
   30900:	0003e174 	.word	0x0003e174
   30904:	0003e974 	.word	0x0003e974
   30908:	0003e17a 	.word	0x0003e17a
   3090c:	00401976 	.word	0x00401976
   30910:	00000e16 	.word	0x00000e16

00030914 <fcc0s_fcc2_val_ntf_cfg_ind_handler>:
   30914:	b510      	push	{r4, lr}
   30916:	4803      	ldr	r0, [pc, #12]	; (30924 <fcc0s_fcc2_val_ntf_cfg_ind_handler+0x10>)
   30918:	8849      	ldrh	r1, [r1, #2]
   3091a:	f7ff fcb3 	bl	30284 <uart2_printf>
   3091e:	2000      	movs	r0, #0
   30920:	bd10      	pop	{r4, pc}
   30922:	46c0      	nop			; (mov r8, r8)
   30924:	0003e18e 	.word	0x0003e18e

00030928 <fcc2_val_upd_rsp_handler>:
   30928:	b570      	push	{r4, r5, r6, lr}
   3092a:	000c      	movs	r4, r1
   3092c:	784a      	ldrb	r2, [r1, #1]
   3092e:	4806      	ldr	r0, [pc, #24]	; (30948 <fcc2_val_upd_rsp_handler+0x20>)
   30930:	4906      	ldr	r1, [pc, #24]	; (3094c <fcc2_val_upd_rsp_handler+0x24>)
   30932:	001d      	movs	r5, r3
   30934:	f7ff fca6 	bl	30284 <uart2_printf>
   30938:	7861      	ldrb	r1, [r4, #1]
   3093a:	2900      	cmp	r1, #0
   3093c:	d102      	bne.n	30944 <fcc2_val_upd_rsp_handler+0x1c>
   3093e:	0028      	movs	r0, r5
   30940:	f7f6 fe44 	bl	275cc <ke_state_set>
   30944:	2000      	movs	r0, #0
   30946:	bd70      	pop	{r4, r5, r6, pc}
   30948:	0003e1aa 	.word	0x0003e1aa
   3094c:	0003f424 	.word	0x0003f424

00030950 <app_fcc0_msg_dflt_handler>:
   30950:	b510      	push	{r4, lr}
   30952:	4903      	ldr	r1, [pc, #12]	; (30960 <app_fcc0_msg_dflt_handler+0x10>)
   30954:	4803      	ldr	r0, [pc, #12]	; (30964 <app_fcc0_msg_dflt_handler+0x14>)
   30956:	f7ff fc95 	bl	30284 <uart2_printf>
   3095a:	2000      	movs	r0, #0
   3095c:	bd10      	pop	{r4, pc}
   3095e:	46c0      	nop			; (mov r8, r8)
   30960:	0003f2e8 	.word	0x0003f2e8
   30964:	0003e455 	.word	0x0003e455

00030968 <fee0s_fee4_val_ntf_cfg_ind_handler>:
   30968:	b510      	push	{r4, lr}
   3096a:	4803      	ldr	r0, [pc, #12]	; (30978 <fee0s_fee4_val_ntf_cfg_ind_handler+0x10>)
   3096c:	8849      	ldrh	r1, [r1, #2]
   3096e:	f7ff fc89 	bl	30284 <uart2_printf>
   30972:	2000      	movs	r0, #0
   30974:	bd10      	pop	{r4, pc}
   30976:	46c0      	nop			; (mov r8, r8)
   30978:	0003e1b9 	.word	0x0003e1b9

0003097c <fee0s_fee5_val_ind_cfg_ind_handler>:
   3097c:	b510      	push	{r4, lr}
   3097e:	4803      	ldr	r0, [pc, #12]	; (3098c <fee0s_fee5_val_ind_cfg_ind_handler+0x10>)
   30980:	8849      	ldrh	r1, [r1, #2]
   30982:	f7ff fc7f 	bl	30284 <uart2_printf>
   30986:	2000      	movs	r0, #0
   30988:	bd10      	pop	{r4, pc}
   3098a:	46c0      	nop			; (mov r8, r8)
   3098c:	0003e1d5 	.word	0x0003e1d5

00030990 <fee5_val_upd_rsp_handler>:
   30990:	b570      	push	{r4, r5, r6, lr}
   30992:	000c      	movs	r4, r1
   30994:	784a      	ldrb	r2, [r1, #1]
   30996:	4806      	ldr	r0, [pc, #24]	; (309b0 <fee5_val_upd_rsp_handler+0x20>)
   30998:	4906      	ldr	r1, [pc, #24]	; (309b4 <fee5_val_upd_rsp_handler+0x24>)
   3099a:	001d      	movs	r5, r3
   3099c:	f7ff fc72 	bl	30284 <uart2_printf>
   309a0:	7861      	ldrb	r1, [r4, #1]
   309a2:	2900      	cmp	r1, #0
   309a4:	d102      	bne.n	309ac <fee5_val_upd_rsp_handler+0x1c>
   309a6:	0028      	movs	r0, r5
   309a8:	f7f6 fe10 	bl	275cc <ke_state_set>
   309ac:	2000      	movs	r0, #0
   309ae:	bd70      	pop	{r4, r5, r6, pc}
   309b0:	0003e1aa 	.word	0x0003e1aa
   309b4:	0003f43d 	.word	0x0003f43d

000309b8 <app_fee0_msg_dflt_handler>:
   309b8:	b510      	push	{r4, lr}
   309ba:	4903      	ldr	r1, [pc, #12]	; (309c8 <app_fee0_msg_dflt_handler+0x10>)
   309bc:	4803      	ldr	r0, [pc, #12]	; (309cc <app_fee0_msg_dflt_handler+0x14>)
   309be:	f7ff fc61 	bl	30284 <uart2_printf>
   309c2:	2000      	movs	r0, #0
   309c4:	bd10      	pop	{r4, pc}
   309c6:	46c0      	nop			; (mov r8, r8)
   309c8:	0003f302 	.word	0x0003f302
   309cc:	0003e455 	.word	0x0003e455

000309d0 <fee3_writer_req_handler>:
   309d0:	b570      	push	{r4, r5, r6, lr}
   309d2:	480c      	ldr	r0, [pc, #48]	; (30a04 <fee3_writer_req_handler+0x34>)
   309d4:	884a      	ldrh	r2, [r1, #2]
   309d6:	000d      	movs	r5, r1
   309d8:	7809      	ldrb	r1, [r1, #0]
   309da:	f7ff fc53 	bl	30284 <uart2_printf>
   309de:	2400      	movs	r4, #0
   309e0:	886b      	ldrh	r3, [r5, #2]
   309e2:	42a3      	cmp	r3, r4
   309e4:	d804      	bhi.n	309f0 <fee3_writer_req_handler+0x20>
   309e6:	4808      	ldr	r0, [pc, #32]	; (30a08 <fee3_writer_req_handler+0x38>)
   309e8:	f7ff fc4c 	bl	30284 <uart2_printf>
   309ec:	2000      	movs	r0, #0
   309ee:	bd70      	pop	{r4, r5, r6, pc}
   309f0:	192b      	adds	r3, r5, r4
   309f2:	3401      	adds	r4, #1
   309f4:	7919      	ldrb	r1, [r3, #4]
   309f6:	4805      	ldr	r0, [pc, #20]	; (30a0c <fee3_writer_req_handler+0x3c>)
   309f8:	0424      	lsls	r4, r4, #16
   309fa:	f7ff fc43 	bl	30284 <uart2_printf>
   309fe:	0c24      	lsrs	r4, r4, #16
   30a00:	e7ee      	b.n	309e0 <fee3_writer_req_handler+0x10>
   30a02:	46c0      	nop			; (mov r8, r8)
   30a04:	0003e1f1 	.word	0x0003e1f1
   30a08:	0003e974 	.word	0x0003e974
   30a0c:	0003e0e8 	.word	0x0003e0e8

00030a10 <appm_start_advertising>:
   30a10:	b510      	push	{r4, lr}
   30a12:	4c0d      	ldr	r4, [pc, #52]	; (30a48 <appm_start_advertising+0x38>)
   30a14:	490d      	ldr	r1, [pc, #52]	; (30a4c <appm_start_advertising+0x3c>)
   30a16:	7922      	ldrb	r2, [r4, #4]
   30a18:	480d      	ldr	r0, [pc, #52]	; (30a50 <appm_start_advertising+0x40>)
   30a1a:	f7ff fc33 	bl	30284 <uart2_printf>
   30a1e:	7923      	ldrb	r3, [r4, #4]
   30a20:	2b06      	cmp	r3, #6
   30a22:	d110      	bne.n	30a46 <appm_start_advertising+0x36>
   30a24:	2203      	movs	r2, #3
   30a26:	2107      	movs	r1, #7
   30a28:	3334      	adds	r3, #52	; 0x34
   30a2a:	480a      	ldr	r0, [pc, #40]	; (30a54 <appm_start_advertising+0x44>)
   30a2c:	f7f6 f916 	bl	26c5c <ke_msg_alloc>
   30a30:	23a4      	movs	r3, #164	; 0xa4
   30a32:	7003      	strb	r3, [r0, #0]
   30a34:	78e3      	ldrb	r3, [r4, #3]
   30a36:	7043      	strb	r3, [r0, #1]
   30a38:	2300      	movs	r3, #0
   30a3a:	8043      	strh	r3, [r0, #2]
   30a3c:	7103      	strb	r3, [r0, #4]
   30a3e:	f7f6 f927 	bl	26c90 <ke_msg_send>
   30a42:	2307      	movs	r3, #7
   30a44:	7123      	strb	r3, [r4, #4]
   30a46:	bd10      	pop	{r4, pc}
   30a48:	00401976 	.word	0x00401976
   30a4c:	0003f456 	.word	0x0003f456
   30a50:	0003e21d 	.word	0x0003e21d
   30a54:	00000da1 	.word	0x00000da1

00030a58 <gapm_activity_stopped_ind_handler>:
   30a58:	b537      	push	{r0, r1, r2, r4, r5, lr}
   30a5a:	000d      	movs	r5, r1
   30a5c:	780b      	ldrb	r3, [r1, #0]
   30a5e:	788a      	ldrb	r2, [r1, #2]
   30a60:	7849      	ldrb	r1, [r1, #1]
   30a62:	4815      	ldr	r0, [pc, #84]	; (30ab8 <gapm_activity_stopped_ind_handler+0x60>)
   30a64:	9100      	str	r1, [sp, #0]
   30a66:	4915      	ldr	r1, [pc, #84]	; (30abc <gapm_activity_stopped_ind_handler+0x64>)
   30a68:	f7ff fc0c 	bl	30284 <uart2_printf>
   30a6c:	4c14      	ldr	r4, [pc, #80]	; (30ac0 <gapm_activity_stopped_ind_handler+0x68>)
   30a6e:	7923      	ldrb	r3, [r4, #4]
   30a70:	2b08      	cmp	r3, #8
   30a72:	d110      	bne.n	30a96 <gapm_activity_stopped_ind_handler+0x3e>
   30a74:	78e2      	ldrb	r2, [r4, #3]
   30a76:	782b      	ldrb	r3, [r5, #0]
   30a78:	429a      	cmp	r2, r3
   30a7a:	d10c      	bne.n	30a96 <gapm_activity_stopped_ind_handler+0x3e>
   30a7c:	2306      	movs	r3, #6
   30a7e:	4811      	ldr	r0, [pc, #68]	; (30ac4 <gapm_activity_stopped_ind_handler+0x6c>)
   30a80:	7123      	strb	r3, [r4, #4]
   30a82:	3437      	adds	r4, #55	; 0x37
   30a84:	f7ff fbfe 	bl	30284 <uart2_printf>
   30a88:	7823      	ldrb	r3, [r4, #0]
   30a8a:	2b03      	cmp	r3, #3
   30a8c:	d801      	bhi.n	30a92 <gapm_activity_stopped_ind_handler+0x3a>
   30a8e:	f7ff ffbf 	bl	30a10 <appm_start_advertising>
   30a92:	2000      	movs	r0, #0
   30a94:	bd3e      	pop	{r1, r2, r3, r4, r5, pc}
   30a96:	79a3      	ldrb	r3, [r4, #6]
   30a98:	2b04      	cmp	r3, #4
   30a9a:	d105      	bne.n	30aa8 <gapm_activity_stopped_ind_handler+0x50>
   30a9c:	786b      	ldrb	r3, [r5, #1]
   30a9e:	2b01      	cmp	r3, #1
   30aa0:	d102      	bne.n	30aa8 <gapm_activity_stopped_ind_handler+0x50>
   30aa2:	3301      	adds	r3, #1
   30aa4:	71a3      	strb	r3, [r4, #6]
   30aa6:	e7f4      	b.n	30a92 <gapm_activity_stopped_ind_handler+0x3a>
   30aa8:	7a23      	ldrb	r3, [r4, #8]
   30aaa:	2b04      	cmp	r3, #4
   30aac:	d1f1      	bne.n	30a92 <gapm_activity_stopped_ind_handler+0x3a>
   30aae:	786b      	ldrb	r3, [r5, #1]
   30ab0:	2b02      	cmp	r3, #2
   30ab2:	d1ee      	bne.n	30a92 <gapm_activity_stopped_ind_handler+0x3a>
   30ab4:	7223      	strb	r3, [r4, #8]
   30ab6:	e7ec      	b.n	30a92 <gapm_activity_stopped_ind_handler+0x3a>
   30ab8:	0003e231 	.word	0x0003e231
   30abc:	0003f556 	.word	0x0003f556
   30ac0:	00401976 	.word	0x00401976
   30ac4:	0003e254 	.word	0x0003e254

00030ac8 <appm_start_scaning>:
   30ac8:	b510      	push	{r4, lr}
   30aca:	4c11      	ldr	r4, [pc, #68]	; (30b10 <appm_start_scaning+0x48>)
   30acc:	4911      	ldr	r1, [pc, #68]	; (30b14 <appm_start_scaning+0x4c>)
   30ace:	79a2      	ldrb	r2, [r4, #6]
   30ad0:	4811      	ldr	r0, [pc, #68]	; (30b18 <appm_start_scaning+0x50>)
   30ad2:	f7ff fbd7 	bl	30284 <uart2_printf>
   30ad6:	79a3      	ldrb	r3, [r4, #6]
   30ad8:	2b02      	cmp	r3, #2
   30ada:	d118      	bne.n	30b0e <appm_start_scaning+0x46>
   30adc:	2203      	movs	r2, #3
   30ade:	2107      	movs	r1, #7
   30ae0:	3338      	adds	r3, #56	; 0x38
   30ae2:	480e      	ldr	r0, [pc, #56]	; (30b1c <appm_start_scaning+0x54>)
   30ae4:	f7f6 f8ba 	bl	26c5c <ke_msg_alloc>
   30ae8:	23a4      	movs	r3, #164	; 0xa4
   30aea:	7003      	strb	r3, [r0, #0]
   30aec:	7963      	ldrb	r3, [r4, #5]
   30aee:	7043      	strb	r3, [r0, #1]
   30af0:	2332      	movs	r3, #50	; 0x32
   30af2:	80c3      	strh	r3, [r0, #6]
   30af4:	3b2d      	subs	r3, #45	; 0x2d
   30af6:	8103      	strh	r3, [r0, #8]
   30af8:	4b09      	ldr	r3, [pc, #36]	; (30b20 <appm_start_scaning+0x58>)
   30afa:	8043      	strh	r3, [r0, #2]
   30afc:	2300      	movs	r3, #0
   30afe:	7103      	strb	r3, [r0, #4]
   30b00:	81c3      	strh	r3, [r0, #14]
   30b02:	330a      	adds	r3, #10
   30b04:	8203      	strh	r3, [r0, #16]
   30b06:	f7f6 f8c3 	bl	26c90 <ke_msg_send>
   30b0a:	2303      	movs	r3, #3
   30b0c:	71a3      	strb	r3, [r4, #6]
   30b0e:	bd10      	pop	{r4, pc}
   30b10:	00401976 	.word	0x00401976
   30b14:	0003f46d 	.word	0x0003f46d
   30b18:	0003e260 	.word	0x0003e260
   30b1c:	00000da1 	.word	0x00000da1
   30b20:	00000502 	.word	0x00000502

00030b24 <app_start_scan_handler>:
   30b24:	b510      	push	{r4, lr}
   30b26:	4906      	ldr	r1, [pc, #24]	; (30b40 <app_start_scan_handler+0x1c>)
   30b28:	4806      	ldr	r0, [pc, #24]	; (30b44 <app_start_scan_handler+0x20>)
   30b2a:	f7ff fbab 	bl	30284 <uart2_printf>
   30b2e:	4b06      	ldr	r3, [pc, #24]	; (30b48 <app_start_scan_handler+0x24>)
   30b30:	799b      	ldrb	r3, [r3, #6]
   30b32:	2b02      	cmp	r3, #2
   30b34:	d101      	bne.n	30b3a <app_start_scan_handler+0x16>
   30b36:	f7ff ffc7 	bl	30ac8 <appm_start_scaning>
   30b3a:	2000      	movs	r0, #0
   30b3c:	bd10      	pop	{r4, pc}
   30b3e:	46c0      	nop			; (mov r8, r8)
   30b40:	0003f50b 	.word	0x0003f50b
   30b44:	0003e455 	.word	0x0003e455
   30b48:	00401976 	.word	0x00401976

00030b4c <flash_write_sr>:
   30b4c:	b570      	push	{r4, r5, r6, lr}
   30b4e:	000c      	movs	r4, r1
   30b50:	0005      	movs	r5, r0
   30b52:	f7fe fe11 	bl	2f778 <flash_read_sr>
   30b56:	42a0      	cmp	r0, r4
   30b58:	d007      	beq.n	30b6a <flash_write_sr+0x1e>
   30b5a:	0021      	movs	r1, r4
   30b5c:	0028      	movs	r0, r5
   30b5e:	f7fe fe2b 	bl	2f7b8 <flash_write_sr_temp>
   30b62:	f7fe fe09 	bl	2f778 <flash_read_sr>
   30b66:	4284      	cmp	r4, r0
   30b68:	d100      	bne.n	30b6c <flash_write_sr+0x20>
   30b6a:	bd70      	pop	{r4, r5, r6, pc}
   30b6c:	0021      	movs	r1, r4
   30b6e:	0028      	movs	r0, r5
   30b70:	f7fe fe22 	bl	2f7b8 <flash_write_sr_temp>
   30b74:	4a07      	ldr	r2, [pc, #28]	; (30b94 <flash_write_sr+0x48>)
   30b76:	7813      	ldrb	r3, [r2, #0]
   30b78:	3301      	adds	r3, #1
   30b7a:	061b      	lsls	r3, r3, #24
   30b7c:	0e1b      	lsrs	r3, r3, #24
   30b7e:	7013      	strb	r3, [r2, #0]
   30b80:	2b14      	cmp	r3, #20
   30b82:	d9ee      	bls.n	30b62 <flash_write_sr+0x16>
   30b84:	4804      	ldr	r0, [pc, #16]	; (30b98 <flash_write_sr+0x4c>)
   30b86:	f7ff fb7d 	bl	30284 <uart2_printf>
   30b8a:	2010      	movs	r0, #16
   30b8c:	f7fe fe7c 	bl	2f888 <wdt_enable>
   30b90:	e7fe      	b.n	30b90 <flash_write_sr+0x44>
   30b92:	46c0      	nop			; (mov r8, r8)
   30b94:	0040a24e 	.word	0x0040a24e
   30b98:	0003e278 	.word	0x0003e278

00030b9c <flash_wp_256k>:
   30b9c:	b510      	push	{r4, lr}
   30b9e:	f7fe fdeb 	bl	2f778 <flash_read_sr>
   30ba2:	4b19      	ldr	r3, [pc, #100]	; (30c08 <flash_wp_256k+0x6c>)
   30ba4:	4a19      	ldr	r2, [pc, #100]	; (30c0c <flash_wp_256k+0x70>)
   30ba6:	681b      	ldr	r3, [r3, #0]
   30ba8:	4293      	cmp	r3, r2
   30baa:	d80d      	bhi.n	30bc8 <flash_wp_256k+0x2c>
   30bac:	4a18      	ldr	r2, [pc, #96]	; (30c10 <flash_wp_256k+0x74>)
   30bae:	4293      	cmp	r3, r2
   30bb0:	d81a      	bhi.n	30be8 <flash_wp_256k+0x4c>
   30bb2:	4a18      	ldr	r2, [pc, #96]	; (30c14 <flash_wp_256k+0x78>)
   30bb4:	4293      	cmp	r3, r2
   30bb6:	d01e      	beq.n	30bf6 <flash_wp_256k+0x5a>
   30bb8:	4a17      	ldr	r2, [pc, #92]	; (30c18 <flash_wp_256k+0x7c>)
   30bba:	4293      	cmp	r3, r2
   30bbc:	d01f      	beq.n	30bfe <flash_wp_256k+0x62>
   30bbe:	2898      	cmp	r0, #152	; 0x98
   30bc0:	d01c      	beq.n	30bfc <flash_wp_256k+0x60>
   30bc2:	2198      	movs	r1, #152	; 0x98
   30bc4:	2001      	movs	r0, #1
   30bc6:	e013      	b.n	30bf0 <flash_wp_256k+0x54>
   30bc8:	4a14      	ldr	r2, [pc, #80]	; (30c1c <flash_wp_256k+0x80>)
   30bca:	4293      	cmp	r3, r2
   30bcc:	d017      	beq.n	30bfe <flash_wp_256k+0x62>
   30bce:	d806      	bhi.n	30bde <flash_wp_256k+0x42>
   30bd0:	4a13      	ldr	r2, [pc, #76]	; (30c20 <flash_wp_256k+0x84>)
   30bd2:	4293      	cmp	r3, r2
   30bd4:	d1f3      	bne.n	30bbe <flash_wp_256k+0x22>
   30bd6:	21ac      	movs	r1, #172	; 0xac
   30bd8:	28ac      	cmp	r0, #172	; 0xac
   30bda:	d00f      	beq.n	30bfc <flash_wp_256k+0x60>
   30bdc:	e007      	b.n	30bee <flash_wp_256k+0x52>
   30bde:	4a11      	ldr	r2, [pc, #68]	; (30c24 <flash_wp_256k+0x88>)
   30be0:	189b      	adds	r3, r3, r2
   30be2:	2b01      	cmp	r3, #1
   30be4:	d9f7      	bls.n	30bd6 <flash_wp_256k+0x3a>
   30be6:	e7ea      	b.n	30bbe <flash_wp_256k+0x22>
   30be8:	490f      	ldr	r1, [pc, #60]	; (30c28 <flash_wp_256k+0x8c>)
   30bea:	4288      	cmp	r0, r1
   30bec:	d006      	beq.n	30bfc <flash_wp_256k+0x60>
   30bee:	2002      	movs	r0, #2
   30bf0:	f7ff ffac 	bl	30b4c <flash_write_sr>
   30bf4:	e002      	b.n	30bfc <flash_wp_256k+0x60>
   30bf6:	21ac      	movs	r1, #172	; 0xac
   30bf8:	28ac      	cmp	r0, #172	; 0xac
   30bfa:	d1e3      	bne.n	30bc4 <flash_wp_256k+0x28>
   30bfc:	bd10      	pop	{r4, pc}
   30bfe:	282c      	cmp	r0, #44	; 0x2c
   30c00:	d0fc      	beq.n	30bfc <flash_wp_256k+0x60>
   30c02:	212c      	movs	r1, #44	; 0x2c
   30c04:	e7f3      	b.n	30bee <flash_wp_256k+0x52>
   30c06:	46c0      	nop			; (mov r8, r8)
   30c08:	00402200 	.word	0x00402200
   30c0c:	00c22314 	.word	0x00c22314
   30c10:	00c22312 	.word	0x00c22312
   30c14:	001c3113 	.word	0x001c3113
   30c18:	00856013 	.word	0x00856013
   30c1c:	00cd6013 	.word	0x00cd6013
   30c20:	00c84013 	.word	0x00c84013
   30c24:	ff1fbfed 	.word	0xff1fbfed
   30c28:	0000088c 	.word	0x0000088c

00030c2c <flash_wp_ALL>:
   30c2c:	b510      	push	{r4, lr}
   30c2e:	f7fe fda3 	bl	2f778 <flash_read_sr>
   30c32:	4b19      	ldr	r3, [pc, #100]	; (30c98 <flash_wp_ALL+0x6c>)
   30c34:	4a19      	ldr	r2, [pc, #100]	; (30c9c <flash_wp_ALL+0x70>)
   30c36:	681b      	ldr	r3, [r3, #0]
   30c38:	4293      	cmp	r3, r2
   30c3a:	d80c      	bhi.n	30c56 <flash_wp_ALL+0x2a>
   30c3c:	4a18      	ldr	r2, [pc, #96]	; (30ca0 <flash_wp_ALL+0x74>)
   30c3e:	4293      	cmp	r3, r2
   30c40:	d81c      	bhi.n	30c7c <flash_wp_ALL+0x50>
   30c42:	4a18      	ldr	r2, [pc, #96]	; (30ca4 <flash_wp_ALL+0x78>)
   30c44:	4293      	cmp	r3, r2
   30c46:	d01d      	beq.n	30c84 <flash_wp_ALL+0x58>
   30c48:	4a17      	ldr	r2, [pc, #92]	; (30ca8 <flash_wp_ALL+0x7c>)
   30c4a:	4293      	cmp	r3, r2
   30c4c:	d01f      	beq.n	30c8e <flash_wp_ALL+0x62>
   30c4e:	289c      	cmp	r0, #156	; 0x9c
   30c50:	d017      	beq.n	30c82 <flash_wp_ALL+0x56>
   30c52:	219c      	movs	r1, #156	; 0x9c
   30c54:	e019      	b.n	30c8a <flash_wp_ALL+0x5e>
   30c56:	4a15      	ldr	r2, [pc, #84]	; (30cac <flash_wp_ALL+0x80>)
   30c58:	4293      	cmp	r3, r2
   30c5a:	d018      	beq.n	30c8e <flash_wp_ALL+0x62>
   30c5c:	d809      	bhi.n	30c72 <flash_wp_ALL+0x46>
   30c5e:	4a14      	ldr	r2, [pc, #80]	; (30cb0 <flash_wp_ALL+0x84>)
   30c60:	4293      	cmp	r3, r2
   30c62:	d1f4      	bne.n	30c4e <flash_wp_ALL+0x22>
   30c64:	2194      	movs	r1, #148	; 0x94
   30c66:	2894      	cmp	r0, #148	; 0x94
   30c68:	d00b      	beq.n	30c82 <flash_wp_ALL+0x56>
   30c6a:	2002      	movs	r0, #2
   30c6c:	f7ff ff6e 	bl	30b4c <flash_write_sr>
   30c70:	e007      	b.n	30c82 <flash_wp_ALL+0x56>
   30c72:	4a10      	ldr	r2, [pc, #64]	; (30cb4 <flash_wp_ALL+0x88>)
   30c74:	189b      	adds	r3, r3, r2
   30c76:	2b01      	cmp	r3, #1
   30c78:	d9f4      	bls.n	30c64 <flash_wp_ALL+0x38>
   30c7a:	e7e8      	b.n	30c4e <flash_wp_ALL+0x22>
   30c7c:	21bc      	movs	r1, #188	; 0xbc
   30c7e:	28bc      	cmp	r0, #188	; 0xbc
   30c80:	d1f3      	bne.n	30c6a <flash_wp_ALL+0x3e>
   30c82:	bd10      	pop	{r4, pc}
   30c84:	21bc      	movs	r1, #188	; 0xbc
   30c86:	28bc      	cmp	r0, #188	; 0xbc
   30c88:	d0fb      	beq.n	30c82 <flash_wp_ALL+0x56>
   30c8a:	2001      	movs	r0, #1
   30c8c:	e7ee      	b.n	30c6c <flash_wp_ALL+0x40>
   30c8e:	2810      	cmp	r0, #16
   30c90:	d0f7      	beq.n	30c82 <flash_wp_ALL+0x56>
   30c92:	2110      	movs	r1, #16
   30c94:	e7e9      	b.n	30c6a <flash_wp_ALL+0x3e>
   30c96:	46c0      	nop			; (mov r8, r8)
   30c98:	00402200 	.word	0x00402200
   30c9c:	00c22314 	.word	0x00c22314
   30ca0:	00c22312 	.word	0x00c22312
   30ca4:	001c3113 	.word	0x001c3113
   30ca8:	00856013 	.word	0x00856013
   30cac:	00cd6013 	.word	0x00cd6013
   30cb0:	00c84013 	.word	0x00c84013
   30cb4:	ff1fbfed 	.word	0xff1fbfed

00030cb8 <nvds_erase>:
   30cb8:	23ab      	movs	r3, #171	; 0xab
   30cba:	b5f0      	push	{r4, r5, r6, r7, lr}
   30cbc:	4e29      	ldr	r6, [pc, #164]	; (30d64 <nvds_erase+0xac>)
   30cbe:	b085      	sub	sp, #20
   30cc0:	7033      	strb	r3, [r6, #0]
   30cc2:	0005      	movs	r5, r0
   30cc4:	000c      	movs	r4, r1
   30cc6:	f7fe fd37 	bl	2f738 <get_flash_ID>
   30cca:	4b27      	ldr	r3, [pc, #156]	; (30d68 <nvds_erase+0xb0>)
   30ccc:	681b      	ldr	r3, [r3, #0]
   30cce:	4298      	cmp	r0, r3
   30cd0:	d11d      	bne.n	30d0e <nvds_erase+0x56>
   30cd2:	0b2d      	lsrs	r5, r5, #12
   30cd4:	032b      	lsls	r3, r5, #12
   30cd6:	9301      	str	r3, [sp, #4]
   30cd8:	4b24      	ldr	r3, [pc, #144]	; (30d6c <nvds_erase+0xb4>)
   30cda:	4023      	ands	r3, r4
   30cdc:	d503      	bpl.n	30ce6 <nvds_erase+0x2e>
   30cde:	4a24      	ldr	r2, [pc, #144]	; (30d70 <nvds_erase+0xb8>)
   30ce0:	3b01      	subs	r3, #1
   30ce2:	4313      	orrs	r3, r2
   30ce4:	3301      	adds	r3, #1
   30ce6:	17e1      	asrs	r1, r4, #31
   30ce8:	0509      	lsls	r1, r1, #20
   30cea:	17da      	asrs	r2, r3, #31
   30cec:	0d09      	lsrs	r1, r1, #20
   30cee:	1ad3      	subs	r3, r2, r3
   30cf0:	190c      	adds	r4, r1, r4
   30cf2:	1324      	asrs	r4, r4, #12
   30cf4:	0fdb      	lsrs	r3, r3, #31
   30cf6:	191b      	adds	r3, r3, r4
   30cf8:	9302      	str	r3, [sp, #8]
   30cfa:	23bc      	movs	r3, #188	; 0xbc
   30cfc:	2400      	movs	r4, #0
   30cfe:	4d1d      	ldr	r5, [pc, #116]	; (30d74 <nvds_erase+0xbc>)
   30d00:	702b      	strb	r3, [r5, #0]
   30d02:	9b02      	ldr	r3, [sp, #8]
   30d04:	42a3      	cmp	r3, r4
   30d06:	dc04      	bgt.n	30d12 <nvds_erase+0x5a>
   30d08:	2300      	movs	r3, #0
   30d0a:	7033      	strb	r3, [r6, #0]
   30d0c:	702b      	strb	r3, [r5, #0]
   30d0e:	b005      	add	sp, #20
   30d10:	bdf0      	pop	{r4, r5, r6, r7, pc}
   30d12:	f00d f8cf 	bl	3deb4 <____disable_fiq_from_thumb>
   30d16:	0007      	movs	r7, r0
   30d18:	f00d f8ee 	bl	3def8 <____disable_irq_from_thumb>
   30d1c:	7833      	ldrb	r3, [r6, #0]
   30d1e:	9003      	str	r0, [sp, #12]
   30d20:	2bab      	cmp	r3, #171	; 0xab
   30d22:	d114      	bne.n	30d4e <nvds_erase+0x96>
   30d24:	782b      	ldrb	r3, [r5, #0]
   30d26:	2bbc      	cmp	r3, #188	; 0xbc
   30d28:	d111      	bne.n	30d4e <nvds_erase+0x96>
   30d2a:	f7ff ff37 	bl	30b9c <flash_wp_256k>
   30d2e:	4a12      	ldr	r2, [pc, #72]	; (30d78 <nvds_erase+0xc0>)
   30d30:	6813      	ldr	r3, [r2, #0]
   30d32:	2b00      	cmp	r3, #0
   30d34:	dbfc      	blt.n	30d30 <nvds_erase+0x78>
   30d36:	9901      	ldr	r1, [sp, #4]
   30d38:	0323      	lsls	r3, r4, #12
   30d3a:	185b      	adds	r3, r3, r1
   30d3c:	21b4      	movs	r1, #180	; 0xb4
   30d3e:	0589      	lsls	r1, r1, #22
   30d40:	430b      	orrs	r3, r1
   30d42:	6013      	str	r3, [r2, #0]
   30d44:	6813      	ldr	r3, [r2, #0]
   30d46:	2b00      	cmp	r3, #0
   30d48:	dbfc      	blt.n	30d44 <nvds_erase+0x8c>
   30d4a:	f7ff ff6f 	bl	30c2c <flash_wp_ALL>
   30d4e:	2f00      	cmp	r7, #0
   30d50:	d101      	bne.n	30d56 <nvds_erase+0x9e>
   30d52:	f00d f885 	bl	3de60 <____enable_fiq_from_thumb>
   30d56:	9b03      	ldr	r3, [sp, #12]
   30d58:	2b00      	cmp	r3, #0
   30d5a:	d101      	bne.n	30d60 <nvds_erase+0xa8>
   30d5c:	f00d f898 	bl	3de90 <____enable_irq_from_thumb>
   30d60:	3401      	adds	r4, #1
   30d62:	e7ce      	b.n	30d02 <nvds_erase+0x4a>
   30d64:	004021f9 	.word	0x004021f9
   30d68:	00402200 	.word	0x00402200
   30d6c:	80000fff 	.word	0x80000fff
   30d70:	fffff000 	.word	0xfffff000
   30d74:	004021fa 	.word	0x004021fa
   30d78:	00802000 	.word	0x00802000

00030d7c <flash_write_data>:
   30d7c:	b5f0      	push	{r4, r5, r6, r7, lr}
   30d7e:	b08d      	sub	sp, #52	; 0x34
   30d80:	9001      	str	r0, [sp, #4]
   30d82:	000e      	movs	r6, r1
   30d84:	0014      	movs	r4, r2
   30d86:	2100      	movs	r1, #0
   30d88:	221c      	movs	r2, #28
   30d8a:	a805      	add	r0, sp, #20
   30d8c:	f005 f9fa 	bl	36184 <memset>
   30d90:	2301      	movs	r3, #1
   30d92:	425b      	negs	r3, r3
   30d94:	9304      	str	r3, [sp, #16]
   30d96:	2c00      	cmp	r4, #0
   30d98:	d07d      	beq.n	30e96 <flash_write_data+0x11a>
   30d9a:	2380      	movs	r3, #128	; 0x80
   30d9c:	02db      	lsls	r3, r3, #11
   30d9e:	429e      	cmp	r6, r3
   30da0:	d379      	bcc.n	30e96 <flash_write_data+0x11a>
   30da2:	f00d f887 	bl	3deb4 <____disable_fiq_from_thumb>
   30da6:	9002      	str	r0, [sp, #8]
   30da8:	f00d f8a6 	bl	3def8 <____disable_irq_from_thumb>
   30dac:	4f3b      	ldr	r7, [pc, #236]	; (30e9c <flash_write_data+0x120>)
   30dae:	9003      	str	r0, [sp, #12]
   30db0:	683b      	ldr	r3, [r7, #0]
   30db2:	2b00      	cmp	r3, #0
   30db4:	dbfc      	blt.n	30db0 <flash_write_data+0x34>
   30db6:	221f      	movs	r2, #31
   30db8:	0033      	movs	r3, r6
   30dba:	4393      	bics	r3, r2
   30dbc:	9300      	str	r3, [sp, #0]
   30dbe:	4b38      	ldr	r3, [pc, #224]	; (30ea0 <flash_write_data+0x124>)
   30dc0:	32a3      	adds	r2, #163	; 0xa3
   30dc2:	701a      	strb	r2, [r3, #0]
   30dc4:	f7ff feea 	bl	30b9c <flash_wp_256k>
   30dc8:	251f      	movs	r5, #31
   30dca:	231f      	movs	r3, #31
   30dcc:	4035      	ands	r5, r6
   30dce:	421e      	tst	r6, r3
   30dd0:	d101      	bne.n	30dd6 <flash_write_data+0x5a>
   30dd2:	429c      	cmp	r4, r3
   30dd4:	d804      	bhi.n	30de0 <flash_write_data+0x64>
   30dd6:	2220      	movs	r2, #32
   30dd8:	9900      	ldr	r1, [sp, #0]
   30dda:	a804      	add	r0, sp, #16
   30ddc:	f7fe fe38 	bl	2fa50 <flash_read_data>
   30de0:	2c00      	cmp	r4, #0
   30de2:	d008      	beq.n	30df6 <flash_write_data+0x7a>
   30de4:	9b01      	ldr	r3, [sp, #4]
   30de6:	aa04      	add	r2, sp, #16
   30de8:	781b      	ldrb	r3, [r3, #0]
   30dea:	3601      	adds	r6, #1
   30dec:	54ab      	strb	r3, [r5, r2]
   30dee:	9b01      	ldr	r3, [sp, #4]
   30df0:	3c01      	subs	r4, #1
   30df2:	3301      	adds	r3, #1
   30df4:	9301      	str	r3, [sp, #4]
   30df6:	3501      	adds	r5, #1
   30df8:	2d20      	cmp	r5, #32
   30dfa:	d1f1      	bne.n	30de0 <flash_write_data+0x64>
   30dfc:	23d1      	movs	r3, #209	; 0xd1
   30dfe:	4a29      	ldr	r2, [pc, #164]	; (30ea4 <flash_write_data+0x128>)
   30e00:	4d29      	ldr	r5, [pc, #164]	; (30ea8 <flash_write_data+0x12c>)
   30e02:	7013      	strb	r3, [r2, #0]
   30e04:	2300      	movs	r3, #0
   30e06:	009a      	lsls	r2, r3, #2
   30e08:	a904      	add	r1, sp, #16
   30e0a:	5852      	ldr	r2, [r2, r1]
   30e0c:	3301      	adds	r3, #1
   30e0e:	602a      	str	r2, [r5, #0]
   30e10:	2b08      	cmp	r3, #8
   30e12:	d1f8      	bne.n	30e06 <flash_write_data+0x8a>
   30e14:	4b25      	ldr	r3, [pc, #148]	; (30eac <flash_write_data+0x130>)
   30e16:	781b      	ldrb	r3, [r3, #0]
   30e18:	2ba6      	cmp	r3, #166	; 0xa6
   30e1a:	d11a      	bne.n	30e52 <flash_write_data+0xd6>
   30e1c:	4b24      	ldr	r3, [pc, #144]	; (30eb0 <flash_write_data+0x134>)
   30e1e:	781b      	ldrb	r3, [r3, #0]
   30e20:	2bb3      	cmp	r3, #179	; 0xb3
   30e22:	d116      	bne.n	30e52 <flash_write_data+0xd6>
   30e24:	683b      	ldr	r3, [r7, #0]
   30e26:	2b00      	cmp	r3, #0
   30e28:	dbfc      	blt.n	30e24 <flash_write_data+0xa8>
   30e2a:	4b1d      	ldr	r3, [pc, #116]	; (30ea0 <flash_write_data+0x124>)
   30e2c:	781b      	ldrb	r3, [r3, #0]
   30e2e:	2bc2      	cmp	r3, #194	; 0xc2
   30e30:	d10c      	bne.n	30e4c <flash_write_data+0xd0>
   30e32:	4b1c      	ldr	r3, [pc, #112]	; (30ea4 <flash_write_data+0x128>)
   30e34:	781b      	ldrb	r3, [r3, #0]
   30e36:	2bd1      	cmp	r3, #209	; 0xd1
   30e38:	d108      	bne.n	30e4c <flash_write_data+0xd0>
   30e3a:	2380      	movs	r3, #128	; 0x80
   30e3c:	9a00      	ldr	r2, [sp, #0]
   30e3e:	02db      	lsls	r3, r3, #11
   30e40:	429a      	cmp	r2, r3
   30e42:	d328      	bcc.n	30e96 <flash_write_data+0x11a>
   30e44:	23b0      	movs	r3, #176	; 0xb0
   30e46:	059b      	lsls	r3, r3, #22
   30e48:	4313      	orrs	r3, r2
   30e4a:	603b      	str	r3, [r7, #0]
   30e4c:	683b      	ldr	r3, [r7, #0]
   30e4e:	2b00      	cmp	r3, #0
   30e50:	dbfc      	blt.n	30e4c <flash_write_data+0xd0>
   30e52:	9b00      	ldr	r3, [sp, #0]
   30e54:	3320      	adds	r3, #32
   30e56:	9300      	str	r3, [sp, #0]
   30e58:	2c00      	cmp	r4, #0
   30e5a:	d1b5      	bne.n	30dc8 <flash_write_data+0x4c>
